
arch/arm/mach-sunxi/pm/standby/resume1.elf:     file format elf32-littlearm


Disassembly of section .text:

00000000 <resume_head>:
       0:	ea00000a 	b	30 <_start>
       4:	4e4f4765 	cdpmi	7, 4, cr4, cr15, cr5, {3}
       8:	3054422e 	subscc	r4, r4, lr, lsr #4
       c:	5f0a6c39 	svcpl	0x000a6c39
      10:	00000400 	andeq	r0, r0, r0, lsl #8
      14:	00000030 	andeq	r0, r0, r0, lsr r0
      18:	30303131 	eorscc	r3, r0, r1, lsr r1
      1c:	30333231 	eorscc	r3, r3, r1, lsr r2
      20:	30333231 	eorscc	r3, r3, r1, lsr r2
      24:	30303131 	eorscc	r3, r0, r1, lsr r1
	...

00000030 <_start>:
      30:	e10f0000 	mrs	r0, CPSR
      34:	e3c0001f 	bic	r0, r0, #31
      38:	e3800013 	orr	r0, r0, #19
      3c:	e38000c0 	orr	r0, r0, #192	; 0xc0
      40:	e3c00c02 	bic	r0, r0, #512	; 0x200
      44:	e121f000 	msr	CPSR_c, r0
      48:	ee110f10 	mrc	15, 0, r0, cr1, cr0, {0}
      4c:	e3c00005 	bic	r0, r0, #5
      50:	e3c00b06 	bic	r0, r0, #6144	; 0x1800
      54:	e3c00002 	bic	r0, r0, #2
      58:	ee010f10 	mcr	15, 0, r0, cr1, cr0, {0}
      5c:	f57ff04f 	dsb	sy
      60:	f57ff06f 	isb	sy
      64:	ee100fb0 	mrc	15, 0, r0, cr0, cr0, {5}
      68:	e7e10050 	ubfx	r0, r0, #0, #2
      6c:	e2800001 	add	r0, r0, #1
      70:	e1a00400 	lsl	r0, r0, #8
      74:	e280db0f 	add	sp, r0, #15360	; 0x3c00
      78:	f57ff04f 	dsb	sy
      7c:	f57ff06f 	isb	sy
      80:	eb00006c 	bl	238 <set_pll>
      84:	eb000014 	bl	dc <resume1_c_part>
      88:	eafffffe 	b	88 <_start+0x58>

0000008c <mem_memcpy>:
      8c:	e2822003 	add	r2, r2, #3
      90:	e1a02142 	asr	r2, r2, #2
      94:	e3520000 	cmp	r2, #0
      98:	d12fff1e 	bxle	lr
      9c:	e2411004 	sub	r1, r1, #4
      a0:	e5b13004 	ldr	r3, [r1, #4]!
      a4:	e2522001 	subs	r2, r2, #1
      a8:	e4803004 	str	r3, [r0], #4
      ac:	1afffffb 	bne	a0 <mem_memcpy+0x14>
      b0:	e12fff1e 	bx	lr

000000b4 <mem_delay>:
      b4:	e92d000f 	push	{r0, r1, r2, r3}
      b8:	e3a01011 	mov	r1, #17
      bc:	e1a03000 	mov	r3, r0

000000c0 <loop2>:
      c0:	e2500001 	subs	r0, r0, #1
      c4:	8afffffd 	bhi	c0 <loop2>
      c8:	e1a00003 	mov	r0, r3
      cc:	e2511001 	subs	r1, r1, #1
      d0:	8afffffa 	bhi	c0 <loop2>
      d4:	e8bd000f 	pop	{r0, r1, r2, r3}
      d8:	e1a0f00e 	mov	pc, lr

000000dc <resume1_c_part>:
      dc:	e92d4038 	push	{r3, r4, r5, lr}
      e0:	e3a00047 	mov	r0, #71	; 0x47
      e4:	e59f411c 	ldr	r4, [pc, #284]	; 208 <resume1_c_part+0x12c>
      e8:	eb000138 	bl	5d0 <save_mem_status_nommu>
      ec:	eb000543 	bl	1600 <set_copro_default>
      f0:	e3a00048 	mov	r0, #72	; 0x48
      f4:	eb000135 	bl	5d0 <save_mem_status_nommu>
      f8:	e5943010 	ldr	r3, [r4, #16]
      fc:	e3130002 	tst	r3, #2
     100:	1a00001f 	bne	184 <resume1_c_part+0xa8>
     104:	e59f0100 	ldr	r0, [pc, #256]	; 20c <resume1_c_part+0x130>
     108:	eb000af7 	bl	2cec <mem_clk_setdiv>
     10c:	e59f00fc 	ldr	r0, [pc, #252]	; 210 <resume1_c_part+0x134>
     110:	eb000b23 	bl	2da4 <mem_clk_set_pll_factor>
     114:	eb000194 	bl	76c <change_runtime_env>
     118:	e5940014 	ldr	r0, [r4, #20]
     11c:	eb0001c1 	bl	828 <delay_ms>
     120:	e5943010 	ldr	r3, [r4, #16]
     124:	e3130002 	tst	r3, #2
     128:	1a000033 	bne	1fc <resume1_c_part+0x120>
     12c:	e59f50d4 	ldr	r5, [pc, #212]	; 208 <resume1_c_part+0x12c>
     130:	e3a00049 	mov	r0, #73	; 0x49
     134:	eb000125 	bl	5d0 <save_mem_status_nommu>
     138:	e285009c 	add	r0, r5, #156	; 0x9c
     13c:	eb0001f6 	bl	91c <restore_mmu_state>
     140:	e3a0004a 	mov	r0, #74	; 0x4a
     144:	eb0000c9 	bl	470 <save_mem_status>
     148:	e3a0004b 	mov	r0, #75	; 0x4b
     14c:	eb0000c7 	bl	470 <save_mem_status>
     150:	eb0002b5 	bl	c2c <mem_flush_tlb>
     154:	e3a00001 	mov	r0, #1
     158:	eb000ab7 	bl	2c3c <mem_clk_init>
     15c:	e5943010 	ldr	r3, [r4, #16]
     160:	e3130002 	tst	r3, #2
     164:	1a000009 	bne	190 <resume1_c_part+0xb4>
     168:	e3a0004e 	mov	r0, #78	; 0x4e
     16c:	eb0000bf 	bl	470 <save_mem_status>
     170:	e5940000 	ldr	r0, [r4]
     174:	e59f1098 	ldr	r1, [pc, #152]	; 214 <resume1_c_part+0x138>
     178:	eb00031c 	bl	df0 <jump_to_resume>
     17c:	e3a00000 	mov	r0, #0
     180:	e8bd8038 	pop	{r3, r4, r5, pc}
     184:	e59f008c 	ldr	r0, [pc, #140]	; 218 <resume1_c_part+0x13c>
     188:	eb0005db 	bl	18fc <serial_puts_nommu>
     18c:	eaffffdc 	b	104 <resume1_c_part+0x28>
     190:	e59f0084 	ldr	r0, [pc, #132]	; 21c <resume1_c_part+0x140>
     194:	eb000654 	bl	1aec <serial_puts>
     198:	eb000204 	bl	9b0 <get_cur_cluster_id>
     19c:	e1a01000 	mov	r1, r0
     1a0:	e59f0078 	ldr	r0, [pc, #120]	; 220 <resume1_c_part+0x144>
     1a4:	eb000732 	bl	1e74 <printk>
     1a8:	e5951010 	ldr	r1, [r5, #16]
     1ac:	e59f0070 	ldr	r0, [pc, #112]	; 224 <resume1_c_part+0x148>
     1b0:	eb00072f 	bl	1e74 <printk>
     1b4:	e5951014 	ldr	r1, [r5, #20]
     1b8:	e59f0068 	ldr	r0, [pc, #104]	; 228 <resume1_c_part+0x14c>
     1bc:	eb00072c 	bl	1e74 <printk>
     1c0:	e5953010 	ldr	r3, [r5, #16]
     1c4:	e3130008 	tst	r3, #8
     1c8:	e3a03000 	mov	r3, #0
     1cc:	130018b4 	movwne	r1, #2228	; 0x8b4
     1d0:	134f31c2 	movtne	r3, #61890	; 0xf1c2
     1d4:	03001824 	movweq	r1, #2084	; 0x824
     1d8:	034f31c2 	movteq	r3, #61890	; 0xf1c2
     1dc:	134f11c2 	movtne	r1, #61890	; 0xf1c2
     1e0:	159328b4 	ldrne	r2, [r3, #2228]	; 0x8b4
     1e4:	159f0040 	ldrne	r0, [pc, #64]	; 22c <resume1_c_part+0x150>
     1e8:	034f11c2 	movteq	r1, #61890	; 0xf1c2
     1ec:	059f003c 	ldreq	r0, [pc, #60]	; 230 <resume1_c_part+0x154>
     1f0:	05932824 	ldreq	r2, [r3, #2084]	; 0x824
     1f4:	eb00071e 	bl	1e74 <printk>
     1f8:	eaffffda 	b	168 <resume1_c_part+0x8c>
     1fc:	e59f0030 	ldr	r0, [pc, #48]	; 234 <resume1_c_part+0x158>
     200:	eb0005bd 	bl	18fc <serial_puts_nommu>
     204:	eaffffc8 	b	12c <resume1_c_part+0x50>
     208:	000033a0 	andeq	r3, r0, r0, lsr #7
     20c:	000033f0 	strdeq	r3, [r0], -r0
     210:	00003434 	andeq	r3, r0, r4, lsr r4
     214:	000033b8 			; <UNDEFINED> instruction: 0x000033b8
     218:	00002ffc 	strdeq	r2, [r0], -ip
     21c:	00003030 	andeq	r3, r0, r0, lsr r0
     220:	00003060 	andeq	r3, r0, r0, rrx
     224:	0000307c 	andeq	r3, r0, ip, ror r0
     228:	000030a0 	andeq	r3, r0, r0, lsr #1
     22c:	000030d0 	ldrdeq	r3, [r0], -r0
     230:	000030e8 	andeq	r3, r0, r8, ror #1
     234:	0000300c 	andeq	r3, r0, ip

00000238 <set_pll>:
     238:	e92d4038 	push	{r3, r4, r5, lr}
     23c:	ee100fb0 	mrc	15, 0, r0, cr0, cr0, {5}
     240:	e2100003 	ands	r0, r0, #3
     244:	1a00002a 	bne	2f4 <set_pll+0xbc>
     248:	e59f2108 	ldr	r2, [pc, #264]	; 358 <set_pll+0x120>
     24c:	e59f1108 	ldr	r1, [pc, #264]	; 35c <set_pll+0x124>
     250:	e5923000 	ldr	r3, [r2]
     254:	e4830004 	str	r0, [r3], #4
     258:	e1530001 	cmp	r3, r1
     25c:	9afffffc 	bls	254 <set_pll+0x1c>
     260:	e59f50f8 	ldr	r5, [pc, #248]	; 360 <set_pll+0x128>
     264:	e3a00000 	mov	r0, #0
     268:	e5823000 	str	r3, [r2]
     26c:	eb000a72 	bl	2c3c <mem_clk_init>
     270:	e1a04000 	mov	r4, r0
     274:	eb00004e 	bl	3b4 <mem_status_init_nommu>
     278:	e3a03801 	mov	r3, #65536	; 0x10000
     27c:	e3a01000 	mov	r1, #0
     280:	e5843050 	str	r3, [r4, #80]	; 0x50
     284:	e1a00005 	mov	r0, r5
     288:	e3441308 	movt	r1, #17160	; 0x4308
     28c:	e3a020c0 	mov	r2, #192	; 0xc0
     290:	ebffff7d 	bl	8c <mem_memcpy>
     294:	e5953010 	ldr	r3, [r5, #16]
     298:	e3130004 	tst	r3, #4
     29c:	1a000023 	bne	330 <set_pll+0xf8>
     2a0:	e59f00bc 	ldr	r0, [pc, #188]	; 364 <set_pll+0x12c>
     2a4:	eb000ae5 	bl	2e40 <mem_clk_set_misc>
     2a8:	e3a03c11 	mov	r3, #4352	; 0x1100
     2ac:	e3a00001 	mov	r0, #1
     2b0:	e3483200 	movt	r3, #33280	; 0x8200
     2b4:	e3a01000 	mov	r1, #0
     2b8:	e5843000 	str	r3, [r4]
     2bc:	eb000107 	bl	6e0 <init_perfcounters>
     2c0:	eb000129 	bl	76c <change_runtime_env>
     2c4:	e3a0000a 	mov	r0, #10
     2c8:	eb000156 	bl	828 <delay_ms>
     2cc:	e5950010 	ldr	r0, [r5, #16]
     2d0:	e3100002 	tst	r0, #2
     2d4:	1a000012 	bne	324 <set_pll+0xec>
     2d8:	e5943050 	ldr	r3, [r4, #80]	; 0x50
     2dc:	e3833a01 	orr	r3, r3, #4096	; 0x1000
     2e0:	e5843050 	str	r3, [r4, #80]	; 0x50
     2e4:	eb000120 	bl	76c <change_runtime_env>
     2e8:	e3a00064 	mov	r0, #100	; 0x64
     2ec:	e8bd4038 	pop	{r3, r4, r5, lr}
     2f0:	ea00012a 	b	7a0 <delay_us>
     2f4:	e3a03000 	mov	r3, #0
     2f8:	ee083f33 	mcr	15, 0, r3, cr8, cr3, {1}
     2fc:	f57ff04f 	dsb	sy
     300:	e300357d 	movw	r3, #1405	; 0x57d
     304:	e3a020ff 	mov	r2, #255	; 0xff
     308:	e340307c 	movt	r3, #124	; 0x7c
     30c:	e0803003 	add	r3, r0, r3
     310:	e1a03103 	lsl	r3, r3, #2
     314:	e5832000 	str	r2, [r3]
     318:	f57ff04f 	dsb	sy
     31c:	e320f004 	sev
     320:	eaffffec 	b	2d8 <set_pll+0xa0>
     324:	e2000008 	and	r0, r0, #8
     328:	eb000552 	bl	1878 <serial_init_nommu>
     32c:	eaffffe9 	b	2d8 <set_pll+0xa0>
     330:	e3130008 	tst	r3, #8
     334:	e3a03000 	mov	r3, #0
     338:	13032033 	movwne	r2, #12339	; 0x3033
     33c:	134031c2 	movtne	r3, #450	; 0x1c2
     340:	13402030 	movtne	r2, #48	; 0x30
     344:	034031c2 	movteq	r3, #450	; 0x1c2
     348:	03032333 	movweq	r2, #13107	; 0x3333
     34c:	158328b4 	strne	r2, [r3, #2228]	; 0x8b4
     350:	05832824 	streq	r2, [r3, #2084]	; 0x824
     354:	eaffffd1 	b	2a0 <set_pll+0x68>
     358:	00003194 	muleq	r0, r4, r1
     35c:	00003578 	andeq	r3, r0, r8, ror r5
     360:	000033a0 	andeq	r3, r0, r0, lsr #7
     364:	000033f8 	strdeq	r3, [r0], -r8

00000368 <busy_waiting>:
     368:	e24dd008 	sub	sp, sp, #8
     36c:	e3a03001 	mov	r3, #1
     370:	e58d3004 	str	r3, [sp, #4]
     374:	e59d3004 	ldr	r3, [sp, #4]
     378:	e3530001 	cmp	r3, #1
     37c:	0afffffc 	beq	374 <busy_waiting+0xc>
     380:	e28dd008 	add	sp, sp, #8
     384:	e12fff1e 	bx	lr

00000388 <save_mem_flag>:
     388:	e12fff1e 	bx	lr

0000038c <clear_mem_flag>:
     38c:	e12fff1e 	bx	lr

00000390 <mem_status_init>:
     390:	e30115f0 	movw	r1, #5616	; 0x15f0
     394:	e3033198 	movw	r3, #12696	; 0x3198
     398:	e1a02001 	mov	r2, r1
     39c:	e3403000 	movt	r3, #0
     3a0:	e34f11f0 	movt	r1, #61936	; 0xf1f0
     3a4:	e34021f0 	movt	r2, #496	; 0x1f0
     3a8:	e3a00001 	mov	r0, #1
     3ac:	e8830006 	stm	r3, {r1, r2}
     3b0:	ea0009c3 	b	2ac4 <hwspinlock_init>

000003b4 <mem_status_init_nommu>:
     3b4:	e30115f0 	movw	r1, #5616	; 0x15f0
     3b8:	e3033198 	movw	r3, #12696	; 0x3198
     3bc:	e1a02001 	mov	r2, r1
     3c0:	e3403000 	movt	r3, #0
     3c4:	e34f11f0 	movt	r1, #61936	; 0xf1f0
     3c8:	e34021f0 	movt	r2, #496	; 0x1f0
     3cc:	e3a00000 	mov	r0, #0
     3d0:	e8830006 	stm	r3, {r1, r2}
     3d4:	ea0009ba 	b	2ac4 <hwspinlock_init>

000003d8 <mem_status_clear>:
     3d8:	e92d4010 	push	{r4, lr}
     3dc:	e3a00002 	mov	r0, #2
     3e0:	e59f4080 	ldr	r4, [pc, #128]	; 468 <mem_status_clear+0x90>
     3e4:	e3041e20 	movw	r1, #20000	; 0x4e20
     3e8:	e5943000 	ldr	r3, [r4]
     3ec:	e5933000 	ldr	r3, [r3]
     3f0:	e5843008 	str	r3, [r4, #8]
     3f4:	eb0009be 	bl	2af4 <hwspin_lock_timeout>
     3f8:	e3500000 	cmp	r0, #0
     3fc:	18bd8010 	popne	{r4, pc}
     400:	e5942000 	ldr	r2, [r4]
     404:	e3a01001 	mov	r1, #1
     408:	e5943008 	ldr	r3, [r4, #8]
     40c:	e281c001 	add	ip, r1, #1
     410:	e7d13811 	bfi	r3, r1, #16, #2
     414:	e21c1003 	ands	r1, ip, #3
     418:	e5843008 	str	r3, [r4, #8]
     41c:	e5c40009 	strb	r0, [r4, #9]
     420:	e594c008 	ldr	ip, [r4, #8]
     424:	e1a0300c 	mov	r3, ip
     428:	e582c000 	str	ip, [r2]
     42c:	e7df3f9f 	bfc	r3, #31, #1
     430:	e5843008 	str	r3, [r4, #8]
     434:	e5823000 	str	r3, [r2]
     438:	e5943008 	ldr	r3, [r4, #8]
     43c:	e3833102 	orr	r3, r3, #-2147483648	; 0x80000000
     440:	e5843008 	str	r3, [r4, #8]
     444:	e5823000 	str	r3, [r2]
     448:	e5943008 	ldr	r3, [r4, #8]
     44c:	e7df3f9f 	bfc	r3, #31, #1
     450:	e5843008 	str	r3, [r4, #8]
     454:	e5823000 	str	r3, [r2]
     458:	1affffea 	bne	408 <mem_status_clear+0x30>
     45c:	e3a00002 	mov	r0, #2
     460:	e8bd4010 	pop	{r4, lr}
     464:	ea0009c1 	b	2b70 <hwspin_unlock>
     468:	00003198 	muleq	r0, r8, r1

0000046c <mem_status_exit>:
     46c:	e12fff1e 	bx	lr

00000470 <save_mem_status>:
     470:	e92d4010 	push	{r4, lr}
     474:	e24dd008 	sub	sp, sp, #8
     478:	e58d0004 	str	r0, [sp, #4]
     47c:	e3041e20 	movw	r1, #20000	; 0x4e20
     480:	e3a00002 	mov	r0, #2
     484:	eb00099a 	bl	2af4 <hwspin_lock_timeout>
     488:	e2503000 	subs	r3, r0, #0
     48c:	1a000017 	bne	4f0 <save_mem_status+0x80>
     490:	e59f2068 	ldr	r2, [pc, #104]	; 500 <save_mem_status+0x90>
     494:	e3a04001 	mov	r4, #1
     498:	e59de004 	ldr	lr, [sp, #4]
     49c:	e3a00002 	mov	r0, #2
     4a0:	e592c008 	ldr	ip, [r2, #8]
     4a4:	e5921000 	ldr	r1, [r2]
     4a8:	e7d1c814 	bfi	ip, r4, #16, #2
     4ac:	e582c008 	str	ip, [r2, #8]
     4b0:	e5c2e009 	strb	lr, [r2, #9]
     4b4:	e592e008 	ldr	lr, [r2, #8]
     4b8:	e1a0c00e 	mov	ip, lr
     4bc:	e581e000 	str	lr, [r1]
     4c0:	e7dfcf93 	bfi	ip, r3, #31, #1
     4c4:	e582c008 	str	ip, [r2, #8]
     4c8:	e581c000 	str	ip, [r1]
     4cc:	e592c008 	ldr	ip, [r2, #8]
     4d0:	e38cc102 	orr	ip, ip, #-2147483648	; 0x80000000
     4d4:	e582c008 	str	ip, [r2, #8]
     4d8:	e581c000 	str	ip, [r1]
     4dc:	e592c008 	ldr	ip, [r2, #8]
     4e0:	e7dfcf93 	bfi	ip, r3, #31, #1
     4e4:	e582c008 	str	ip, [r2, #8]
     4e8:	e581c000 	str	ip, [r1]
     4ec:	eb00099f 	bl	2b70 <hwspin_unlock>
     4f0:	f57ff04f 	dsb	sy
     4f4:	f57ff06f 	isb	sy
     4f8:	e28dd008 	add	sp, sp, #8
     4fc:	e8bd8010 	pop	{r4, pc}
     500:	00003198 	muleq	r0, r8, r1

00000504 <get_mem_status>:
     504:	e92d4010 	push	{r4, lr}
     508:	e3a02001 	mov	r2, #1
     50c:	e59f4040 	ldr	r4, [pc, #64]	; 554 <get_mem_status+0x50>
     510:	e3a00002 	mov	r0, #2
     514:	e3041e20 	movw	r1, #20000	; 0x4e20
     518:	e5943008 	ldr	r3, [r4, #8]
     51c:	e7d13812 	bfi	r3, r2, #16, #2
     520:	e5843008 	str	r3, [r4, #8]
     524:	eb000972 	bl	2af4 <hwspin_lock_timeout>
     528:	e3500000 	cmp	r0, #0
     52c:	1a000006 	bne	54c <get_mem_status+0x48>
     530:	e5943000 	ldr	r3, [r4]
     534:	e3a00002 	mov	r0, #2
     538:	e5942008 	ldr	r2, [r4, #8]
     53c:	e5832000 	str	r2, [r3]
     540:	e5933000 	ldr	r3, [r3]
     544:	e5843008 	str	r3, [r4, #8]
     548:	eb000988 	bl	2b70 <hwspin_unlock>
     54c:	e5d40008 	ldrb	r0, [r4, #8]
     550:	e8bd8010 	pop	{r4, pc}
     554:	00003198 	muleq	r0, r8, r1

00000558 <show_mem_status>:
     558:	e92d4070 	push	{r4, r5, r6, lr}
     55c:	e3a04001 	mov	r4, #1
     560:	e59f5060 	ldr	r5, [pc, #96]	; 5c8 <show_mem_status+0x70>
     564:	e1a06005 	mov	r6, r5
     568:	e5953008 	ldr	r3, [r5, #8]
     56c:	e3041e20 	movw	r1, #20000	; 0x4e20
     570:	e3a00002 	mov	r0, #2
     574:	e7d13814 	bfi	r3, r4, #16, #2
     578:	e5853008 	str	r3, [r5, #8]
     57c:	eb00095c 	bl	2af4 <hwspin_lock_timeout>
     580:	e3500000 	cmp	r0, #0
     584:	0a000007 	beq	5a8 <show_mem_status+0x50>
     588:	e1a01004 	mov	r1, r4
     58c:	e59f0038 	ldr	r0, [pc, #56]	; 5cc <show_mem_status+0x74>
     590:	e5d52008 	ldrb	r2, [r5, #8]
     594:	e2844001 	add	r4, r4, #1
     598:	eb000635 	bl	1e74 <printk>
     59c:	e3540004 	cmp	r4, #4
     5a0:	1afffff0 	bne	568 <show_mem_status+0x10>
     5a4:	e8bd8070 	pop	{r4, r5, r6, pc}
     5a8:	e5963000 	ldr	r3, [r6]
     5ac:	e3a00002 	mov	r0, #2
     5b0:	e5962008 	ldr	r2, [r6, #8]
     5b4:	e5832000 	str	r2, [r3]
     5b8:	e5933000 	ldr	r3, [r3]
     5bc:	e5863008 	str	r3, [r6, #8]
     5c0:	eb00096a 	bl	2b70 <hwspin_unlock>
     5c4:	eaffffef 	b	588 <show_mem_status+0x30>
     5c8:	00003198 	muleq	r0, r8, r1
     5cc:	00003100 	andeq	r3, r0, r0, lsl #2

000005d0 <save_mem_status_nommu>:
     5d0:	e92d4030 	push	{r4, r5, lr}
     5d4:	e24dd00c 	sub	sp, sp, #12
     5d8:	e58d0004 	str	r0, [sp, #4]
     5dc:	e3041e20 	movw	r1, #20000	; 0x4e20
     5e0:	e3a00002 	mov	r0, #2
     5e4:	eb00096d 	bl	2ba0 <hwspin_lock_timeout_nommu>
     5e8:	e250c000 	subs	ip, r0, #0
     5ec:	0a000001 	beq	5f8 <save_mem_status_nommu+0x28>
     5f0:	e28dd00c 	add	sp, sp, #12
     5f4:	e8bd8030 	pop	{r4, r5, pc}
     5f8:	e59f3060 	ldr	r3, [pc, #96]	; 660 <save_mem_status_nommu+0x90>
     5fc:	e3a05001 	mov	r5, #1
     600:	e59d4004 	ldr	r4, [sp, #4]
     604:	e3a00002 	mov	r0, #2
     608:	e593100c 	ldr	r1, [r3, #12]
     60c:	e5932004 	ldr	r2, [r3, #4]
     610:	e7d11815 	bfi	r1, r5, #16, #2
     614:	e583100c 	str	r1, [r3, #12]
     618:	e5c3400d 	strb	r4, [r3, #13]
     61c:	e593400c 	ldr	r4, [r3, #12]
     620:	e1a01004 	mov	r1, r4
     624:	e5824000 	str	r4, [r2]
     628:	e7df1f9c 	bfi	r1, ip, #31, #1
     62c:	e583100c 	str	r1, [r3, #12]
     630:	e5821000 	str	r1, [r2]
     634:	e593100c 	ldr	r1, [r3, #12]
     638:	e3811102 	orr	r1, r1, #-2147483648	; 0x80000000
     63c:	e583100c 	str	r1, [r3, #12]
     640:	e5821000 	str	r1, [r2]
     644:	e593100c 	ldr	r1, [r3, #12]
     648:	e7df1f9c 	bfi	r1, ip, #31, #1
     64c:	e583100c 	str	r1, [r3, #12]
     650:	e5821000 	str	r1, [r2]
     654:	e28dd00c 	add	sp, sp, #12
     658:	e8bd4030 	pop	{r4, r5, lr}
     65c:	ea00096a 	b	2c0c <hwspin_unlock_nommu>
     660:	00003198 	muleq	r0, r8, r1

00000664 <io_init>:
     664:	e3a03000 	mov	r3, #0
     668:	e3012111 	movw	r2, #4369	; 0x1111
     66c:	e34f31c2 	movt	r3, #61890	; 0xf1c2
     670:	e3402011 	movt	r2, #17
     674:	e5832890 	str	r2, [r3, #2192]	; 0x890
     678:	e12fff1e 	bx	lr

0000067c <io_init_high>:
     67c:	e3a03000 	mov	r3, #0
     680:	e34f31c2 	movt	r3, #61890	; 0xf1c2
     684:	e59328a0 	ldr	r2, [r3, #2208]	; 0x8a0
     688:	e382203f 	orr	r2, r2, #63	; 0x3f
     68c:	e58328a0 	str	r2, [r3, #2208]	; 0x8a0
     690:	e12fff1e 	bx	lr

00000694 <io_init_low>:
     694:	e3a03000 	mov	r3, #0
     698:	e34f31c2 	movt	r3, #61890	; 0xf1c2
     69c:	e59328a0 	ldr	r2, [r3, #2208]	; 0x8a0
     6a0:	e3c2203f 	bic	r2, r2, #63	; 0x3f
     6a4:	e58328a0 	str	r2, [r3, #2208]	; 0x8a0
     6a8:	e12fff1e 	bx	lr

000006ac <io_high>:
     6ac:	e92d4070 	push	{r4, r5, r6, lr}
     6b0:	e3a04000 	mov	r4, #0
     6b4:	e34f41c2 	movt	r4, #61890	; 0xf1c2
     6b8:	e3a05001 	mov	r5, #1
     6bc:	e1a05015 	lsl	r5, r5, r0
     6c0:	e3020710 	movw	r0, #10000	; 0x2710
     6c4:	e59468a0 	ldr	r6, [r4, #2208]	; 0x8a0
     6c8:	e1c66005 	bic	r6, r6, r5
     6cc:	e58468a0 	str	r6, [r4, #2208]	; 0x8a0
     6d0:	e1865005 	orr	r5, r6, r5
     6d4:	eb000031 	bl	7a0 <delay_us>
     6d8:	e58458a0 	str	r5, [r4, #2208]	; 0x8a0
     6dc:	e8bd8070 	pop	{r4, r5, r6, pc}

000006e0 <init_perfcounters>:
     6e0:	e3500000 	cmp	r0, #0
     6e4:	13a00007 	movne	r0, #7
     6e8:	03a00001 	moveq	r0, #1
     6ec:	e3510000 	cmp	r1, #0
     6f0:	13800008 	orrne	r0, r0, #8
     6f4:	e3800010 	orr	r0, r0, #16
     6f8:	ee090f1c 	mcr	15, 0, r0, cr9, cr12, {0}
     6fc:	e3a0313e 	mov	r3, #-2147483633	; 0x8000000f
     700:	ee093f3c 	mcr	15, 0, r3, cr9, cr12, {1}
     704:	ee093f7c 	mcr	15, 0, r3, cr9, cr12, {3}
     708:	f57ff04f 	dsb	sy
     70c:	f57ff06f 	isb	sy
     710:	e12fff1e 	bx	lr

00000714 <backup_perfcounter>:
     714:	ee192f1c 	mrc	15, 0, r2, cr9, cr12, {0}
     718:	e30331ac 	movw	r3, #12716	; 0x31ac
     71c:	e3403000 	movt	r3, #0
     720:	e5832000 	str	r2, [r3]
     724:	ee192f3c 	mrc	15, 0, r2, cr9, cr12, {1}
     728:	e5832004 	str	r2, [r3, #4]
     72c:	e12fff1e 	bx	lr

00000730 <restore_perfcounter>:
     730:	e30331ac 	movw	r3, #12716	; 0x31ac
     734:	e3403000 	movt	r3, #0
     738:	e5933000 	ldr	r3, [r3]
     73c:	ee093f1c 	mcr	15, 0, r3, cr9, cr12, {0}
     740:	e30331ac 	movw	r3, #12716	; 0x31ac
     744:	e3403000 	movt	r3, #0
     748:	e5933004 	ldr	r3, [r3, #4]
     74c:	ee093f3c 	mcr	15, 0, r3, cr9, cr12, {1}
     750:	e12fff1e 	bx	lr

00000754 <get_cyclecount>:
     754:	ee190f1d 	mrc	15, 0, r0, cr9, cr13, {0}
     758:	e12fff1e 	bx	lr

0000075c <reset_counter>:
     75c:	ee193f1c 	mrc	15, 0, r3, cr9, cr12, {0}
     760:	e3833004 	orr	r3, r3, #4
     764:	ee093f1c 	mcr	15, 0, r3, cr9, cr12, {0}
     768:	e12fff1e 	bx	lr

0000076c <change_runtime_env>:
     76c:	e92d4010 	push	{r4, lr}
     770:	ee192f1d 	mrc	15, 0, r2, cr9, cr13, {0}
     774:	ee193f1d 	mrc	15, 0, r3, cr9, cr13, {0}
     778:	e59f401c 	ldr	r4, [pc, #28]	; 79c <change_runtime_env+0x30>
     77c:	e1520003 	cmp	r2, r3
     780:	81e02002 	mvnhi	r2, r2
     784:	90623003 	rsbls	r3, r2, r3
     788:	80823003 	addhi	r3, r2, r3
     78c:	e5843008 	str	r3, [r4, #8]
     790:	eb0009fb 	bl	2f84 <mem_clk_get_cpu_freq>
     794:	e584000c 	str	r0, [r4, #12]
     798:	e8bd8010 	pop	{r4, pc}
     79c:	000031ac 	andeq	r3, r0, ip, lsr #3

000007a0 <delay_us>:
     7a0:	e92d4038 	push	{r3, r4, r5, lr}
     7a4:	e1a05000 	mov	r5, r0
     7a8:	e59f4074 	ldr	r4, [pc, #116]	; 824 <delay_us+0x84>
     7ac:	e594000c 	ldr	r0, [r4, #12]
     7b0:	e3500ffa 	cmp	r0, #1000	; 0x3e8
     7b4:	8a000002 	bhi	7c4 <delay_us+0x24>
     7b8:	f57ff05f 	dmb	sy
     7bc:	f57ff06f 	isb	sy
     7c0:	e8bd8038 	pop	{r3, r4, r5, pc}
     7c4:	e3a01ffa 	mov	r1, #1000	; 0x3e8
     7c8:	eb00078b 	bl	25fc <raw_lib_udiv>
     7cc:	ee193f1d 	mrc	15, 0, r3, cr9, cr13, {0}
     7d0:	e5942008 	ldr	r2, [r4, #8]
     7d4:	e0255590 	mla	r5, r0, r5, r5
     7d8:	e0622003 	rsb	r2, r2, r3
     7dc:	e0825005 	add	r5, r2, r5
     7e0:	ee192f3c 	mrc	15, 0, r2, cr9, cr12, {1}
     7e4:	e202213e 	and	r2, r2, #-2147483633	; 0x8000000f
     7e8:	e352013e 	cmp	r2, #-2147483633	; 0x8000000f
     7ec:	0a000008 	beq	814 <delay_us+0x74>
     7f0:	e3a02017 	mov	r2, #23
     7f4:	ee092f1c 	mcr	15, 0, r2, cr9, cr12, {0}
     7f8:	e3a0213e 	mov	r2, #-2147483633	; 0x8000000f
     7fc:	ee092f3c 	mcr	15, 0, r2, cr9, cr12, {1}
     800:	ee092f7c 	mcr	15, 0, r2, cr9, cr12, {3}
     804:	f57ff04f 	dsb	sy
     808:	f57ff06f 	isb	sy
     80c:	ea000000 	b	814 <delay_us+0x74>
     810:	ee193f1d 	mrc	15, 0, r3, cr9, cr13, {0}
     814:	e0653003 	rsb	r3, r5, r3
     818:	e3530000 	cmp	r3, #0
     81c:	bafffffb 	blt	810 <delay_us+0x70>
     820:	eaffffe4 	b	7b8 <delay_us+0x18>
     824:	000031ac 	andeq	r3, r0, ip, lsr #3

00000828 <delay_ms>:
     828:	e350000a 	cmp	r0, #10
     82c:	e92d4010 	push	{r4, lr}
     830:	e1a04000 	mov	r4, r0
     834:	9a000004 	bls	84c <delay_ms+0x24>
     838:	e3020710 	movw	r0, #10000	; 0x2710
     83c:	e244400a 	sub	r4, r4, #10
     840:	ebffffd6 	bl	7a0 <delay_us>
     844:	e354000a 	cmp	r4, #10
     848:	8afffffa 	bhi	838 <delay_ms+0x10>
     84c:	e3a00ffa 	mov	r0, #1000	; 0x3e8
     850:	e0000490 	mul	r0, r0, r4
     854:	e8bd4010 	pop	{r4, lr}
     858:	eaffffd0 	b	7a0 <delay_us>

0000085c <init_event_counter>:
     85c:	e3500000 	cmp	r0, #0
     860:	13a00007 	movne	r0, #7
     864:	03a00001 	moveq	r0, #1
     868:	e3510000 	cmp	r1, #0
     86c:	13800008 	orrne	r0, r0, #8
     870:	e3800010 	orr	r0, r0, #16
     874:	ee090f1c 	mcr	15, 0, r0, cr9, cr12, {0}
     878:	e3a0313e 	mov	r3, #-2147483633	; 0x8000000f
     87c:	ee093f3c 	mcr	15, 0, r3, cr9, cr12, {1}
     880:	ee093f7c 	mcr	15, 0, r3, cr9, cr12, {3}
     884:	e12fff1e 	bx	lr

00000888 <set_event_counter>:
     888:	e2403002 	sub	r3, r0, #2
     88c:	e3530003 	cmp	r3, #3
     890:	959f2018 	ldrls	r2, [pc, #24]	; 8b0 <set_event_counter+0x28>
     894:	83a03000 	movhi	r3, #0
     898:	97923103 	ldrls	r3, [r2, r3, lsl #2]
     89c:	ee093fbc 	mcr	15, 0, r3, cr9, cr12, {5}
     8a0:	ee090f3d 	mcr	15, 0, r0, cr9, cr13, {1}
     8a4:	f57ff04f 	dsb	sy
     8a8:	f57ff06f 	isb	sy
     8ac:	e12fff1e 	bx	lr
     8b0:	00002fe0 	andeq	r2, r0, r0, ror #31

000008b4 <get_event_counter>:
     8b4:	e2400002 	sub	r0, r0, #2
     8b8:	e3500003 	cmp	r0, #3
     8bc:	959f3018 	ldrls	r3, [pc, #24]	; 8dc <get_event_counter+0x28>
     8c0:	83a03000 	movhi	r3, #0
     8c4:	97933100 	ldrls	r3, [r3, r0, lsl #2]
     8c8:	ee093fbc 	mcr	15, 0, r3, cr9, cr12, {5}
     8cc:	ee190f5d 	mrc	15, 0, r0, cr9, cr13, {2}
     8d0:	f57ff04f 	dsb	sy
     8d4:	f57ff06f 	isb	sy
     8d8:	e12fff1e 	bx	lr
     8dc:	00002fe0 	andeq	r2, r0, r0, ror #31

000008e0 <save_mmu_state>:
     8e0:	ee503f10 	mrc	15, 2, r3, cr0, cr0, {0}
     8e4:	e5803000 	str	r3, [r0]
     8e8:	ee113f50 	mrc	15, 0, r3, cr1, cr0, {2}
     8ec:	e5803008 	str	r3, [r0, #8]
     8f0:	ee133f10 	mrc	15, 0, r3, cr3, cr0, {0}
     8f4:	e5803018 	str	r3, [r0, #24]
     8f8:	ee123f10 	mrc	15, 0, r3, cr2, cr0, {0}
     8fc:	e580300c 	str	r3, [r0, #12]
     900:	ee123f30 	mrc	15, 0, r3, cr2, cr0, {1}
     904:	e5803010 	str	r3, [r0, #16]
     908:	ee123f50 	mrc	15, 0, r3, cr2, cr0, {2}
     90c:	e5803014 	str	r3, [r0, #20]
     910:	ee113f10 	mrc	15, 0, r3, cr1, cr0, {0}
     914:	e5803004 	str	r3, [r0, #4]
     918:	e12fff1e 	bx	lr

0000091c <restore_mmu_state>:
     91c:	e5903000 	ldr	r3, [r0]
     920:	ee403f10 	mcr	15, 2, r3, cr0, cr0, {0}
     924:	e5903008 	ldr	r3, [r0, #8]
     928:	ee013f50 	mcr	15, 0, r3, cr1, cr0, {2}
     92c:	e5903018 	ldr	r3, [r0, #24]
     930:	ee033f10 	mcr	15, 0, r3, cr3, cr0, {0}
     934:	e5903010 	ldr	r3, [r0, #16]
     938:	ee023f10 	mcr	15, 0, r3, cr2, cr0, {0}
     93c:	ee023f30 	mcr	15, 0, r3, cr2, cr0, {1}
     940:	e5903014 	ldr	r3, [r0, #20]
     944:	ee023f50 	mcr	15, 0, r3, cr2, cr0, {2}
     948:	ea000004 	b	960 <__turn_mmu_on>
     94c:	e320f000 	nop	{0}
     950:	e320f000 	nop	{0}
     954:	e320f000 	nop	{0}
     958:	e320f000 	nop	{0}
     95c:	e320f000 	nop	{0}

00000960 <__turn_mmu_on>:
     960:	e1a00000 	nop			; (mov r0, r0)
     964:	e5903004 	ldr	r3, [r0, #4]
     968:	ee013f10 	mcr	15, 0, r3, cr1, cr0, {0}
     96c:	ee103f10 	mrc	15, 0, r3, cr0, cr0, {0}
     970:	e1a03003 	mov	r3, r3
     974:	e1a03003 	mov	r3, r3
     978:	f57ff06f 	isb	sy
     97c:	e12fff1e 	bx	lr

00000980 <save_sp>:
     980:	e1a0000d 	mov	r0, sp
     984:	e59fd4bc 	ldr	sp, [pc, #1212]	; e48 <jump_to_resume0_nommu+0x28>
     988:	e1a0f00e 	mov	pc, lr

0000098c <save_sp_nommu>:
     98c:	e1a0000d 	mov	r0, sp
     990:	e59fd4b4 	ldr	sp, [pc, #1204]	; e4c <jump_to_resume0_nommu+0x2c>
     994:	e1a0f00e 	mov	pc, lr

00000998 <restore_sp>:
     998:	e1a0d000 	mov	sp, r0
     99c:	e1a0f00e 	mov	pc, lr

000009a0 <get_sp>:
     9a0:	e1a0000d 	mov	r0, sp
     9a4:	e1a0f00e 	mov	pc, lr
     9a8:	e320f000 	nop	{0}
     9ac:	e320f000 	nop	{0}

000009b0 <get_cur_cluster_id>:
     9b0:	ee100fb0 	mrc	15, 0, r0, cr0, cr0, {5}
     9b4:	e7e30450 	ubfx	r0, r0, #8, #4
     9b8:	e1a0f00e 	mov	pc, lr
     9bc:	e320f000 	nop	{0}

000009c0 <invalidate_dcache>:
     9c0:	f57ff05f 	dmb	sy
     9c4:	ee300f30 	mrc	15, 1, r0, cr0, cr0, {1}
     9c8:	e2103407 	ands	r3, r0, #117440512	; 0x7000000
     9cc:	e1a03ba3 	lsr	r3, r3, #23
     9d0:	0a00001a 	beq	a40 <inv_finished>
     9d4:	e3a0a000 	mov	sl, #0

000009d8 <inv_loop1>:
     9d8:	e08a20aa 	add	r2, sl, sl, lsr #1
     9dc:	e1a01230 	lsr	r1, r0, r2
     9e0:	e2011007 	and	r1, r1, #7
     9e4:	e3510002 	cmp	r1, #2
     9e8:	ba000011 	blt	a34 <inv_skip>
     9ec:	ee40af10 	mcr	15, 2, sl, cr0, cr0, {0}
     9f0:	f57ff06f 	isb	sy
     9f4:	ee301f10 	mrc	15, 1, r1, cr0, cr0, {0}
     9f8:	e2012007 	and	r2, r1, #7
     9fc:	e2822004 	add	r2, r2, #4
     a00:	e59f4448 	ldr	r4, [pc, #1096]	; e50 <jump_to_resume0_nommu+0x30>
     a04:	e01441a1 	ands	r4, r4, r1, lsr #3
     a08:	e16f5f14 	clz	r5, r4
     a0c:	e59f7440 	ldr	r7, [pc, #1088]	; e54 <jump_to_resume0_nommu+0x34>
     a10:	e01776a1 	ands	r7, r7, r1, lsr #13

00000a14 <inv_loop2>:
     a14:	e1a09004 	mov	r9, r4

00000a18 <inv_loop3>:
     a18:	e18ab519 	orr	fp, sl, r9, lsl r5
     a1c:	e18bb217 	orr	fp, fp, r7, lsl r2
     a20:	ee07bf56 	mcr	15, 0, fp, cr7, cr6, {2}
     a24:	e2599001 	subs	r9, r9, #1
     a28:	aafffffa 	bge	a18 <inv_loop3>
     a2c:	e2577001 	subs	r7, r7, #1
     a30:	aafffff7 	bge	a14 <inv_loop2>

00000a34 <inv_skip>:
     a34:	e28aa002 	add	sl, sl, #2
     a38:	e153000a 	cmp	r3, sl
     a3c:	caffffe5 	bgt	9d8 <inv_loop1>

00000a40 <inv_finished>:
     a40:	e3a0a000 	mov	sl, #0
     a44:	ee40af10 	mcr	15, 2, sl, cr0, cr0, {0}
     a48:	f57ff04f 	dsb	sy
     a4c:	f57ff06f 	isb	sy
     a50:	e1a0f00e 	mov	pc, lr

00000a54 <invalidate_icache>:
     a54:	e3a00000 	mov	r0, #0
     a58:	ee070f11 	mcr	15, 0, r0, cr7, cr1, {0}
     a5c:	ee070f15 	mcr	15, 0, r0, cr7, cr5, {0}
     a60:	f57ff04f 	dsb	sy
     a64:	f57ff06f 	isb	sy
     a68:	e1a0f00e 	mov	pc, lr

00000a6c <flush_dcache>:
     a6c:	e92d1fff 	push	{r0, r1, r2, r3, r4, r5, r6, r7, r8, r9, sl, fp, ip}
     a70:	f57ff05f 	dmb	sy
     a74:	ee300f30 	mrc	15, 1, r0, cr0, cr0, {1}
     a78:	e2103407 	ands	r3, r0, #117440512	; 0x7000000
     a7c:	e1a03ba3 	lsr	r3, r3, #23
     a80:	0a00001a 	beq	af0 <finished>
     a84:	e3a0a000 	mov	sl, #0

00000a88 <loop1>:
     a88:	e08a20aa 	add	r2, sl, sl, lsr #1
     a8c:	e1a01230 	lsr	r1, r0, r2
     a90:	e2011007 	and	r1, r1, #7
     a94:	e3510002 	cmp	r1, #2
     a98:	ba000011 	blt	ae4 <skip>
     a9c:	ee40af10 	mcr	15, 2, sl, cr0, cr0, {0}
     aa0:	f57ff06f 	isb	sy
     aa4:	ee301f10 	mrc	15, 1, r1, cr0, cr0, {0}
     aa8:	e2012007 	and	r2, r1, #7
     aac:	e2822004 	add	r2, r2, #4
     ab0:	e59f4398 	ldr	r4, [pc, #920]	; e50 <jump_to_resume0_nommu+0x30>
     ab4:	e01441a1 	ands	r4, r4, r1, lsr #3
     ab8:	e16f5f14 	clz	r5, r4
     abc:	e59f7390 	ldr	r7, [pc, #912]	; e54 <jump_to_resume0_nommu+0x34>
     ac0:	e01776a1 	ands	r7, r7, r1, lsr #13

00000ac4 <loop2>:
     ac4:	e1a09004 	mov	r9, r4

00000ac8 <loop3>:
     ac8:	e18ab519 	orr	fp, sl, r9, lsl r5
     acc:	e18bb217 	orr	fp, fp, r7, lsl r2
     ad0:	ee07bf5e 	mcr	15, 0, fp, cr7, cr14, {2}
     ad4:	e2599001 	subs	r9, r9, #1
     ad8:	aafffffa 	bge	ac8 <loop3>
     adc:	e2577001 	subs	r7, r7, #1
     ae0:	aafffff7 	bge	ac4 <loop2>

00000ae4 <skip>:
     ae4:	e28aa002 	add	sl, sl, #2
     ae8:	e153000a 	cmp	r3, sl
     aec:	caffffe5 	bgt	a88 <loop1>

00000af0 <finished>:
     af0:	e3a0a000 	mov	sl, #0
     af4:	ee40af10 	mcr	15, 2, sl, cr0, cr0, {0}
     af8:	f57ff04f 	dsb	sy
     afc:	f57ff06f 	isb	sy
     b00:	e8bd1fff 	pop	{r0, r1, r2, r3, r4, r5, r6, r7, r8, r9, sl, fp, ip}
     b04:	e1a0f00e 	mov	pc, lr

00000b08 <flush_icache>:
     b08:	e92d000f 	push	{r0, r1, r2, r3}
     b0c:	e3a00000 	mov	r0, #0
     b10:	ee070f15 	mcr	15, 0, r0, cr7, cr5, {0}
     b14:	ee070f11 	mcr	15, 0, r0, cr7, cr1, {0}
     b18:	ee070fd1 	mcr	15, 0, r0, cr7, cr1, {6}
     b1c:	f57ff06f 	isb	sy
     b20:	f57ff04f 	dsb	sy
     b24:	e8bd000f 	pop	{r0, r1, r2, r3}
     b28:	e1a0f00e 	mov	pc, lr

00000b2c <disable_cache>:
     b2c:	e92d000f 	push	{r0, r1, r2, r3}
     b30:	ee110f10 	mrc	15, 0, r0, cr1, cr0, {0}
     b34:	e3c00a01 	bic	r0, r0, #4096	; 0x1000
     b38:	e3c00004 	bic	r0, r0, #4
     b3c:	ee010f10 	mcr	15, 0, r0, cr1, cr0, {0}
     b40:	f57ff06f 	isb	sy
     b44:	e8bd000f 	pop	{r0, r1, r2, r3}
     b48:	e1a0f00e 	mov	pc, lr

00000b4c <disable_dcache>:
     b4c:	e92d000f 	push	{r0, r1, r2, r3}
     b50:	ee110f10 	mrc	15, 0, r0, cr1, cr0, {0}
     b54:	e3c00004 	bic	r0, r0, #4
     b58:	ee010f10 	mcr	15, 0, r0, cr1, cr0, {0}
     b5c:	f57ff06f 	isb	sy
     b60:	e8bd000f 	pop	{r0, r1, r2, r3}
     b64:	e1a0f00e 	mov	pc, lr

00000b68 <disable_icache>:
     b68:	e92d000f 	push	{r0, r1, r2, r3}
     b6c:	ee110f10 	mrc	15, 0, r0, cr1, cr0, {0}
     b70:	e3c00a01 	bic	r0, r0, #4096	; 0x1000
     b74:	ee010f10 	mcr	15, 0, r0, cr1, cr0, {0}
     b78:	f57ff06f 	isb	sy
     b7c:	e8bd000f 	pop	{r0, r1, r2, r3}
     b80:	e1a0f00e 	mov	pc, lr

00000b84 <disable_l2cache>:
     b84:	e92d000f 	push	{r0, r1, r2, r3}
     b88:	ee110f30 	mrc	15, 0, r0, cr1, cr0, {1}
     b8c:	e3c00002 	bic	r0, r0, #2
     b90:	ee010f30 	mcr	15, 0, r0, cr1, cr0, {1}
     b94:	f57ff06f 	isb	sy
     b98:	e8bd000f 	pop	{r0, r1, r2, r3}
     b9c:	e1a0f00e 	mov	pc, lr

00000ba0 <enable_cache>:
     ba0:	e92d000f 	push	{r0, r1, r2, r3}
     ba4:	ee110f10 	mrc	15, 0, r0, cr1, cr0, {0}
     ba8:	e3800a01 	orr	r0, r0, #4096	; 0x1000
     bac:	e3800004 	orr	r0, r0, #4
     bb0:	ee010f10 	mcr	15, 0, r0, cr1, cr0, {0}
     bb4:	f57ff06f 	isb	sy
     bb8:	e8bd000f 	pop	{r0, r1, r2, r3}
     bbc:	e1a0f00e 	mov	pc, lr

00000bc0 <enable_icache>:
     bc0:	e92d000f 	push	{r0, r1, r2, r3}
     bc4:	ee110f10 	mrc	15, 0, r0, cr1, cr0, {0}
     bc8:	e3800a01 	orr	r0, r0, #4096	; 0x1000
     bcc:	ee010f10 	mcr	15, 0, r0, cr1, cr0, {0}
     bd0:	f57ff06f 	isb	sy
     bd4:	e8bd000f 	pop	{r0, r1, r2, r3}
     bd8:	e1a0f00e 	mov	pc, lr

00000bdc <invalidate_branch_predictor>:
     bdc:	e92d000f 	push	{r0, r1, r2, r3}
     be0:	e3a00000 	mov	r0, #0
     be4:	ee070fd5 	mcr	15, 0, r0, cr7, cr5, {6}
     be8:	f57ff06f 	isb	sy
     bec:	e8bd000f 	pop	{r0, r1, r2, r3}
     bf0:	e1a0f00e 	mov	pc, lr

00000bf4 <disable_program_flow_prediction>:
     bf4:	e92d000f 	push	{r0, r1, r2, r3}
     bf8:	ee110f10 	mrc	15, 0, r0, cr1, cr0, {0}
     bfc:	e3c00b02 	bic	r0, r0, #2048	; 0x800
     c00:	ee010f10 	mcr	15, 0, r0, cr1, cr0, {0}
     c04:	f57ff06f 	isb	sy
     c08:	e8bd000f 	pop	{r0, r1, r2, r3}
     c0c:	e1a0f00e 	mov	pc, lr

00000c10 <enable_program_flow_prediction>:
     c10:	e92d000f 	push	{r0, r1, r2, r3}
     c14:	ee110f10 	mrc	15, 0, r0, cr1, cr0, {0}
     c18:	e3800b02 	orr	r0, r0, #2048	; 0x800
     c1c:	ee010f10 	mcr	15, 0, r0, cr1, cr0, {0}
     c20:	f57ff06f 	isb	sy
     c24:	e8bd000f 	pop	{r0, r1, r2, r3}
     c28:	e1a0f00e 	mov	pc, lr

00000c2c <mem_flush_tlb>:
     c2c:	e92d000f 	push	{r0, r1, r2, r3}
     c30:	e3a00000 	mov	r0, #0
     c34:	ee080f15 	mcr	15, 0, r0, cr8, cr5, {0}
     c38:	ee080f16 	mcr	15, 0, r0, cr8, cr6, {0}
     c3c:	ee080f13 	mcr	15, 0, r0, cr8, cr3, {0}
     c40:	f57ff04f 	dsb	sy
     c44:	f57ff06f 	isb	sy
     c48:	e8bd000f 	pop	{r0, r1, r2, r3}
     c4c:	e1a0f00e 	mov	pc, lr

00000c50 <mem_preload_tlb>:
     c50:	e92d000f 	push	{r0, r1, r2, r3}
     c54:	e3a0020f 	mov	r0, #-268435456	; 0xf0000000
     c58:	e5901000 	ldr	r1, [r0]
     c5c:	e59f01f4 	ldr	r0, [pc, #500]	; e58 <jump_to_resume0_nommu+0x38>
     c60:	e5901000 	ldr	r1, [r0]
     c64:	e59f01f0 	ldr	r0, [pc, #496]	; e5c <jump_to_resume0_nommu+0x3c>
     c68:	e5901000 	ldr	r1, [r0]
     c6c:	e59f01ec 	ldr	r0, [pc, #492]	; e60 <jump_to_resume0_nommu+0x40>
     c70:	e5901000 	ldr	r1, [r0]
     c74:	e59f01e8 	ldr	r0, [pc, #488]	; e64 <jump_to_resume0_nommu+0x44>
     c78:	e5901000 	ldr	r1, [r0]
     c7c:	e59f01e4 	ldr	r0, [pc, #484]	; e68 <jump_to_resume0_nommu+0x48>
     c80:	e5901000 	ldr	r1, [r0]
     c84:	e59f01e0 	ldr	r0, [pc, #480]	; e6c <jump_to_resume0_nommu+0x4c>
     c88:	e5901000 	ldr	r1, [r0]
     c8c:	e59f01dc 	ldr	r0, [pc, #476]	; e70 <jump_to_resume0_nommu+0x50>
     c90:	e5901000 	ldr	r1, [r0]
     c94:	e59f01d8 	ldr	r0, [pc, #472]	; e74 <jump_to_resume0_nommu+0x54>
     c98:	e5901000 	ldr	r1, [r0]
     c9c:	e59f01d4 	ldr	r0, [pc, #468]	; e78 <jump_to_resume0_nommu+0x58>
     ca0:	e5901000 	ldr	r1, [r0]
     ca4:	e59f01d0 	ldr	r0, [pc, #464]	; e7c <jump_to_resume0_nommu+0x5c>
     ca8:	e5901000 	ldr	r1, [r0]
     cac:	e59f01cc 	ldr	r0, [pc, #460]	; e80 <jump_to_resume0_nommu+0x60>
     cb0:	e5901000 	ldr	r1, [r0]
     cb4:	e59f01c8 	ldr	r0, [pc, #456]	; e84 <jump_to_resume0_nommu+0x64>
     cb8:	e5901000 	ldr	r1, [r0]
     cbc:	e59f01c4 	ldr	r0, [pc, #452]	; e88 <jump_to_resume0_nommu+0x68>
     cc0:	e5901000 	ldr	r1, [r0]
     cc4:	e59f01c0 	ldr	r0, [pc, #448]	; e8c <jump_to_resume0_nommu+0x6c>
     cc8:	e5901000 	ldr	r1, [r0]
     ccc:	e59f01bc 	ldr	r0, [pc, #444]	; e90 <jump_to_resume0_nommu+0x70>
     cd0:	e5901000 	ldr	r1, [r0]
     cd4:	e59f01b8 	ldr	r0, [pc, #440]	; e94 <jump_to_resume0_nommu+0x74>
     cd8:	e5901000 	ldr	r1, [r0]
     cdc:	e59f01b4 	ldr	r0, [pc, #436]	; e98 <jump_to_resume0_nommu+0x78>
     ce0:	e5901000 	ldr	r1, [r0]
     ce4:	e59f01b0 	ldr	r0, [pc, #432]	; e9c <jump_to_resume0_nommu+0x7c>
     ce8:	e5901000 	ldr	r1, [r0]
     cec:	e59f01ac 	ldr	r0, [pc, #428]	; ea0 <jump_to_resume0_nommu+0x80>
     cf0:	e5901000 	ldr	r1, [r0]
     cf4:	e59f01a8 	ldr	r0, [pc, #424]	; ea4 <jump_to_resume0_nommu+0x84>
     cf8:	e5901000 	ldr	r1, [r0]
     cfc:	e59f01a4 	ldr	r0, [pc, #420]	; ea8 <jump_to_resume0_nommu+0x88>
     d00:	e5901000 	ldr	r1, [r0]
     d04:	e59f01a0 	ldr	r0, [pc, #416]	; eac <jump_to_resume0_nommu+0x8c>
     d08:	e5901000 	ldr	r1, [r0]
     d0c:	e59f019c 	ldr	r0, [pc, #412]	; eb0 <jump_to_resume0_nommu+0x90>
     d10:	e5901000 	ldr	r1, [r0]
     d14:	e59f0198 	ldr	r0, [pc, #408]	; eb4 <jump_to_resume0_nommu+0x94>
     d18:	e5901000 	ldr	r1, [r0]
     d1c:	e59f0194 	ldr	r0, [pc, #404]	; eb8 <jump_to_resume0_nommu+0x98>
     d20:	e5901000 	ldr	r1, [r0]
     d24:	e59f0190 	ldr	r0, [pc, #400]	; ebc <jump_to_resume0_nommu+0x9c>
     d28:	e5901000 	ldr	r1, [r0]
     d2c:	e59f018c 	ldr	r0, [pc, #396]	; ec0 <jump_to_resume0_nommu+0xa0>
     d30:	e5901000 	ldr	r1, [r0]
     d34:	e59f0188 	ldr	r0, [pc, #392]	; ec4 <jump_to_resume0_nommu+0xa4>
     d38:	e5901000 	ldr	r1, [r0]
     d3c:	e3a0020f 	mov	r0, #-268435456	; 0xf0000000
     d40:	e5901000 	ldr	r1, [r0]
     d44:	e59f017c 	ldr	r0, [pc, #380]	; ec8 <jump_to_resume0_nommu+0xa8>
     d48:	e5901000 	ldr	r1, [r0]
     d4c:	f57ff04f 	dsb	sy
     d50:	f57ff06f 	isb	sy
     d54:	e8bd000f 	pop	{r0, r1, r2, r3}
     d58:	e1a0f00e 	mov	pc, lr

00000d5c <disable_mmu>:
     d5c:	ee111f10 	mrc	15, 0, r1, cr1, cr0, {0}
     d60:	e3c11a01 	bic	r1, r1, #4096	; 0x1000
     d64:	e3c11005 	bic	r1, r1, #5
     d68:	ea000004 	b	d80 <__turn_mmu_off>
     d6c:	e320f000 	nop	{0}
     d70:	e320f000 	nop	{0}
     d74:	e320f000 	nop	{0}
     d78:	e320f000 	nop	{0}
     d7c:	e320f000 	nop	{0}

00000d80 <__turn_mmu_off>:
     d80:	ee011f10 	mcr	15, 0, r1, cr1, cr0, {0}
     d84:	ee103f10 	mrc	15, 0, r3, cr0, cr0, {0}
     d88:	e1a03003 	mov	r3, r3
     d8c:	e1a03003 	mov	r3, r3
     d90:	e1a0f00e 	mov	pc, lr

00000d94 <enable_mmu>:
     d94:	ee111f10 	mrc	15, 0, r1, cr1, cr0, {0}
     d98:	e3811a01 	orr	r1, r1, #4096	; 0x1000
     d9c:	e3811005 	orr	r1, r1, #5
     da0:	ea000006 	b	dc0 <__turn_mmu_on>
     da4:	e320f000 	nop	{0}
     da8:	e320f000 	nop	{0}
     dac:	e320f000 	nop	{0}
     db0:	e320f000 	nop	{0}
     db4:	e320f000 	nop	{0}
     db8:	e320f000 	nop	{0}
     dbc:	e320f000 	nop	{0}

00000dc0 <__turn_mmu_on>:
     dc0:	ee011f10 	mcr	15, 0, r1, cr1, cr0, {0}
     dc4:	ee103f10 	mrc	15, 0, r3, cr0, cr0, {0}
     dc8:	e1a03003 	mov	r3, r3
     dcc:	e1a03003 	mov	r3, r3
     dd0:	e1a0f00e 	mov	pc, lr

00000dd4 <jump_to_suspend>:
     dd4:	ee020f10 	mcr	15, 0, r0, cr2, cr0, {0}
     dd8:	f57ff04f 	dsb	sy
     ddc:	f57ff06f 	isb	sy
     de0:	e1a0f001 	mov	pc, r1
     de4:	e320f000 	nop	{0}
     de8:	e320f000 	nop	{0}
     dec:	e320f000 	nop	{0}

00000df0 <jump_to_resume>:
     df0:	e1a0c000 	mov	ip, r0
     df4:	e1a08001 	mov	r8, r1
     df8:	ebfffef0 	bl	9c0 <invalidate_dcache>
     dfc:	e1a01008 	mov	r1, r8
     e00:	e1a0e00c 	mov	lr, ip
     e04:	e8913fff 	ldm	r1, {r0, r1, r2, r3, r4, r5, r6, r7, r8, r9, sl, fp, ip, sp}
     e08:	e1a0f00e 	mov	pc, lr
     e0c:	e320f000 	nop	{0}

00000e10 <jump_to_resume0>:
     e10:	e1a0e000 	mov	lr, r0
     e14:	e1a0f00e 	mov	pc, lr
     e18:	e320f000 	nop	{0}
     e1c:	e320f000 	nop	{0}

00000e20 <jump_to_resume0_nommu>:
     e20:	ee111f10 	mrc	15, 0, r1, cr1, cr0, {0}
     e24:	e3c11a01 	bic	r1, r1, #4096	; 0x1000
     e28:	e3c11007 	bic	r1, r1, #7
     e2c:	ee011f10 	mcr	15, 0, r1, cr1, cr0, {0}
     e30:	ee103f10 	mrc	15, 0, r3, cr0, cr0, {0}
     e34:	e1a03003 	mov	r3, r3
     e38:	e1a03003 	mov	r3, r3
     e3c:	e1a0e000 	mov	lr, r0
     e40:	f57ff06f 	isb	sy
     e44:	e1a0f00e 	mov	pc, lr
     e48:	f0003ffc 			; <UNDEFINED> instruction: 0xf0003ffc
     e4c:	00003ffc 	strdeq	r3, [r0], -ip
     e50:	000003ff 	strdeq	r0, [r0], -pc	; <UNPREDICTABLE>
     e54:	00007fff 	strdeq	r7, [r0], -pc	; <UNPREDICTABLE>
     e58:	f0001000 			; <UNDEFINED> instruction: 0xf0001000
     e5c:	f0002000 			; <UNDEFINED> instruction: 0xf0002000
     e60:	f0003000 			; <UNDEFINED> instruction: 0xf0003000
     e64:	f0040000 			; <UNDEFINED> instruction: 0xf0040000
     e68:	f0041000 			; <UNDEFINED> instruction: 0xf0041000
     e6c:	f0042000 			; <UNDEFINED> instruction: 0xf0042000
     e70:	f0043000 			; <UNDEFINED> instruction: 0xf0043000
     e74:	f0044000 			; <UNDEFINED> instruction: 0xf0044000
     e78:	f0045000 			; <UNDEFINED> instruction: 0xf0045000
     e7c:	f0046000 			; <UNDEFINED> instruction: 0xf0046000
     e80:	f0047000 			; <UNDEFINED> instruction: 0xf0047000
     e84:	f0048000 			; <UNDEFINED> instruction: 0xf0048000
     e88:	f0049000 			; <UNDEFINED> instruction: 0xf0049000
     e8c:	f004a000 			; <UNDEFINED> instruction: 0xf004a000
     e90:	f004b000 			; <UNDEFINED> instruction: 0xf004b000
     e94:	f004c000 			; <UNDEFINED> instruction: 0xf004c000
     e98:	f004d000 			; <UNDEFINED> instruction: 0xf004d000
     e9c:	f004e000 			; <UNDEFINED> instruction: 0xf004e000
     ea0:	f004f000 			; <UNDEFINED> instruction: 0xf004f000
     ea4:	f0050000 			; <UNDEFINED> instruction: 0xf0050000
     ea8:	f0051000 			; <UNDEFINED> instruction: 0xf0051000
     eac:	f0052000 			; <UNDEFINED> instruction: 0xf0052000
     eb0:	f0053000 			; <UNDEFINED> instruction: 0xf0053000
     eb4:	f1c17000 			; <UNDEFINED> instruction: 0xf1c17000
     eb8:	f1c18000 			; <UNDEFINED> instruction: 0xf1c18000
     ebc:	f1c20800 			; <UNDEFINED> instruction: 0xf1c20800
     ec0:	f1f01400 			; <UNDEFINED> instruction: 0xf1f01400
     ec4:	f1c28000 			; <UNDEFINED> instruction: 0xf1c28000
     ec8:	f1c20000 			; <UNDEFINED> instruction: 0xf1c20000
     ecc:	e320f000 	nop	{0}
     ed0:	e320f000 	nop	{0}
     ed4:	e320f000 	nop	{0}
     ed8:	e320f000 	nop	{0}
     edc:	e320f000 	nop	{0}

00000ee0 <__save_processor_state>:
     ee0:	ee503f10 	mrc	15, 2, r3, cr0, cr0, {0}
     ee4:	e1a02c23 	lsr	r2, r3, #24
     ee8:	e7e7c453 	ubfx	ip, r3, #8, #8
     eec:	e7e71853 	ubfx	r1, r3, #16, #8
     ef0:	e5c03000 	strb	r3, [r0]
     ef4:	e5c0c001 	strb	ip, [r0, #1]
     ef8:	e5c01002 	strb	r1, [r0, #2]
     efc:	e5c02003 	strb	r2, [r0, #3]
     f00:	ee113f10 	mrc	15, 0, r3, cr1, cr0, {0}
     f04:	e1a02c23 	lsr	r2, r3, #24
     f08:	e7e7c453 	ubfx	ip, r3, #8, #8
     f0c:	e7e71853 	ubfx	r1, r3, #16, #8
     f10:	e5c03004 	strb	r3, [r0, #4]
     f14:	e5c0c005 	strb	ip, [r0, #5]
     f18:	e5c01006 	strb	r1, [r0, #6]
     f1c:	e5c02007 	strb	r2, [r0, #7]
     f20:	ee113f50 	mrc	15, 0, r3, cr1, cr0, {2}
     f24:	e1a02c23 	lsr	r2, r3, #24
     f28:	e7e7c453 	ubfx	ip, r3, #8, #8
     f2c:	e7e71853 	ubfx	r1, r3, #16, #8
     f30:	e5c0300c 	strb	r3, [r0, #12]
     f34:	e5c0c00d 	strb	ip, [r0, #13]
     f38:	e5c0100e 	strb	r1, [r0, #14]
     f3c:	e5c0200f 	strb	r2, [r0, #15]
     f40:	ee123f10 	mrc	15, 0, r3, cr2, cr0, {0}
     f44:	e1a02c23 	lsr	r2, r3, #24
     f48:	e7e7c453 	ubfx	ip, r3, #8, #8
     f4c:	e7e71853 	ubfx	r1, r3, #16, #8
     f50:	e5c0301c 	strb	r3, [r0, #28]
     f54:	e5c0c01d 	strb	ip, [r0, #29]
     f58:	e5c0101e 	strb	r1, [r0, #30]
     f5c:	e5c0201f 	strb	r2, [r0, #31]
     f60:	ee123f30 	mrc	15, 0, r3, cr2, cr0, {1}
     f64:	e1a02c23 	lsr	r2, r3, #24
     f68:	e7e7c453 	ubfx	ip, r3, #8, #8
     f6c:	e7e71853 	ubfx	r1, r3, #16, #8
     f70:	e5c03020 	strb	r3, [r0, #32]
     f74:	e5c0c021 	strb	ip, [r0, #33]	; 0x21
     f78:	e5c01022 	strb	r1, [r0, #34]	; 0x22
     f7c:	e5c02023 	strb	r2, [r0, #35]	; 0x23
     f80:	ee123f50 	mrc	15, 0, r3, cr2, cr0, {2}
     f84:	e1a02c23 	lsr	r2, r3, #24
     f88:	e7e7c453 	ubfx	ip, r3, #8, #8
     f8c:	e7e71853 	ubfx	r1, r3, #16, #8
     f90:	e5c03024 	strb	r3, [r0, #36]	; 0x24
     f94:	e5c0c025 	strb	ip, [r0, #37]	; 0x25
     f98:	e5c01026 	strb	r1, [r0, #38]	; 0x26
     f9c:	e5c02027 	strb	r2, [r0, #39]	; 0x27
     fa0:	ee133f10 	mrc	15, 0, r3, cr3, cr0, {0}
     fa4:	e1a02c23 	lsr	r2, r3, #24
     fa8:	e7e7c453 	ubfx	ip, r3, #8, #8
     fac:	e7e71853 	ubfx	r1, r3, #16, #8
     fb0:	e5c03028 	strb	r3, [r0, #40]	; 0x28
     fb4:	e5c0c029 	strb	ip, [r0, #41]	; 0x29
     fb8:	e5c0102a 	strb	r1, [r0, #42]	; 0x2a
     fbc:	e5c0202b 	strb	r2, [r0, #43]	; 0x2b
     fc0:	ee153f10 	mrc	15, 0, r3, cr5, cr0, {0}
     fc4:	e1a02c23 	lsr	r2, r3, #24
     fc8:	e7e7c453 	ubfx	ip, r3, #8, #8
     fcc:	e7e71853 	ubfx	r1, r3, #16, #8
     fd0:	e5c0302c 	strb	r3, [r0, #44]	; 0x2c
     fd4:	e5c0c02d 	strb	ip, [r0, #45]	; 0x2d
     fd8:	e5c0102e 	strb	r1, [r0, #46]	; 0x2e
     fdc:	e5c0202f 	strb	r2, [r0, #47]	; 0x2f
     fe0:	ee153f30 	mrc	15, 0, r3, cr5, cr0, {1}
     fe4:	e1a02c23 	lsr	r2, r3, #24
     fe8:	e7e7c453 	ubfx	ip, r3, #8, #8
     fec:	e7e71853 	ubfx	r1, r3, #16, #8
     ff0:	e5c03030 	strb	r3, [r0, #48]	; 0x30
     ff4:	e5c0c031 	strb	ip, [r0, #49]	; 0x31
     ff8:	e5c01032 	strb	r1, [r0, #50]	; 0x32
     ffc:	e5c02033 	strb	r2, [r0, #51]	; 0x33
    1000:	ee153f11 	mrc	15, 0, r3, cr5, cr1, {0}
    1004:	e1a02c23 	lsr	r2, r3, #24
    1008:	e7e7c453 	ubfx	ip, r3, #8, #8
    100c:	e7e71853 	ubfx	r1, r3, #16, #8
    1010:	e5c03034 	strb	r3, [r0, #52]	; 0x34
    1014:	e5c0c035 	strb	ip, [r0, #53]	; 0x35
    1018:	e5c01036 	strb	r1, [r0, #54]	; 0x36
    101c:	e5c02037 	strb	r2, [r0, #55]	; 0x37
    1020:	ee153f31 	mrc	15, 0, r3, cr5, cr1, {1}
    1024:	e1a02c23 	lsr	r2, r3, #24
    1028:	e7e7c453 	ubfx	ip, r3, #8, #8
    102c:	e7e71853 	ubfx	r1, r3, #16, #8
    1030:	e5c03038 	strb	r3, [r0, #56]	; 0x38
    1034:	e5c0c039 	strb	ip, [r0, #57]	; 0x39
    1038:	e5c0103a 	strb	r1, [r0, #58]	; 0x3a
    103c:	e5c0203b 	strb	r2, [r0, #59]	; 0x3b
    1040:	ee163f10 	mrc	15, 0, r3, cr6, cr0, {0}
    1044:	e1a02c23 	lsr	r2, r3, #24
    1048:	e7e7c453 	ubfx	ip, r3, #8, #8
    104c:	e7e71853 	ubfx	r1, r3, #16, #8
    1050:	e5c0303c 	strb	r3, [r0, #60]	; 0x3c
    1054:	e5c0c03d 	strb	ip, [r0, #61]	; 0x3d
    1058:	e5c0103e 	strb	r1, [r0, #62]	; 0x3e
    105c:	e5c0203f 	strb	r2, [r0, #63]	; 0x3f
    1060:	ee163f50 	mrc	15, 0, r3, cr6, cr0, {2}
    1064:	e1a02c23 	lsr	r2, r3, #24
    1068:	e7e7c453 	ubfx	ip, r3, #8, #8
    106c:	e7e71853 	ubfx	r1, r3, #16, #8
    1070:	e5c03040 	strb	r3, [r0, #64]	; 0x40
    1074:	e5c0c041 	strb	ip, [r0, #65]	; 0x41
    1078:	e5c01042 	strb	r1, [r0, #66]	; 0x42
    107c:	e5c02043 	strb	r2, [r0, #67]	; 0x43
    1080:	ee173f14 	mrc	15, 0, r3, cr7, cr4, {0}
    1084:	e1a02c23 	lsr	r2, r3, #24
    1088:	e7e7c453 	ubfx	ip, r3, #8, #8
    108c:	e7e71853 	ubfx	r1, r3, #16, #8
    1090:	e5c03044 	strb	r3, [r0, #68]	; 0x44
    1094:	e5c0c045 	strb	ip, [r0, #69]	; 0x45
    1098:	e5c01046 	strb	r1, [r0, #70]	; 0x46
    109c:	e5c02047 	strb	r2, [r0, #71]	; 0x47
    10a0:	ee193f1c 	mrc	15, 0, r3, cr9, cr12, {0}
    10a4:	e1a02c23 	lsr	r2, r3, #24
    10a8:	e7e7c453 	ubfx	ip, r3, #8, #8
    10ac:	e7e71853 	ubfx	r1, r3, #16, #8
    10b0:	e5c03048 	strb	r3, [r0, #72]	; 0x48
    10b4:	e5c0c049 	strb	ip, [r0, #73]	; 0x49
    10b8:	e5c0104a 	strb	r1, [r0, #74]	; 0x4a
    10bc:	e5c0204b 	strb	r2, [r0, #75]	; 0x4b
    10c0:	ee193f3c 	mrc	15, 0, r3, cr9, cr12, {1}
    10c4:	e1a02c23 	lsr	r2, r3, #24
    10c8:	e7e7c453 	ubfx	ip, r3, #8, #8
    10cc:	e7e71853 	ubfx	r1, r3, #16, #8
    10d0:	e5c0304c 	strb	r3, [r0, #76]	; 0x4c
    10d4:	e5c0c04d 	strb	ip, [r0, #77]	; 0x4d
    10d8:	e5c0104e 	strb	r1, [r0, #78]	; 0x4e
    10dc:	e5c0204f 	strb	r2, [r0, #79]	; 0x4f
    10e0:	ee193f5c 	mrc	15, 0, r3, cr9, cr12, {2}
    10e4:	e1a02c23 	lsr	r2, r3, #24
    10e8:	e7e7c453 	ubfx	ip, r3, #8, #8
    10ec:	e7e71853 	ubfx	r1, r3, #16, #8
    10f0:	e5c03050 	strb	r3, [r0, #80]	; 0x50
    10f4:	e5c0c051 	strb	ip, [r0, #81]	; 0x51
    10f8:	e5c01052 	strb	r1, [r0, #82]	; 0x52
    10fc:	e5c02053 	strb	r2, [r0, #83]	; 0x53
    1100:	ee193f7c 	mrc	15, 0, r3, cr9, cr12, {3}
    1104:	e1a02c23 	lsr	r2, r3, #24
    1108:	e7e7c453 	ubfx	ip, r3, #8, #8
    110c:	e7e71853 	ubfx	r1, r3, #16, #8
    1110:	e5c03054 	strb	r3, [r0, #84]	; 0x54
    1114:	e5c0c055 	strb	ip, [r0, #85]	; 0x55
    1118:	e5c01056 	strb	r1, [r0, #86]	; 0x56
    111c:	e5c02057 	strb	r2, [r0, #87]	; 0x57
    1120:	ee193fbc 	mrc	15, 0, r3, cr9, cr12, {5}
    1124:	e1a02c23 	lsr	r2, r3, #24
    1128:	e7e7c453 	ubfx	ip, r3, #8, #8
    112c:	e7e71853 	ubfx	r1, r3, #16, #8
    1130:	e5c0305c 	strb	r3, [r0, #92]	; 0x5c
    1134:	e5c0c05d 	strb	ip, [r0, #93]	; 0x5d
    1138:	e5c0105e 	strb	r1, [r0, #94]	; 0x5e
    113c:	e5c0205f 	strb	r2, [r0, #95]	; 0x5f
    1140:	ee193f1d 	mrc	15, 0, r3, cr9, cr13, {0}
    1144:	e1a02c23 	lsr	r2, r3, #24
    1148:	e7e7c453 	ubfx	ip, r3, #8, #8
    114c:	e7e71853 	ubfx	r1, r3, #16, #8
    1150:	e5c03060 	strb	r3, [r0, #96]	; 0x60
    1154:	e5c0c061 	strb	ip, [r0, #97]	; 0x61
    1158:	e5c01062 	strb	r1, [r0, #98]	; 0x62
    115c:	e5c02063 	strb	r2, [r0, #99]	; 0x63
    1160:	ee193f3d 	mrc	15, 0, r3, cr9, cr13, {1}
    1164:	e1a02c23 	lsr	r2, r3, #24
    1168:	e7e7c453 	ubfx	ip, r3, #8, #8
    116c:	e7e71853 	ubfx	r1, r3, #16, #8
    1170:	e5c03064 	strb	r3, [r0, #100]	; 0x64
    1174:	e5c0c065 	strb	ip, [r0, #101]	; 0x65
    1178:	e5c01066 	strb	r1, [r0, #102]	; 0x66
    117c:	e5c02067 	strb	r2, [r0, #103]	; 0x67
    1180:	ee193f5d 	mrc	15, 0, r3, cr9, cr13, {2}
    1184:	e1a02c23 	lsr	r2, r3, #24
    1188:	e7e7c453 	ubfx	ip, r3, #8, #8
    118c:	e7e71853 	ubfx	r1, r3, #16, #8
    1190:	e5c03068 	strb	r3, [r0, #104]	; 0x68
    1194:	e5c0c069 	strb	ip, [r0, #105]	; 0x69
    1198:	e5c0106a 	strb	r1, [r0, #106]	; 0x6a
    119c:	e5c0206b 	strb	r2, [r0, #107]	; 0x6b
    11a0:	ee193f1e 	mrc	15, 0, r3, cr9, cr14, {0}
    11a4:	e1a02c23 	lsr	r2, r3, #24
    11a8:	e7e7c453 	ubfx	ip, r3, #8, #8
    11ac:	e7e71853 	ubfx	r1, r3, #16, #8
    11b0:	e5c0306c 	strb	r3, [r0, #108]	; 0x6c
    11b4:	e5c0c06d 	strb	ip, [r0, #109]	; 0x6d
    11b8:	e5c0106e 	strb	r1, [r0, #110]	; 0x6e
    11bc:	e5c0206f 	strb	r2, [r0, #111]	; 0x6f
    11c0:	ee193f3e 	mrc	15, 0, r3, cr9, cr14, {1}
    11c4:	e1a02c23 	lsr	r2, r3, #24
    11c8:	e7e7c453 	ubfx	ip, r3, #8, #8
    11cc:	e7e71853 	ubfx	r1, r3, #16, #8
    11d0:	e5c03070 	strb	r3, [r0, #112]	; 0x70
    11d4:	e5c0c071 	strb	ip, [r0, #113]	; 0x71
    11d8:	e5c01072 	strb	r1, [r0, #114]	; 0x72
    11dc:	e5c02073 	strb	r2, [r0, #115]	; 0x73
    11e0:	ee193f5e 	mrc	15, 0, r3, cr9, cr14, {2}
    11e4:	e1a02c23 	lsr	r2, r3, #24
    11e8:	e7e7c453 	ubfx	ip, r3, #8, #8
    11ec:	e7e71853 	ubfx	r1, r3, #16, #8
    11f0:	e5c03074 	strb	r3, [r0, #116]	; 0x74
    11f4:	e5c0c075 	strb	ip, [r0, #117]	; 0x75
    11f8:	e5c01076 	strb	r1, [r0, #118]	; 0x76
    11fc:	e5c02077 	strb	r2, [r0, #119]	; 0x77
    1200:	ee1a3f12 	mrc	15, 0, r3, cr10, cr2, {0}
    1204:	e1a02c23 	lsr	r2, r3, #24
    1208:	e7e7c453 	ubfx	ip, r3, #8, #8
    120c:	e7e71853 	ubfx	r1, r3, #16, #8
    1210:	e5c03078 	strb	r3, [r0, #120]	; 0x78
    1214:	e5c0c079 	strb	ip, [r0, #121]	; 0x79
    1218:	e5c0107a 	strb	r1, [r0, #122]	; 0x7a
    121c:	e5c0207b 	strb	r2, [r0, #123]	; 0x7b
    1220:	ee1a3f32 	mrc	15, 0, r3, cr10, cr2, {1}
    1224:	e1a02c23 	lsr	r2, r3, #24
    1228:	e7e7c453 	ubfx	ip, r3, #8, #8
    122c:	e7e71853 	ubfx	r1, r3, #16, #8
    1230:	e5c0307c 	strb	r3, [r0, #124]	; 0x7c
    1234:	e5c0c07d 	strb	ip, [r0, #125]	; 0x7d
    1238:	e5c0107e 	strb	r1, [r0, #126]	; 0x7e
    123c:	e5c0207f 	strb	r2, [r0, #127]	; 0x7f
    1240:	ee1c3f10 	mrc	15, 0, r3, cr12, cr0, {0}
    1244:	e1a02c23 	lsr	r2, r3, #24
    1248:	e7e7c453 	ubfx	ip, r3, #8, #8
    124c:	e7e71853 	ubfx	r1, r3, #16, #8
    1250:	e5c03080 	strb	r3, [r0, #128]	; 0x80
    1254:	e5c0c081 	strb	ip, [r0, #129]	; 0x81
    1258:	e5c01082 	strb	r1, [r0, #130]	; 0x82
    125c:	e5c02083 	strb	r2, [r0, #131]	; 0x83
    1260:	ee1c3f30 	mrc	15, 0, r3, cr12, cr0, {1}
    1264:	e1a02c23 	lsr	r2, r3, #24
    1268:	e7e7c453 	ubfx	ip, r3, #8, #8
    126c:	e7e71853 	ubfx	r1, r3, #16, #8
    1270:	e5c03084 	strb	r3, [r0, #132]	; 0x84
    1274:	e5c0c085 	strb	ip, [r0, #133]	; 0x85
    1278:	e5c01086 	strb	r1, [r0, #134]	; 0x86
    127c:	e5c02087 	strb	r2, [r0, #135]	; 0x87
    1280:	ee1d3f30 	mrc	15, 0, r3, cr13, cr0, {1}
    1284:	e1a02c23 	lsr	r2, r3, #24
    1288:	e7e7c453 	ubfx	ip, r3, #8, #8
    128c:	e7e71853 	ubfx	r1, r3, #16, #8
    1290:	e5c03090 	strb	r3, [r0, #144]	; 0x90
    1294:	e5c0c091 	strb	ip, [r0, #145]	; 0x91
    1298:	e5c01092 	strb	r1, [r0, #146]	; 0x92
    129c:	e5c02093 	strb	r2, [r0, #147]	; 0x93
    12a0:	ee1d3f50 	mrc	15, 0, r3, cr13, cr0, {2}
    12a4:	e1a02c23 	lsr	r2, r3, #24
    12a8:	e7e7c453 	ubfx	ip, r3, #8, #8
    12ac:	e7e71853 	ubfx	r1, r3, #16, #8
    12b0:	e5c03094 	strb	r3, [r0, #148]	; 0x94
    12b4:	e5c0c095 	strb	ip, [r0, #149]	; 0x95
    12b8:	e5c01096 	strb	r1, [r0, #150]	; 0x96
    12bc:	e5c02097 	strb	r2, [r0, #151]	; 0x97
    12c0:	ee1d3f70 	mrc	15, 0, r3, cr13, cr0, {3}
    12c4:	e1a02c23 	lsr	r2, r3, #24
    12c8:	e7e7c453 	ubfx	ip, r3, #8, #8
    12cc:	e7e71853 	ubfx	r1, r3, #16, #8
    12d0:	e5c03098 	strb	r3, [r0, #152]	; 0x98
    12d4:	e5c0c099 	strb	ip, [r0, #153]	; 0x99
    12d8:	e5c0109a 	strb	r1, [r0, #154]	; 0x9a
    12dc:	e5c0209b 	strb	r2, [r0, #155]	; 0x9b
    12e0:	ee1d3f90 	mrc	15, 0, r3, cr13, cr0, {4}
    12e4:	e1a02c23 	lsr	r2, r3, #24
    12e8:	e7e7c453 	ubfx	ip, r3, #8, #8
    12ec:	e7e71853 	ubfx	r1, r3, #16, #8
    12f0:	e5c0309c 	strb	r3, [r0, #156]	; 0x9c
    12f4:	e5c0c09d 	strb	ip, [r0, #157]	; 0x9d
    12f8:	e5c0109e 	strb	r1, [r0, #158]	; 0x9e
    12fc:	e5c0209f 	strb	r2, [r0, #159]	; 0x9f
    1300:	e12fff1e 	bx	lr

00001304 <__restore_processor_state>:
    1304:	e5d03000 	ldrb	r3, [r0]
    1308:	e5d0c001 	ldrb	ip, [r0, #1]
    130c:	e5d01002 	ldrb	r1, [r0, #2]
    1310:	e5d02003 	ldrb	r2, [r0, #3]
    1314:	e183340c 	orr	r3, r3, ip, lsl #8
    1318:	e1833801 	orr	r3, r3, r1, lsl #16
    131c:	e1833c02 	orr	r3, r3, r2, lsl #24
    1320:	ee403f10 	mcr	15, 2, r3, cr0, cr0, {0}
    1324:	e5d0300c 	ldrb	r3, [r0, #12]
    1328:	e5d0c00d 	ldrb	ip, [r0, #13]
    132c:	e5d0100e 	ldrb	r1, [r0, #14]
    1330:	e5d0200f 	ldrb	r2, [r0, #15]
    1334:	e183340c 	orr	r3, r3, ip, lsl #8
    1338:	e1833801 	orr	r3, r3, r1, lsl #16
    133c:	e1833c02 	orr	r3, r3, r2, lsl #24
    1340:	ee013f50 	mcr	15, 0, r3, cr1, cr0, {2}
    1344:	e5d0301c 	ldrb	r3, [r0, #28]
    1348:	e5d0c01d 	ldrb	ip, [r0, #29]
    134c:	e5d0101e 	ldrb	r1, [r0, #30]
    1350:	e5d0201f 	ldrb	r2, [r0, #31]
    1354:	e183340c 	orr	r3, r3, ip, lsl #8
    1358:	e1833801 	orr	r3, r3, r1, lsl #16
    135c:	e1833c02 	orr	r3, r3, r2, lsl #24
    1360:	ee023f10 	mcr	15, 0, r3, cr2, cr0, {0}
    1364:	f57ff04f 	dsb	sy
    1368:	f57ff06f 	isb	sy
    136c:	e5d03020 	ldrb	r3, [r0, #32]
    1370:	e5d0c021 	ldrb	ip, [r0, #33]	; 0x21
    1374:	e5d01022 	ldrb	r1, [r0, #34]	; 0x22
    1378:	e5d02023 	ldrb	r2, [r0, #35]	; 0x23
    137c:	e183340c 	orr	r3, r3, ip, lsl #8
    1380:	e1833801 	orr	r3, r3, r1, lsl #16
    1384:	e1833c02 	orr	r3, r3, r2, lsl #24
    1388:	ee023f30 	mcr	15, 0, r3, cr2, cr0, {1}
    138c:	f57ff04f 	dsb	sy
    1390:	f57ff06f 	isb	sy
    1394:	e5d03024 	ldrb	r3, [r0, #36]	; 0x24
    1398:	e5d0c025 	ldrb	ip, [r0, #37]	; 0x25
    139c:	e5d01026 	ldrb	r1, [r0, #38]	; 0x26
    13a0:	e5d02027 	ldrb	r2, [r0, #39]	; 0x27
    13a4:	e183340c 	orr	r3, r3, ip, lsl #8
    13a8:	e1833801 	orr	r3, r3, r1, lsl #16
    13ac:	e1833c02 	orr	r3, r3, r2, lsl #24
    13b0:	ee023f50 	mcr	15, 0, r3, cr2, cr0, {2}
    13b4:	f57ff04f 	dsb	sy
    13b8:	f57ff06f 	isb	sy
    13bc:	e5d03028 	ldrb	r3, [r0, #40]	; 0x28
    13c0:	e5d0c029 	ldrb	ip, [r0, #41]	; 0x29
    13c4:	e5d0102a 	ldrb	r1, [r0, #42]	; 0x2a
    13c8:	e5d0202b 	ldrb	r2, [r0, #43]	; 0x2b
    13cc:	e183340c 	orr	r3, r3, ip, lsl #8
    13d0:	e1833801 	orr	r3, r3, r1, lsl #16
    13d4:	e1833c02 	orr	r3, r3, r2, lsl #24
    13d8:	ee033f10 	mcr	15, 0, r3, cr3, cr0, {0}
    13dc:	e5d03044 	ldrb	r3, [r0, #68]	; 0x44
    13e0:	e5d0c045 	ldrb	ip, [r0, #69]	; 0x45
    13e4:	e5d01046 	ldrb	r1, [r0, #70]	; 0x46
    13e8:	e5d02047 	ldrb	r2, [r0, #71]	; 0x47
    13ec:	e183340c 	orr	r3, r3, ip, lsl #8
    13f0:	e1833801 	orr	r3, r3, r1, lsl #16
    13f4:	e1833c02 	orr	r3, r3, r2, lsl #24
    13f8:	ee073f14 	mcr	15, 0, r3, cr7, cr4, {0}
    13fc:	e5d0305c 	ldrb	r3, [r0, #92]	; 0x5c
    1400:	e5d0c05d 	ldrb	ip, [r0, #93]	; 0x5d
    1404:	e5d0105e 	ldrb	r1, [r0, #94]	; 0x5e
    1408:	e5d0205f 	ldrb	r2, [r0, #95]	; 0x5f
    140c:	e183340c 	orr	r3, r3, ip, lsl #8
    1410:	e1833801 	orr	r3, r3, r1, lsl #16
    1414:	e1833c02 	orr	r3, r3, r2, lsl #24
    1418:	ee093fbc 	mcr	15, 0, r3, cr9, cr12, {5}
    141c:	e5d03060 	ldrb	r3, [r0, #96]	; 0x60
    1420:	e5d0c061 	ldrb	ip, [r0, #97]	; 0x61
    1424:	e5d01062 	ldrb	r1, [r0, #98]	; 0x62
    1428:	e5d02063 	ldrb	r2, [r0, #99]	; 0x63
    142c:	e183340c 	orr	r3, r3, ip, lsl #8
    1430:	e1833801 	orr	r3, r3, r1, lsl #16
    1434:	e1833c02 	orr	r3, r3, r2, lsl #24
    1438:	ee093f1d 	mcr	15, 0, r3, cr9, cr13, {0}
    143c:	e5d03064 	ldrb	r3, [r0, #100]	; 0x64
    1440:	e5d0c065 	ldrb	ip, [r0, #101]	; 0x65
    1444:	e5d01066 	ldrb	r1, [r0, #102]	; 0x66
    1448:	e5d02067 	ldrb	r2, [r0, #103]	; 0x67
    144c:	e183340c 	orr	r3, r3, ip, lsl #8
    1450:	e1833801 	orr	r3, r3, r1, lsl #16
    1454:	e1833c02 	orr	r3, r3, r2, lsl #24
    1458:	ee093f3d 	mcr	15, 0, r3, cr9, cr13, {1}
    145c:	e5d03068 	ldrb	r3, [r0, #104]	; 0x68
    1460:	e5d0c069 	ldrb	ip, [r0, #105]	; 0x69
    1464:	e5d0106a 	ldrb	r1, [r0, #106]	; 0x6a
    1468:	e5d0206b 	ldrb	r2, [r0, #107]	; 0x6b
    146c:	e183340c 	orr	r3, r3, ip, lsl #8
    1470:	e1833801 	orr	r3, r3, r1, lsl #16
    1474:	e1833c02 	orr	r3, r3, r2, lsl #24
    1478:	ee093f5d 	mcr	15, 0, r3, cr9, cr13, {2}
    147c:	e5d0306c 	ldrb	r3, [r0, #108]	; 0x6c
    1480:	e5d0c06d 	ldrb	ip, [r0, #109]	; 0x6d
    1484:	e5d0106e 	ldrb	r1, [r0, #110]	; 0x6e
    1488:	e5d0206f 	ldrb	r2, [r0, #111]	; 0x6f
    148c:	e183340c 	orr	r3, r3, ip, lsl #8
    1490:	e1833801 	orr	r3, r3, r1, lsl #16
    1494:	e1833c02 	orr	r3, r3, r2, lsl #24
    1498:	ee093f1e 	mcr	15, 0, r3, cr9, cr14, {0}
    149c:	e5d03070 	ldrb	r3, [r0, #112]	; 0x70
    14a0:	e5d0c071 	ldrb	ip, [r0, #113]	; 0x71
    14a4:	e5d01072 	ldrb	r1, [r0, #114]	; 0x72
    14a8:	e5d02073 	ldrb	r2, [r0, #115]	; 0x73
    14ac:	e183340c 	orr	r3, r3, ip, lsl #8
    14b0:	e1833801 	orr	r3, r3, r1, lsl #16
    14b4:	e1833c02 	orr	r3, r3, r2, lsl #24
    14b8:	ee093f3e 	mcr	15, 0, r3, cr9, cr14, {1}
    14bc:	e5d03074 	ldrb	r3, [r0, #116]	; 0x74
    14c0:	e5d0c075 	ldrb	ip, [r0, #117]	; 0x75
    14c4:	e5d01076 	ldrb	r1, [r0, #118]	; 0x76
    14c8:	e5d02077 	ldrb	r2, [r0, #119]	; 0x77
    14cc:	e183340c 	orr	r3, r3, ip, lsl #8
    14d0:	e1833801 	orr	r3, r3, r1, lsl #16
    14d4:	e1833c02 	orr	r3, r3, r2, lsl #24
    14d8:	ee093f5e 	mcr	15, 0, r3, cr9, cr14, {2}
    14dc:	e5d03078 	ldrb	r3, [r0, #120]	; 0x78
    14e0:	e5d0c079 	ldrb	ip, [r0, #121]	; 0x79
    14e4:	e5d0107a 	ldrb	r1, [r0, #122]	; 0x7a
    14e8:	e5d0207b 	ldrb	r2, [r0, #123]	; 0x7b
    14ec:	e183340c 	orr	r3, r3, ip, lsl #8
    14f0:	e1833801 	orr	r3, r3, r1, lsl #16
    14f4:	e1833c02 	orr	r3, r3, r2, lsl #24
    14f8:	ee0a3f12 	mcr	15, 0, r3, cr10, cr2, {0}
    14fc:	e5d0307c 	ldrb	r3, [r0, #124]	; 0x7c
    1500:	e5d0c07d 	ldrb	ip, [r0, #125]	; 0x7d
    1504:	e5d0107e 	ldrb	r1, [r0, #126]	; 0x7e
    1508:	e5d0207f 	ldrb	r2, [r0, #127]	; 0x7f
    150c:	e183340c 	orr	r3, r3, ip, lsl #8
    1510:	e1833801 	orr	r3, r3, r1, lsl #16
    1514:	e1833c02 	orr	r3, r3, r2, lsl #24
    1518:	ee0a3f32 	mcr	15, 0, r3, cr10, cr2, {1}
    151c:	e5d03080 	ldrb	r3, [r0, #128]	; 0x80
    1520:	e5d0c081 	ldrb	ip, [r0, #129]	; 0x81
    1524:	e5d01082 	ldrb	r1, [r0, #130]	; 0x82
    1528:	e5d02083 	ldrb	r2, [r0, #131]	; 0x83
    152c:	e183340c 	orr	r3, r3, ip, lsl #8
    1530:	e1833801 	orr	r3, r3, r1, lsl #16
    1534:	e1833c02 	orr	r3, r3, r2, lsl #24
    1538:	ee0c3f10 	mcr	15, 0, r3, cr12, cr0, {0}
    153c:	e5d03084 	ldrb	r3, [r0, #132]	; 0x84
    1540:	e5d0c085 	ldrb	ip, [r0, #133]	; 0x85
    1544:	e5d01086 	ldrb	r1, [r0, #134]	; 0x86
    1548:	e5d02087 	ldrb	r2, [r0, #135]	; 0x87
    154c:	e183340c 	orr	r3, r3, ip, lsl #8
    1550:	e1833801 	orr	r3, r3, r1, lsl #16
    1554:	e1833c02 	orr	r3, r3, r2, lsl #24
    1558:	ee0c3f30 	mcr	15, 0, r3, cr12, cr0, {1}
    155c:	e5d03090 	ldrb	r3, [r0, #144]	; 0x90
    1560:	e5d0c091 	ldrb	ip, [r0, #145]	; 0x91
    1564:	e5d01092 	ldrb	r1, [r0, #146]	; 0x92
    1568:	e5d02093 	ldrb	r2, [r0, #147]	; 0x93
    156c:	e183340c 	orr	r3, r3, ip, lsl #8
    1570:	e1833801 	orr	r3, r3, r1, lsl #16
    1574:	e1833c02 	orr	r3, r3, r2, lsl #24
    1578:	ee0d3f30 	mcr	15, 0, r3, cr13, cr0, {1}
    157c:	e5d03094 	ldrb	r3, [r0, #148]	; 0x94
    1580:	e5d0c095 	ldrb	ip, [r0, #149]	; 0x95
    1584:	e5d01096 	ldrb	r1, [r0, #150]	; 0x96
    1588:	e5d02097 	ldrb	r2, [r0, #151]	; 0x97
    158c:	e183340c 	orr	r3, r3, ip, lsl #8
    1590:	e1833801 	orr	r3, r3, r1, lsl #16
    1594:	e1833c02 	orr	r3, r3, r2, lsl #24
    1598:	ee0d3f50 	mcr	15, 0, r3, cr13, cr0, {2}
    159c:	e5d03098 	ldrb	r3, [r0, #152]	; 0x98
    15a0:	e5d0c099 	ldrb	ip, [r0, #153]	; 0x99
    15a4:	e5d0109a 	ldrb	r1, [r0, #154]	; 0x9a
    15a8:	e5d0209b 	ldrb	r2, [r0, #155]	; 0x9b
    15ac:	e183340c 	orr	r3, r3, ip, lsl #8
    15b0:	e1833801 	orr	r3, r3, r1, lsl #16
    15b4:	e1833c02 	orr	r3, r3, r2, lsl #24
    15b8:	ee0d3f70 	mcr	15, 0, r3, cr13, cr0, {3}
    15bc:	e5d0309c 	ldrb	r3, [r0, #156]	; 0x9c
    15c0:	e5d0c09d 	ldrb	ip, [r0, #157]	; 0x9d
    15c4:	e5d0109e 	ldrb	r1, [r0, #158]	; 0x9e
    15c8:	e5d0209f 	ldrb	r2, [r0, #159]	; 0x9f
    15cc:	e183340c 	orr	r3, r3, ip, lsl #8
    15d0:	e1833801 	orr	r3, r3, r1, lsl #16
    15d4:	e1833c02 	orr	r3, r3, r2, lsl #24
    15d8:	ee0d3f90 	mcr	15, 0, r3, cr13, cr0, {4}
    15dc:	f57ff04f 	dsb	sy
    15e0:	f57ff06f 	isb	sy
    15e4:	e12fff1e 	bx	lr

000015e8 <disable_cache_invalidate>:
    15e8:	e3a03000 	mov	r3, #0
    15ec:	e34f31c2 	movt	r3, #61890	; 0xf1c2
    15f0:	e5932d3c 	ldr	r2, [r3, #3388]	; 0xd3c
    15f4:	e3822003 	orr	r2, r2, #3
    15f8:	e5832d3c 	str	r2, [r3, #3388]	; 0xd3c
    15fc:	e12fff1e 	bx	lr

00001600 <set_copro_default>:
    1600:	e3a03002 	mov	r3, #2
    1604:	ee403f10 	mcr	15, 2, r3, cr0, cr0, {0}
    1608:	e3003878 	movw	r3, #2168	; 0x878
    160c:	e34030c5 	movt	r3, #197	; 0xc5
    1610:	ee013f10 	mcr	15, 0, r3, cr1, cr0, {0}
    1614:	e3063040 	movw	r3, #24640	; 0x6040
    1618:	ee013f30 	mcr	15, 0, r3, cr1, cr0, {1}
    161c:	e3a03000 	mov	r3, #0
    1620:	ee013f50 	mcr	15, 0, r3, cr1, cr0, {2}
    1624:	ee013f11 	mcr	15, 0, r3, cr1, cr1, {0}
    1628:	ee013f31 	mcr	15, 0, r3, cr1, cr1, {1}
    162c:	ee013f51 	mcr	15, 0, r3, cr1, cr1, {2}
    1630:	ee023f10 	mcr	15, 0, r3, cr2, cr0, {0}
    1634:	ee023f30 	mcr	15, 0, r3, cr2, cr0, {1}
    1638:	ee023f50 	mcr	15, 0, r3, cr2, cr0, {2}
    163c:	ee033f10 	mcr	15, 0, r3, cr3, cr0, {0}
    1640:	ee053f10 	mcr	15, 0, r3, cr5, cr0, {0}
    1644:	ee053f30 	mcr	15, 0, r3, cr5, cr0, {1}
    1648:	ee053f11 	mcr	15, 0, r3, cr5, cr1, {0}
    164c:	ee053f31 	mcr	15, 0, r3, cr5, cr1, {1}
    1650:	ee063f10 	mcr	15, 0, r3, cr6, cr0, {0}
    1654:	ee063f50 	mcr	15, 0, r3, cr6, cr0, {2}
    1658:	ee073f14 	mcr	15, 0, r3, cr7, cr4, {0}
    165c:	ee093f1e 	mcr	15, 0, r3, cr9, cr14, {0}
    1660:	ee093f3e 	mcr	15, 0, r3, cr9, cr14, {1}
    1664:	ee093f5e 	mcr	15, 0, r3, cr9, cr14, {2}
    1668:	e30831a4 	movw	r3, #33188	; 0x81a4
    166c:	e340300a 	movt	r3, #10
    1670:	ee0a3f12 	mcr	15, 0, r3, cr10, cr2, {0}
    1674:	e30438e0 	movw	r3, #18656	; 0x48e0
    1678:	e34434e0 	movt	r3, #17632	; 0x44e0
    167c:	ee0a3f32 	mcr	15, 0, r3, cr10, cr2, {1}
    1680:	e3a03000 	mov	r3, #0
    1684:	ee0c3f10 	mcr	15, 0, r3, cr12, cr0, {0}
    1688:	ee0c3f30 	mcr	15, 0, r3, cr12, cr0, {1}
    168c:	ee0d3f30 	mcr	15, 0, r3, cr13, cr0, {1}
    1690:	ee0d3f50 	mcr	15, 0, r3, cr13, cr0, {2}
    1694:	ee0d3f70 	mcr	15, 0, r3, cr13, cr0, {3}
    1698:	ee0d3f90 	mcr	15, 0, r3, cr13, cr0, {4}
    169c:	f57ff04f 	dsb	sy
    16a0:	f57ff06f 	isb	sy
    16a4:	e12fff1e 	bx	lr

000016a8 <save_processor_state>:
    16a8:	e30301bc 	movw	r0, #12732	; 0x31bc
    16ac:	e3400000 	movt	r0, #0
    16b0:	eafffe0a 	b	ee0 <__save_processor_state>

000016b4 <restore_processor_state>:
    16b4:	e30301bc 	movw	r0, #12732	; 0x31bc
    16b8:	e3400000 	movt	r0, #0
    16bc:	eaffff10 	b	1304 <__restore_processor_state>

000016c0 <restore_processor_ttbr0>:
    16c0:	e30331bc 	movw	r3, #12732	; 0x31bc
    16c4:	e3403000 	movt	r3, #0
    16c8:	e593301c 	ldr	r3, [r3, #28]
    16cc:	ee023f10 	mcr	15, 0, r3, cr2, cr0, {0}
    16d0:	e12fff1e 	bx	lr

000016d4 <set_ttbr0>:
    16d4:	ee123f30 	mrc	15, 0, r3, cr2, cr0, {1}
    16d8:	ee023f10 	mcr	15, 0, r3, cr2, cr0, {0}
    16dc:	f57ff06f 	isb	sy
    16e0:	e12fff1e 	bx	lr

000016e4 <set_serial_gpio>:
    16e4:	e92d4038 	push	{r3, r4, r5, lr}
    16e8:	e1a04000 	mov	r4, r0
    16ec:	e1a05001 	mov	r5, r1
    16f0:	eb000451 	bl	283c <config_gpio_clk>
    16f4:	e3540000 	cmp	r4, #0
    16f8:	1a000018 	bne	1760 <set_serial_gpio+0x7c>
    16fc:	e30f10ff 	movw	r1, #61695	; 0xf0ff
    1700:	e3a02c03 	mov	r2, #768	; 0x300
    1704:	e3000828 	movw	r0, #2088	; 0x828
    1708:	e30038b4 	movw	r3, #2228	; 0x8b4
    170c:	e3550000 	cmp	r5, #0
    1710:	e34f1ff0 	movt	r1, #65520	; 0xfff0
    1714:	e3402003 	movt	r2, #3
    1718:	e34001c2 	movt	r0, #450	; 0x1c2
    171c:	e34031c2 	movt	r3, #450	; 0x1c2
    1720:	03e01eff 	mvneq	r1, #4080	; 0xff0
    1724:	03a02e22 	moveq	r2, #544	; 0x220
    1728:	01a03000 	moveq	r3, r0
    172c:	e5930000 	ldr	r0, [r3]
    1730:	e0001001 	and	r1, r0, r1
    1734:	e5831000 	str	r1, [r3]
    1738:	f57ff04f 	dsb	sy
    173c:	f57ff06f 	isb	sy
    1740:	f57ff04f 	dsb	sy
    1744:	f57ff06f 	isb	sy
    1748:	e5931000 	ldr	r1, [r3]
    174c:	e1812002 	orr	r2, r1, r2
    1750:	e5832000 	str	r2, [r3]
    1754:	f57ff04f 	dsb	sy
    1758:	f57ff06f 	isb	sy
    175c:	e8bd8038 	pop	{r3, r4, r5, pc}
    1760:	e3a02000 	mov	r2, #0
    1764:	e59f001c 	ldr	r0, [pc, #28]	; 1788 <set_serial_gpio+0xa4>
    1768:	e34f21c2 	movt	r2, #61890	; 0xf1c2
    176c:	e30038b4 	movw	r3, #2228	; 0x8b4
    1770:	e592c8b4 	ldr	ip, [r2, #2228]	; 0x8b4
    1774:	e3e01000 	mvn	r1, #0
    1778:	e3a02000 	mov	r2, #0
    177c:	e34f31c2 	movt	r3, #61890	; 0xf1c2
    1780:	e580c000 	str	ip, [r0]
    1784:	eaffffe8 	b	172c <set_serial_gpio+0x48>
    1788:	0000325c 	andeq	r3, r0, ip, asr r2

0000178c <set_serial_clk>:
    178c:	e92d4038 	push	{r3, r4, r5, lr}
    1790:	e1a04000 	mov	r4, r0
    1794:	eb000534 	bl	2c6c <mem_get_ba>
    1798:	e5903058 	ldr	r3, [r0, #88]	; 0x58
    179c:	e7e12c53 	ubfx	r2, r3, #24, #2
    17a0:	e3520003 	cmp	r2, #3
    17a4:	159f1084 	ldrne	r1, [pc, #132]	; 1830 <set_serial_clk+0xa4>
    17a8:	03a00000 	moveq	r0, #0
    17ac:	17910102 	ldrne	r0, [r1, r2, lsl #2]
    17b0:	e203101f 	and	r1, r3, #31
    17b4:	e2811001 	add	r1, r1, #1
    17b8:	e7e13853 	ubfx	r3, r3, #16, #2
    17bc:	e1a01311 	lsl	r1, r1, r3
    17c0:	eb000324 	bl	2458 <__aeabi_uidiv>
    17c4:	e3540000 	cmp	r4, #0
    17c8:	e3a04000 	mov	r4, #0
    17cc:	134f41c2 	movtne	r4, #61890	; 0xf1c2
    17d0:	159f305c 	ldrne	r3, [pc, #92]	; 1834 <set_serial_clk+0xa8>
    17d4:	1594206c 	ldrne	r2, [r4, #108]	; 0x6c
    17d8:	034041c2 	movteq	r4, #450	; 0x1c2
    17dc:	e1a05000 	mov	r5, r0
    17e0:	15832004 	strne	r2, [r3, #4]
    17e4:	159422d8 	ldrne	r2, [r4, #728]	; 0x2d8
    17e8:	15832008 	strne	r2, [r3, #8]
    17ec:	e59432d8 	ldr	r3, [r4, #728]	; 0x2d8
    17f0:	e3c33801 	bic	r3, r3, #65536	; 0x10000
    17f4:	e58432d8 	str	r3, [r4, #728]	; 0x2d8
    17f8:	e59432d8 	ldr	r3, [r4, #728]	; 0x2d8
    17fc:	e3833801 	orr	r3, r3, #65536	; 0x10000
    1800:	e58432d8 	str	r3, [r4, #728]	; 0x2d8
    1804:	ebfffbd8 	bl	76c <change_runtime_env>
    1808:	e3a00001 	mov	r0, #1
    180c:	ebfffbe3 	bl	7a0 <delay_us>
    1810:	e594306c 	ldr	r3, [r4, #108]	; 0x6c
    1814:	e1a00005 	mov	r0, r5
    1818:	e3c33801 	bic	r3, r3, #65536	; 0x10000
    181c:	e584306c 	str	r3, [r4, #108]	; 0x6c
    1820:	e594306c 	ldr	r3, [r4, #108]	; 0x6c
    1824:	e3833801 	orr	r3, r3, #65536	; 0x10000
    1828:	e584306c 	str	r3, [r4, #108]	; 0x6c
    182c:	e8bd8038 	pop	{r3, r4, r5, pc}
    1830:	00002ff0 	strdeq	r2, [r0], -r0
    1834:	0000325c 	andeq	r3, r0, ip, asr r2

00001838 <serial_exit>:
    1838:	e59f3034 	ldr	r3, [pc, #52]	; 1874 <serial_exit+0x3c>
    183c:	e3a02000 	mov	r2, #0
    1840:	e34f21c2 	movt	r2, #61890	; 0xf1c2
    1844:	e5931004 	ldr	r1, [r3, #4]
    1848:	e582106c 	str	r1, [r2, #108]	; 0x6c
    184c:	e5931008 	ldr	r1, [r3, #8]
    1850:	e58212d8 	str	r1, [r2, #728]	; 0x2d8
    1854:	e593100c 	ldr	r1, [r3, #12]
    1858:	e3510000 	cmp	r1, #0
    185c:	e5931000 	ldr	r1, [r3]
    1860:	05821828 	streq	r1, [r2, #2088]	; 0x828
    1864:	158218b4 	strne	r1, [r2, #2228]	; 0x8b4
    1868:	e3a02000 	mov	r2, #0
    186c:	e5832010 	str	r2, [r3, #16]
    1870:	e12fff1e 	bx	lr
    1874:	0000325c 	andeq	r3, r0, ip, asr r2

00001878 <serial_init_nommu>:
    1878:	e92d4038 	push	{r3, r4, r5, lr}
    187c:	e1a01000 	mov	r1, r0
    1880:	e3a00000 	mov	r0, #0
    1884:	ebffff96 	bl	16e4 <set_serial_gpio>
    1888:	e3a00000 	mov	r0, #0
    188c:	ebffffbe 	bl	178c <set_serial_clk>
    1890:	e30b33c5 	movw	r3, #46021	; 0xb3c5
    1894:	e2800ae1 	add	r0, r0, #921600	; 0xe1000
    1898:	e34931a2 	movt	r3, #37282	; 0x91a2
    189c:	e3a02902 	mov	r2, #32768	; 0x8000
    18a0:	e0831093 	umull	r1, r3, r3, r0
    18a4:	e34021c2 	movt	r2, #450	; 0x1c2
    18a8:	e592000c 	ldr	r0, [r2, #12]
    18ac:	e3a0c001 	mov	ip, #1
    18b0:	e582c0a4 	str	ip, [r2, #164]	; 0xa4
    18b4:	e303125c 	movw	r1, #12892	; 0x325c
    18b8:	e3401000 	movt	r1, #0
    18bc:	e3805080 	orr	r5, r0, #128	; 0x80
    18c0:	e3c00080 	bic	r0, r0, #128	; 0x80
    18c4:	e1a04e23 	lsr	r4, r3, #28
    18c8:	e7e73a53 	ubfx	r3, r3, #20, #8
    18cc:	e582500c 	str	r5, [r2, #12]
    18d0:	e5824004 	str	r4, [r2, #4]
    18d4:	e5823000 	str	r3, [r2]
    18d8:	e3a03000 	mov	r3, #0
    18dc:	e582000c 	str	r0, [r2, #12]
    18e0:	e58230a4 	str	r3, [r2, #164]	; 0xa4
    18e4:	e3a03003 	mov	r3, #3
    18e8:	e582300c 	str	r3, [r2, #12]
    18ec:	e3a030e1 	mov	r3, #225	; 0xe1
    18f0:	e5823008 	str	r3, [r2, #8]
    18f4:	e581c010 	str	ip, [r1, #16]
    18f8:	e8bd8038 	pop	{r3, r4, r5, pc}

000018fc <serial_puts_nommu>:
    18fc:	e59f30a4 	ldr	r3, [pc, #164]	; 19a8 <serial_puts_nommu+0xac>
    1900:	e52d4004 	push	{r4}		; (str r4, [sp, #-4]!)
    1904:	e5933010 	ldr	r3, [r3, #16]
    1908:	e3530000 	cmp	r3, #0
    190c:	03e00000 	mvneq	r0, #0
    1910:	0a000017 	beq	1974 <serial_puts_nommu+0x78>
    1914:	e5d03000 	ldrb	r3, [r0]
    1918:	e3530000 	cmp	r3, #0
    191c:	0a000013 	beq	1970 <serial_puts_nommu+0x74>
    1920:	e3a01902 	mov	r1, #32768	; 0x8000
    1924:	e2400001 	sub	r0, r0, #1
    1928:	e34011c2 	movt	r1, #450	; 0x1c2
    192c:	e3a0400d 	mov	r4, #13
    1930:	e353000a 	cmp	r3, #10
    1934:	0a000010 	beq	197c <serial_puts_nommu+0x80>
    1938:	e5f0c001 	ldrb	ip, [r0, #1]!
    193c:	e591207c 	ldr	r2, [r1, #124]	; 0x7c
    1940:	e3a03902 	mov	r3, #32768	; 0x8000
    1944:	e34031c2 	movt	r3, #450	; 0x1c2
    1948:	e3120002 	tst	r2, #2
    194c:	0afffffa 	beq	193c <serial_puts_nommu+0x40>
    1950:	f57ff04f 	dsb	sy
    1954:	f57ff06f 	isb	sy
    1958:	e583c000 	str	ip, [r3]
    195c:	f57ff04f 	dsb	sy
    1960:	f57ff06f 	isb	sy
    1964:	e5d03001 	ldrb	r3, [r0, #1]
    1968:	e3530000 	cmp	r3, #0
    196c:	1affffef 	bne	1930 <serial_puts_nommu+0x34>
    1970:	e1a00003 	mov	r0, r3
    1974:	e8bd0010 	pop	{r4}
    1978:	e12fff1e 	bx	lr
    197c:	e591207c 	ldr	r2, [r1, #124]	; 0x7c
    1980:	e3a03902 	mov	r3, #32768	; 0x8000
    1984:	e34031c2 	movt	r3, #450	; 0x1c2
    1988:	e3120002 	tst	r2, #2
    198c:	0afffffa 	beq	197c <serial_puts_nommu+0x80>
    1990:	f57ff04f 	dsb	sy
    1994:	f57ff06f 	isb	sy
    1998:	e5834000 	str	r4, [r3]
    199c:	f57ff04f 	dsb	sy
    19a0:	f57ff06f 	isb	sy
    19a4:	eaffffe3 	b	1938 <serial_puts_nommu+0x3c>
    19a8:	0000325c 	andeq	r3, r0, ip, asr r2

000019ac <serial_gets_nommu>:
    19ac:	e59f3080 	ldr	r3, [pc, #128]	; 1a34 <serial_gets_nommu+0x88>
    19b0:	e52d4004 	push	{r4}		; (str r4, [sp, #-4]!)
    19b4:	e5933010 	ldr	r3, [r3, #16]
    19b8:	e3530000 	cmp	r3, #0
    19bc:	03e00000 	mvneq	r0, #0
    19c0:	1a000001 	bne	19cc <serial_gets_nommu+0x20>
    19c4:	e8bd0010 	pop	{r4}
    19c8:	e12fff1e 	bx	lr
    19cc:	e3510000 	cmp	r1, #0
    19d0:	03a00001 	moveq	r0, #1
    19d4:	0afffffa 	beq	19c4 <serial_gets_nommu+0x18>
    19d8:	e3a0c902 	mov	ip, #32768	; 0x8000
    19dc:	e3a04000 	mov	r4, #0
    19e0:	e340c1c2 	movt	ip, #450	; 0x1c2
    19e4:	e30f3fff 	movw	r3, #65535	; 0xffff
    19e8:	ea000001 	b	19f4 <serial_gets_nommu+0x48>
    19ec:	e2533001 	subs	r3, r3, #1
    19f0:	3a000006 	bcc	1a10 <serial_gets_nommu+0x64>
    19f4:	e59c207c 	ldr	r2, [ip, #124]	; 0x7c
    19f8:	e3120008 	tst	r2, #8
    19fc:	0afffffa 	beq	19ec <serial_gets_nommu+0x40>
    1a00:	e3530000 	cmp	r3, #0
    1a04:	1a000001 	bne	1a10 <serial_gets_nommu+0x64>
    1a08:	e2840001 	add	r0, r4, #1
    1a0c:	eaffffec 	b	19c4 <serial_gets_nommu+0x18>
    1a10:	e59c3000 	ldr	r3, [ip]
    1a14:	e6ef3073 	uxtb	r3, r3
    1a18:	e3530000 	cmp	r3, #0
    1a1c:	0afffff9 	beq	1a08 <serial_gets_nommu+0x5c>
    1a20:	e7c03004 	strb	r3, [r0, r4]
    1a24:	e2844001 	add	r4, r4, #1
    1a28:	e1540001 	cmp	r4, r1
    1a2c:	1affffec 	bne	19e4 <serial_gets_nommu+0x38>
    1a30:	eafffff4 	b	1a08 <serial_gets_nommu+0x5c>
    1a34:	0000325c 	andeq	r3, r0, ip, asr r2

00001a38 <serial_init_manager>:
    1a38:	e303325c 	movw	r3, #12892	; 0x325c
    1a3c:	e3a02001 	mov	r2, #1
    1a40:	e3403000 	movt	r3, #0
    1a44:	e5832010 	str	r2, [r3, #16]
    1a48:	e12fff1e 	bx	lr

00001a4c <serial_exit_manager>:
    1a4c:	e303325c 	movw	r3, #12892	; 0x325c
    1a50:	e3a02000 	mov	r2, #0
    1a54:	e3403000 	movt	r3, #0
    1a58:	e5832010 	str	r2, [r3, #16]
    1a5c:	e12fff1e 	bx	lr

00001a60 <serial_init>:
    1a60:	e92d4038 	push	{r3, r4, r5, lr}
    1a64:	e1a03000 	mov	r3, r0
    1a68:	e303425c 	movw	r4, #12892	; 0x325c
    1a6c:	e1a01003 	mov	r1, r3
    1a70:	e3404000 	movt	r4, #0
    1a74:	e3a00001 	mov	r0, #1
    1a78:	e584300c 	str	r3, [r4, #12]
    1a7c:	ebffff18 	bl	16e4 <set_serial_gpio>
    1a80:	e3a00001 	mov	r0, #1
    1a84:	ebffff40 	bl	178c <set_serial_clk>
    1a88:	e30b33c5 	movw	r3, #46021	; 0xb3c5
    1a8c:	e2800ae1 	add	r0, r0, #921600	; 0xe1000
    1a90:	e34931a2 	movt	r3, #37282	; 0x91a2
    1a94:	e3a02902 	mov	r2, #32768	; 0x8000
    1a98:	e0831093 	umull	r1, r3, r3, r0
    1a9c:	e34f21c2 	movt	r2, #61890	; 0xf1c2
    1aa0:	e592000c 	ldr	r0, [r2, #12]
    1aa4:	e3a01001 	mov	r1, #1
    1aa8:	e58210a4 	str	r1, [r2, #164]	; 0xa4
    1aac:	e3805080 	orr	r5, r0, #128	; 0x80
    1ab0:	e3c00080 	bic	r0, r0, #128	; 0x80
    1ab4:	e1a0ce23 	lsr	ip, r3, #28
    1ab8:	e7e73a53 	ubfx	r3, r3, #20, #8
    1abc:	e582500c 	str	r5, [r2, #12]
    1ac0:	e582c004 	str	ip, [r2, #4]
    1ac4:	e5823000 	str	r3, [r2]
    1ac8:	e3a03000 	mov	r3, #0
    1acc:	e582000c 	str	r0, [r2, #12]
    1ad0:	e58230a4 	str	r3, [r2, #164]	; 0xa4
    1ad4:	e3a03003 	mov	r3, #3
    1ad8:	e582300c 	str	r3, [r2, #12]
    1adc:	e3a030e1 	mov	r3, #225	; 0xe1
    1ae0:	e5823008 	str	r3, [r2, #8]
    1ae4:	e5841010 	str	r1, [r4, #16]
    1ae8:	e8bd8038 	pop	{r3, r4, r5, pc}

00001aec <serial_puts>:
    1aec:	e59f30a4 	ldr	r3, [pc, #164]	; 1b98 <serial_puts+0xac>
    1af0:	e52d4004 	push	{r4}		; (str r4, [sp, #-4]!)
    1af4:	e5933010 	ldr	r3, [r3, #16]
    1af8:	e3530000 	cmp	r3, #0
    1afc:	03e00000 	mvneq	r0, #0
    1b00:	0a000017 	beq	1b64 <serial_puts+0x78>
    1b04:	e5d03000 	ldrb	r3, [r0]
    1b08:	e3530000 	cmp	r3, #0
    1b0c:	0a000013 	beq	1b60 <serial_puts+0x74>
    1b10:	e3a01902 	mov	r1, #32768	; 0x8000
    1b14:	e2400001 	sub	r0, r0, #1
    1b18:	e34f11c2 	movt	r1, #61890	; 0xf1c2
    1b1c:	e3a0400d 	mov	r4, #13
    1b20:	e353000a 	cmp	r3, #10
    1b24:	0a000010 	beq	1b6c <serial_puts+0x80>
    1b28:	e5f0c001 	ldrb	ip, [r0, #1]!
    1b2c:	e591207c 	ldr	r2, [r1, #124]	; 0x7c
    1b30:	e3a03902 	mov	r3, #32768	; 0x8000
    1b34:	e34f31c2 	movt	r3, #61890	; 0xf1c2
    1b38:	e3120002 	tst	r2, #2
    1b3c:	0afffffa 	beq	1b2c <serial_puts+0x40>
    1b40:	f57ff04f 	dsb	sy
    1b44:	f57ff06f 	isb	sy
    1b48:	e583c000 	str	ip, [r3]
    1b4c:	f57ff04f 	dsb	sy
    1b50:	f57ff06f 	isb	sy
    1b54:	e5d03001 	ldrb	r3, [r0, #1]
    1b58:	e3530000 	cmp	r3, #0
    1b5c:	1affffef 	bne	1b20 <serial_puts+0x34>
    1b60:	e1a00003 	mov	r0, r3
    1b64:	e8bd0010 	pop	{r4}
    1b68:	e12fff1e 	bx	lr
    1b6c:	e591207c 	ldr	r2, [r1, #124]	; 0x7c
    1b70:	e3a03902 	mov	r3, #32768	; 0x8000
    1b74:	e34f31c2 	movt	r3, #61890	; 0xf1c2
    1b78:	e3120002 	tst	r2, #2
    1b7c:	0afffffa 	beq	1b6c <serial_puts+0x80>
    1b80:	f57ff04f 	dsb	sy
    1b84:	f57ff06f 	isb	sy
    1b88:	e5834000 	str	r4, [r3]
    1b8c:	f57ff04f 	dsb	sy
    1b90:	f57ff06f 	isb	sy
    1b94:	eaffffe3 	b	1b28 <serial_puts+0x3c>
    1b98:	0000325c 	andeq	r3, r0, ip, asr r2

00001b9c <serial_gets>:
    1b9c:	e59f3080 	ldr	r3, [pc, #128]	; 1c24 <serial_gets+0x88>
    1ba0:	e52d4004 	push	{r4}		; (str r4, [sp, #-4]!)
    1ba4:	e5933010 	ldr	r3, [r3, #16]
    1ba8:	e3530000 	cmp	r3, #0
    1bac:	03e00000 	mvneq	r0, #0
    1bb0:	1a000001 	bne	1bbc <serial_gets+0x20>
    1bb4:	e8bd0010 	pop	{r4}
    1bb8:	e12fff1e 	bx	lr
    1bbc:	e3510000 	cmp	r1, #0
    1bc0:	03a00001 	moveq	r0, #1
    1bc4:	0afffffa 	beq	1bb4 <serial_gets+0x18>
    1bc8:	e3a0c902 	mov	ip, #32768	; 0x8000
    1bcc:	e3a04000 	mov	r4, #0
    1bd0:	e34fc1c2 	movt	ip, #61890	; 0xf1c2
    1bd4:	e30f3fff 	movw	r3, #65535	; 0xffff
    1bd8:	ea000001 	b	1be4 <serial_gets+0x48>
    1bdc:	e2533001 	subs	r3, r3, #1
    1be0:	3a000006 	bcc	1c00 <serial_gets+0x64>
    1be4:	e59c207c 	ldr	r2, [ip, #124]	; 0x7c
    1be8:	e3120008 	tst	r2, #8
    1bec:	0afffffa 	beq	1bdc <serial_gets+0x40>
    1bf0:	e3530000 	cmp	r3, #0
    1bf4:	1a000001 	bne	1c00 <serial_gets+0x64>
    1bf8:	e2840001 	add	r0, r4, #1
    1bfc:	eaffffec 	b	1bb4 <serial_gets+0x18>
    1c00:	e59c3000 	ldr	r3, [ip]
    1c04:	e6ef3073 	uxtb	r3, r3
    1c08:	e3530000 	cmp	r3, #0
    1c0c:	0afffff9 	beq	1bf8 <serial_gets+0x5c>
    1c10:	e7c03004 	strb	r3, [r0, r4]
    1c14:	e2844001 	add	r4, r4, #1
    1c18:	e1540001 	cmp	r4, r1
    1c1c:	1affffec 	bne	1bd4 <serial_gets+0x38>
    1c20:	eafffff4 	b	1bf8 <serial_gets+0x5c>
    1c24:	0000325c 	andeq	r3, r0, ip, asr r2

00001c28 <utoa>:
    1c28:	e92d45f0 	push	{r4, r5, r6, r7, r8, sl, lr}
    1c2c:	e3500000 	cmp	r0, #0
    1c30:	e59f60a8 	ldr	r6, [pc, #168]	; 1ce0 <utoa+0xb8>
    1c34:	e1a07001 	mov	r7, r1
    1c38:	e1a04000 	mov	r4, r0
    1c3c:	e1a05002 	mov	r5, r2
    1c40:	e24dd02c 	sub	sp, sp, #44	; 0x2c
    1c44:	13a08000 	movne	r8, #0
    1c48:	e28dc004 	add	ip, sp, #4
    1c4c:	128da018 	addne	sl, sp, #24
    1c50:	e8b6000f 	ldm	r6!, {r0, r1, r2, r3}
    1c54:	e5966000 	ldr	r6, [r6]
    1c58:	e8ac000f 	stmia	ip!, {r0, r1, r2, r3}
    1c5c:	03a03030 	moveq	r3, #48	; 0x30
    1c60:	05c74001 	strbeq	r4, [r7, #1]
    1c64:	e5cc6000 	strb	r6, [ip]
    1c68:	05c73000 	strbeq	r3, [r7]
    1c6c:	1a000001 	bne	1c78 <utoa+0x50>
    1c70:	ea000017 	b	1cd4 <utoa+0xac>
    1c74:	e1a08003 	mov	r8, r3
    1c78:	e1a00004 	mov	r0, r4
    1c7c:	e1a01005 	mov	r1, r5
    1c80:	eb00024e 	bl	25c0 <__aeabi_uidivmod>
    1c84:	e28d3028 	add	r3, sp, #40	; 0x28
    1c88:	e1a00004 	mov	r0, r4
    1c8c:	e0831001 	add	r1, r3, r1
    1c90:	e5516024 	ldrb	r6, [r1, #-36]	; 0x24
    1c94:	e1a01005 	mov	r1, r5
    1c98:	e7ca6008 	strb	r6, [sl, r8]
    1c9c:	eb0001ed 	bl	2458 <__aeabi_uidiv>
    1ca0:	e2504000 	subs	r4, r0, #0
    1ca4:	e2883001 	add	r3, r8, #1
    1ca8:	1afffff1 	bne	1c74 <utoa+0x4c>
    1cac:	e2472001 	sub	r2, r7, #1
    1cb0:	e08a3008 	add	r3, sl, r8
    1cb4:	ea000000 	b	1cbc <utoa+0x94>
    1cb8:	e5736001 	ldrb	r6, [r3, #-1]!
    1cbc:	e153000a 	cmp	r3, sl
    1cc0:	e5e26001 	strb	r6, [r2, #1]!
    1cc4:	1afffffb 	bne	1cb8 <utoa+0x90>
    1cc8:	e0878008 	add	r8, r7, r8
    1ccc:	e3a03000 	mov	r3, #0
    1cd0:	e5c83001 	strb	r3, [r8, #1]
    1cd4:	e1a00007 	mov	r0, r7
    1cd8:	e28dd02c 	add	sp, sp, #44	; 0x2c
    1cdc:	e8bd85f0 	pop	{r4, r5, r6, r7, r8, sl, pc}
    1ce0:	00003118 	andeq	r3, r0, r8, lsl r1

00001ce4 <print_align>:
    1ce4:	e92d00f0 	push	{r4, r5, r6, r7}
    1ce8:	e1510002 	cmp	r1, r2
    1cec:	e59f4094 	ldr	r4, [pc, #148]	; 1d88 <print_align+0xa4>
    1cf0:	e1a07001 	mov	r7, r1
    1cf4:	e1a06002 	mov	r6, r2
    1cf8:	e1a05000 	mov	r5, r0
    1cfc:	e24dd018 	sub	sp, sp, #24
    1d00:	e28dc004 	add	ip, sp, #4
    1d04:	e8b4000f 	ldm	r4!, {r0, r1, r2, r3}
    1d08:	e5944000 	ldr	r4, [r4]
    1d0c:	e8ac000f 	stmia	ip!, {r0, r1, r2, r3}
    1d10:	a3a00000 	movge	r0, #0
    1d14:	e5cc4000 	strb	r4, [ip]
    1d18:	aa000017 	bge	1d7c <print_align+0x98>
    1d1c:	e0670006 	rsb	r0, r7, r6
    1d20:	e3500000 	cmp	r0, #0
    1d24:	e1a01000 	mov	r1, r0
    1d28:	0a000013 	beq	1d7c <print_align+0x98>
    1d2c:	e5d53000 	ldrb	r3, [r5]
    1d30:	e3530000 	cmp	r3, #0
    1d34:	0a000005 	beq	1d50 <print_align+0x6c>
    1d38:	e1a03005 	mov	r3, r5
    1d3c:	e2833001 	add	r3, r3, #1
    1d40:	e5d32000 	ldrb	r2, [r3]
    1d44:	e1a05003 	mov	r5, r3
    1d48:	e3520000 	cmp	r2, #0
    1d4c:	1afffffa 	bne	1d3c <print_align+0x58>
    1d50:	e28dc003 	add	ip, sp, #3
    1d54:	ea000000 	b	1d5c <print_align+0x78>
    1d58:	e1a05003 	mov	r5, r3
    1d5c:	e5fc2001 	ldrb	r2, [ip, #1]!
    1d60:	e1a03005 	mov	r3, r5
    1d64:	e3520000 	cmp	r2, #0
    1d68:	e4c32001 	strb	r2, [r3], #1
    1d6c:	0a000002 	beq	1d7c <print_align+0x98>
    1d70:	e2511001 	subs	r1, r1, #1
    1d74:	1afffff7 	bne	1d58 <print_align+0x74>
    1d78:	e5c51001 	strb	r1, [r5, #1]
    1d7c:	e28dd018 	add	sp, sp, #24
    1d80:	e8bd00f0 	pop	{r4, r5, r6, r7}
    1d84:	e12fff1e 	bx	lr
    1d88:	0000312c 	andeq	r3, r0, ip, lsr #2

00001d8c <itoa.constprop.0>:
    1d8c:	e92d01f0 	push	{r4, r5, r6, r7, r8}
    1d90:	e3500000 	cmp	r0, #0
    1d94:	e59f50d4 	ldr	r5, [pc, #212]	; 1e70 <itoa.constprop.0+0xe4>
    1d98:	e1a06001 	mov	r6, r1
    1d9c:	e1a0c000 	mov	ip, r0
    1da0:	e24dd02c 	sub	sp, sp, #44	; 0x2c
    1da4:	e28d4004 	add	r4, sp, #4
    1da8:	e8b5000f 	ldm	r5!, {r0, r1, r2, r3}
    1dac:	e5955000 	ldr	r5, [r5]
    1db0:	e8a4000f 	stmia	r4!, {r0, r1, r2, r3}
    1db4:	03a03030 	moveq	r3, #48	; 0x30
    1db8:	05c6c001 	strbeq	ip, [r6, #1]
    1dbc:	e5c45000 	strb	r5, [r4]
    1dc0:	05c63000 	strbeq	r3, [r6]
    1dc4:	0a000025 	beq	1e60 <itoa.constprop.0+0xd4>
    1dc8:	e3065667 	movw	r5, #26215	; 0x6667
    1dcc:	b26cc000 	rsblt	ip, ip, #0
    1dd0:	b3a07001 	movlt	r7, #1
    1dd4:	a3a07000 	movge	r7, #0
    1dd8:	e3a03000 	mov	r3, #0
    1ddc:	e28d0018 	add	r0, sp, #24
    1de0:	e3465666 	movt	r5, #26214	; 0x6666
    1de4:	ea000000 	b	1dec <itoa.constprop.0+0x60>
    1de8:	e1a03004 	mov	r3, r4
    1dec:	e0c12c95 	smull	r2, r1, r5, ip
    1df0:	e1a02fcc 	asr	r2, ip, #31
    1df4:	e28d8028 	add	r8, sp, #40	; 0x28
    1df8:	e2834001 	add	r4, r3, #1
    1dfc:	e0622141 	rsb	r2, r2, r1, asr #2
    1e00:	e0821102 	add	r1, r2, r2, lsl #2
    1e04:	e04c1081 	sub	r1, ip, r1, lsl #1
    1e08:	e252c000 	subs	ip, r2, #0
    1e0c:	e0882001 	add	r2, r8, r1
    1e10:	e5522024 	ldrb	r2, [r2, #-36]	; 0x24
    1e14:	e7c02003 	strb	r2, [r0, r3]
    1e18:	1afffff2 	bne	1de8 <itoa.constprop.0+0x5c>
    1e1c:	e3570000 	cmp	r7, #0
    1e20:	e1a0c003 	mov	ip, r3
    1e24:	13a0102d 	movne	r1, #45	; 0x2d
    1e28:	13a07001 	movne	r7, #1
    1e2c:	15c61000 	strbne	r1, [r6]
    1e30:	e2471001 	sub	r1, r7, #1
    1e34:	e0861001 	add	r1, r6, r1
    1e38:	ea000000 	b	1e40 <itoa.constprop.0+0xb4>
    1e3c:	e7d02003 	ldrb	r2, [r0, r3]
    1e40:	e2433001 	sub	r3, r3, #1
    1e44:	e5e12001 	strb	r2, [r1, #1]!
    1e48:	e3730001 	cmn	r3, #1
    1e4c:	1afffffa 	bne	1e3c <itoa.constprop.0+0xb0>
    1e50:	e2877001 	add	r7, r7, #1
    1e54:	e3a03000 	mov	r3, #0
    1e58:	e0867007 	add	r7, r6, r7
    1e5c:	e7c7300c 	strb	r3, [r7, ip]
    1e60:	e1a00006 	mov	r0, r6
    1e64:	e28dd02c 	add	sp, sp, #44	; 0x2c
    1e68:	e8bd01f0 	pop	{r4, r5, r6, r7, r8}
    1e6c:	e12fff1e 	bx	lr
    1e70:	00003118 	andeq	r3, r0, r8, lsl r1

00001e74 <printk>:
    1e74:	e92d000f 	push	{r0, r1, r2, r3}
    1e78:	e92d47f0 	push	{r4, r5, r6, r7, r8, r9, sl, lr}
    1e7c:	e24dd018 	sub	sp, sp, #24
    1e80:	e28d303c 	add	r3, sp, #60	; 0x3c
    1e84:	e59d4038 	ldr	r4, [sp, #56]	; 0x38
    1e88:	e58d3014 	str	r3, [sp, #20]
    1e8c:	e59f82ac 	ldr	r8, [pc, #684]	; 2140 <printk+0x2cc>
    1e90:	e5d43000 	ldrb	r3, [r4]
    1e94:	e3530000 	cmp	r3, #0
    1e98:	01a05008 	moveq	r5, r8
    1e9c:	0a00002c 	beq	1f54 <printk+0xe0>
    1ea0:	e3a09025 	mov	r9, #37	; 0x25
    1ea4:	e28d6004 	add	r6, sp, #4
    1ea8:	e1a05008 	mov	r5, r8
    1eac:	ea000003 	b	1ec0 <printk+0x4c>
    1eb0:	e5d43001 	ldrb	r3, [r4, #1]
    1eb4:	e2844001 	add	r4, r4, #1
    1eb8:	e3530000 	cmp	r3, #0
    1ebc:	0a000024 	beq	1f54 <printk+0xe0>
    1ec0:	e3530025 	cmp	r3, #37	; 0x25
    1ec4:	14c53001 	strbne	r3, [r5], #1
    1ec8:	1afffff8 	bne	1eb0 <printk+0x3c>
    1ecc:	e5d43001 	ldrb	r3, [r4, #1]
    1ed0:	e2432031 	sub	r2, r3, #49	; 0x31
    1ed4:	e3520008 	cmp	r2, #8
    1ed8:	92437030 	subls	r7, r3, #48	; 0x30
    1edc:	95d43002 	ldrbls	r3, [r4, #2]
    1ee0:	82844001 	addhi	r4, r4, #1
    1ee4:	83a07000 	movhi	r7, #0
    1ee8:	92844002 	addls	r4, r4, #2
    1eec:	e2433063 	sub	r3, r3, #99	; 0x63
    1ef0:	e3530015 	cmp	r3, #21
    1ef4:	979ff103 	ldrls	pc, [pc, r3, lsl #2]
    1ef8:	ea000070 	b	20c0 <printk+0x24c>
    1efc:	000020a8 	andeq	r2, r0, r8, lsr #1
    1f00:	000020d4 	ldrdeq	r2, [r0], -r4
    1f04:	000020c0 	andeq	r2, r0, r0, asr #1
    1f08:	000020c0 	andeq	r2, r0, r0, asr #1
    1f0c:	000020c0 	andeq	r2, r0, r0, asr #1
    1f10:	000020c0 	andeq	r2, r0, r0, asr #1
    1f14:	000020c0 	andeq	r2, r0, r0, asr #1
    1f18:	000020c0 	andeq	r2, r0, r0, asr #1
    1f1c:	000020c0 	andeq	r2, r0, r0, asr #1
    1f20:	000020c0 	andeq	r2, r0, r0, asr #1
    1f24:	000020c0 	andeq	r2, r0, r0, asr #1
    1f28:	000020c0 	andeq	r2, r0, r0, asr #1
    1f2c:	000020c0 	andeq	r2, r0, r0, asr #1
    1f30:	00002038 	andeq	r2, r0, r8, lsr r0
    1f34:	000020c0 	andeq	r2, r0, r0, asr #1
    1f38:	000020c0 	andeq	r2, r0, r0, asr #1
    1f3c:	00001fe8 	andeq	r1, r0, r8, ror #31
    1f40:	000020c0 	andeq	r2, r0, r0, asr #1
    1f44:	00001f78 	andeq	r1, r0, r8, ror pc
    1f48:	000020c0 	andeq	r2, r0, r0, asr #1
    1f4c:	000020c0 	andeq	r2, r0, r0, asr #1
    1f50:	00002038 	andeq	r2, r0, r8, lsr r0
    1f54:	e3a03000 	mov	r3, #0
    1f58:	e59f01e0 	ldr	r0, [pc, #480]	; 2140 <printk+0x2cc>
    1f5c:	e4c53001 	strb	r3, [r5], #1
    1f60:	ebfffee1 	bl	1aec <serial_puts>
    1f64:	e0680005 	rsb	r0, r8, r5
    1f68:	e28dd018 	add	sp, sp, #24
    1f6c:	e8bd47f0 	pop	{r4, r5, r6, r7, r8, r9, sl, lr}
    1f70:	e28dd010 	add	sp, sp, #16
    1f74:	e12fff1e 	bx	lr
    1f78:	e59d0014 	ldr	r0, [sp, #20]
    1f7c:	e1a01006 	mov	r1, r6
    1f80:	e3a0200a 	mov	r2, #10
    1f84:	e2803004 	add	r3, r0, #4
    1f88:	e5900000 	ldr	r0, [r0]
    1f8c:	e58d3014 	str	r3, [sp, #20]
    1f90:	ebffff24 	bl	1c28 <utoa>
    1f94:	e5d6a000 	ldrb	sl, [r6]
    1f98:	e35a0000 	cmp	sl, #0
    1f9c:	0a000004 	beq	1fb4 <printk+0x140>
    1fa0:	e1a0a006 	mov	sl, r6
    1fa4:	e5fa3001 	ldrb	r3, [sl, #1]!
    1fa8:	e3530000 	cmp	r3, #0
    1fac:	1afffffc 	bne	1fa4 <printk+0x130>
    1fb0:	e066a00a 	rsb	sl, r6, sl
    1fb4:	e1a0100a 	mov	r1, sl
    1fb8:	e1a00006 	mov	r0, r6
    1fbc:	e1a02007 	mov	r2, r7
    1fc0:	ebffff47 	bl	1ce4 <print_align>
    1fc4:	e28d3003 	add	r3, sp, #3
    1fc8:	e080000a 	add	r0, r0, sl
    1fcc:	e1a01005 	mov	r1, r5
    1fd0:	e5f32001 	ldrb	r2, [r3, #1]!
    1fd4:	e3520000 	cmp	r2, #0
    1fd8:	e4c12001 	strb	r2, [r1], #1
    1fdc:	1afffffb 	bne	1fd0 <printk+0x15c>
    1fe0:	e0855000 	add	r5, r5, r0
    1fe4:	eaffffb1 	b	1eb0 <printk+0x3c>
    1fe8:	e59d3014 	ldr	r3, [sp, #20]
    1fec:	e1a01005 	mov	r1, r5
    1ff0:	e2832004 	add	r2, r3, #4
    1ff4:	e58d2014 	str	r2, [sp, #20]
    1ff8:	e5930000 	ldr	r0, [r3]
    1ffc:	e2402001 	sub	r2, r0, #1
    2000:	e5f23001 	ldrb	r3, [r2, #1]!
    2004:	e3530000 	cmp	r3, #0
    2008:	e4c13001 	strb	r3, [r1], #1
    200c:	1afffffb 	bne	2000 <printk+0x18c>
    2010:	e5d03000 	ldrb	r3, [r0]
    2014:	e3530000 	cmp	r3, #0
    2018:	0a000004 	beq	2030 <printk+0x1bc>
    201c:	e1a03000 	mov	r3, r0
    2020:	e5f32001 	ldrb	r2, [r3, #1]!
    2024:	e3520000 	cmp	r2, #0
    2028:	1afffffc 	bne	2020 <printk+0x1ac>
    202c:	e0603003 	rsb	r3, r0, r3
    2030:	e0855003 	add	r5, r5, r3
    2034:	eaffff9d 	b	1eb0 <printk+0x3c>
    2038:	e59d0014 	ldr	r0, [sp, #20]
    203c:	e1a01006 	mov	r1, r6
    2040:	e3a02010 	mov	r2, #16
    2044:	e2803004 	add	r3, r0, #4
    2048:	e5900000 	ldr	r0, [r0]
    204c:	e58d3014 	str	r3, [sp, #20]
    2050:	ebfffef4 	bl	1c28 <utoa>
    2054:	e5d6a000 	ldrb	sl, [r6]
    2058:	e35a0000 	cmp	sl, #0
    205c:	0a000004 	beq	2074 <printk+0x200>
    2060:	e1a0a006 	mov	sl, r6
    2064:	e5fa3001 	ldrb	r3, [sl, #1]!
    2068:	e3530000 	cmp	r3, #0
    206c:	1afffffc 	bne	2064 <printk+0x1f0>
    2070:	e066a00a 	rsb	sl, r6, sl
    2074:	e1a0100a 	mov	r1, sl
    2078:	e1a00006 	mov	r0, r6
    207c:	e1a02007 	mov	r2, r7
    2080:	ebffff17 	bl	1ce4 <print_align>
    2084:	e28d3003 	add	r3, sp, #3
    2088:	e080000a 	add	r0, r0, sl
    208c:	e1a01005 	mov	r1, r5
    2090:	e5f32001 	ldrb	r2, [r3, #1]!
    2094:	e3520000 	cmp	r2, #0
    2098:	e4c12001 	strb	r2, [r1], #1
    209c:	1afffffb 	bne	2090 <printk+0x21c>
    20a0:	e0855000 	add	r5, r5, r0
    20a4:	eaffff81 	b	1eb0 <printk+0x3c>
    20a8:	e59d3014 	ldr	r3, [sp, #20]
    20ac:	e5932000 	ldr	r2, [r3]
    20b0:	e2833004 	add	r3, r3, #4
    20b4:	e58d3014 	str	r3, [sp, #20]
    20b8:	e5c52000 	strb	r2, [r5]
    20bc:	eaffff7b 	b	1eb0 <printk+0x3c>
    20c0:	e5c59000 	strb	r9, [r5]
    20c4:	e5d43000 	ldrb	r3, [r4]
    20c8:	e5c53001 	strb	r3, [r5, #1]
    20cc:	e2855002 	add	r5, r5, #2
    20d0:	eaffff76 	b	1eb0 <printk+0x3c>
    20d4:	e59d2014 	ldr	r2, [sp, #20]
    20d8:	e1a01006 	mov	r1, r6
    20dc:	e2823004 	add	r3, r2, #4
    20e0:	e5920000 	ldr	r0, [r2]
    20e4:	e58d3014 	str	r3, [sp, #20]
    20e8:	ebffff27 	bl	1d8c <itoa.constprop.0>
    20ec:	e5d6a000 	ldrb	sl, [r6]
    20f0:	e35a0000 	cmp	sl, #0
    20f4:	0a000004 	beq	210c <printk+0x298>
    20f8:	e1a0a006 	mov	sl, r6
    20fc:	e5fa3001 	ldrb	r3, [sl, #1]!
    2100:	e3530000 	cmp	r3, #0
    2104:	1afffffc 	bne	20fc <printk+0x288>
    2108:	e066a00a 	rsb	sl, r6, sl
    210c:	e1a0100a 	mov	r1, sl
    2110:	e1a00006 	mov	r0, r6
    2114:	e1a02007 	mov	r2, r7
    2118:	ebfffef1 	bl	1ce4 <print_align>
    211c:	e28d3003 	add	r3, sp, #3
    2120:	e080000a 	add	r0, r0, sl
    2124:	e1a01005 	mov	r1, r5
    2128:	e5f32001 	ldrb	r2, [r3, #1]!
    212c:	e3520000 	cmp	r2, #0
    2130:	e4c12001 	strb	r2, [r1], #1
    2134:	1afffffb 	bne	2128 <printk+0x2b4>
    2138:	e0855000 	add	r5, r5, r0
    213c:	eaffff5b 	b	1eb0 <printk+0x3c>
    2140:	00003270 	andeq	r3, r0, r0, ror r2

00002144 <printk_nommu>:
    2144:	e92d000f 	push	{r0, r1, r2, r3}
    2148:	e92d47f0 	push	{r4, r5, r6, r7, r8, r9, sl, lr}
    214c:	e24dd018 	sub	sp, sp, #24
    2150:	e28d303c 	add	r3, sp, #60	; 0x3c
    2154:	e59d4038 	ldr	r4, [sp, #56]	; 0x38
    2158:	e58d3014 	str	r3, [sp, #20]
    215c:	e59f82ac 	ldr	r8, [pc, #684]	; 2410 <printk_nommu+0x2cc>
    2160:	e5d43000 	ldrb	r3, [r4]
    2164:	e3530000 	cmp	r3, #0
    2168:	01a05008 	moveq	r5, r8
    216c:	0a00002c 	beq	2224 <printk_nommu+0xe0>
    2170:	e3a09025 	mov	r9, #37	; 0x25
    2174:	e28d6004 	add	r6, sp, #4
    2178:	e1a05008 	mov	r5, r8
    217c:	ea000003 	b	2190 <printk_nommu+0x4c>
    2180:	e5d43001 	ldrb	r3, [r4, #1]
    2184:	e2844001 	add	r4, r4, #1
    2188:	e3530000 	cmp	r3, #0
    218c:	0a000024 	beq	2224 <printk_nommu+0xe0>
    2190:	e3530025 	cmp	r3, #37	; 0x25
    2194:	14c53001 	strbne	r3, [r5], #1
    2198:	1afffff8 	bne	2180 <printk_nommu+0x3c>
    219c:	e5d43001 	ldrb	r3, [r4, #1]
    21a0:	e2432031 	sub	r2, r3, #49	; 0x31
    21a4:	e3520008 	cmp	r2, #8
    21a8:	92437030 	subls	r7, r3, #48	; 0x30
    21ac:	95d43002 	ldrbls	r3, [r4, #2]
    21b0:	82844001 	addhi	r4, r4, #1
    21b4:	83a07000 	movhi	r7, #0
    21b8:	92844002 	addls	r4, r4, #2
    21bc:	e2433063 	sub	r3, r3, #99	; 0x63
    21c0:	e3530015 	cmp	r3, #21
    21c4:	979ff103 	ldrls	pc, [pc, r3, lsl #2]
    21c8:	ea000070 	b	2390 <printk_nommu+0x24c>
    21cc:	00002378 	andeq	r2, r0, r8, ror r3
    21d0:	000023a4 	andeq	r2, r0, r4, lsr #7
    21d4:	00002390 	muleq	r0, r0, r3
    21d8:	00002390 	muleq	r0, r0, r3
    21dc:	00002390 	muleq	r0, r0, r3
    21e0:	00002390 	muleq	r0, r0, r3
    21e4:	00002390 	muleq	r0, r0, r3
    21e8:	00002390 	muleq	r0, r0, r3
    21ec:	00002390 	muleq	r0, r0, r3
    21f0:	00002390 	muleq	r0, r0, r3
    21f4:	00002390 	muleq	r0, r0, r3
    21f8:	00002390 	muleq	r0, r0, r3
    21fc:	00002390 	muleq	r0, r0, r3
    2200:	00002308 	andeq	r2, r0, r8, lsl #6
    2204:	00002390 	muleq	r0, r0, r3
    2208:	00002390 	muleq	r0, r0, r3
    220c:	000022b8 			; <UNDEFINED> instruction: 0x000022b8
    2210:	00002390 	muleq	r0, r0, r3
    2214:	00002248 	andeq	r2, r0, r8, asr #4
    2218:	00002390 	muleq	r0, r0, r3
    221c:	00002390 	muleq	r0, r0, r3
    2220:	00002308 	andeq	r2, r0, r8, lsl #6
    2224:	e3a03000 	mov	r3, #0
    2228:	e59f01e0 	ldr	r0, [pc, #480]	; 2410 <printk_nommu+0x2cc>
    222c:	e4c53001 	strb	r3, [r5], #1
    2230:	ebfffdb1 	bl	18fc <serial_puts_nommu>
    2234:	e0680005 	rsb	r0, r8, r5
    2238:	e28dd018 	add	sp, sp, #24
    223c:	e8bd47f0 	pop	{r4, r5, r6, r7, r8, r9, sl, lr}
    2240:	e28dd010 	add	sp, sp, #16
    2244:	e12fff1e 	bx	lr
    2248:	e59d0014 	ldr	r0, [sp, #20]
    224c:	e1a01006 	mov	r1, r6
    2250:	e3a0200a 	mov	r2, #10
    2254:	e2803004 	add	r3, r0, #4
    2258:	e5900000 	ldr	r0, [r0]
    225c:	e58d3014 	str	r3, [sp, #20]
    2260:	ebfffe70 	bl	1c28 <utoa>
    2264:	e5d6a000 	ldrb	sl, [r6]
    2268:	e35a0000 	cmp	sl, #0
    226c:	0a000004 	beq	2284 <printk_nommu+0x140>
    2270:	e1a0a006 	mov	sl, r6
    2274:	e5fa3001 	ldrb	r3, [sl, #1]!
    2278:	e3530000 	cmp	r3, #0
    227c:	1afffffc 	bne	2274 <printk_nommu+0x130>
    2280:	e066a00a 	rsb	sl, r6, sl
    2284:	e1a0100a 	mov	r1, sl
    2288:	e1a00006 	mov	r0, r6
    228c:	e1a02007 	mov	r2, r7
    2290:	ebfffe93 	bl	1ce4 <print_align>
    2294:	e28d3003 	add	r3, sp, #3
    2298:	e080000a 	add	r0, r0, sl
    229c:	e1a01005 	mov	r1, r5
    22a0:	e5f32001 	ldrb	r2, [r3, #1]!
    22a4:	e3520000 	cmp	r2, #0
    22a8:	e4c12001 	strb	r2, [r1], #1
    22ac:	1afffffb 	bne	22a0 <printk_nommu+0x15c>
    22b0:	e0855000 	add	r5, r5, r0
    22b4:	eaffffb1 	b	2180 <printk_nommu+0x3c>
    22b8:	e59d3014 	ldr	r3, [sp, #20]
    22bc:	e1a01005 	mov	r1, r5
    22c0:	e2832004 	add	r2, r3, #4
    22c4:	e58d2014 	str	r2, [sp, #20]
    22c8:	e5930000 	ldr	r0, [r3]
    22cc:	e2402001 	sub	r2, r0, #1
    22d0:	e5f23001 	ldrb	r3, [r2, #1]!
    22d4:	e3530000 	cmp	r3, #0
    22d8:	e4c13001 	strb	r3, [r1], #1
    22dc:	1afffffb 	bne	22d0 <printk_nommu+0x18c>
    22e0:	e5d03000 	ldrb	r3, [r0]
    22e4:	e3530000 	cmp	r3, #0
    22e8:	0a000004 	beq	2300 <printk_nommu+0x1bc>
    22ec:	e1a03000 	mov	r3, r0
    22f0:	e5f32001 	ldrb	r2, [r3, #1]!
    22f4:	e3520000 	cmp	r2, #0
    22f8:	1afffffc 	bne	22f0 <printk_nommu+0x1ac>
    22fc:	e0603003 	rsb	r3, r0, r3
    2300:	e0855003 	add	r5, r5, r3
    2304:	eaffff9d 	b	2180 <printk_nommu+0x3c>
    2308:	e59d0014 	ldr	r0, [sp, #20]
    230c:	e1a01006 	mov	r1, r6
    2310:	e3a02010 	mov	r2, #16
    2314:	e2803004 	add	r3, r0, #4
    2318:	e5900000 	ldr	r0, [r0]
    231c:	e58d3014 	str	r3, [sp, #20]
    2320:	ebfffe40 	bl	1c28 <utoa>
    2324:	e5d6a000 	ldrb	sl, [r6]
    2328:	e35a0000 	cmp	sl, #0
    232c:	0a000004 	beq	2344 <printk_nommu+0x200>
    2330:	e1a0a006 	mov	sl, r6
    2334:	e5fa3001 	ldrb	r3, [sl, #1]!
    2338:	e3530000 	cmp	r3, #0
    233c:	1afffffc 	bne	2334 <printk_nommu+0x1f0>
    2340:	e066a00a 	rsb	sl, r6, sl
    2344:	e1a0100a 	mov	r1, sl
    2348:	e1a00006 	mov	r0, r6
    234c:	e1a02007 	mov	r2, r7
    2350:	ebfffe63 	bl	1ce4 <print_align>
    2354:	e28d3003 	add	r3, sp, #3
    2358:	e080000a 	add	r0, r0, sl
    235c:	e1a01005 	mov	r1, r5
    2360:	e5f32001 	ldrb	r2, [r3, #1]!
    2364:	e3520000 	cmp	r2, #0
    2368:	e4c12001 	strb	r2, [r1], #1
    236c:	1afffffb 	bne	2360 <printk_nommu+0x21c>
    2370:	e0855000 	add	r5, r5, r0
    2374:	eaffff81 	b	2180 <printk_nommu+0x3c>
    2378:	e59d3014 	ldr	r3, [sp, #20]
    237c:	e5932000 	ldr	r2, [r3]
    2380:	e2833004 	add	r3, r3, #4
    2384:	e58d3014 	str	r3, [sp, #20]
    2388:	e5c52000 	strb	r2, [r5]
    238c:	eaffff7b 	b	2180 <printk_nommu+0x3c>
    2390:	e5c59000 	strb	r9, [r5]
    2394:	e5d43000 	ldrb	r3, [r4]
    2398:	e5c53001 	strb	r3, [r5, #1]
    239c:	e2855002 	add	r5, r5, #2
    23a0:	eaffff76 	b	2180 <printk_nommu+0x3c>
    23a4:	e59d2014 	ldr	r2, [sp, #20]
    23a8:	e1a01006 	mov	r1, r6
    23ac:	e2823004 	add	r3, r2, #4
    23b0:	e5920000 	ldr	r0, [r2]
    23b4:	e58d3014 	str	r3, [sp, #20]
    23b8:	ebfffe73 	bl	1d8c <itoa.constprop.0>
    23bc:	e5d6a000 	ldrb	sl, [r6]
    23c0:	e35a0000 	cmp	sl, #0
    23c4:	0a000004 	beq	23dc <printk_nommu+0x298>
    23c8:	e1a0a006 	mov	sl, r6
    23cc:	e5fa3001 	ldrb	r3, [sl, #1]!
    23d0:	e3530000 	cmp	r3, #0
    23d4:	1afffffc 	bne	23cc <printk_nommu+0x288>
    23d8:	e066a00a 	rsb	sl, r6, sl
    23dc:	e1a0100a 	mov	r1, sl
    23e0:	e1a00006 	mov	r0, r6
    23e4:	e1a02007 	mov	r2, r7
    23e8:	ebfffe3d 	bl	1ce4 <print_align>
    23ec:	e28d3003 	add	r3, sp, #3
    23f0:	e080000a 	add	r0, r0, sl
    23f4:	e1a01005 	mov	r1, r5
    23f8:	e5f32001 	ldrb	r2, [r3, #1]!
    23fc:	e3520000 	cmp	r2, #0
    2400:	e4c12001 	strb	r2, [r1], #1
    2404:	1afffffb 	bne	23f8 <printk_nommu+0x2b4>
    2408:	e0855000 	add	r5, r5, r0
    240c:	eaffff5b 	b	2180 <printk_nommu+0x3c>
    2410:	00003270 	andeq	r3, r0, r0, ror r2

00002414 <standby_delay>:
    2414:	e92d000f 	push	{r0, r1, r2, r3}
    2418:	e3a01011 	mov	r1, #17
    241c:	e1a03000 	mov	r3, r0

00002420 <standby_delay_loop2>:
    2420:	e2500001 	subs	r0, r0, #1
    2424:	8afffffd 	bhi	2420 <standby_delay_loop2>
    2428:	e1a00003 	mov	r0, r3
    242c:	e2511001 	subs	r1, r1, #1
    2430:	8afffffa 	bhi	2420 <standby_delay_loop2>
    2434:	e8bd000f 	pop	{r0, r1, r2, r3}
    2438:	e1a0f00e 	mov	pc, lr

0000243c <standby_delay_cycle>:
    243c:	e2500001 	subs	r0, r0, #1
    2440:	8afffffd 	bhi	243c <standby_delay_cycle>
    2444:	e1a0f00e 	mov	pc, lr

00002448 <Ldiv0>:
    2448:	e52de008 	str	lr, [sp, #-8]!
    244c:	eb000067 	bl	25f0 <__mem_div0>
    2450:	e3a00000 	mov	r0, #0
    2454:	e49df008 	ldr	pc, [sp], #8

00002458 <__aeabi_uidiv>:
    2458:	e2512001 	subs	r2, r1, #1
    245c:	01a0f00e 	moveq	pc, lr
    2460:	3afffff8 	bcc	2448 <Ldiv0>
    2464:	e1500001 	cmp	r0, r1
    2468:	9a00001a 	bls	24d8 <__aeabi_uidiv+0x80>
    246c:	e1110002 	tst	r1, r2
    2470:	0a00001b 	beq	24e4 <__aeabi_uidiv+0x8c>
    2474:	e16f3f11 	clz	r3, r1
    2478:	e16f2f10 	clz	r2, r0
    247c:	e0432002 	sub	r2, r3, r2
    2480:	e3a03001 	mov	r3, #1
    2484:	e1a01211 	lsl	r1, r1, r2
    2488:	e1a03213 	lsl	r3, r3, r2
    248c:	e3a02000 	mov	r2, #0
    2490:	e1500001 	cmp	r0, r1
    2494:	20400001 	subcs	r0, r0, r1
    2498:	21822003 	orrcs	r2, r2, r3
    249c:	e15000a1 	cmp	r0, r1, lsr #1
    24a0:	204000a1 	subcs	r0, r0, r1, lsr #1
    24a4:	218220a3 	orrcs	r2, r2, r3, lsr #1
    24a8:	e1500121 	cmp	r0, r1, lsr #2
    24ac:	20400121 	subcs	r0, r0, r1, lsr #2
    24b0:	21822123 	orrcs	r2, r2, r3, lsr #2
    24b4:	e15001a1 	cmp	r0, r1, lsr #3
    24b8:	204001a1 	subcs	r0, r0, r1, lsr #3
    24bc:	218221a3 	orrcs	r2, r2, r3, lsr #3
    24c0:	e3500000 	cmp	r0, #0
    24c4:	11b03223 	lsrsne	r3, r3, #4
    24c8:	11a01221 	lsrne	r1, r1, #4
    24cc:	1affffef 	bne	2490 <__aeabi_uidiv+0x38>
    24d0:	e1a00002 	mov	r0, r2
    24d4:	e1a0f00e 	mov	pc, lr
    24d8:	03a00001 	moveq	r0, #1
    24dc:	13a00000 	movne	r0, #0
    24e0:	e1a0f00e 	mov	pc, lr
    24e4:	e16f2f11 	clz	r2, r1
    24e8:	e262201f 	rsb	r2, r2, #31
    24ec:	e1a00230 	lsr	r0, r0, r2
    24f0:	e1a0f00e 	mov	pc, lr

000024f4 <__aeabi_idiv>:
    24f4:	e3510000 	cmp	r1, #0
    24f8:	e020c001 	eor	ip, r0, r1
    24fc:	0affffd1 	beq	2448 <Ldiv0>
    2500:	42611000 	rsbmi	r1, r1, #0
    2504:	e2512001 	subs	r2, r1, #1
    2508:	0a00001f 	beq	258c <__aeabi_idiv+0x98>
    250c:	e1b03000 	movs	r3, r0
    2510:	42603000 	rsbmi	r3, r0, #0
    2514:	e1530001 	cmp	r3, r1
    2518:	9a00001e 	bls	2598 <__aeabi_idiv+0xa4>
    251c:	e1110002 	tst	r1, r2
    2520:	0a000020 	beq	25a8 <__aeabi_idiv+0xb4>
    2524:	e16f2f11 	clz	r2, r1
    2528:	e16f0f13 	clz	r0, r3
    252c:	e0420000 	sub	r0, r2, r0
    2530:	e3a02001 	mov	r2, #1
    2534:	e1a01011 	lsl	r1, r1, r0
    2538:	e1a02012 	lsl	r2, r2, r0
    253c:	e3a00000 	mov	r0, #0
    2540:	e1530001 	cmp	r3, r1
    2544:	20433001 	subcs	r3, r3, r1
    2548:	21800002 	orrcs	r0, r0, r2
    254c:	e15300a1 	cmp	r3, r1, lsr #1
    2550:	204330a1 	subcs	r3, r3, r1, lsr #1
    2554:	218000a2 	orrcs	r0, r0, r2, lsr #1
    2558:	e1530121 	cmp	r3, r1, lsr #2
    255c:	20433121 	subcs	r3, r3, r1, lsr #2
    2560:	21800122 	orrcs	r0, r0, r2, lsr #2
    2564:	e15301a1 	cmp	r3, r1, lsr #3
    2568:	204331a1 	subcs	r3, r3, r1, lsr #3
    256c:	218001a2 	orrcs	r0, r0, r2, lsr #3
    2570:	e3530000 	cmp	r3, #0
    2574:	11b02222 	lsrsne	r2, r2, #4
    2578:	11a01221 	lsrne	r1, r1, #4
    257c:	1affffef 	bne	2540 <__aeabi_idiv+0x4c>
    2580:	e35c0000 	cmp	ip, #0
    2584:	42600000 	rsbmi	r0, r0, #0
    2588:	e1a0f00e 	mov	pc, lr
    258c:	e13c0000 	teq	ip, r0
    2590:	42600000 	rsbmi	r0, r0, #0
    2594:	e1a0f00e 	mov	pc, lr
    2598:	33a00000 	movcc	r0, #0
    259c:	01a00fcc 	asreq	r0, ip, #31
    25a0:	03800001 	orreq	r0, r0, #1
    25a4:	e1a0f00e 	mov	pc, lr
    25a8:	e16f2f11 	clz	r2, r1
    25ac:	e262201f 	rsb	r2, r2, #31
    25b0:	e35c0000 	cmp	ip, #0
    25b4:	e1a00233 	lsr	r0, r3, r2
    25b8:	42600000 	rsbmi	r0, r0, #0
    25bc:	e1a0f00e 	mov	pc, lr

000025c0 <__aeabi_uidivmod>:
    25c0:	e92d5003 	push	{r0, r1, ip, lr}
    25c4:	ebffffa3 	bl	2458 <__aeabi_uidiv>
    25c8:	e8bd5006 	pop	{r1, r2, ip, lr}
    25cc:	e0030290 	mul	r3, r0, r2
    25d0:	e0411003 	sub	r1, r1, r3
    25d4:	e1a0f00e 	mov	pc, lr

000025d8 <__aeabi_idivmod>:
    25d8:	e92d5003 	push	{r0, r1, ip, lr}
    25dc:	ebffffc4 	bl	24f4 <__aeabi_idiv>
    25e0:	e8bd5006 	pop	{r1, r2, ip, lr}
    25e4:	e0030290 	mul	r3, r0, r2
    25e8:	e0411003 	sub	r1, r1, r3
    25ec:	e1a0f00e 	mov	pc, lr

000025f0 <__mem_div0>:
    25f0:	e3030140 	movw	r0, #12608	; 0x3140
    25f4:	e3400000 	movt	r0, #0
    25f8:	eafffe1d 	b	1e74 <printk>

000025fc <raw_lib_udiv>:
    25fc:	e3510000 	cmp	r1, #0
    2600:	01a02001 	moveq	r2, r1
    2604:	0a00000d 	beq	2640 <raw_lib_udiv+0x44>
    2608:	e3a03000 	mov	r3, #0
    260c:	ba000002 	blt	261c <raw_lib_udiv+0x20>
    2610:	e1b01081 	lsls	r1, r1, #1
    2614:	e2833001 	add	r3, r3, #1
    2618:	5afffffc 	bpl	2610 <raw_lib_udiv+0x14>
    261c:	e3a02000 	mov	r2, #0
    2620:	e1a0c082 	lsl	ip, r2, #1
    2624:	e1500001 	cmp	r0, r1
    2628:	20610000 	rsbcs	r0, r1, r0
    262c:	31a02082 	lslcc	r2, r2, #1
    2630:	238c2001 	orrcs	r2, ip, #1
    2634:	e1a010a1 	lsr	r1, r1, #1
    2638:	e2533001 	subs	r3, r3, #1
    263c:	5afffff7 	bpl	2620 <raw_lib_udiv+0x24>
    2640:	e1a00002 	mov	r0, r2
    2644:	e12fff1e 	bx	lr

00002648 <mem_int_init>:
    2648:	e59f0080 	ldr	r0, [pc, #128]	; 26d0 <mem_int_init+0x88>
    264c:	e3013184 	movw	r3, #4484	; 0x1184
    2650:	e3a02d47 	mov	r2, #4544	; 0x11c0
    2654:	e92d4010 	push	{r4, lr}
    2658:	e3a0ca02 	mov	ip, #8192	; 0x2000
    265c:	e3a04a01 	mov	r4, #4096	; 0x1000
    2660:	e34f31c8 	movt	r3, #61896	; 0xf1c8
    2664:	e3e01000 	mvn	r1, #0
    2668:	e34f21c8 	movt	r2, #61896	; 0xf1c8
    266c:	e34f41c8 	movt	r4, #61896	; 0xf1c8
    2670:	e34fc1c8 	movt	ip, #61896	; 0xf1c8
    2674:	e8801010 	stm	r0, {r4, ip}
    2678:	e4831004 	str	r1, [r3], #4
    267c:	e1530002 	cmp	r3, r2
    2680:	1afffffc 	bne	2678 <mem_int_init+0x30>
    2684:	e3013284 	movw	r3, #4740	; 0x1284
    2688:	e3a02d4b 	mov	r2, #4800	; 0x12c0
    268c:	e34f31c8 	movt	r3, #61896	; 0xf1c8
    2690:	e3e01000 	mvn	r1, #0
    2694:	e34f21c8 	movt	r2, #61896	; 0xf1c8
    2698:	e4831004 	str	r1, [r3], #4
    269c:	e1530002 	cmp	r3, r2
    26a0:	1afffffc 	bne	2698 <mem_int_init+0x50>
    26a4:	e3a03a02 	mov	r3, #8192	; 0x2000
    26a8:	e30023ff 	movw	r2, #1023	; 0x3ff
    26ac:	e34f31c8 	movt	r3, #61896	; 0xf1c8
    26b0:	e593100c 	ldr	r1, [r3, #12]
    26b4:	e1510002 	cmp	r1, r2
    26b8:	0a000002 	beq	26c8 <mem_int_init+0x80>
    26bc:	e5831010 	str	r1, [r3, #16]
    26c0:	e59f000c 	ldr	r0, [pc, #12]	; 26d4 <mem_int_init+0x8c>
    26c4:	ebfffdea 	bl	1e74 <printk>
    26c8:	e3a00000 	mov	r0, #0
    26cc:	e8bd8010 	pop	{r4, pc}
    26d0:	00003370 	andeq	r3, r0, r0, ror r3
    26d4:	0000315c 	andeq	r3, r0, ip, asr r1

000026d8 <mem_int_exit>:
    26d8:	e3a02000 	mov	r2, #0
    26dc:	e24dd008 	sub	sp, sp, #8
    26e0:	e1a03002 	mov	r3, r2
    26e4:	e58d2004 	str	r2, [sp, #4]
    26e8:	e59f2038 	ldr	r2, [pc, #56]	; 2728 <mem_int_exit+0x50>
    26ec:	e5922000 	ldr	r2, [r2]
    26f0:	e282cc01 	add	ip, r2, #256	; 0x100
    26f4:	e2822d0a 	add	r2, r2, #640	; 0x280
    26f8:	e79c1003 	ldr	r1, [ip, r3]
    26fc:	e58d1004 	str	r1, [sp, #4]
    2700:	e7921003 	ldr	r1, [r2, r3]
    2704:	e59d0004 	ldr	r0, [sp, #4]
    2708:	e1c11000 	bic	r1, r1, r0
    270c:	e7821003 	str	r1, [r2, r3]
    2710:	e2833004 	add	r3, r3, #4
    2714:	e3530040 	cmp	r3, #64	; 0x40
    2718:	1afffff6 	bne	26f8 <mem_int_exit+0x20>
    271c:	e3a00000 	mov	r0, #0
    2720:	e28dd008 	add	sp, sp, #8
    2724:	e12fff1e 	bx	lr
    2728:	00003370 	andeq	r3, r0, r0, ror r3

0000272c <mem_enable_int>:
    272c:	e59f3050 	ldr	r3, [pc, #80]	; 2784 <mem_enable_int+0x58>
    2730:	e3a01a01 	mov	r1, #4096	; 0x1000
    2734:	e3a02a02 	mov	r2, #8192	; 0x2000
    2738:	e3500000 	cmp	r0, #0
    273c:	e34f11c8 	movt	r1, #61896	; 0xf1c8
    2740:	e34f21c8 	movt	r2, #61896	; 0xf1c8
    2744:	e8830006 	stm	r3, {r1, r2}
    2748:	0a00000b 	beq	277c <mem_enable_int+0x50>
    274c:	e1a032a0 	lsr	r3, r0, #5
    2750:	e200201f 	and	r2, r0, #31
    2754:	e3a0c001 	mov	ip, #1
    2758:	e2833040 	add	r3, r3, #64	; 0x40
    275c:	e3a00000 	mov	r0, #0
    2760:	e1a03103 	lsl	r3, r3, #2
    2764:	e24336e3 	sub	r3, r3, #238026752	; 0xe300000
    2768:	e2433a7f 	sub	r3, r3, #520192	; 0x7f000
    276c:	e5931000 	ldr	r1, [r3]
    2770:	e181221c 	orr	r2, r1, ip, lsl r2
    2774:	e5832000 	str	r2, [r3]
    2778:	e12fff1e 	bx	lr
    277c:	e3e00000 	mvn	r0, #0
    2780:	e12fff1e 	bx	lr
    2784:	00003370 	andeq	r3, r0, r0, ror r3

00002788 <mem_query_int>:
    2788:	e59f3050 	ldr	r3, [pc, #80]	; 27e0 <mem_query_int+0x58>
    278c:	e3a01a01 	mov	r1, #4096	; 0x1000
    2790:	e3a02a02 	mov	r2, #8192	; 0x2000
    2794:	e3500000 	cmp	r0, #0
    2798:	e34f11c8 	movt	r1, #61896	; 0xf1c8
    279c:	e34f21c8 	movt	r2, #61896	; 0xf1c8
    27a0:	e8830006 	stm	r3, {r1, r2}
    27a4:	0a00000b 	beq	27d8 <mem_query_int+0x50>
    27a8:	e1a032a0 	lsr	r3, r0, #5
    27ac:	e3a02001 	mov	r2, #1
    27b0:	e200001f 	and	r0, r0, #31
    27b4:	e2833080 	add	r3, r3, #128	; 0x80
    27b8:	e1a03103 	lsl	r3, r3, #2
    27bc:	e24336e3 	sub	r3, r3, #238026752	; 0xe300000
    27c0:	e2433a7f 	sub	r3, r3, #520192	; 0x7f000
    27c4:	e5933000 	ldr	r3, [r3]
    27c8:	e0132012 	ands	r2, r3, r2, lsl r0
    27cc:	03e00000 	mvneq	r0, #0
    27d0:	13a00000 	movne	r0, #0
    27d4:	e12fff1e 	bx	lr
    27d8:	e3e00000 	mvn	r0, #0
    27dc:	e12fff1e 	bx	lr
    27e0:	00003370 	andeq	r3, r0, r0, ror r3

000027e4 <mem_gpio_save>:
    27e4:	e3a03b02 	mov	r3, #2048	; 0x800
    27e8:	e3a02eb2 	mov	r2, #2848	; 0xb20
    27ec:	e2400004 	sub	r0, r0, #4
    27f0:	e34f31c2 	movt	r3, #61890	; 0xf1c2
    27f4:	e34f21c2 	movt	r2, #61890	; 0xf1c2
    27f8:	e4931004 	ldr	r1, [r3], #4
    27fc:	e1530002 	cmp	r3, r2
    2800:	e5a01004 	str	r1, [r0, #4]!
    2804:	1afffffb 	bne	27f8 <mem_gpio_save+0x14>
    2808:	e3a00000 	mov	r0, #0
    280c:	e12fff1e 	bx	lr

00002810 <mem_gpio_restore>:
    2810:	e3a03b02 	mov	r3, #2048	; 0x800
    2814:	e3a02eb2 	mov	r2, #2848	; 0xb20
    2818:	e2400004 	sub	r0, r0, #4
    281c:	e34f31c2 	movt	r3, #61890	; 0xf1c2
    2820:	e34f21c2 	movt	r2, #61890	; 0xf1c2
    2824:	e5b01004 	ldr	r1, [r0, #4]!
    2828:	e4831004 	str	r1, [r3], #4
    282c:	e1530002 	cmp	r3, r2
    2830:	1afffffb 	bne	2824 <mem_gpio_restore+0x14>
    2834:	e3a00000 	mov	r0, #0
    2838:	e12fff1e 	bx	lr

0000283c <config_gpio_clk>:
    283c:	e59f303c 	ldr	r3, [pc, #60]	; 2880 <config_gpio_clk+0x44>
    2840:	e5932000 	ldr	r2, [r3]
    2844:	e3520000 	cmp	r2, #0
    2848:	112fff1e 	bxne	lr
    284c:	e3a01068 	mov	r1, #104	; 0x68
    2850:	e3500000 	cmp	r0, #0
    2854:	e1a02001 	mov	r2, r1
    2858:	e34011c2 	movt	r1, #450	; 0x1c2
    285c:	e34f21c2 	movt	r2, #61890	; 0xf1c2
    2860:	01a00001 	moveq	r0, r1
    2864:	11a00002 	movne	r0, r2
    2868:	e3a01001 	mov	r1, #1
    286c:	e5902000 	ldr	r2, [r0]
    2870:	e5831000 	str	r1, [r3]
    2874:	e3823020 	orr	r3, r2, #32
    2878:	e5803000 	str	r3, [r0]
    287c:	e12fff1e 	bx	lr
    2880:	00003378 	andeq	r3, r0, r8, ror r3

00002884 <mem_tmr_save>:
    2884:	e3a03000 	mov	r3, #0
    2888:	e1a02000 	mov	r2, r0
    288c:	e34f31c2 	movt	r3, #61890	; 0xf1c2
    2890:	e303037c 	movw	r0, #13180	; 0x337c
    2894:	e5931c00 	ldr	r1, [r3, #3072]	; 0xc00
    2898:	e3a0cb03 	mov	ip, #3072	; 0xc00
    289c:	e3400000 	movt	r0, #0
    28a0:	e34fc1c2 	movt	ip, #61890	; 0xf1c2
    28a4:	e580c000 	str	ip, [r0]
    28a8:	e3a00000 	mov	r0, #0
    28ac:	e5821000 	str	r1, [r2]
    28b0:	e5931c10 	ldr	r1, [r3, #3088]	; 0xc10
    28b4:	e5821010 	str	r1, [r2, #16]
    28b8:	e5931c14 	ldr	r1, [r3, #3092]	; 0xc14
    28bc:	e5821014 	str	r1, [r2, #20]
    28c0:	e5931c18 	ldr	r1, [r3, #3096]	; 0xc18
    28c4:	e5821018 	str	r1, [r2, #24]
    28c8:	e5931c20 	ldr	r1, [r3, #3104]	; 0xc20
    28cc:	e5821020 	str	r1, [r2, #32]
    28d0:	e5931c24 	ldr	r1, [r3, #3108]	; 0xc24
    28d4:	e5821024 	str	r1, [r2, #36]	; 0x24
    28d8:	e5933c28 	ldr	r3, [r3, #3112]	; 0xc28
    28dc:	e5823028 	str	r3, [r2, #40]	; 0x28
    28e0:	e12fff1e 	bx	lr

000028e4 <mem_tmr_restore>:
    28e4:	e303337c 	movw	r3, #13180	; 0x337c
    28e8:	e5901014 	ldr	r1, [r0, #20]
    28ec:	e3403000 	movt	r3, #0
    28f0:	e1a02000 	mov	r2, r0
    28f4:	e5933000 	ldr	r3, [r3]
    28f8:	e3a00000 	mov	r0, #0
    28fc:	e5831014 	str	r1, [r3, #20]
    2900:	e5921018 	ldr	r1, [r2, #24]
    2904:	e5831018 	str	r1, [r3, #24]
    2908:	e5921010 	ldr	r1, [r2, #16]
    290c:	e5831010 	str	r1, [r3, #16]
    2910:	e5921024 	ldr	r1, [r2, #36]	; 0x24
    2914:	e5831024 	str	r1, [r3, #36]	; 0x24
    2918:	e5921028 	ldr	r1, [r2, #40]	; 0x28
    291c:	e5831028 	str	r1, [r3, #40]	; 0x28
    2920:	e5921020 	ldr	r1, [r2, #32]
    2924:	e5831020 	str	r1, [r3, #32]
    2928:	e5922000 	ldr	r2, [r2]
    292c:	e5832000 	str	r2, [r3]
    2930:	e12fff1e 	bx	lr

00002934 <mem_tmr_init>:
    2934:	e3a02000 	mov	r2, #0
    2938:	e303337c 	movw	r3, #13180	; 0x337c
    293c:	e34f21c2 	movt	r2, #61890	; 0xf1c2
    2940:	e3a01b03 	mov	r1, #3072	; 0xc00
    2944:	e592ccb4 	ldr	ip, [r2, #3252]	; 0xcb4
    2948:	e3403000 	movt	r3, #0
    294c:	e34f11c2 	movt	r1, #61890	; 0xf1c2
    2950:	e3a00000 	mov	r0, #0
    2954:	e8831002 	stm	r3, {r1, ip}
    2958:	e5921cb8 	ldr	r1, [r2, #3256]	; 0xcb8
    295c:	e5831008 	str	r1, [r3, #8]
    2960:	e5922ca0 	ldr	r2, [r2, #3232]	; 0xca0
    2964:	e583200c 	str	r2, [r3, #12]
    2968:	e12fff1e 	bx	lr

0000296c <mem_tmr_exit>:
    296c:	e303337c 	movw	r3, #13180	; 0x337c
    2970:	e3a00000 	mov	r0, #0
    2974:	e3403000 	movt	r3, #0
    2978:	e8931004 	ldm	r3, {r2, ip}
    297c:	e5931008 	ldr	r1, [r3, #8]
    2980:	e593300c 	ldr	r3, [r3, #12]
    2984:	e582c0b4 	str	ip, [r2, #180]	; 0xb4
    2988:	e58210b8 	str	r1, [r2, #184]	; 0xb8
    298c:	e58230a0 	str	r3, [r2, #160]	; 0xa0
    2990:	e12fff1e 	bx	lr

00002994 <mem_tmr_enable_watchdog>:
    2994:	e303337c 	movw	r3, #13180	; 0x337c
    2998:	e3403000 	movt	r3, #0
    299c:	e5933000 	ldr	r3, [r3]
    29a0:	e59320b4 	ldr	r2, [r3, #180]	; 0xb4
    29a4:	e3c22003 	bic	r2, r2, #3
    29a8:	e58320b4 	str	r2, [r3, #180]	; 0xb4
    29ac:	e59320b4 	ldr	r2, [r3, #180]	; 0xb4
    29b0:	e3822001 	orr	r2, r2, #1
    29b4:	e58320b4 	str	r2, [r3, #180]	; 0xb4
    29b8:	e3a020b0 	mov	r2, #176	; 0xb0
    29bc:	e58320b8 	str	r2, [r3, #184]	; 0xb8
    29c0:	e59320a0 	ldr	r2, [r3, #160]	; 0xa0
    29c4:	e3822001 	orr	r2, r2, #1
    29c8:	e58320a0 	str	r2, [r3, #160]	; 0xa0
    29cc:	e59320b8 	ldr	r2, [r3, #184]	; 0xb8
    29d0:	e3822001 	orr	r2, r2, #1
    29d4:	e58320b8 	str	r2, [r3, #184]	; 0xb8
    29d8:	e12fff1e 	bx	lr

000029dc <mem_tmr_disable_watchdog>:
    29dc:	e303337c 	movw	r3, #13180	; 0x337c
    29e0:	e3403000 	movt	r3, #0
    29e4:	e5933000 	ldr	r3, [r3]
    29e8:	e59320b4 	ldr	r2, [r3, #180]	; 0xb4
    29ec:	e3c22003 	bic	r2, r2, #3
    29f0:	e58320b4 	str	r2, [r3, #180]	; 0xb4
    29f4:	e59320b4 	ldr	r2, [r3, #180]	; 0xb4
    29f8:	e3822002 	orr	r2, r2, #2
    29fc:	e58320b4 	str	r2, [r3, #180]	; 0xb4
    2a00:	e59320a0 	ldr	r2, [r3, #160]	; 0xa0
    2a04:	e3c22001 	bic	r2, r2, #1
    2a08:	e58320a0 	str	r2, [r3, #160]	; 0xa0
    2a0c:	e59320b8 	ldr	r2, [r3, #184]	; 0xb8
    2a10:	e3c22001 	bic	r2, r2, #1
    2a14:	e58320b8 	str	r2, [r3, #184]	; 0xb8
    2a18:	e12fff1e 	bx	lr

00002a1c <mem_tmr_set>:
    2a1c:	e303337c 	movw	r3, #13180	; 0x337c
    2a20:	e3a01001 	mov	r1, #1
    2a24:	e3403000 	movt	r3, #0
    2a28:	e1a0c500 	lsl	ip, r0, #10
    2a2c:	e5933000 	ldr	r3, [r3]
    2a30:	e3a02000 	mov	r2, #0
    2a34:	e1a00002 	mov	r0, r2
    2a38:	e5831004 	str	r1, [r3, #4]
    2a3c:	e5831000 	str	r1, [r3]
    2a40:	e5832010 	str	r2, [r3, #16]
    2a44:	e3a020d0 	mov	r2, #208	; 0xd0
    2a48:	e583c014 	str	ip, [r3, #20]
    2a4c:	e5832010 	str	r2, [r3, #16]
    2a50:	e5932010 	ldr	r2, [r3, #16]
    2a54:	e3822002 	orr	r2, r2, #2
    2a58:	e5832010 	str	r2, [r3, #16]
    2a5c:	e5932010 	ldr	r2, [r3, #16]
    2a60:	e1822001 	orr	r2, r2, r1
    2a64:	e5832010 	str	r2, [r3, #16]
    2a68:	e12fff1e 	bx	lr

00002a6c <mem_tmstmp_save>:
    2a6c:	e3a03000 	mov	r3, #0
    2a70:	e1a02000 	mov	r2, r0
    2a74:	e34f3172 	movt	r3, #61810	; 0xf172
    2a78:	e303038c 	movw	r0, #13196	; 0x338c
    2a7c:	e5931000 	ldr	r1, [r3]
    2a80:	e3400000 	movt	r0, #0
    2a84:	e5803000 	str	r3, [r0]
    2a88:	e3a00000 	mov	r0, #0
    2a8c:	e5821000 	str	r1, [r2]
    2a90:	e5933020 	ldr	r3, [r3, #32]
    2a94:	e5823020 	str	r3, [r2, #32]
    2a98:	e12fff1e 	bx	lr

00002a9c <mem_tmstmp_restore>:
    2a9c:	e303338c 	movw	r3, #13196	; 0x338c
    2aa0:	e5901000 	ldr	r1, [r0]
    2aa4:	e3403000 	movt	r3, #0
    2aa8:	e1a02000 	mov	r2, r0
    2aac:	e5933000 	ldr	r3, [r3]
    2ab0:	e3a00000 	mov	r0, #0
    2ab4:	e5831000 	str	r1, [r3]
    2ab8:	e5922020 	ldr	r2, [r2, #32]
    2abc:	e5832020 	str	r2, [r3, #32]
    2ac0:	e12fff1e 	bx	lr

00002ac4 <hwspinlock_init>:
    2ac4:	e3a03000 	mov	r3, #0
    2ac8:	e3500001 	cmp	r0, #1
    2acc:	034f31c2 	movteq	r3, #61890	; 0xf1c2
    2ad0:	134031c2 	movtne	r3, #450	; 0x1c2
    2ad4:	e59322c4 	ldr	r2, [r3, #708]	; 0x2c4
    2ad8:	e3a00000 	mov	r0, #0
    2adc:	e3822501 	orr	r2, r2, #4194304	; 0x400000
    2ae0:	e58322c4 	str	r2, [r3, #708]	; 0x2c4
    2ae4:	e5932064 	ldr	r2, [r3, #100]	; 0x64
    2ae8:	e3822501 	orr	r2, r2, #4194304	; 0x400000
    2aec:	e5832064 	str	r2, [r3, #100]	; 0x64
    2af0:	e12fff1e 	bx	lr

00002af4 <hwspin_lock_timeout>:
    2af4:	e92d4008 	push	{r3, lr}
    2af8:	e10fc000 	mrs	ip, CPSR
    2afc:	f10c0080 	cpsid	i
    2b00:	e3062040 	movw	r2, #24640	; 0x6040
    2b04:	e3432c70 	movt	r2, #15472	; 0x3c70
    2b08:	e59f3058 	ldr	r3, [pc, #88]	; 2b68 <hwspin_lock_timeout+0x74>
    2b0c:	e0802002 	add	r2, r0, r2
    2b10:	e1a02102 	lsl	r2, r2, #2
    2b14:	e583c000 	str	ip, [r3]
    2b18:	e5923000 	ldr	r3, [r2]
    2b1c:	e3530001 	cmp	r3, #1
    2b20:	1a00000e 	bne	2b60 <hwspin_lock_timeout+0x6c>
    2b24:	e1b01501 	lsls	r1, r1, #10
    2b28:	1a000002 	bne	2b38 <hwspin_lock_timeout+0x44>
    2b2c:	ea000006 	b	2b4c <hwspin_lock_timeout+0x58>
    2b30:	e2511001 	subs	r1, r1, #1
    2b34:	0a000004 	beq	2b4c <hwspin_lock_timeout+0x58>
    2b38:	e5923000 	ldr	r3, [r2]
    2b3c:	e3530001 	cmp	r3, #1
    2b40:	0afffffa 	beq	2b30 <hwspin_lock_timeout+0x3c>
    2b44:	e3a00000 	mov	r0, #0
    2b48:	e8bd8008 	pop	{r3, pc}
    2b4c:	e121f00c 	msr	CPSR_c, ip
    2b50:	e59f0014 	ldr	r0, [pc, #20]	; 2b6c <hwspin_lock_timeout+0x78>
    2b54:	ebfffcc6 	bl	1e74 <printk>
    2b58:	e3e00000 	mvn	r0, #0
    2b5c:	e8bd8008 	pop	{r3, pc}
    2b60:	e3a00000 	mov	r0, #0
    2b64:	e8bd8008 	pop	{r3, pc}
    2b68:	00003390 	muleq	r0, r0, r3
    2b6c:	00003178 	andeq	r3, r0, r8, ror r1

00002b70 <hwspin_unlock>:
    2b70:	e3063040 	movw	r3, #24640	; 0x6040
    2b74:	e3032390 	movw	r2, #13200	; 0x3390
    2b78:	e3433c70 	movt	r3, #15472	; 0x3c70
    2b7c:	e3a01000 	mov	r1, #0
    2b80:	e0803003 	add	r3, r0, r3
    2b84:	e3402000 	movt	r2, #0
    2b88:	e1a03103 	lsl	r3, r3, #2
    2b8c:	e5922000 	ldr	r2, [r2]
    2b90:	e5831000 	str	r1, [r3]
    2b94:	e121f002 	msr	CPSR_c, r2
    2b98:	e1a00001 	mov	r0, r1
    2b9c:	e12fff1e 	bx	lr

00002ba0 <hwspin_lock_timeout_nommu>:
    2ba0:	e10fc000 	mrs	ip, CPSR
    2ba4:	f10c0080 	cpsid	i
    2ba8:	e3062040 	movw	r2, #24640	; 0x6040
    2bac:	e59f3054 	ldr	r3, [pc, #84]	; 2c08 <hwspin_lock_timeout_nommu+0x68>
    2bb0:	e3402070 	movt	r2, #112	; 0x70
    2bb4:	e0802002 	add	r2, r0, r2
    2bb8:	e1a02102 	lsl	r2, r2, #2
    2bbc:	e583c000 	str	ip, [r3]
    2bc0:	e5923000 	ldr	r3, [r2]
    2bc4:	e3530001 	cmp	r3, #1
    2bc8:	1a00000c 	bne	2c00 <hwspin_lock_timeout_nommu+0x60>
    2bcc:	e1b01501 	lsls	r1, r1, #10
    2bd0:	1a000002 	bne	2be0 <hwspin_lock_timeout_nommu+0x40>
    2bd4:	ea000006 	b	2bf4 <hwspin_lock_timeout_nommu+0x54>
    2bd8:	e2511001 	subs	r1, r1, #1
    2bdc:	0a000004 	beq	2bf4 <hwspin_lock_timeout_nommu+0x54>
    2be0:	e5923000 	ldr	r3, [r2]
    2be4:	e3530001 	cmp	r3, #1
    2be8:	0afffffa 	beq	2bd8 <hwspin_lock_timeout_nommu+0x38>
    2bec:	e3a00000 	mov	r0, #0
    2bf0:	e12fff1e 	bx	lr
    2bf4:	e121f00c 	msr	CPSR_c, ip
    2bf8:	e3e00000 	mvn	r0, #0
    2bfc:	e12fff1e 	bx	lr
    2c00:	e3a00000 	mov	r0, #0
    2c04:	e12fff1e 	bx	lr
    2c08:	00003390 	muleq	r0, r0, r3

00002c0c <hwspin_unlock_nommu>:
    2c0c:	e3063040 	movw	r3, #24640	; 0x6040
    2c10:	e3032390 	movw	r2, #13200	; 0x3390
    2c14:	e3403070 	movt	r3, #112	; 0x70
    2c18:	e3a01000 	mov	r1, #0
    2c1c:	e0803003 	add	r3, r0, r3
    2c20:	e3402000 	movt	r2, #0
    2c24:	e1a03103 	lsl	r3, r3, #2
    2c28:	e5922000 	ldr	r2, [r2]
    2c2c:	e5831000 	str	r1, [r3]
    2c30:	e121f002 	msr	CPSR_c, r2
    2c34:	e1a00001 	mov	r0, r1
    2c38:	e12fff1e 	bx	lr

00002c3c <mem_clk_init>:
    2c3c:	e3500001 	cmp	r0, #1
    2c40:	e3a03000 	mov	r3, #0
    2c44:	059f201c 	ldreq	r2, [pc, #28]	; 2c68 <mem_clk_init+0x2c>
    2c48:	034f31c2 	movteq	r3, #61890	; 0xf1c2
    2c4c:	159f2014 	ldrne	r2, [pc, #20]	; 2c68 <mem_clk_init+0x2c>
    2c50:	134031c2 	movtne	r3, #450	; 0x1c2
    2c54:	01a00003 	moveq	r0, r3
    2c58:	11a00003 	movne	r0, r3
    2c5c:	05823000 	streq	r3, [r2]
    2c60:	15823000 	strne	r3, [r2]
    2c64:	e12fff1e 	bx	lr
    2c68:	00003394 	muleq	r0, r4, r3

00002c6c <mem_get_ba>:
    2c6c:	e3033394 	movw	r3, #13204	; 0x3394
    2c70:	e3403000 	movt	r3, #0
    2c74:	e5930000 	ldr	r0, [r3]
    2c78:	e12fff1e 	bx	lr

00002c7c <mem_clk_save>:
    2c7c:	e3a03000 	mov	r3, #0
    2c80:	e1a02000 	mov	r2, r0
    2c84:	e34f31c2 	movt	r3, #61890	; 0xf1c2
    2c88:	e3030394 	movw	r0, #13204	; 0x3394
    2c8c:	e5931050 	ldr	r1, [r3, #80]	; 0x50
    2c90:	e3400000 	movt	r0, #0
    2c94:	e5803000 	str	r3, [r0]
    2c98:	e3a00000 	mov	r0, #0
    2c9c:	e5823000 	str	r3, [r2]
    2ca0:	e5821004 	str	r1, [r2, #4]
    2ca4:	e5931058 	ldr	r1, [r3, #88]	; 0x58
    2ca8:	e5821008 	str	r1, [r2, #8]
    2cac:	e5933054 	ldr	r3, [r3, #84]	; 0x54
    2cb0:	e582300c 	str	r3, [r2, #12]
    2cb4:	e12fff1e 	bx	lr

00002cb8 <mem_clk_restore>:
    2cb8:	e5903000 	ldr	r3, [r0]
    2cbc:	e3031394 	movw	r1, #13204	; 0x3394
    2cc0:	e590c004 	ldr	ip, [r0, #4]
    2cc4:	e1a02000 	mov	r2, r0
    2cc8:	e3401000 	movt	r1, #0
    2ccc:	e3a00000 	mov	r0, #0
    2cd0:	e5813000 	str	r3, [r1]
    2cd4:	e583c050 	str	ip, [r3, #80]	; 0x50
    2cd8:	e5921008 	ldr	r1, [r2, #8]
    2cdc:	e5831058 	str	r1, [r3, #88]	; 0x58
    2ce0:	e592200c 	ldr	r2, [r2, #12]
    2ce4:	e5832054 	str	r2, [r3, #84]	; 0x54
    2ce8:	e12fff1e 	bx	lr

00002cec <mem_clk_setdiv>:
    2cec:	e92d4038 	push	{r3, r4, r5, lr}
    2cf0:	e2504000 	subs	r4, r0, #0
    2cf4:	0a000015 	beq	2d50 <mem_clk_setdiv+0x64>
    2cf8:	e59f5058 	ldr	r5, [pc, #88]	; 2d58 <mem_clk_setdiv+0x6c>
    2cfc:	e3a03000 	mov	r3, #0
    2d00:	e34031c2 	movt	r3, #450	; 0x1c2
    2d04:	e5941000 	ldr	r1, [r4]
    2d08:	e3a00005 	mov	r0, #5
    2d0c:	e5853000 	str	r3, [r5]
    2d10:	e5932050 	ldr	r2, [r3, #80]	; 0x50
    2d14:	e7c12011 	bfi	r2, r1, #0, #2
    2d18:	e5852004 	str	r2, [r5, #4]
    2d1c:	e5832050 	str	r2, [r3, #80]	; 0x50
    2d20:	e5942004 	ldr	r2, [r4, #4]
    2d24:	e3c22a03 	bic	r2, r2, #12288	; 0x3000
    2d28:	e3822a01 	orr	r2, r2, #4096	; 0x1000
    2d2c:	e5832054 	str	r2, [r3, #84]	; 0x54
    2d30:	ebfff69a 	bl	7a0 <delay_us>
    2d34:	e5953000 	ldr	r3, [r5]
    2d38:	e3a00005 	mov	r0, #5
    2d3c:	e5942004 	ldr	r2, [r4, #4]
    2d40:	e5832054 	str	r2, [r3, #84]	; 0x54
    2d44:	ebfff695 	bl	7a0 <delay_us>
    2d48:	e3a00000 	mov	r0, #0
    2d4c:	e8bd8038 	pop	{r3, r4, r5, pc}
    2d50:	e3e00000 	mvn	r0, #0
    2d54:	e8bd8038 	pop	{r3, r4, r5, pc}
    2d58:	00003394 	muleq	r0, r4, r3

00002d5c <mem_clk_getdiv>:
    2d5c:	e2502000 	subs	r2, r0, #0
    2d60:	e52d4004 	push	{r4}		; (str r4, [sp, #-4]!)
    2d64:	03e00000 	mvneq	r0, #0
    2d68:	0a00000a 	beq	2d98 <mem_clk_getdiv+0x3c>
    2d6c:	e59f102c 	ldr	r1, [pc, #44]	; 2da0 <mem_clk_getdiv+0x44>
    2d70:	e3a03000 	mov	r3, #0
    2d74:	e34f31c2 	movt	r3, #61890	; 0xf1c2
    2d78:	e3a00000 	mov	r0, #0
    2d7c:	e5813000 	str	r3, [r1]
    2d80:	e593c050 	ldr	ip, [r3, #80]	; 0x50
    2d84:	e20c4003 	and	r4, ip, #3
    2d88:	e581c004 	str	ip, [r1, #4]
    2d8c:	e5824000 	str	r4, [r2]
    2d90:	e5933054 	ldr	r3, [r3, #84]	; 0x54
    2d94:	e5823004 	str	r3, [r2, #4]
    2d98:	e8bd0010 	pop	{r4}
    2d9c:	e12fff1e 	bx	lr
    2da0:	00003394 	muleq	r0, r4, r3

00002da4 <mem_clk_set_pll_factor>:
    2da4:	e3033394 	movw	r3, #13204	; 0x3394
    2da8:	e3a02000 	mov	r2, #0
    2dac:	e3403000 	movt	r3, #0
    2db0:	e34021c2 	movt	r2, #450	; 0x1c2
    2db4:	e1a01000 	mov	r1, r0
    2db8:	e52d4004 	push	{r4}		; (str r4, [sp, #-4]!)
    2dbc:	e5832000 	str	r2, [r3]
    2dc0:	e3a00000 	mov	r0, #0
    2dc4:	e5d14003 	ldrb	r4, [r1, #3]
    2dc8:	e592c000 	ldr	ip, [r2]
    2dcc:	e7d0c814 	bfi	ip, r4, #16, #1
    2dd0:	e583c008 	str	ip, [r3, #8]
    2dd4:	e5d14002 	ldrb	r4, [r1, #2]
    2dd8:	e7c1c014 	bfi	ip, r4, #0, #2
    2ddc:	e583c008 	str	ip, [r3, #8]
    2de0:	e5d11000 	ldrb	r1, [r1]
    2de4:	e5c31009 	strb	r1, [r3, #9]
    2de8:	e5933008 	ldr	r3, [r3, #8]
    2dec:	e5823000 	str	r3, [r2]
    2df0:	e8bd0010 	pop	{r4}
    2df4:	e12fff1e 	bx	lr

00002df8 <mem_clk_get_pll_factor>:
    2df8:	e3033394 	movw	r3, #13204	; 0x3394
    2dfc:	e3a02000 	mov	r2, #0
    2e00:	e3403000 	movt	r3, #0
    2e04:	e34f21c2 	movt	r2, #61890	; 0xf1c2
    2e08:	e92d0030 	push	{r4, r5}
    2e0c:	e1a01000 	mov	r1, r0
    2e10:	e5832000 	str	r2, [r3]
    2e14:	e3a00000 	mov	r0, #0
    2e18:	e5922000 	ldr	r2, [r2]
    2e1c:	e7e75452 	ubfx	r5, r2, #8, #8
    2e20:	e7e14052 	ubfx	r4, r2, #0, #2
    2e24:	e7e0c852 	ubfx	ip, r2, #16, #1
    2e28:	e5832008 	str	r2, [r3, #8]
    2e2c:	e5c15000 	strb	r5, [r1]
    2e30:	e5c14002 	strb	r4, [r1, #2]
    2e34:	e5c1c003 	strb	ip, [r1, #3]
    2e38:	e8bd0030 	pop	{r4, r5}
    2e3c:	e12fff1e 	bx	lr

00002e40 <mem_clk_set_misc>:
    2e40:	e1a02000 	mov	r2, r0
    2e44:	e5900000 	ldr	r0, [r0]
    2e48:	e3031394 	movw	r1, #13204	; 0x3394
    2e4c:	e3a03000 	mov	r3, #0
    2e50:	e34031c2 	movt	r3, #450	; 0x1c2
    2e54:	e3401000 	movt	r1, #0
    2e58:	e5813000 	str	r3, [r1]
    2e5c:	e5830220 	str	r0, [r3, #544]	; 0x220
    2e60:	e3a00000 	mov	r0, #0
    2e64:	e592c008 	ldr	ip, [r2, #8]
    2e68:	e583c250 	str	ip, [r3, #592]	; 0x250
    2e6c:	e592c00c 	ldr	ip, [r2, #12]
    2e70:	e583c238 	str	ip, [r3, #568]	; 0x238
    2e74:	e592c010 	ldr	ip, [r2, #16]
    2e78:	e583c254 	str	ip, [r3, #596]	; 0x254
    2e7c:	e592c014 	ldr	ip, [r2, #20]
    2e80:	e583c004 	str	ip, [r3, #4]
    2e84:	e592c024 	ldr	ip, [r2, #36]	; 0x24
    2e88:	e583c228 	str	ip, [r3, #552]	; 0x228
    2e8c:	e592c028 	ldr	ip, [r2, #40]	; 0x28
    2e90:	e583c22c 	str	ip, [r3, #556]	; 0x22c
    2e94:	e592c02c 	ldr	ip, [r2, #44]	; 0x2c
    2e98:	e583c234 	str	ip, [r3, #564]	; 0x234
    2e9c:	e592c030 	ldr	ip, [r2, #48]	; 0x30
    2ea0:	e583c288 	str	ip, [r3, #648]	; 0x288
    2ea4:	e592c034 	ldr	ip, [r2, #52]	; 0x34
    2ea8:	e583c2a8 	str	ip, [r3, #680]	; 0x2a8
    2eac:	e592c018 	ldr	ip, [r2, #24]
    2eb0:	e583c010 	str	ip, [r3, #16]
    2eb4:	e592c01c 	ldr	ip, [r2, #28]
    2eb8:	e583c018 	str	ip, [r3, #24]
    2ebc:	e592c020 	ldr	ip, [r2, #32]
    2ec0:	e583c028 	str	ip, [r3, #40]	; 0x28
    2ec4:	e5922038 	ldr	r2, [r2, #56]	; 0x38
    2ec8:	e5832058 	str	r2, [r3, #88]	; 0x58
    2ecc:	e3a02002 	mov	r2, #2
    2ed0:	e593c050 	ldr	ip, [r3, #80]	; 0x50
    2ed4:	e7c1c012 	bfi	ip, r2, #0, #2
    2ed8:	e583c050 	str	ip, [r3, #80]	; 0x50
    2edc:	e1a0200c 	mov	r2, ip
    2ee0:	e3a0c001 	mov	ip, #1
    2ee4:	e7c1201c 	bfi	r2, ip, #0, #2
    2ee8:	e5812004 	str	r2, [r1, #4]
    2eec:	e5832050 	str	r2, [r3, #80]	; 0x50
    2ef0:	e12fff1e 	bx	lr

00002ef4 <mem_clk_get_misc>:
    2ef4:	e3a03000 	mov	r3, #0
    2ef8:	e1a02000 	mov	r2, r0
    2efc:	e34f31c2 	movt	r3, #61890	; 0xf1c2
    2f00:	e3030394 	movw	r0, #13204	; 0x3394
    2f04:	e5931220 	ldr	r1, [r3, #544]	; 0x220
    2f08:	e3400000 	movt	r0, #0
    2f0c:	e5803000 	str	r3, [r0]
    2f10:	e3a00000 	mov	r0, #0
    2f14:	e5821000 	str	r1, [r2]
    2f18:	e5931250 	ldr	r1, [r3, #592]	; 0x250
    2f1c:	e5821008 	str	r1, [r2, #8]
    2f20:	e5931238 	ldr	r1, [r3, #568]	; 0x238
    2f24:	e582100c 	str	r1, [r2, #12]
    2f28:	e5931254 	ldr	r1, [r3, #596]	; 0x254
    2f2c:	e5821010 	str	r1, [r2, #16]
    2f30:	e5931004 	ldr	r1, [r3, #4]
    2f34:	e5821014 	str	r1, [r2, #20]
    2f38:	e5931228 	ldr	r1, [r3, #552]	; 0x228
    2f3c:	e5821024 	str	r1, [r2, #36]	; 0x24
    2f40:	e593122c 	ldr	r1, [r3, #556]	; 0x22c
    2f44:	e5821028 	str	r1, [r2, #40]	; 0x28
    2f48:	e5931288 	ldr	r1, [r3, #648]	; 0x288
    2f4c:	e5821030 	str	r1, [r2, #48]	; 0x30
    2f50:	e59312a8 	ldr	r1, [r3, #680]	; 0x2a8
    2f54:	e5821034 	str	r1, [r2, #52]	; 0x34
    2f58:	e5931010 	ldr	r1, [r3, #16]
    2f5c:	e5821018 	str	r1, [r2, #24]
    2f60:	e5931018 	ldr	r1, [r3, #24]
    2f64:	e582101c 	str	r1, [r2, #28]
    2f68:	e5931234 	ldr	r1, [r3, #564]	; 0x234
    2f6c:	e582102c 	str	r1, [r2, #44]	; 0x2c
    2f70:	e5931028 	ldr	r1, [r3, #40]	; 0x28
    2f74:	e5821020 	str	r1, [r2, #32]
    2f78:	e5933058 	ldr	r3, [r3, #88]	; 0x58
    2f7c:	e5823038 	str	r3, [r2, #56]	; 0x38
    2f80:	e12fff1e 	bx	lr

00002f84 <mem_clk_get_cpu_freq>:
    2f84:	e59f3050 	ldr	r3, [pc, #80]	; 2fdc <mem_clk_get_cpu_freq+0x58>
    2f88:	e52d4004 	push	{r4}		; (str r4, [sp, #-4]!)
    2f8c:	e5931000 	ldr	r1, [r3]
    2f90:	e5912050 	ldr	r2, [r1, #80]	; 0x50
    2f94:	e3120a01 	tst	r2, #4096	; 0x1000
    2f98:	e5832004 	str	r2, [r3, #4]
    2f9c:	1a000002 	bne	2fac <mem_clk_get_cpu_freq+0x28>
    2fa0:	e3050dc0 	movw	r0, #24000	; 0x5dc0
    2fa4:	e8bd0010 	pop	{r4}
    2fa8:	e12fff1e 	bx	lr
    2fac:	e5912000 	ldr	r2, [r1]
    2fb0:	e3054dc0 	movw	r4, #24000	; 0x5dc0
    2fb4:	e3120801 	tst	r2, #65536	; 0x10000
    2fb8:	e7e70452 	ubfx	r0, r2, #8, #8
    2fbc:	e202c003 	and	ip, r2, #3
    2fc0:	13a01004 	movne	r1, #4
    2fc4:	03a01001 	moveq	r1, #1
    2fc8:	e0000094 	mul	r0, r4, r0
    2fcc:	e5832008 	str	r2, [r3, #8]
    2fd0:	e021119c 	mla	r1, ip, r1, r1
    2fd4:	e8bd0010 	pop	{r4}
    2fd8:	eafffd87 	b	25fc <raw_lib_udiv>
    2fdc:	00003394 	muleq	r0, r4, r3

Disassembly of section .rodata:

00002fe0 <CSWTCH.9>:
    2fe0:	00000001 	andeq	r0, r0, r1
    2fe4:	00000002 	andeq	r0, r0, r2
    2fe8:	00000000 	andeq	r0, r0, r0
    2fec:	00000003 	andeq	r0, r0, r3

00002ff0 <CSWTCH.12>:
    2ff0:	00007d00 	andeq	r7, r0, r0, lsl #26
    2ff4:	016e3600 	cmneq	lr, r0, lsl #12
    2ff8:	47868c00 	strmi	r8, [r6, r0, lsl #24]

Disassembly of section .rodata.str1.4:

00002ffc <.rodata.str1.4>:
    2ffc:	75736572 	ldrbvc	r6, [r3, #-1394]!	; 0x572
    3000:	3a31656d 	bcc	c5c5bc <__bss_end+0xc59044>
    3004:	202e3020 	eorcs	r3, lr, r0, lsr #32
    3008:	0000000a 	andeq	r0, r0, sl
    300c:	75736572 	ldrbvc	r6, [r3, #-1394]!	; 0x572
    3010:	3a31656d 	bcc	c5c5cc <__bss_end+0xc59054>
    3014:	202e3120 	eorcs	r3, lr, r0, lsr #2
    3018:	6f666562 	svcvs	0x00666562
    301c:	72206572 	eorvc	r6, r0, #478150656	; 0x1c800000
    3020:	6f747365 	svcvs	0x00747365
    3024:	6d206572 	cfstr32vs	mvfx6, [r0, #-456]!	; 0xfffffe38
    3028:	202e756d 	eorcs	r7, lr, sp, ror #10
    302c:	0000000a 	andeq	r0, r0, sl
    3030:	75736572 	ldrbvc	r6, [r3, #-1394]!	; 0x572
    3034:	3a31656d 	bcc	c5c5f0 <__bss_end+0xc59078>
    3038:	202e3320 	eorcs	r3, lr, r0, lsr #6
    303c:	65746661 	ldrbvs	r6, [r4, #-1633]!	; 0x661
    3040:	65722072 	ldrbvs	r2, [r2, #-114]!	; 0x72
    3044:	726f7473 	rsbvc	r7, pc, #1929379840	; 0x73000000
    3048:	6d6d2065 	stclvs	0, cr2, [sp, #-404]!	; 0xfffffe6c
    304c:	62202c75 	eorvs	r2, r0, #29952	; 0x7500
    3050:	726f6665 	rsbvc	r6, pc, #105906176	; 0x6500000
    3054:	756a2065 	strbvc	r2, [sl, #-101]!	; 0x65
    3058:	0a2e706d 	beq	b9f214 <__bss_end+0xb9bc9c>
    305c:	00000000 	andeq	r0, r0, r0
    3060:	5f746567 	svcpl	0x00746567
    3064:	5f727563 	svcpl	0x00727563
    3068:	73756c63 	cmnvc	r5, #25344	; 0x6300
    306c:	5f726574 	svcpl	0x00726574
    3070:	3d206469 	cfstrscc	mvf6, [r0, #-420]!	; 0xfffffe5c
    3074:	2e642520 	cdpcs	5, 6, cr2, cr4, cr0, {1}
    3078:	00000a20 	andeq	r0, r0, r0, lsr #20
    307c:	5f6d656d 	svcpl	0x006d656d
    3080:	61726170 	cmnvs	r2, r0, ror r1
    3084:	666e695f 			; <UNDEFINED> instruction: 0x666e695f
    3088:	65642e6f 	strbvs	r2, [r4, #-3695]!	; 0xe6f
    308c:	5f677562 	svcpl	0x00677562
    3090:	6b73616d 	blvs	1cdb64c <__bss_end+0x1cd80d4>
    3094:	25203d20 	strcs	r3, [r0, #-3360]!	; 0xd20
    3098:	0a202e78 	beq	80ea80 <__bss_end+0x80b508>
    309c:	00000000 	andeq	r0, r0, r0
    30a0:	616c6564 	cmnvs	ip, r4, ror #10
    30a4:	656d2079 	strbvs	r2, [sp, #-121]!	; 0x79
    30a8:	61705f6d 	cmnvs	r0, sp, ror #30
    30ac:	695f6172 	ldmdbvs	pc, {r1, r4, r5, r6, r8, sp, lr}^	; <UNPREDICTABLE>
    30b0:	2e6f666e 	cdpcs	6, 6, cr6, cr15, cr14, {3}
    30b4:	70737573 	rsbsvc	r7, r3, r3, ror r5
    30b8:	5f646e65 	svcpl	0x00646e65
    30bc:	616c6564 	cmnvs	ip, r4, ror #10
    30c0:	736d5f79 	cmnvc	sp, #484	; 0x1e4
    30c4:	25203d20 	strcs	r3, [r0, #-3360]!	; 0xd20
    30c8:	0a202e64 	beq	80ea60 <__bss_end+0x80b4e8>
    30cc:	00000000 	andeq	r0, r0, r0
    30d0:	72646461 	rsbvc	r6, r4, #1627389952	; 0x61000000
    30d4:	3a465020 	bcc	119715c <__bss_end+0x1193be4>
    30d8:	25783020 	ldrbcs	r3, [r8, #-32]!
    30dc:	203d2078 	eorscs	r2, sp, r8, ror r0
    30e0:	78257830 	stmdavc	r5!, {r4, r5, fp, ip, sp, lr}
    30e4:	000a202e 	andeq	r2, sl, lr, lsr #32
    30e8:	72646461 	rsbvc	r6, r4, #1627389952	; 0x61000000
    30ec:	3a485020 	bcc	1217174 <__bss_end+0x1213bfc>
    30f0:	25783020 	ldrbcs	r3, [r8, #-32]!
    30f4:	203d2078 	eorscs	r2, sp, r8, ror r0
    30f8:	78257830 	stmdavc	r5!, {r4, r5, fp, ip, sp, lr}
    30fc:	000a202e 	andeq	r2, sl, lr, lsr #32
    3100:	72646461 	rsbvc	r6, r4, #1627389952	; 0x61000000
    3104:	2c782520 	cfldr64cs	mvdx2, [r8], #-128	; 0xffffff80
    3108:	6c617620 	stclvs	6, cr7, [r1], #-128	; 0xffffff80
    310c:	3d206575 	cfstr32cc	mvfx6, [r0, #-468]!	; 0xfffffe2c
    3110:	2e782520 	cdpcs	5, 7, cr2, cr8, cr0, {1}
    3114:	00000a20 	andeq	r0, r0, r0, lsr #20
    3118:	33323130 	teqcc	r2, #12
    311c:	37363534 			; <UNDEFINED> instruction: 0x37363534
    3120:	42413938 	submi	r3, r1, #917504	; 0xe0000
    3124:	46454443 	strbmi	r4, [r5], -r3, asr #8
    3128:	00000000 	andeq	r0, r0, r0
    312c:	20202020 	eorcs	r2, r0, r0, lsr #32
    3130:	20202020 	eorcs	r2, r0, r0, lsr #32
    3134:	20202020 	eorcs	r2, r0, r0, lsr #32
    3138:	20202020 	eorcs	r2, r0, r0, lsr #32
    313c:	00000000 	andeq	r0, r0, r0
    3140:	65747441 	ldrbvs	r7, [r4, #-1089]!	; 0x441
    3144:	6974706d 	ldmdbvs	r4!, {r0, r2, r3, r5, r6, ip, sp, lr}^
    3148:	6420676e 	strtvs	r6, [r0], #-1902	; 0x76e
    314c:	73697669 	cmnvc	r9, #110100480	; 0x6900000
    3150:	206e6f69 	rsbcs	r6, lr, r9, ror #30
    3154:	30207962 	eorcc	r7, r0, r2, ror #18
    3158:	00000021 	andeq	r0, r0, r1, lsr #32
    315c:	69746f6e 	ldmdbvs	r4!, {r1, r2, r3, r5, r6, r8, r9, sl, fp, sp, lr}^
    3160:	203a6563 	eorscs	r6, sl, r3, ror #10
    3164:	20636967 	rsbcs	r6, r3, r7, ror #18
    3168:	20726169 	rsbscs	r6, r2, r9, ror #2
    316c:	30203d3d 	eorcc	r3, r0, sp, lsr sp
    3170:	2e782578 	mrccs	5, 3, r2, cr8, cr8, {3}
    3174:	00000a20 	andeq	r0, r0, r0, lsr #20
    3178:	656b6174 	strbvs	r6, [fp, #-372]!	; 0x174
    317c:	73776820 	cmnvc	r7, #2097152	; 0x200000
    3180:	6c6e6970 	stclvs	9, cr6, [lr], #-448	; 0xfffffe40
    3184:	206b636f 	rsbcs	r6, fp, pc, ror #6
    3188:	656d6974 	strbvs	r6, [sp, #-2420]!	; 0x974
    318c:	0a74756f 	beq	1d20750 <__bss_end+0x1d1d1d8>
    3190:	00000000 	andeq	r0, r0, r0

Disassembly of section .data:

00003194 <tmpPtr>:
    3194:	00003198 	muleq	r0, r8, r1

Disassembly of section .bss:

00003198 <status_reg>:
    3198:	00000000 	andeq	r0, r0, r0

0000319c <status_reg_pa>:
    319c:	00000000 	andeq	r0, r0, r0

000031a0 <status_reg_tmp>:
    31a0:	00000000 	andeq	r0, r0, r0

000031a4 <status_reg_pa_tmp>:
    31a4:	00000000 	andeq	r0, r0, r0

000031a8 <print_flag>:
    31a8:	00000000 	andeq	r0, r0, r0

000031ac <backup_perf_counter_ctrl_reg>:
    31ac:	00000000 	andeq	r0, r0, r0

000031b0 <backup_perf_counter_enable_reg>:
    31b0:	00000000 	andeq	r0, r0, r0

000031b4 <overhead>:
    31b4:	00000000 	andeq	r0, r0, r0

000031b8 <cpu_freq>:
    31b8:	00000000 	andeq	r0, r0, r0

000031bc <saved_context>:
	...

0000325c <backup_gpio_uart>:
    325c:	00000000 	andeq	r0, r0, r0

00003260 <backup_ccu_uart>:
    3260:	00000000 	andeq	r0, r0, r0

00003264 <backup_ccu_uart_reset>:
    3264:	00000000 	andeq	r0, r0, r0

00003268 <backup_port_id>:
    3268:	00000000 	andeq	r0, r0, r0

0000326c <serial_inited_flag>:
    326c:	00000000 	andeq	r0, r0, r0

00003270 <debugger_buffer>:
	...

00003370 <GicDDisc>:
    3370:	00000000 	andeq	r0, r0, r0

00003374 <GicCDisc>:
    3374:	00000000 	andeq	r0, r0, r0

00003378 <gpio_clk_inited.2428>:
    3378:	00000000 	andeq	r0, r0, r0

0000337c <TmrReg>:
    337c:	00000000 	andeq	r0, r0, r0

00003380 <WatchDog1_Config_Reg_Bak>:
    3380:	00000000 	andeq	r0, r0, r0

00003384 <WatchDog1_Mod_Reg_Bak>:
    3384:	00000000 	andeq	r0, r0, r0

00003388 <WatchDog1_Irq_En_Bak>:
    3388:	00000000 	andeq	r0, r0, r0

0000338c <TmstmpReg>:
    338c:	00000000 	andeq	r0, r0, r0

00003390 <cpsr_backup>:
    3390:	00000000 	andeq	r0, r0, r0

00003394 <CmuReg>:
    3394:	00000000 	andeq	r0, r0, r0

00003398 <CmuReg_SysClkDiv_tmp>:
    3398:	00000000 	andeq	r0, r0, r0

0000339c <CmuReg_Pll1Ctl_tmp>:
    339c:	00000000 	andeq	r0, r0, r0

000033a0 <mem_para_info>:
	...

00003460 <saved_context_r13_irq>:
	...

00003468 <saved_context_r12_svc>:
	...

00003470 <saved_spsr_fiq>:
    3470:	00000000 	andeq	r0, r0, r0

00003474 <saved_spsr_und>:
    3474:	00000000 	andeq	r0, r0, r0

00003478 <saved_spsr_irq>:
    3478:	00000000 	andeq	r0, r0, r0

0000347c <saved_context_r13_abt>:
	...

00003484 <saved_spsr_mon>:
    3484:	00000000 	andeq	r0, r0, r0

00003488 <saved_empty_context_svc>:
	...

00003538 <saved_context_r13_fiq>:
	...

00003554 <saved_cpsr_svc>:
    3554:	00000000 	andeq	r0, r0, r0

00003558 <saved_context_r13_sys>:
	...

00003560 <saved_spsr_abt>:
    3560:	00000000 	andeq	r0, r0, r0

00003564 <saved_context_r13_mon>:
	...

0000356c <saved_spsr_svc>:
    356c:	00000000 	andeq	r0, r0, r0

00003570 <saved_context_r13_und>:
	...

Disassembly of section .debug_info:

00000000 <.debug_info>:
       0:	000001b0 			; <UNDEFINED> instruction: 0x000001b0
       4:	00000002 	andeq	r0, r0, r2
       8:	01040000 	mrseq	r0, (UNDEF: 4)
       c:	00000046 	andeq	r0, r0, r6, asr #32
      10:	0001d301 	andeq	sp, r1, r1, lsl #6
      14:	0000c100 	andeq	ip, r0, r0, lsl #2
      18:	00008c00 	andeq	r8, r0, r0, lsl #24
      1c:	00008c00 	andeq	r8, r0, r0, lsl #24
      20:	00000000 	andeq	r0, r0, r0
      24:	06010200 	streq	r0, [r1], -r0, lsl #4
      28:	00000081 	andeq	r0, r0, r1, lsl #1
      2c:	7f080102 	svcvc	0x00080102
      30:	02000000 	andeq	r0, r0, #0
      34:	01b60502 			; <UNDEFINED> instruction: 0x01b60502
      38:	02020000 	andeq	r0, r2, #0
      3c:	0000a307 	andeq	sl, r0, r7, lsl #6
      40:	05040300 	streq	r0, [r4, #-768]	; 0x300
      44:	00746e69 	rsbseq	r6, r4, r9, ror #28
      48:	4a070402 	bmi	1c1058 <__bss_end+0x1bdae0>
      4c:	02000001 	andeq	r0, r0, #1
      50:	01910508 	orrseq	r0, r1, r8, lsl #10
      54:	08020000 	stmdaeq	r2, {}	; <UNPREDICTABLE>
      58:	00014007 	andeq	r4, r1, r7
      5c:	016d0400 	cmneq	sp, r0, lsl #8
      60:	02040000 	andeq	r0, r4, #0
      64:	0000ca7a 	andeq	ip, r0, sl, ror sl
      68:	001e0500 	andseq	r0, lr, r0, lsl #10
      6c:	05000000 	streq	r0, [r0, #-0]
      70:	00000096 	muleq	r0, r6, r0
      74:	00390501 	eorseq	r0, r9, r1, lsl #10
      78:	05020000 	streq	r0, [r2, #-0]
      7c:	00000073 	andeq	r0, r0, r3, ror r0
      80:	019f0503 	orrseq	r0, pc, r3, lsl #10
      84:	05040000 	streq	r0, [r4, #-0]
      88:	00000134 	andeq	r0, r0, r4, lsr r1
      8c:	011c0505 	tsteq	ip, r5, lsl #10
      90:	05060000 	streq	r0, [r6, #-0]
      94:	00000157 	andeq	r0, r0, r7, asr r1
      98:	00120507 	andseq	r0, r2, r7, lsl #10
      9c:	05080000 	streq	r0, [r8, #-0]
      a0:	00000068 	andeq	r0, r0, r8, rrx
      a4:	01290509 	teqeq	r9, r9, lsl #10
      a8:	050a0000 	streq	r0, [sl, #-0]
      ac:	000001ab 	andeq	r0, r0, fp, lsr #3
      b0:	0167050b 	cmneq	r7, fp, lsl #10
      b4:	050c0000 	streq	r0, [ip, #-0]
      b8:	00000183 	andeq	r0, r0, r3, lsl #3
      bc:	0230050d 	eorseq	r0, r0, #54525952	; 0x3400000
      c0:	050e0000 	streq	r0, [lr, #-0]
      c4:	0000002b 	andeq	r0, r0, fp, lsr #32
      c8:	0102000f 	tsteq	r2, pc
      cc:	00008808 	andeq	r8, r0, r8, lsl #16
      d0:	07040200 	streq	r0, [r4, -r0, lsl #4]
      d4:	00000145 	andeq	r0, r0, r5, asr #2
      d8:	00000006 	andeq	r0, r0, r6
      dc:	49013000 	stmdbmi	r1, {ip, sp}
      e0:	00000171 	andeq	r0, r0, r1, ror r1
      e4:	00010b07 	andeq	r0, r1, r7, lsl #22
      e8:	484b0100 	stmdami	fp, {r8}^
      ec:	02000000 	andeq	r0, r0, #0
      f0:	1a070023 	bne	1c0184 <__bss_end+0x1bcc0c>
      f4:	01000002 	tsteq	r0, r2
      f8:	0001714c 	andeq	r7, r1, ip, asr #2
      fc:	04230200 	strteq	r0, [r3], #-512	; 0x200
     100:	0000e707 	andeq	lr, r0, r7, lsl #14
     104:	484d0100 	stmdami	sp, {r8}^
     108:	02000000 	andeq	r0, r0, #0
     10c:	20070c23 	andcs	r0, r7, r3, lsr #24
     110:	01000002 	tsteq	r0, r2
     114:	0000484e 	andeq	r4, r0, lr, asr #16
     118:	10230200 	eorne	r0, r3, r0, lsl #4
     11c:	0000f107 	andeq	pc, r0, r7, lsl #2
     120:	484f0100 	stmdami	pc, {r8}^	; <UNPREDICTABLE>
     124:	02000000 	andeq	r0, r0, #0
     128:	0d071423 	cfstrseq	mvf1, [r7, #-140]	; 0xffffff74
     12c:	01000002 	tsteq	r0, r2
     130:	00018150 	andeq	r8, r1, r0, asr r1
     134:	18230200 	stmdane	r3!, {r9}
     138:	00017507 	andeq	r7, r1, r7, lsl #10
     13c:	81510100 	cmphi	r1, r0, lsl #2
     140:	02000001 	andeq	r0, r0, #1
     144:	b6071c23 	strlt	r1, [r7], -r3, lsr #24
     148:	01000000 	mrseq	r0, (UNDEF: 0)
     14c:	00018152 	andeq	r8, r1, r2, asr r1
     150:	20230200 	eorcs	r0, r3, r0, lsl #4
     154:	00008d07 	andeq	r8, r0, r7, lsl #26
     158:	81530100 	cmphi	r3, r0, lsl #2
     15c:	02000001 	andeq	r0, r0, #1
     160:	27072423 	strcs	r2, [r7, -r3, lsr #8]
     164:	01000002 	tsteq	r0, r2
     168:	00017154 	andeq	r7, r1, r4, asr r1
     16c:	28230200 	stmdacs	r3!, {r9}
     170:	002c0800 	eoreq	r0, ip, r0, lsl #16
     174:	01810000 	orreq	r0, r1, r0
     178:	48090000 	stmdami	r9, {}	; <UNPREDICTABLE>
     17c:	07000000 	streq	r0, [r0, -r0]
     180:	002c0800 	eoreq	r0, ip, r0, lsl #16
     184:	01910000 	orrseq	r0, r1, r0
     188:	48090000 	stmdami	r9, {}	; <UNPREDICTABLE>
     18c:	03000000 	movweq	r0, #0
     190:	01c00a00 	biceq	r0, r0, r0, lsl #20
     194:	55010000 	strpl	r0, [r1, #-0]
     198:	000000d8 	ldrdeq	r0, [r0], -r8
     19c:	0000ff0b 	andeq	pc, r0, fp, lsl #30
     1a0:	ae240300 	cdpge	3, 2, cr0, cr4, cr0, {0}
     1a4:	01000001 	tsteq	r0, r1
     1a8:	00000305 	andeq	r0, r0, r5, lsl #6
     1ac:	910c0000 	mrsls	r0, (UNDEF: 12)
     1b0:	00000001 	andeq	r0, r0, r1
     1b4:	0000007e 	andeq	r0, r0, lr, ror r0
     1b8:	00970002 	addseq	r0, r7, r2
     1bc:	01040000 	mrseq	r0, (UNDEF: 4)
     1c0:	000000bc 	strheq	r0, [r0], -ip
     1c4:	00000030 	andeq	r0, r0, r0, lsr r0
     1c8:	0000008c 	andeq	r0, r0, ip, lsl #1
     1cc:	68637261 	stmdavs	r3!, {r0, r5, r6, r9, ip, sp, lr}^
     1d0:	6d72612f 	ldfvse	f6, [r2, #-188]!	; 0xffffff44
     1d4:	63616d2f 	cmnvs	r1, #3008	; 0xbc0
     1d8:	75732d68 	ldrbvc	r2, [r3, #-3432]!	; 0xd68
     1dc:	2f69786e 	svccs	0x0069786e
     1e0:	732f6d70 	teqvc	pc, #7168	; 0x1c00
     1e4:	646e6174 	strbtvs	r6, [lr], #-372	; 0x174
     1e8:	732f7962 	teqvc	pc, #1605632	; 0x188000
     1ec:	72657075 	rsbvc	r7, r5, #117	; 0x75
     1f0:	7365722f 	cmnvc	r5, #-268435454	; 0xf0000002
     1f4:	2f656d75 	svccs	0x00656d75
     1f8:	75736572 	ldrbvc	r6, [r3, #-1394]!	; 0x572
     1fc:	2e31656d 	cdpcs	5, 3, cr6, cr1, cr13, {3}
     200:	682f0053 	stmdavs	pc!, {r0, r1, r4, r6}	; <UNPREDICTABLE>
     204:	2f656d6f 	svccs	0x00656d6f
     208:	2f6d6f74 	svccs	0x006d6f74
     20c:	5f736274 	svcpl	0x00736274
     210:	6c626174 	stfvse	f6, [r2], #-464	; 0xfffffe30
     214:	6c2f7465 	cfstrsvs	mvf7, [pc], #-404	; 88 <_start+0x58>
     218:	65686369 	strbvs	r6, [r8, #-873]!	; 0x369
     21c:	696c2f65 	stmdbvs	ip!, {r0, r2, r5, r6, r8, r9, sl, fp, sp}^
     220:	2d78756e 	cfldr64cs	mvdx7, [r8, #-440]!	; 0xfffffe48
     224:	00342e33 	eorseq	r2, r4, r3, lsr lr
     228:	20554e47 	subscs	r4, r5, r7, asr #28
     22c:	32205341 	eorcc	r5, r0, #67108865	; 0x4000001
     230:	0032322e 	eorseq	r3, r2, lr, lsr #4
     234:	00cc8001 	sbceq	r8, ip, r1
     238:	00020000 	andeq	r0, r2, r0
     23c:	000000ab 	andeq	r0, r0, fp, lsr #1
     240:	00460104 	subeq	r0, r6, r4, lsl #2
     244:	3c010000 	stccc	0, cr0, [r1], {-0}
     248:	c1000002 	tstgt	r0, r2
     24c:	8c000000 	stchi	0, cr0, [r0], {-0}
     250:	b4000000 	strlt	r0, [r0], #-0
     254:	3b000000 	blcc	25c <set_pll+0x24>
     258:	02000001 	andeq	r0, r0, #1
     25c:	00810601 	addeq	r0, r1, r1, lsl #12
     260:	01020000 	mrseq	r0, (UNDEF: 2)
     264:	00007f08 	andeq	r7, r0, r8, lsl #30
     268:	05020200 	streq	r0, [r2, #-512]	; 0x200
     26c:	000001b6 			; <UNDEFINED> instruction: 0x000001b6
     270:	a3070202 	movwge	r0, #29186	; 0x7202
     274:	03000000 	movweq	r0, #0
     278:	6e690504 	cdpvs	5, 6, cr0, cr9, cr4, {0}
     27c:	04020074 	streq	r0, [r2], #-116	; 0x74
     280:	00014a07 	andeq	r4, r1, r7, lsl #20
     284:	05080200 	streq	r0, [r8, #-512]	; 0x200
     288:	00000191 	muleq	r0, r1, r1
     28c:	40070802 	andmi	r0, r7, r2, lsl #16
     290:	02000001 	andeq	r0, r0, #1
     294:	00880801 	addeq	r0, r8, r1, lsl #16
     298:	04040000 	streq	r0, [r4], #-0
     29c:	00000048 	andeq	r0, r0, r8, asr #32
     2a0:	45070402 	strmi	r0, [r7, #-1026]	; 0x402
     2a4:	05000001 	streq	r0, [r0, #-1]
     2a8:	7a010604 	bvc	41ac0 <__bss_end+0x3e548>
     2ac:	01000002 	tsteq	r0, r2
     2b0:	008c0123 	addeq	r0, ip, r3, lsr #2
     2b4:	00b40000 	adcseq	r0, r4, r0
     2b8:	7d020000 	stcvc	0, cr0, [r2, #-0]
     2bc:	16320700 	ldrtne	r0, [r2], -r0, lsl #14
     2c0:	23010000 	movwcs	r0, #4096	; 0x1000
     2c4:	00000071 	andeq	r0, r0, r1, ror r0
     2c8:	00000000 	andeq	r0, r0, r0
     2cc:	63727308 	cmnvs	r2, #536870912	; 0x20000000
     2d0:	71230100 	teqvc	r3, r0, lsl #2
     2d4:	13000000 	movwne	r0, #0
     2d8:	08000000 	stmdaeq	r0, {}	; <UNPREDICTABLE>
     2dc:	2301006e 	movwcs	r0, #4206	; 0x106e
     2e0:	00000041 	andeq	r0, r0, r1, asr #32
     2e4:	00000026 	andeq	r0, r0, r6, lsr #32
     2e8:	00027209 	andeq	r7, r2, r9, lsl #4
     2ec:	64250100 	strtvs	r0, [r5], #-256	; 0x100
     2f0:	51000000 	mrspl	r0, (UNDEF: 0)
     2f4:	0a000000 	beq	2fc <set_pll+0xc4>
     2f8:	0000026a 	andeq	r0, r0, sl, ror #4
     2fc:	00642601 	rsbeq	r2, r4, r1, lsl #12
     300:	50010000 	andpl	r0, r1, r0
     304:	00680000 	rsbeq	r0, r8, r0
     308:	00020000 	andeq	r0, r2, r0
     30c:	00000136 	andeq	r0, r0, r6, lsr r1
     310:	00460104 	subeq	r0, r6, r4, lsl #2
     314:	85010000 	strhi	r0, [r1, #-0]
     318:	c1000002 	tstgt	r0, r2
     31c:	b4000000 	strlt	r0, [r0], #-0
     320:	b4000000 	strlt	r0, [r0], #-0
     324:	b1000000 	mrslt	r0, (UNDEF: 0)
     328:	02000001 	andeq	r0, r0, #1
     32c:	00810601 	addeq	r0, r1, r1, lsl #12
     330:	01020000 	mrseq	r0, (UNDEF: 2)
     334:	00007f08 	andeq	r7, r0, r8, lsl #30
     338:	05020200 	streq	r0, [r2, #-512]	; 0x200
     33c:	000001b6 			; <UNDEFINED> instruction: 0x000001b6
     340:	a3070202 	movwge	r0, #29186	; 0x7202
     344:	03000000 	movweq	r0, #0
     348:	6e690504 	cdpvs	5, 6, cr0, cr9, cr4, {0}
     34c:	04020074 	streq	r0, [r2], #-116	; 0x74
     350:	00014a07 	andeq	r4, r1, r7, lsl #20
     354:	05080200 	streq	r0, [r8, #-512]	; 0x200
     358:	00000191 	muleq	r0, r1, r1
     35c:	40070802 	andmi	r0, r7, r2, lsl #16
     360:	02000001 	andeq	r0, r0, #1
     364:	00880801 	addeq	r0, r8, r1, lsl #16
     368:	04020000 	streq	r0, [r2], #-0
     36c:	00014507 	andeq	r4, r1, r7, lsl #10
     370:	007b0000 	rsbseq	r0, fp, r0
     374:	00020000 	andeq	r0, r2, r0
     378:	00000160 	andeq	r0, r0, r0, ror #2
     37c:	01ce0104 	biceq	r0, lr, r4, lsl #2
     380:	00b40000 	adcseq	r0, r4, r0
     384:	00dc0000 	sbcseq	r0, ip, r0
     388:	72610000 	rsbvc	r0, r1, #0
     38c:	612f6863 	teqvs	pc, r3, ror #16
     390:	6d2f6d72 	stcvs	13, cr6, [pc, #-456]!	; 1d0 <resume1_c_part+0xf4>
     394:	2d686361 	stclcs	3, cr6, [r8, #-388]!	; 0xfffffe7c
     398:	786e7573 	stmdavc	lr!, {r0, r1, r4, r5, r6, r8, sl, ip, sp, lr}^
     39c:	6d702f69 	ldclvs	15, cr2, [r0, #-420]!	; 0xfffffe5c
     3a0:	6174732f 	cmnvs	r4, pc, lsr #6
     3a4:	7962646e 	stmdbvc	r2!, {r1, r2, r3, r5, r6, sl, sp, lr}^
     3a8:	7075732f 	rsbsvc	r7, r5, pc, lsr #6
     3ac:	732f7265 	teqvc	pc, #1342177286	; 0x50000006
     3b0:	72657075 	rsbvc	r7, r5, #117	; 0x75
     3b4:	6c65645f 	cfstrdvs	mvd6, [r5], #-380	; 0xfffffe84
     3b8:	532e7961 	teqpl	lr, #1589248	; 0x184000
     3bc:	6f682f00 	svcvs	0x00682f00
     3c0:	742f656d 	strtvc	r6, [pc], #-1389	; 3c8 <mem_status_init_nommu+0x14>
     3c4:	742f6d6f 	strtvc	r6, [pc], #-3439	; 3cc <mem_status_init_nommu+0x18>
     3c8:	745f7362 	ldrbvc	r7, [pc], #-866	; 3d0 <mem_status_init_nommu+0x1c>
     3cc:	656c6261 	strbvs	r6, [ip, #-609]!	; 0x261
     3d0:	696c2f74 	stmdbvs	ip!, {r2, r4, r5, r6, r8, r9, sl, fp, sp}^
     3d4:	65656863 	strbvs	r6, [r5, #-2147]!	; 0x863
     3d8:	6e696c2f 	cdpvs	12, 6, cr6, cr9, cr15, {1}
     3dc:	332d7875 	teqcc	sp, #7667712	; 0x750000
     3e0:	4700342e 	strmi	r3, [r0, -lr, lsr #8]
     3e4:	4120554e 	teqmi	r0, lr, asr #10
     3e8:	2e322053 	mrccs	0, 1, r2, cr2, cr3, {2}
     3ec:	01003232 	tsteq	r0, r2, lsr r2
     3f0:	00006880 	andeq	r6, r0, r0, lsl #17
     3f4:	74000200 	strvc	r0, [r0], #-512	; 0x200
     3f8:	04000001 	streq	r0, [r0], #-1
     3fc:	00004601 	andeq	r4, r0, r1, lsl #12
     400:	02b60100 	adcseq	r0, r6, #0
     404:	00c10000 	sbceq	r0, r1, r0
     408:	00dc0000 	sbcseq	r0, ip, r0
     40c:	00dc0000 	sbcseq	r0, ip, r0
     410:	02390000 	eorseq	r0, r9, #0
     414:	01020000 	mrseq	r0, (UNDEF: 2)
     418:	00008106 	andeq	r8, r0, r6, lsl #2
     41c:	08010200 	stmdaeq	r1, {r9}
     420:	0000007f 	andeq	r0, r0, pc, ror r0
     424:	b6050202 	strlt	r0, [r5], -r2, lsl #4
     428:	02000001 	andeq	r0, r0, #1
     42c:	00a30702 	adceq	r0, r3, r2, lsl #14
     430:	04030000 	streq	r0, [r3], #-0
     434:	746e6905 	strbtvc	r6, [lr], #-2309	; 0x905
     438:	07040200 	streq	r0, [r4, -r0, lsl #4]
     43c:	0000014a 	andeq	r0, r0, sl, asr #2
     440:	91050802 	tstls	r5, r2, lsl #16
     444:	02000001 	andeq	r0, r0, #1
     448:	01400708 	cmpeq	r0, r8, lsl #14
     44c:	01020000 	mrseq	r0, (UNDEF: 2)
     450:	00008808 	andeq	r8, r0, r8, lsl #16
     454:	07040200 	streq	r0, [r4, -r0, lsl #4]
     458:	00000145 	andeq	r0, r0, r5, asr #2
     45c:	00006800 	andeq	r6, r0, r0, lsl #16
     460:	9e000200 	cdpls	2, 0, cr0, cr0, cr0, {0}
     464:	04000001 	streq	r0, [r0], #-1
     468:	00004601 	andeq	r4, r0, r1, lsl #12
     46c:	02e90100 	rsceq	r0, r9, #0
     470:	00c10000 	sbceq	r0, r1, r0
     474:	00dc0000 	sbcseq	r0, ip, r0
     478:	00dc0000 	sbcseq	r0, ip, r0
     47c:	02560000 	subseq	r0, r6, #0
     480:	01020000 	mrseq	r0, (UNDEF: 2)
     484:	00008106 	andeq	r8, r0, r6, lsl #2
     488:	08010200 	stmdaeq	r1, {r9}
     48c:	0000007f 	andeq	r0, r0, pc, ror r0
     490:	b6050202 	strlt	r0, [r5], -r2, lsl #4
     494:	02000001 	andeq	r0, r0, #1
     498:	00a30702 	adceq	r0, r3, r2, lsl #14
     49c:	04030000 	streq	r0, [r3], #-0
     4a0:	746e6905 	strbtvc	r6, [lr], #-2309	; 0x905
     4a4:	07040200 	streq	r0, [r4, -r0, lsl #4]
     4a8:	0000014a 	andeq	r0, r0, sl, asr #2
     4ac:	91050802 	tstls	r5, r2, lsl #16
     4b0:	02000001 	andeq	r0, r0, #1
     4b4:	01400708 	cmpeq	r0, r8, lsl #14
     4b8:	01020000 	mrseq	r0, (UNDEF: 2)
     4bc:	00008808 	andeq	r8, r0, r8, lsl #16
     4c0:	07040200 	streq	r0, [r4, -r0, lsl #4]
     4c4:	00000145 	andeq	r0, r0, r5, asr #2
     4c8:	00006800 	andeq	r6, r0, r0, lsl #16
     4cc:	c8000200 	stmdagt	r0, {r9}
     4d0:	04000001 	streq	r0, [r0], #-1
     4d4:	00004601 	andeq	r4, r0, r1, lsl #12
     4d8:	031c0100 	tsteq	ip, #0
     4dc:	00c10000 	sbceq	r0, r1, r0
     4e0:	00dc0000 	sbcseq	r0, ip, r0
     4e4:	00dc0000 	sbcseq	r0, ip, r0
     4e8:	02730000 	rsbseq	r0, r3, #0
     4ec:	01020000 	mrseq	r0, (UNDEF: 2)
     4f0:	00008106 	andeq	r8, r0, r6, lsl #2
     4f4:	08010200 	stmdaeq	r1, {r9}
     4f8:	0000007f 	andeq	r0, r0, pc, ror r0
     4fc:	b6050202 	strlt	r0, [r5], -r2, lsl #4
     500:	02000001 	andeq	r0, r0, #1
     504:	00a30702 	adceq	r0, r3, r2, lsl #14
     508:	04030000 	streq	r0, [r3], #-0
     50c:	746e6905 	strbtvc	r6, [lr], #-2309	; 0x905
     510:	07040200 	streq	r0, [r4, -r0, lsl #4]
     514:	0000014a 	andeq	r0, r0, sl, asr #2
     518:	91050802 	tstls	r5, r2, lsl #16
     51c:	02000001 	andeq	r0, r0, #1
     520:	01400708 	cmpeq	r0, r8, lsl #14
     524:	01020000 	mrseq	r0, (UNDEF: 2)
     528:	00008808 	andeq	r8, r0, r8, lsl #16
     52c:	07040200 	streq	r0, [r4, -r0, lsl #4]
     530:	00000145 	andeq	r0, r0, r5, asr #2
     534:	00109000 	andseq	r9, r0, r0
     538:	f2000200 	vhsub.s8	d0, d0, d0
     53c:	04000001 	streq	r0, [r0], #-1
     540:	00004601 	andeq	r4, r0, r1, lsl #12
     544:	06d40100 	ldrbeq	r0, [r4], r0, lsl #2
     548:	00c10000 	sbceq	r0, r1, r0
     54c:	00dc0000 	sbcseq	r0, ip, r0
     550:	03680000 	cmneq	r8, #0
     554:	02900000 	addseq	r0, r0, #0
     558:	01020000 	mrseq	r0, (UNDEF: 2)
     55c:	00008106 	andeq	r8, r0, r6, lsl #2
     560:	0ae10300 	beq	ff841168 <__bss_end+0xff83dbf0>
     564:	0f020000 	svceq	0x00020000
     568:	00000037 	andeq	r0, r0, r7, lsr r0
     56c:	7f080102 	svcvc	0x00080102
     570:	02000000 	andeq	r0, r0, #0
     574:	01b60502 			; <UNDEFINED> instruction: 0x01b60502
     578:	02020000 	andeq	r0, r2, #0
     57c:	0000a307 	andeq	sl, r0, r7, lsl #6
     580:	05040400 	streq	r0, [r4, #-1024]	; 0x400
     584:	00746e69 	rsbseq	r6, r4, r9, ror #28
     588:	00080703 	andeq	r0, r8, r3, lsl #14
     58c:	5e130200 	cdppl	2, 1, cr0, cr3, cr0, {0}
     590:	02000000 	andeq	r0, r0, #0
     594:	014a0704 	cmpeq	sl, r4, lsl #14
     598:	08020000 	stmdaeq	r2, {}	; <UNPREDICTABLE>
     59c:	00019105 	andeq	r9, r1, r5, lsl #2
     5a0:	07080200 	streq	r0, [r8, -r0, lsl #4]
     5a4:	00000140 	andeq	r0, r0, r0, asr #2
     5a8:	1a030405 	bne	c15c4 <__bss_end+0xbe04c>
     5ac:	00000104 	andeq	r0, r0, r4, lsl #2
     5b0:	00057606 	andeq	r7, r5, r6, lsl #12
     5b4:	531c0300 	tstpl	ip, #0
     5b8:	04000000 	streq	r0, [r0], #-0
     5bc:	23021e02 	movwcs	r1, #11778	; 0x2e02
     5c0:	0a380600 	beq	e01dc8 <__bss_end+0xdfe850>
     5c4:	1d030000 	stcne	0, cr0, [r3, #-0]
     5c8:	00000053 	andeq	r0, r0, r3, asr r0
     5cc:	02180604 	andseq	r0, r8, #4194304	; 0x400000
     5d0:	7e060023 	cdpvc	0, 0, cr0, cr6, cr3, {1}
     5d4:	03000005 	movweq	r0, #5
     5d8:	0000531e 	andeq	r5, r0, lr, lsl r3
     5dc:	10080400 	andne	r0, r8, r0, lsl #8
     5e0:	06002302 	streq	r2, [r0], -r2, lsl #6
     5e4:	0000058e 	andeq	r0, r0, lr, lsl #11
     5e8:	00531f03 	subseq	r1, r3, r3, lsl #30
     5ec:	01040000 	mrseq	r0, (UNDEF: 4)
     5f0:	0023020f 	eoreq	r0, r3, pc, lsl #4
     5f4:	000a5606 	andeq	r5, sl, r6, lsl #12
     5f8:	53200300 	teqpl	r0, #0
     5fc:	04000000 	streq	r0, [r0], #-0
     600:	23020807 	movwcs	r0, #10247	; 0x2807
     604:	074e0600 	strbeq	r0, [lr, -r0, lsl #12]
     608:	21030000 	mrscs	r0, (UNDEF: 3)
     60c:	00000053 	andeq	r0, r0, r3, asr r0
     610:	02050304 	andeq	r0, r5, #268435456	; 0x10000000
     614:	60060023 	andvs	r0, r6, r3, lsr #32
     618:	0300000a 	movweq	r0, #10
     61c:	00005322 	andeq	r5, r0, r2, lsr #6
     620:	01040400 	tsteq	r4, r0, lsl #8
     624:	06002302 	streq	r2, [r0], -r2, lsl #6
     628:	000009fa 	strdeq	r0, [r0], -sl
     62c:	00532303 	subseq	r2, r3, r3, lsl #6
     630:	01040000 	mrseq	r0, (UNDEF: 4)
     634:	00230200 	eoreq	r0, r3, r0, lsl #4
     638:	03040700 	movweq	r0, #18176	; 0x4700
     63c:	00012318 	andeq	r2, r1, r8, lsl r3
     640:	03bc0800 			; <UNDEFINED> instruction: 0x03bc0800
     644:	19030000 	stmdbne	r3, {}	; <UNPREDICTABLE>
     648:	00000053 	andeq	r0, r0, r3, asr r0
     64c:	00083008 	andeq	r3, r8, r8
     650:	73250300 	teqvc	r5, #0
     654:	00000000 	andeq	r0, r0, r0
     658:	000a0003 	andeq	r0, sl, r3
     65c:	04260300 	strteq	r0, [r6], #-768	; 0x300
     660:	05000001 	streq	r0, [r0, #-1]
     664:	bf3e0304 	svclt	0x003e0304
     668:	06000001 	streq	r0, [r0], -r1
     66c:	00000c73 	andeq	r0, r0, r3, ror ip
     670:	00534003 	subseq	r4, r3, r3
     674:	02040000 	andeq	r0, r4, #0
     678:	0023021e 	eoreq	r0, r3, lr, lsl r2
     67c:	000a3806 	andeq	r3, sl, r6, lsl #16
     680:	53410300 	movtpl	r0, #4864	; 0x1300
     684:	04000000 	streq	r0, [r0], #-0
     688:	2302140a 	movwcs	r1, #9226	; 0x240a
     68c:	06840600 	streq	r0, [r4], r0, lsl #12
     690:	42030000 	andmi	r0, r3, #0
     694:	00000053 	andeq	r0, r0, r3, asr r0
     698:	02130104 	andseq	r0, r3, #1
     69c:	42060023 	andmi	r0, r6, #35	; 0x23
     6a0:	0300000a 	movweq	r0, #10
     6a4:	00005343 	andeq	r5, r0, r3, asr #6
     6a8:	10030400 	andne	r0, r3, r0, lsl #8
     6ac:	06002302 	streq	r2, [r0], -r2, lsl #6
     6b0:	0000080d 	andeq	r0, r0, sp, lsl #16
     6b4:	00534403 	subseq	r4, r3, r3, lsl #8
     6b8:	02040000 	andeq	r0, r4, #0
     6bc:	0023020e 	eoreq	r0, r3, lr, lsl #4
     6c0:	000a4c06 	andeq	r4, sl, r6, lsl #24
     6c4:	53450300 	movtpl	r0, #21248	; 0x5300
     6c8:	04000000 	streq	r0, [r0], #-0
     6cc:	2302040a 	movwcs	r0, #9226	; 0x240a
     6d0:	05f40600 	ldrbeq	r0, [r4, #1536]!	; 0x600
     6d4:	46030000 	strmi	r0, [r3], -r0
     6d8:	00000053 	andeq	r0, r0, r3, asr r0
     6dc:	02030104 	andeq	r0, r3, #1
     6e0:	56060023 	strpl	r0, [r6], -r3, lsr #32
     6e4:	0300000a 	movweq	r0, #10
     6e8:	00005347 	andeq	r5, r0, r7, asr #6
     6ec:	00030400 	andeq	r0, r3, r0, lsl #8
     6f0:	00002302 	andeq	r2, r0, r2, lsl #6
     6f4:	3c030407 	cfstrscc	mvf0, [r3], {7}
     6f8:	000001de 	ldrdeq	r0, [r0], -lr
     6fc:	0003bc08 	andeq	fp, r3, r8, lsl #24
     700:	533d0300 	teqpl	sp, #0
     704:	08000000 	stmdaeq	r0, {}	; <UNPREDICTABLE>
     708:	00000830 	andeq	r0, r0, r0, lsr r8
     70c:	012e4803 	teqeq	lr, r3, lsl #16
     710:	03000000 	movweq	r0, #0
     714:	0000047b 	andeq	r0, r0, fp, ror r4
     718:	01bf4903 			; <UNDEFINED> instruction: 0x01bf4903
     71c:	4e090000 	cdpmi	0, 0, cr0, cr9, cr0, {0}
     720:	04000003 	streq	r0, [r0], #-3
     724:	026d4f03 	rsbeq	r4, sp, #12
     728:	38060000 	stmdacc	r6, {}	; <UNPREDICTABLE>
     72c:	0300000a 	movweq	r0, #10
     730:	00005351 	andeq	r5, r0, r1, asr r3
     734:	1c040400 	cfstrsne	mvf0, [r4], {-0}
     738:	06002302 	streq	r2, [r0], -r2, lsl #6
     73c:	00000884 	andeq	r0, r0, r4, lsl #17
     740:	00535203 	subseq	r5, r3, r3, lsl #4
     744:	02040000 	andeq	r0, r4, #0
     748:	0023021a 	eoreq	r0, r3, sl, lsl r2
     74c:	0007f006 	andeq	pc, r7, r6
     750:	53530300 	cmppl	r3, #0
     754:	04000000 	streq	r0, [r0], #-0
     758:	23021802 	movwcs	r1, #10242	; 0x2802
     75c:	09990600 	ldmibeq	r9, {r9, sl}
     760:	54030000 	strpl	r0, [r3], #-0
     764:	00000053 	andeq	r0, r0, r3, asr r0
     768:	02160204 	andseq	r0, r6, #1073741824	; 0x40000000
     76c:	42060023 	andmi	r0, r6, #35	; 0x23
     770:	0300000a 	movweq	r0, #10
     774:	00005355 	andeq	r5, r0, r5, asr r3
     778:	14020400 	strne	r0, [r2], #-1024	; 0x400
     77c:	06002302 	streq	r2, [r0], -r2, lsl #6
     780:	0000097b 	andeq	r0, r0, fp, ror r9
     784:	00535603 	subseq	r5, r3, r3, lsl #12
     788:	02040000 	andeq	r0, r4, #0
     78c:	00230212 	eoreq	r0, r3, r2, lsl r2
     790:	000a4c06 	andeq	r4, sl, r6, lsl #24
     794:	53570300 	cmppl	r7, #0
     798:	04000000 	streq	r0, [r0], #-0
     79c:	23020012 	movwcs	r0, #8210	; 0x2012
     7a0:	cd030000 	stcgt	0, cr0, [r3, #-0]
     7a4:	0300000b 	movweq	r0, #11
     7a8:	0001e958 	andeq	lr, r1, r8, asr r9
     7ac:	03040500 	movweq	r0, #17664	; 0x4500
     7b0:	0002e75f 	andeq	lr, r2, pc, asr r7
     7b4:	060c0600 	streq	r0, [ip], -r0, lsl #12
     7b8:	61030000 	mrsvs	r0, (UNDEF: 3)
     7bc:	00000053 	andeq	r0, r0, r3, asr r0
     7c0:	021b0504 	andseq	r0, fp, #16777216	; 0x1000000
     7c4:	6a060023 	bvs	180858 <__bss_end+0x17d2e0>
     7c8:	0300000c 	movweq	r0, #12
     7cc:	00005362 	andeq	r5, r0, r2, ror #6
     7d0:	100b0400 	andne	r0, fp, r0, lsl #8
     7d4:	06002302 	streq	r2, [r0], -r2, lsl #6
     7d8:	00000611 	andeq	r0, r0, r1, lsl r6
     7dc:	00536303 	subseq	r6, r3, r3, lsl #6
     7e0:	02040000 	andeq	r0, r4, #0
     7e4:	0023020e 	eoreq	r0, r3, lr, lsl #4
     7e8:	000a4206 	andeq	r4, sl, r6, lsl #4
     7ec:	53640300 	cmnpl	r4, #0
     7f0:	04000000 	streq	r0, [r0], #-0
     7f4:	23020806 	movwcs	r0, #10246	; 0x2806
     7f8:	05f60600 	ldrbeq	r0, [r6, #1536]!	; 0x600
     7fc:	65030000 	strvs	r0, [r3, #-0]
     800:	00000053 	andeq	r0, r0, r3, asr r0
     804:	02060204 	andeq	r0, r6, #1073741824	; 0x40000000
     808:	4c060023 	stcmi	0, cr0, [r6], {35}	; 0x23
     80c:	0300000a 	movweq	r0, #10
     810:	00005366 	andeq	r5, r0, r6, ror #6
     814:	00060400 	andeq	r0, r6, r0, lsl #8
     818:	00002302 	andeq	r2, r0, r2, lsl #6
     81c:	5d030407 	cfstrspl	mvf0, [r3, #-28]	; 0xffffffe4
     820:	00000306 	andeq	r0, r0, r6, lsl #6
     824:	0003bc08 	andeq	fp, r3, r8, lsl #24
     828:	535e0300 	cmppl	lr, #0
     82c:	08000000 	stmdaeq	r0, {}	; <UNPREDICTABLE>
     830:	00000830 	andeq	r0, r0, r0, lsr r8
     834:	02786703 	rsbseq	r6, r8, #786432	; 0xc0000
     838:	03000000 	movweq	r0, #0
     83c:	000008be 			; <UNDEFINED> instruction: 0x000008be
     840:	02e76803 	rsceq	r6, r7, #196608	; 0x30000
     844:	88090000 	stmdahi	r9, {}	; <UNPREDICTABLE>
     848:	04000007 	streq	r0, [r0], #-7
     84c:	03406a03 	movteq	r6, #2563	; 0xa03
     850:	4b060000 	blmi	180858 <__bss_end+0x17d2e0>
     854:	0300000c 	movweq	r0, #12
     858:	0000536c 	andeq	r5, r0, ip, ror #6
     85c:	10100400 	andsne	r0, r0, r0, lsl #8
     860:	06002302 	streq	r2, [r0], -r2, lsl #6
     864:	00000c6a 	andeq	r0, r0, sl, ror #24
     868:	00536d03 	subseq	r6, r3, r3, lsl #26
     86c:	10040000 	andne	r0, r4, r0
     870:	00230200 	eoreq	r0, r3, r0, lsl #4
     874:	0b120300 	bleq	48147c <__bss_end+0x47df04>
     878:	6e030000 	cdpvs	0, 0, cr0, cr3, cr0, {0}
     87c:	00000311 	andeq	r0, r0, r1, lsl r3
     880:	000ced0a 	andeq	lr, ip, sl, lsl #26
     884:	0302dc00 	movweq	sp, #11264	; 0x2c00
     888:	000b2170 	andeq	r2, fp, r0, ror r1
     88c:	07570b00 	ldrbeq	r0, [r7, -r0, lsl #22]
     890:	72030000 	andvc	r0, r3, #0
     894:	00000b21 	andeq	r0, r0, r1, lsr #22
     898:	0b002302 	bleq	94a8 <__bss_end+0x5f30>
     89c:	0000076b 	andeq	r0, r0, fp, ror #14
     8a0:	0b267303 	bleq	99d4b4 <__bss_end+0x999f3c>
     8a4:	23020000 	movwcs	r0, #8192	; 0x2000
     8a8:	0ce50b04 	vstmiaeq	r5!, {d16-d17}
     8ac:	74030000 	strvc	r0, [r3], #-0
     8b0:	00000b26 	andeq	r0, r0, r6, lsr #22
     8b4:	0b082302 	bleq	2094c4 <__bss_end+0x205f4c>
     8b8:	00000a42 	andeq	r0, r0, r2, asr #20
     8bc:	0b267503 	bleq	99dcd0 <__bss_end+0x99a758>
     8c0:	23020000 	movwcs	r0, #8192	; 0x2000
     8c4:	08ac0b0c 	stmiaeq	ip!, {r2, r3, r8, r9, fp}
     8c8:	76030000 	strvc	r0, [r3], -r0
     8cc:	00000b26 	andeq	r0, r0, r6, lsr #22
     8d0:	0b102302 	bleq	4094e0 <__bss_end+0x405f68>
     8d4:	00000a4c 	andeq	r0, r0, ip, asr #20
     8d8:	0b267703 	bleq	99e4ec <__bss_end+0x99af74>
     8dc:	23020000 	movwcs	r0, #8192	; 0x2000
     8e0:	045c0b14 	ldrbeq	r0, [ip], #-2836	; 0xb14
     8e4:	78030000 	stmdavc	r3, {}	; <UNPREDICTABLE>
     8e8:	00000b26 	andeq	r0, r0, r6, lsr #22
     8ec:	0b182302 	bleq	6094fc <__bss_end+0x605f84>
     8f0:	00000a56 	andeq	r0, r0, r6, asr sl
     8f4:	0b267903 	bleq	99ed08 <__bss_end+0x99b790>
     8f8:	23020000 	movwcs	r0, #8192	; 0x2000
     8fc:	09e80b1c 	stmibeq	r8!, {r2, r3, r4, r8, r9, fp}^
     900:	7a030000 	bvc	c0908 <__bss_end+0xbd390>
     904:	00000b26 	andeq	r0, r0, r6, lsr #22
     908:	0b202302 	bleq	809518 <__bss_end+0x805fa0>
     90c:	00000a60 	andeq	r0, r0, r0, ror #20
     910:	0b267b03 	bleq	99f524 <__bss_end+0x99bfac>
     914:	23020000 	movwcs	r0, #8192	; 0x2000
     918:	04140b24 	ldreq	r0, [r4], #-2852	; 0xb24
     91c:	7c030000 	stcvc	0, cr0, [r3], {-0}
     920:	00000b26 	andeq	r0, r0, r6, lsr #22
     924:	0b282302 	bleq	a09534 <__bss_end+0xa05fbc>
     928:	00000a6a 	andeq	r0, r0, sl, ror #20
     92c:	0b267d03 	bleq	99fd40 <__bss_end+0x99c7c8>
     930:	23020000 	movwcs	r0, #8192	; 0x2000
     934:	09d00b2c 	ldmibeq	r0, {r2, r3, r5, r8, r9, fp}^
     938:	7e030000 	cdpvc	0, 0, cr0, cr3, cr0, {0}
     93c:	00000b26 	andeq	r0, r0, r6, lsr #22
     940:	0b302302 	bleq	c09550 <__bss_end+0xc05fd8>
     944:	00000a74 	andeq	r0, r0, r4, ror sl
     948:	0b267f03 	bleq	9a055c <__bss_end+0x99cfe4>
     94c:	23020000 	movwcs	r0, #8192	; 0x2000
     950:	07800b34 			; <UNDEFINED> instruction: 0x07800b34
     954:	80030000 	andhi	r0, r3, r0
     958:	00000b26 	andeq	r0, r0, r6, lsr #22
     95c:	0b382302 	bleq	e0956c <__bss_end+0xe05ff4>
     960:	00000a7e 	andeq	r0, r0, lr, ror sl
     964:	0b268103 	bleq	9a0d78 <__bss_end+0x99d800>
     968:	23020000 	movwcs	r0, #8192	; 0x2000
     96c:	0b000b3c 	bleq	3664 <__bss_end+0xec>
     970:	82030000 	andhi	r0, r3, #0
     974:	00000b26 	andeq	r0, r0, r6, lsr #22
     978:	0b402302 	bleq	1009588 <__bss_end+0x1006010>
     97c:	00000d60 	andeq	r0, r0, r0, ror #26
     980:	0b268303 	bleq	9a1594 <__bss_end+0x99e01c>
     984:	23020000 	movwcs	r0, #8192	; 0x2000
     988:	04530b44 	ldrbeq	r0, [r3], #-2884	; 0xb44
     98c:	84030000 	strhi	r0, [r3], #-0
     990:	00000b26 	andeq	r0, r0, r6, lsr #22
     994:	0b482302 	bleq	12095a4 <__bss_end+0x120602c>
     998:	00000ba9 	andeq	r0, r0, r9, lsr #23
     99c:	0b268503 	bleq	9a1db0 <__bss_end+0x99e838>
     9a0:	23020000 	movwcs	r0, #8192	; 0x2000
     9a4:	08b40b4c 	ldmeq	r4!, {r2, r3, r6, r8, r9, fp}
     9a8:	86030000 	strhi	r0, [r3], -r0
     9ac:	00000b2b 	andeq	r0, r0, fp, lsr #22
     9b0:	0b502302 	bleq	14095c0 <__bss_end+0x1406048>
     9b4:	00000884 	andeq	r0, r0, r4, lsl #17
     9b8:	0b308703 	bleq	c225cc <__bss_end+0xc1f054>
     9bc:	23020000 	movwcs	r0, #8192	; 0x2000
     9c0:	05860b54 	streq	r0, [r6, #2900]	; 0xb54
     9c4:	88030000 	stmdahi	r3, {}	; <UNPREDICTABLE>
     9c8:	00000b35 	andeq	r0, r0, r5, lsr fp
     9cc:	0b582302 	bleq	16095dc <__bss_end+0x1606064>
     9d0:	00000a16 	andeq	r0, r0, r6, lsl sl
     9d4:	0b268903 	bleq	9a2de8 <__bss_end+0x99f870>
     9d8:	23020000 	movwcs	r0, #8192	; 0x2000
     9dc:	0af70b5c 	beq	ffdc3754 <__bss_end+0xffdc01dc>
     9e0:	8a030000 	bhi	c09e8 <__bss_end+0xbd470>
     9e4:	00000b26 	andeq	r0, r0, r6, lsr #22
     9e8:	0b602302 	bleq	18095f8 <__bss_end+0x1806080>
     9ec:	00000711 	andeq	r0, r0, r1, lsl r7
     9f0:	0b268b03 	bleq	9a3604 <__bss_end+0x9a008c>
     9f4:	23020000 	movwcs	r0, #8192	; 0x2000
     9f8:	0c7d0b64 	ldcleq	11, cr0, [sp], #-400	; 0xfffffe70
     9fc:	8c030000 	stchi	0, cr0, [r3], {-0}
     a00:	00000b26 	andeq	r0, r0, r6, lsr #22
     a04:	0b682302 	bleq	1a09614 <__bss_end+0x1a0609c>
     a08:	00000928 	andeq	r0, r0, r8, lsr #18
     a0c:	0b268d03 	bleq	9a3e20 <__bss_end+0x9a08a8>
     a10:	23020000 	movwcs	r0, #8192	; 0x2000
     a14:	0a880b6c 	beq	fe2037cc <__bss_end+0xfe200254>
     a18:	8e030000 	cdphi	0, 0, cr0, cr3, cr0, {0}
     a1c:	00000b4a 	andeq	r0, r0, sl, asr #22
     a20:	0b702302 	bleq	1c09630 <__bss_end+0x1c060b8>
     a24:	00000d56 	andeq	r0, r0, r6, asr sp
     a28:	0b268f03 	bleq	9a463c <__bss_end+0x9a10c4>
     a2c:	23020000 	movwcs	r0, #8192	; 0x2000
     a30:	04000b78 	streq	r0, [r0], #-2936	; 0xb78
     a34:	90030000 	andls	r0, r3, r0
     a38:	00000b26 	andeq	r0, r0, r6, lsr #22
     a3c:	0b7c2302 	bleq	1f0964c <__bss_end+0x1f060d4>
     a40:	00000d23 	andeq	r0, r0, r3, lsr #26
     a44:	0b269103 	bleq	9a4e58 <__bss_end+0x9a18e0>
     a48:	23030000 	movwcs	r0, #12288	; 0x3000
     a4c:	860b0180 	strhi	r0, [fp], -r0, lsl #3
     a50:	0300000c 	movweq	r0, #12
     a54:	000b2692 	muleq	fp, r2, r6
     a58:	84230300 	strthi	r0, [r3], #-768	; 0x300
     a5c:	64530c01 	ldrbvs	r0, [r3], #-3073	; 0xc01
     a60:	93030030 	movwls	r0, #12336	; 0x3030
     a64:	00000b26 	andeq	r0, r0, r6, lsr #22
     a68:	01882303 	orreq	r2, r8, r3, lsl #6
     a6c:	3164530c 	cmncc	r4, ip, lsl #6
     a70:	26940300 	ldrcs	r0, [r4], r0, lsl #6
     a74:	0300000b 	movweq	r0, #11
     a78:	0c018c23 	stceq	12, cr8, [r1], {35}	; 0x23
     a7c:	00326453 	eorseq	r6, r2, r3, asr r4
     a80:	0b269503 	bleq	9a5e94 <__bss_end+0x9a291c>
     a84:	23030000 	movwcs	r0, #12288	; 0x3000
     a88:	910b0190 			; <UNDEFINED> instruction: 0x910b0190
     a8c:	0300000c 	movweq	r0, #12
     a90:	000b4f96 	muleq	fp, r6, pc	; <UNPREDICTABLE>
     a94:	94230300 	strtls	r0, [r3], #-768	; 0x300
     a98:	73530c01 	cmpvc	r3, #256	; 0x100
     a9c:	26970300 	ldrcs	r0, [r7], r0, lsl #6
     aa0:	0300000b 	movweq	r0, #11
     aa4:	0b019c23 	bleq	67b38 <__bss_end+0x645c0>
     aa8:	00000aed 	andeq	r0, r0, sp, ror #21
     aac:	0b269803 	bleq	9a6ac0 <__bss_end+0x9a3548>
     ab0:	23030000 	movwcs	r0, #12288	; 0x3000
     ab4:	f20b01a0 	vrhadd.s8	d0, d27, d16
     ab8:	0300000a 	movweq	r0, #10
     abc:	000b2699 	muleq	fp, r9, r6
     ac0:	a4230300 	strtge	r0, [r3], #-768	; 0x300
     ac4:	0c9c0b01 	fldmiaxeq	ip, {d0-d-1}	;@ Deprecated
     ac8:	9a030000 	bls	c0ad0 <__bss_end+0xbd558>
     acc:	00000b54 	andeq	r0, r0, r4, asr fp
     ad0:	01a82303 			; <UNDEFINED> instruction: 0x01a82303
     ad4:	0004440b 	andeq	r4, r4, fp, lsl #8
     ad8:	269b0300 	ldrcs	r0, [fp], r0, lsl #6
     adc:	0300000b 	movweq	r0, #11
     ae0:	0b01b023 	bleq	6cb74 <__bss_end+0x695fc>
     ae4:	00000449 	andeq	r0, r0, r9, asr #8
     ae8:	0b269c03 	bleq	9a7afc <__bss_end+0x9a4584>
     aec:	23030000 	movwcs	r0, #12288	; 0x3000
     af0:	4e0b01b4 	mcrmi	1, 0, r0, cr11, cr4, {5}
     af4:	03000004 	movweq	r0, #4
     af8:	000b269d 	muleq	fp, sp, r6
     afc:	b8230300 	stmdalt	r3!, {r8, r9}
     b00:	04f80b01 	ldrbteq	r0, [r8], #2817	; 0xb01
     b04:	9e030000 	cdpls	0, 0, cr0, cr3, cr0, {0}
     b08:	00000b26 	andeq	r0, r0, r6, lsr #22
     b0c:	01bc2303 			; <UNDEFINED> instruction: 0x01bc2303
     b10:	00091f0b 	andeq	r1, r9, fp, lsl #30
     b14:	269f0300 	ldrcs	r0, [pc], r0, lsl #6
     b18:	0300000b 	movweq	r0, #11
     b1c:	0b01c023 	bleq	70bb0 <__bss_end+0x6d638>
     b20:	00000862 	andeq	r0, r0, r2, ror #16
     b24:	0b59a003 	bleq	1668b38 <__bss_end+0x16655c0>
     b28:	23030000 	movwcs	r0, #12288	; 0x3000
     b2c:	550c01c4 	strpl	r0, [ip, #-452]	; 0x1c4
     b30:	03006273 	movweq	r6, #627	; 0x273
     b34:	000b26a1 	andeq	r2, fp, r1, lsr #13
     b38:	cc230300 	stcgt	3, cr0, [r3], #-0
     b3c:	0c1a0b01 	ldceq	11, cr0, [sl], {1}
     b40:	a2030000 	andge	r0, r3, #0
     b44:	00000b26 	andeq	r0, r0, r6, lsr #22
     b48:	01d02303 	bicseq	r2, r0, r3, lsl #6
     b4c:	00079f0b 	andeq	r9, r7, fp, lsl #30
     b50:	6ea30300 	cdpvs	3, 10, cr0, cr3, cr0, {0}
     b54:	0300000b 	movweq	r0, #11
     b58:	0b01d423 	bleq	75bec <__bss_end+0x72674>
     b5c:	00000cd9 	ldrdeq	r0, [r0], -r9
     b60:	0b26a403 	bleq	9a9b74 <__bss_end+0x9a65fc>
     b64:	23030000 	movwcs	r0, #12288	; 0x3000
     b68:	c50b01f0 	strgt	r0, [fp, #-496]	; 0x1f0
     b6c:	0300000b 	movweq	r0, #11
     b70:	000b26a5 	andeq	r2, fp, r5, lsr #13
     b74:	f4230300 	vld2.8	{d0-d3}, [r3], r0
     b78:	0c540b01 	mrrceq	11, 0, r0, r4, cr1
     b7c:	a6030000 	strge	r0, [r3], -r0
     b80:	00000b26 	andeq	r0, r0, r6, lsr #22
     b84:	01f82303 	mvnseq	r2, r3, lsl #6
     b88:	0009a10b 	andeq	sl, r9, fp, lsl #2
     b8c:	26a70300 	strtcs	r0, [r7], r0, lsl #6
     b90:	0300000b 	movweq	r0, #11
     b94:	0b01fc23 	bleq	7fc28 <__bss_end+0x7c6b0>
     b98:	00000972 	andeq	r0, r0, r2, ror r9
     b9c:	0b26a803 	bleq	9aabb0 <__bss_end+0x9a7638>
     ba0:	23030000 	movwcs	r0, #12288	; 0x3000
     ba4:	5f0b0280 	svcpl	0x000b0280
     ba8:	03000007 	movweq	r0, #7
     bac:	000b26a9 	andeq	r2, fp, r9, lsr #13
     bb0:	84230300 	strthi	r0, [r3], #-768	; 0x300
     bb4:	03980b02 	orrseq	r0, r8, #2048	; 0x800
     bb8:	aa030000 	bge	c0bc0 <__bss_end+0xbd648>
     bbc:	00000b26 	andeq	r0, r0, r6, lsr #22
     bc0:	02882303 	addeq	r2, r8, #201326592	; 0xc000000
     bc4:	0004df0b 	andeq	sp, r4, fp, lsl #30
     bc8:	26ab0300 	strtcs	r0, [fp], r0, lsl #6
     bcc:	0300000b 	movweq	r0, #11
     bd0:	0b028c23 	bleq	a3c64 <__bss_end+0xa06ec>
     bd4:	000003a4 	andeq	r0, r0, r4, lsr #7
     bd8:	0b26ac03 	bleq	9abbec <__bss_end+0x9a8674>
     bdc:	23030000 	movwcs	r0, #12288	; 0x3000
     be0:	b00b0290 	mullt	fp, r0, r2
     be4:	03000003 	movweq	r0, #3
     be8:	000b26ad 	andeq	r2, fp, sp, lsr #13
     bec:	94230300 	strtls	r0, [r3], #-768	; 0x300
     bf0:	03f00b02 	mvnseq	r0, #2048	; 0x800
     bf4:	ae030000 	cdpge	0, 0, cr0, cr3, cr0, {0}
     bf8:	00000b26 	andeq	r0, r0, r6, lsr #22
     bfc:	02982303 	addseq	r2, r8, #201326592	; 0xc000000
     c00:	0003f80b 	andeq	pc, r3, fp, lsl #16
     c04:	26af0300 	strtcs	r0, [pc], r0, lsl #6
     c08:	0300000b 	movweq	r0, #11
     c0c:	0b029c23 	bleq	a7ca0 <__bss_end+0xa4728>
     c10:	000007b0 			; <UNDEFINED> instruction: 0x000007b0
     c14:	0b83b003 	bleq	fe0ecc28 <__bss_end+0xfe0e96b0>
     c18:	23030000 	movwcs	r0, #12288	; 0x3000
     c1c:	1e0b02a0 	cdpne	2, 0, cr0, cr11, cr0, {5}
     c20:	0300000a 	movweq	r0, #10
     c24:	000b26b1 			; <UNDEFINED> instruction: 0x000b26b1
     c28:	b0230300 	eorlt	r0, r3, r0, lsl #6
     c2c:	0ab70b02 	beq	fedc383c <__bss_end+0xfedc02c4>
     c30:	b2030000 	andlt	r0, r3, #0
     c34:	00000b26 	andeq	r0, r0, r6, lsr #22
     c38:	02b42303 	adcseq	r2, r4, #201326592	; 0xc000000
     c3c:	00041c0b 	andeq	r1, r4, fp, lsl #24
     c40:	26b30300 	ldrtcs	r0, [r3], r0, lsl #6
     c44:	0300000b 	movweq	r0, #11
     c48:	0c02b823 	stceq	8, cr11, [r2], {35}	; 0x23
     c4c:	03006556 	movweq	r6, #1366	; 0x556
     c50:	000b26b4 			; <UNDEFINED> instruction: 0x000b26b4
     c54:	bc230300 	stclt	3, cr0, [r3], #-0
     c58:	09650b02 	stmdbeq	r5!, {r1, r8, r9, fp}^
     c5c:	b5030000 	strlt	r0, [r3, #-0]
     c60:	00000b26 	andeq	r0, r0, r6, lsr #22
     c64:	02c02303 	sbceq	r2, r0, #201326592	; 0xc000000
     c68:	7376410c 	cmnvc	r6, #3
     c6c:	26b60300 	ldrtcs	r0, [r6], r0, lsl #6
     c70:	0300000b 	movweq	r0, #11
     c74:	0b02c423 	bleq	b1d08 <__bss_end+0xae790>
     c78:	00000428 	andeq	r0, r0, r8, lsr #8
     c7c:	0b26b703 	bleq	9ae890 <__bss_end+0x9ab318>
     c80:	23030000 	movwcs	r0, #12288	; 0x3000
     c84:	bb0b02c8 	bllt	2c17ac <__bss_end+0x2be234>
     c88:	03000007 	movweq	r0, #7
     c8c:	000b26b8 			; <UNDEFINED> instruction: 0x000b26b8
     c90:	cc230300 	stcgt	3, cr0, [r3], #-0
     c94:	086d0b02 	stmdaeq	sp!, {r1, r8, r9, fp}^
     c98:	b9030000 	stmdblt	r3, {}	; <UNPREDICTABLE>
     c9c:	00000b26 	andeq	r0, r0, r6, lsr #22
     ca0:	02d02303 	sbcseq	r2, r0, #201326592	; 0xc000000
     ca4:	000b490b 	andeq	r4, fp, fp, lsl #18
     ca8:	26ba0300 	ldrtcs	r0, [sl], r0, lsl #6
     cac:	0300000b 	movweq	r0, #11
     cb0:	0b02d423 	bleq	b5d44 <__bss_end+0xb27cc>
     cb4:	000004bd 			; <UNDEFINED> instruction: 0x000004bd
     cb8:	0b26bb03 	bleq	9af8cc <__bss_end+0x9ac354>
     cbc:	23030000 	movwcs	r0, #12288	; 0x3000
     cc0:	070b02d8 			; <UNDEFINED> instruction: 0x070b02d8
     cc4:	03000005 	movweq	r0, #5
     cc8:	000b26bc 			; <UNDEFINED> instruction: 0x000b26bc
     ccc:	dc230300 	stcle	3, cr0, [r3], #-0
     cd0:	04c90b02 	strbeq	r0, [r9], #2818	; 0xb02
     cd4:	bd030000 	stclt	0, cr0, [r3, #-0]
     cd8:	00000b26 	andeq	r0, r0, r6, lsr #22
     cdc:	02e02303 	rsceq	r2, r0, #201326592	; 0xc000000
     ce0:	0007c60b 	andeq	ip, r7, fp, lsl #12
     ce4:	26be0300 	ldrtcs	r0, [lr], r0, lsl #6
     ce8:	0300000b 	movweq	r0, #11
     cec:	0b02e423 	bleq	b9d80 <__bss_end+0xb6808>
     cf0:	00000a97 	muleq	r0, r7, sl
     cf4:	0b26bf03 	bleq	9b0908 <__bss_end+0x9ad390>
     cf8:	23030000 	movwcs	r0, #12288	; 0x3000
     cfc:	a30b02e8 	movwge	r0, #45800	; 0xb2e8
     d00:	0300000a 	movweq	r0, #10
     d04:	000b26c0 	andeq	r2, fp, r0, asr #13
     d08:	ec230300 	stc	3, cr0, [r3], #-0
     d0c:	07d10b02 	ldrbeq	r0, [r1, r2, lsl #22]
     d10:	c1030000 	mrsgt	r0, (UNDEF: 3)
     d14:	00000b88 	andeq	r0, r0, r8, lsl #23
     d18:	02f02303 	rscseq	r2, r0, #201326592	; 0xc000000
     d1c:	000ca70b 	andeq	sl, ip, fp, lsl #14
     d20:	26c20300 	strbcs	r0, [r2], r0, lsl #6
     d24:	0300000b 	movweq	r0, #11
     d28:	0b038023 	bleq	e0dbc <__bss_end+0xdd844>
     d2c:	00000647 	andeq	r0, r0, r7, asr #12
     d30:	0b26c303 	bleq	9b1944 <__bss_end+0x9ae3cc>
     d34:	23030000 	movwcs	r0, #12288	; 0x3000
     d38:	530b0384 	movwpl	r0, #45956	; 0xb384
     d3c:	03000006 	movweq	r0, #6
     d40:	000b26c4 	andeq	r2, fp, r4, asr #13
     d44:	88230300 	stmdahi	r3!, {r8, r9}
     d48:	065f0b03 	ldrbeq	r0, [pc], -r3, lsl #22
     d4c:	c5030000 	strgt	r0, [r3, #-0]
     d50:	00000b26 	andeq	r0, r0, r6, lsr #22
     d54:	038c2303 	orreq	r2, ip, #201326592	; 0xc000000
     d58:	0007dc0b 	andeq	sp, r7, fp, lsl #24
     d5c:	8dc60300 	stclhi	3, cr0, [r6]
     d60:	0300000b 	movweq	r0, #11
     d64:	0b039023 	bleq	e4df8 <__bss_end+0xe1880>
     d68:	0000067c 	andeq	r0, r0, ip, ror r6
     d6c:	0b26c703 	bleq	9b2980 <__bss_end+0x9af408>
     d70:	23030000 	movwcs	r0, #12288	; 0x3000
     d74:	fd0b03a0 	stc2	3, cr0, [fp, #-640]	; 0xfffffd80
     d78:	03000005 	movweq	r0, #5
     d7c:	000b26c8 	andeq	r2, fp, r8, asr #13
     d80:	a4230300 	strtge	r0, [r3], #-768	; 0x300
     d84:	08da0b03 	ldmeq	sl, {r0, r1, r8, r9, fp}^
     d88:	c9030000 	stmdbgt	r3, {}	; <UNPREDICTABLE>
     d8c:	00000b26 	andeq	r0, r0, r6, lsr #22
     d90:	03a82303 			; <UNDEFINED> instruction: 0x03a82303
     d94:	0006bc0b 	andeq	fp, r6, fp, lsl #24
     d98:	26ca0300 	strbcs	r0, [sl], r0, lsl #6
     d9c:	0300000b 	movweq	r0, #11
     da0:	0b03ac23 	bleq	ebe34 <__bss_end+0xe88bc>
     da4:	000006c8 	andeq	r0, r0, r8, asr #13
     da8:	0b26cb03 	bleq	9b39bc <__bss_end+0x9b0444>
     dac:	23030000 	movwcs	r0, #12288	; 0x3000
     db0:	8c0b03b0 	stchi	3, cr0, [fp], {176}	; 0xb0
     db4:	03000008 	movweq	r0, #8
     db8:	000ba2cc 	andeq	sl, fp, ip, asr #5
     dbc:	b4230300 	strtlt	r0, [r3], #-768	; 0x300
     dc0:	03d00b03 	bicseq	r0, r0, #3072	; 0xc00
     dc4:	cd030000 	stcgt	0, cr0, [r3, #-0]
     dc8:	00000b26 	andeq	r0, r0, r6, lsr #22
     dcc:	03c02303 	biceq	r2, r0, #201326592	; 0xc000000
     dd0:	0007740b 	andeq	r7, r7, fp, lsl #8
     dd4:	b7ce0300 	strblt	r0, [lr, r0, lsl #6]
     dd8:	0300000b 	movweq	r0, #11
     ddc:	0b03c423 	bleq	f1e70 <__bss_end+0xee8f8>
     de0:	0000066b 	andeq	r0, r0, fp, ror #12
     de4:	0bbccf03 	bleq	fef349f8 <__bss_end+0xfef31480>
     de8:	23030000 	movwcs	r0, #12288	; 0x3000
     dec:	450b0480 	strmi	r0, [fp, #-1152]	; 0x480
     df0:	03000009 	movweq	r0, #9
     df4:	000b26d0 	ldrdeq	r2, [fp], -r0
     df8:	84230300 	strthi	r0, [r3], #-768	; 0x300
     dfc:	0c5e0b04 	mrrceq	11, 0, r0, lr, cr4
     e00:	d1030000 	mrsle	r0, (UNDEF: 3)
     e04:	00000b26 	andeq	r0, r0, r6, lsr #22
     e08:	04882303 	streq	r2, [r8], #771	; 0x303
     e0c:	000c260b 	andeq	r2, ip, fp, lsl #12
     e10:	26d20300 	ldrbcs	r0, [r2], r0, lsl #6
     e14:	0300000b 	movweq	r0, #11
     e18:	0b048c23 	bleq	123eac <__bss_end+0x120934>
     e1c:	00000596 	muleq	r0, r6, r5
     e20:	0bc1d303 	bleq	ff075a34 <__bss_end+0xff0724bc>
     e24:	23030000 	movwcs	r0, #12288	; 0x3000
     e28:	270b0490 			; <UNDEFINED> instruction: 0x270b0490
     e2c:	03000008 	movweq	r0, #8
     e30:	000bd6d5 	ldrdeq	sp, [fp], -r5
     e34:	a0230300 	eorge	r0, r3, r0, lsl #6
     e38:	04990b04 	ldreq	r0, [r9], #2820	; 0xb04
     e3c:	d6030000 	strle	r0, [r3], -r0
     e40:	00000b26 	andeq	r0, r0, r6, lsr #22
     e44:	04a42303 	strteq	r2, [r4], #771	; 0x303
     e48:	0003c20b 	andeq	ip, r3, fp, lsl #4
     e4c:	26d70300 	ldrbcs	r0, [r7], r0, lsl #6
     e50:	0300000b 	movweq	r0, #11
     e54:	0b04a823 	bleq	12aee8 <__bss_end+0x127970>
     e58:	0000084b 	andeq	r0, r0, fp, asr #16
     e5c:	0b26d803 	bleq	9b6e70 <__bss_end+0x9b38f8>
     e60:	23030000 	movwcs	r0, #12288	; 0x3000
     e64:	a40b04ac 	strge	r0, [fp], #-1196	; 0x4ac
     e68:	03000006 	movweq	r0, #6
     e6c:	000b26d9 	ldrdeq	r2, [fp], -r9
     e70:	b0230300 	eorlt	r0, r3, r0, lsl #6
     e74:	0b2b0b04 	bleq	ac3a8c <__bss_end+0xac0514>
     e78:	da030000 	ble	c0e80 <__bss_end+0xbd908>
     e7c:	00000b26 	andeq	r0, r0, r6, lsr #22
     e80:	04b42303 	ldrteq	r2, [r4], #771	; 0x303
     e84:	000d150b 	andeq	r1, sp, fp, lsl #10
     e88:	26db0300 	ldrbcs	r0, [fp], r0, lsl #6
     e8c:	0300000b 	movweq	r0, #11
     e90:	0b04b823 	bleq	12ef24 <__bss_end+0x12b9ac>
     e94:	000005d8 	ldrdeq	r0, [r0], -r8
     e98:	0b26dc03 	bleq	9b7eac <__bss_end+0x9b4934>
     e9c:	23030000 	movwcs	r0, #12288	; 0x3000
     ea0:	af0b04bc 	svcge	0x000b04bc
     ea4:	03000006 	movweq	r0, #6
     ea8:	000b26dd 	ldrdeq	r2, [fp], -sp
     eac:	c0230300 	eorgt	r0, r3, r0, lsl #6
     eb0:	04ec0b04 	strbteq	r0, [ip], #2820	; 0xb04
     eb4:	de030000 	cdple	0, 0, cr0, cr3, cr0, {0}
     eb8:	00000b26 	andeq	r0, r0, r6, lsr #22
     ebc:	04c42303 	strbeq	r2, [r4], #771	; 0x303
     ec0:	00098f0b 	andeq	r8, r9, fp, lsl #30
     ec4:	26df0300 	ldrbcs	r0, [pc], r0, lsl #6
     ec8:	0300000b 	movweq	r0, #11
     ecc:	0b04c823 	bleq	132f60 <__bss_end+0x12f9e8>
     ed0:	000009c2 	andeq	r0, r0, r2, asr #19
     ed4:	0b26e003 	bleq	9b8ee8 <__bss_end+0x9b5970>
     ed8:	23030000 	movwcs	r0, #12288	; 0x3000
     edc:	ff0b04cc 			; <UNDEFINED> instruction: 0xff0b04cc
     ee0:	03000004 	movweq	r0, #4
     ee4:	000b26e2 	andeq	r2, fp, r2, ror #13
     ee8:	d0230300 	eorle	r0, r3, r0, lsl #6
     eec:	09860b04 	stmibeq	r6, {r2, r8, r9, fp}
     ef0:	e3030000 	movw	r0, #12288	; 0x3000
     ef4:	00000b26 	andeq	r0, r0, r6, lsr #22
     ef8:	04d42303 	ldrbeq	r2, [r4], #771	; 0x303
     efc:	0005a20b 	andeq	sl, r5, fp, lsl #4
     f00:	dbe50300 	blle	ff941b08 <__bss_end+0xff93e590>
     f04:	0300000b 	movweq	r0, #11
     f08:	0b04d823 	bleq	136f9c <__bss_end+0x133a24>
     f0c:	000009db 	ldrdeq	r0, [r0], -fp
     f10:	0b26e603 	bleq	9ba724 <__bss_end+0x9b71ac>
     f14:	23030000 	movwcs	r0, #12288	; 0x3000
     f18:	ae0b04e0 	cfcvt64dge	mvd0, mvdx11
     f1c:	03000005 	movweq	r0, #5
     f20:	000be0e7 	andeq	lr, fp, r7, ror #1
     f24:	e4230300 	strt	r0, [r3], #-768	; 0x300
     f28:	05610b04 	strbeq	r0, [r1, #-2820]!	; 0xb04
     f2c:	e8030000 	stmda	r3, {}	; <UNPREDICTABLE>
     f30:	00000b26 	andeq	r0, r0, r6, lsr #22
     f34:	04f02303 	ldrbteq	r2, [r0], #771	; 0x303
     f38:	0005ba0b 	andeq	fp, r5, fp, lsl #20
     f3c:	e5e90300 	strb	r0, [r9, #768]!	; 0x300
     f40:	0300000b 	movweq	r0, #11
     f44:	0b04f423 	bleq	13dfd8 <__bss_end+0x13aa60>
     f48:	00000906 	andeq	r0, r0, r6, lsl #18
     f4c:	0b26ea03 	bleq	9bb760 <__bss_end+0x9b81e8>
     f50:	23030000 	movwcs	r0, #12288	; 0x3000
     f54:	ae0b0580 	cfsh32ge	mvfx0, mvfx11, #-64
     f58:	03000009 	movweq	r0, #9
     f5c:	000b26ec 	andeq	r2, fp, ip, ror #13
     f60:	84230300 	strthi	r0, [r3], #-768	; 0x300
     f64:	08970b05 	ldmeq	r7, {r0, r2, r8, r9, fp}
     f68:	ed030000 	stc	0, cr0, [r3, #-0]
     f6c:	00000b26 	andeq	r0, r0, r6, lsr #22
     f70:	05882303 	streq	r2, [r8, #771]	; 0x303
     f74:	00094e0b 	andeq	r4, r9, fp, lsl #28
     f78:	26ee0300 	strbtcs	r0, [lr], r0, lsl #6
     f7c:	0300000b 	movweq	r0, #11
     f80:	0b058c23 	bleq	164014 <__bss_end+0x160a9c>
     f84:	00000b55 	andeq	r0, r0, r5, asr fp
     f88:	0b26ef03 	bleq	9bcb9c <__bss_end+0x9b9624>
     f8c:	23030000 	movwcs	r0, #12288	; 0x3000
     f90:	cc0b0590 	cfstr32gt	mvfx0, [fp], {144}	; 0x90
     f94:	03000005 	movweq	r0, #5
     f98:	000beaf0 	strdeq	lr, [fp], -r0
     f9c:	94230300 	strtls	r0, [r3], #-768	; 0x300
     fa0:	09310b05 	ldmdbeq	r1!, {r0, r2, r8, r9, fp}
     fa4:	f1030000 			; <UNDEFINED> instruction: 0xf1030000
     fa8:	00000b26 	andeq	r0, r0, r6, lsr #22
     fac:	05a42303 	streq	r2, [r4, #771]!	; 0x303
     fb0:	000c360b 	andeq	r3, ip, fp, lsl #12
     fb4:	26f20300 	ldrbtcs	r0, [r2], r0, lsl #6
     fb8:	0300000b 	movweq	r0, #11
     fbc:	0b05a823 	bleq	16b050 <__bss_end+0x167ad8>
     fc0:	00000368 	andeq	r0, r0, r8, ror #6
     fc4:	0b26f303 	bleq	9bdbd8 <__bss_end+0x9ba660>
     fc8:	23030000 	movwcs	r0, #12288	; 0x3000
     fcc:	b30b05ac 	movwlt	r0, #46508	; 0xb5ac
     fd0:	0300000b 	movweq	r0, #11
     fd4:	000b26f4 	strdeq	r2, [fp], -r4
     fd8:	b0230300 	eorlt	r0, r3, r0, lsl #6
     fdc:	03750b05 	cmneq	r5, #5120	; 0x1400
     fe0:	f5030000 			; <UNDEFINED> instruction: 0xf5030000
     fe4:	00000bef 	andeq	r0, r0, pc, ror #23
     fe8:	05b42303 	ldreq	r2, [r4, #771]!	; 0x303
     fec:	0008e80b 	andeq	lr, r8, fp, lsl #16
     ff0:	26f70300 	ldrbtcs	r0, [r7], r0, lsl #6
     ff4:	0300000b 	movweq	r0, #11
     ff8:	0b05c023 	bleq	17108c <__bss_end+0x16db14>
     ffc:	000008f2 	strdeq	r0, [r0], -r2
    1000:	0b26f803 	bleq	9bf014 <__bss_end+0x9bba9c>
    1004:	23030000 	movwcs	r0, #12288	; 0x3000
    1008:	fc0b05c4 	stc2	5, cr0, [fp], {196}	; 0xc4
    100c:	03000008 	movweq	r0, #8
    1010:	000b26f9 	strdeq	r2, [fp], -r9
    1014:	c8230300 	stmdagt	r3!, {r8, r9}
    1018:	08350b05 	ldmdaeq	r5!, {r0, r2, r8, r9, fp}
    101c:	fa030000 	blx	c1024 <__bss_end+0xbdaac>
    1020:	00000b26 	andeq	r0, r0, r6, lsr #22
    1024:	05cc2303 	strbeq	r2, [ip, #771]	; 0x303
    1028:	000a2e0b 	andeq	r2, sl, fp, lsl #28
    102c:	26fb0300 	ldrbtcs	r0, [fp], r0, lsl #6
    1030:	0300000b 	movweq	r0, #11
    1034:	0b05d023 	bleq	1750c8 <__bss_end+0x171b50>
    1038:	00000840 	andeq	r0, r0, r0, asr #16
    103c:	0b26fc03 	bleq	9c0050 <__bss_end+0x9bcad8>
    1040:	23030000 	movwcs	r0, #12288	; 0x3000
    1044:	160b05d4 			; <UNDEFINED> instruction: 0x160b05d4
    1048:	03000006 	movweq	r0, #6
    104c:	000b26fd 	strdeq	r2, [fp], -sp
    1050:	d8230300 	stmdale	r3!, {r8, r9}
    1054:	230d0005 	movwcs	r0, #53253	; 0xd005
    1058:	0d000001 	stceq	0, cr0, [r0, #-4]
    105c:	00000053 	andeq	r0, r0, r3, asr r0
    1060:	0001de0d 	andeq	sp, r1, sp, lsl #28
    1064:	026d0d00 	rsbeq	r0, sp, #0
    1068:	060d0000 	streq	r0, [sp], -r0
    106c:	0e000003 	cdpeq	0, 0, cr0, cr0, cr3, {0}
    1070:	00000053 	andeq	r0, r0, r3, asr r0
    1074:	00000b4a 	andeq	r0, r0, sl, asr #22
    1078:	00005e0f 	andeq	r5, r0, pc, lsl #28
    107c:	0d000100 	stfeqs	f0, [r0, #-0]
    1080:	00000b3a 	andeq	r0, r0, sl, lsr fp
    1084:	000b3a0d 	andeq	r3, fp, sp, lsl #20
    1088:	0b3a0d00 	bleq	e84490 <__bss_end+0xe80f18>
    108c:	3a0d0000 	bcc	341094 <__bss_end+0x33db1c>
    1090:	0e00000b 	cdpeq	0, 0, cr0, cr0, cr11, {0}
    1094:	00000053 	andeq	r0, r0, r3, asr r0
    1098:	00000b6e 	andeq	r0, r0, lr, ror #22
    109c:	00005e0f 	andeq	r5, r0, pc, lsl #28
    10a0:	0d000600 	stceq	6, cr0, [r0, #-0]
    10a4:	00000b5e 	andeq	r0, r0, lr, asr fp
    10a8:	0000530e 	andeq	r5, r0, lr, lsl #6
    10ac:	000b8300 	andeq	r8, fp, r0, lsl #6
    10b0:	005e0f00 	subseq	r0, lr, r0, lsl #30
    10b4:	00030000 	andeq	r0, r3, r0
    10b8:	000b730d 	andeq	r7, fp, sp, lsl #6
    10bc:	0b730d00 	bleq	1cc44c4 <__bss_end+0x1cc0f4c>
    10c0:	730d0000 	movwvc	r0, #53248	; 0xd000
    10c4:	0e00000b 	cdpeq	0, 0, cr0, cr0, cr11, {0}
    10c8:	00000053 	andeq	r0, r0, r3, asr r0
    10cc:	00000ba2 	andeq	r0, r0, r2, lsr #23
    10d0:	00005e0f 	andeq	r5, r0, pc, lsl #28
    10d4:	0d000200 	sfmeq	f0, 4, [r0, #-0]
    10d8:	00000b92 	muleq	r0, r2, fp
    10dc:	0000530e 	andeq	r5, r0, lr, lsl #6
    10e0:	000bb700 	andeq	fp, fp, r0, lsl #14
    10e4:	005e0f00 	subseq	r0, lr, r0, lsl #30
    10e8:	000e0000 	andeq	r0, lr, r0
    10ec:	000ba70d 	andeq	sl, fp, sp, lsl #14
    10f0:	03400d00 	movteq	r0, #3328	; 0xd00
    10f4:	730d0000 	movwvc	r0, #53248	; 0xd000
    10f8:	0e00000b 	cdpeq	0, 0, cr0, cr0, cr11, {0}
    10fc:	00000053 	andeq	r0, r0, r3, asr r0
    1100:	00000bd6 	ldrdeq	r0, [r0], -r6
    1104:	00005e0f 	andeq	r5, r0, pc, lsl #28
    1108:	0d000000 	stceq	0, cr0, [r0, #-0]
    110c:	00000bc6 	andeq	r0, r0, r6, asr #23
    1110:	000b3a0d 	andeq	r3, fp, sp, lsl #20
    1114:	0b920d00 	bleq	fe48451c <__bss_end+0xfe480fa4>
    1118:	920d0000 	andls	r0, sp, #0
    111c:	0d00000b 	stceq	0, cr0, [r0, #-44]	; 0xffffffd4
    1120:	00000b73 	andeq	r0, r0, r3, ror fp
    1124:	000b920d 	andeq	r9, fp, sp, lsl #4
    1128:	0b780300 	bleq	1e01d30 <__bss_end+0x1dfe7b8>
    112c:	fe030000 	cdp2	0, 0, cr0, cr3, cr0, {0}
    1130:	0000034b 	andeq	r0, r0, fp, asr #6
    1134:	0bf40410 	bleq	ffd0217c <__bss_end+0xffcfec04>
    1138:	f0090000 			; <UNDEFINED> instruction: 0xf0090000
    113c:	08000009 	stmdaeq	r0, {r0, r3}
    1140:	0c2e1804 	stceq	8, cr1, [lr], #-16
    1144:	0c0b0000 	stceq	0, cr0, [fp], {-0}
    1148:	04000004 	streq	r0, [r0], #-4
    114c:	00005319 	andeq	r5, r0, r9, lsl r3
    1150:	00230200 	eoreq	r0, r3, r0, lsl #4
    1154:	0006200b 	andeq	r2, r6, fp
    1158:	531a0400 	tstpl	sl, #0
    115c:	02000000 	andeq	r0, r0, #0
    1160:	09000423 	stmdbeq	r0, {r0, r1, r5, sl}
    1164:	00000b8a 	andeq	r0, r0, sl, lsl #23
    1168:	0d1d043c 	cfldrseq	mvf0, [sp, #-240]	; 0xffffff10
    116c:	0b00000d 	bleq	11a8 <__save_processor_state+0x2c8>
    1170:	00000be9 	andeq	r0, r0, r9, ror #23
    1174:	00531e04 	subseq	r1, r3, r4, lsl #28
    1178:	23020000 	movwcs	r0, #8192	; 0x2000
    117c:	0b9f0b00 	bleq	fe7c3d84 <__bss_end+0xfe7c080c>
    1180:	1f040000 	svcne	0x00040000
    1184:	00000053 	andeq	r0, r0, r3, asr r0
    1188:	0b042302 	bleq	109d98 <__bss_end+0x106820>
    118c:	00000673 	andeq	r0, r0, r3, ror r6
    1190:	00532004 	subseq	r2, r3, r4
    1194:	23020000 	movwcs	r0, #8192	; 0x2000
    1198:	04b10b08 	ldrteq	r0, [r1], #2824	; 0xb08
    119c:	2b040000 	blcs	1011a4 <__bss_end+0xfdc2c>
    11a0:	00000053 	andeq	r0, r0, r3, asr r0
    11a4:	0b0c2302 	bleq	309db4 <__bss_end+0x30683c>
    11a8:	00000986 	andeq	r0, r0, r6, lsl #19
    11ac:	00532c04 	subseq	r2, r3, r4, lsl #24
    11b0:	23020000 	movwcs	r0, #8192	; 0x2000
    11b4:	076b0b10 			; <UNDEFINED> instruction: 0x076b0b10
    11b8:	2d040000 	stccs	0, cr0, [r4, #-0]
    11bc:	00000053 	andeq	r0, r0, r3, asr r0
    11c0:	0b142302 	bleq	509dd0 <__bss_end+0x506858>
    11c4:	000008ac 	andeq	r0, r0, ip, lsr #17
    11c8:	00532e04 	subseq	r2, r3, r4, lsl #28
    11cc:	23020000 	movwcs	r0, #8192	; 0x2000
    11d0:	045c0b18 	ldrbeq	r0, [ip], #-2840	; 0xb18
    11d4:	2f040000 	svccs	0x00040000
    11d8:	00000053 	andeq	r0, r0, r3, asr r0
    11dc:	0b1c2302 	bleq	709dec <__bss_end+0x706874>
    11e0:	00000414 	andeq	r0, r0, r4, lsl r4
    11e4:	00533004 	subseq	r3, r3, r4
    11e8:	23020000 	movwcs	r0, #8192	; 0x2000
    11ec:	03c20b20 	biceq	r0, r2, #32768	; 0x8000
    11f0:	31040000 	mrscc	r0, (UNDEF: 4)
    11f4:	00000053 	andeq	r0, r0, r3, asr r0
    11f8:	0b242302 	bleq	909e08 <__bss_end+0x906890>
    11fc:	0000084b 	andeq	r0, r0, fp, asr #16
    1200:	00533204 	subseq	r3, r3, r4, lsl #4
    1204:	23020000 	movwcs	r0, #8192	; 0x2000
    1208:	0b2b0b28 	bleq	ac3eb0 <__bss_end+0xac0938>
    120c:	33040000 	movwcc	r0, #16384	; 0x4000
    1210:	00000053 	andeq	r0, r0, r3, asr r0
    1214:	0b2c2302 	bleq	b09e24 <__bss_end+0xb068ac>
    1218:	00000897 	muleq	r0, r7, r8
    121c:	00533404 	subseq	r3, r3, r4, lsl #8
    1220:	23020000 	movwcs	r0, #8192	; 0x2000
    1224:	0c360b30 	ldceq	11, cr0, [r6], #-192	; 0xffffff40
    1228:	35040000 	strcc	r0, [r4, #-0]
    122c:	00000053 	andeq	r0, r0, r3, asr r0
    1230:	0b342302 	bleq	d09e40 <__bss_end+0xd068c8>
    1234:	00000586 	andeq	r0, r0, r6, lsl #11
    1238:	00533604 	subseq	r3, r3, r4, lsl #12
    123c:	23020000 	movwcs	r0, #8192	; 0x2000
    1240:	55090038 	strpl	r0, [r9, #-56]	; 0x38
    1244:	08000008 	stmdaeq	r0, {r3}
    1248:	0d603b04 	vstmdbeq	r0!, {d19-d20}
    124c:	7e0b0000 	cdpvc	0, 0, cr0, cr11, cr0, {0}
    1250:	04000005 	streq	r0, [r0], #-5
    1254:	00002c3c 	andeq	r2, r0, ip, lsr ip
    1258:	00230200 	eoreq	r0, r3, r0, lsl #4
    125c:	00056e0b 	andeq	r6, r5, fp, lsl #28
    1260:	2c3d0400 	cfldrscs	mvf0, [sp], #-0
    1264:	02000000 	andeq	r0, r0, #0
    1268:	760b0123 	strvc	r0, [fp], -r3, lsr #2
    126c:	04000005 	streq	r0, [r0], #-5
    1270:	00002c3e 	andeq	r2, r0, lr, lsr ip
    1274:	02230200 	eoreq	r0, r3, #0
    1278:	00058e0b 	andeq	r8, r5, fp, lsl #28
    127c:	2c3f0400 	cfldrscs	mvf0, [pc], #-0	; 1284 <__save_processor_state+0x3a4>
    1280:	02000000 	andeq	r0, r0, #0
    1284:	500c0323 	andpl	r0, ip, r3, lsr #6
    1288:	04006c6c 	streq	r6, [r0], #-3180	; 0xc6c
    128c:	00005340 	andeq	r5, r0, r0, asr #6
    1290:	04230200 	strteq	r0, [r3], #-512	; 0x200
    1294:	016d1100 	cmneq	sp, r0, lsl #2
    1298:	06040000 	streq	r0, [r4], -r0
    129c:	000dcd7a 	andeq	ip, sp, sl, ror sp
    12a0:	001e1200 	andseq	r1, lr, r0, lsl #4
    12a4:	12000000 	andne	r0, r0, #0
    12a8:	00000096 	muleq	r0, r6, r0
    12ac:	00391201 	eorseq	r1, r9, r1, lsl #4
    12b0:	12020000 	andne	r0, r2, #0
    12b4:	00000073 	andeq	r0, r0, r3, ror r0
    12b8:	019f1203 	orrseq	r1, pc, r3, lsl #4
    12bc:	12040000 	andne	r0, r4, #0
    12c0:	00000134 	andeq	r0, r0, r4, lsr r1
    12c4:	011c1205 	tsteq	ip, r5, lsl #4
    12c8:	12060000 	andne	r0, r6, #0
    12cc:	00000157 	andeq	r0, r0, r7, asr r1
    12d0:	00121207 	andseq	r1, r2, r7, lsl #4
    12d4:	12080000 	andne	r0, r8, #0
    12d8:	00000068 	andeq	r0, r0, r8, rrx
    12dc:	01291209 	teqeq	r9, r9, lsl #4
    12e0:	120a0000 	andne	r0, sl, #0
    12e4:	000001ab 	andeq	r0, r0, fp, lsr #3
    12e8:	0167120b 	cmneq	r7, fp, lsl #4
    12ec:	120c0000 	andne	r0, ip, #0
    12f0:	00000183 	andeq	r0, r0, r3, lsl #3
    12f4:	0230120d 	eorseq	r1, r0, #-805306368	; 0xd0000000
    12f8:	120e0000 	andne	r0, lr, #0
    12fc:	0000002b 	andeq	r0, r0, fp, lsr #32
    1300:	0102000f 	tsteq	r2, pc
    1304:	00008808 	andeq	r8, r0, r8, lsl #16
    1308:	5e041000 	cdppl	0, 0, cr1, cr4, cr0, {0}
    130c:	02000000 	andeq	r0, r0, #0
    1310:	01450704 	cmpeq	r5, r4, lsl #14
    1314:	04130000 	ldreq	r0, [r3], #-0
    1318:	0e3f2805 	cdpeq	8, 3, cr2, cr15, cr5, {0}
    131c:	35120000 	ldrcc	r0, [r2, #-0]
    1320:	01000007 	tsteq	r0, r7
    1324:	000cfd12 	andeq	pc, ip, r2, lsl sp	; <UNPREDICTABLE>
    1328:	64120200 	ldrvs	r0, [r2], #-512	; 0x200
    132c:	04000004 	streq	r0, [r0], #-4
    1330:	00052912 	andeq	r2, r5, r2, lsl r9
    1334:	2c120800 	ldccs	8, cr0, [r2], {-0}
    1338:	10000006 	andne	r0, r0, r6
    133c:	000bfa12 	andeq	pc, fp, r2, lsl sl	; <UNPREDICTABLE>
    1340:	0d122000 	ldceq	0, cr2, [r2, #-0]
    1344:	c0000005 	andgt	r0, r0, r5
    1348:	0d291200 	sfmeq	f1, 4, [r9, #-0]
    134c:	01800000 	orreq	r0, r0, r0
    1350:	000cb912 	andeq	fp, ip, r2, lsl r9
    1354:	12028000 	andne	r8, r2, #0
    1358:	00000ac5 	andeq	r0, r0, r5, asr #21
    135c:	1a120480 	bne	482564 <__bss_end+0x47efec>
    1360:	80000007 	andhi	r0, r0, r7
    1364:	0b391208 	bleq	e45b8c <__bss_end+0xe42614>
    1368:	10800000 	addne	r0, r0, r0
    136c:	00053f12 	andeq	r3, r5, r2, lsl pc
    1370:	00208000 	eoreq	r8, r0, r0
    1374:	00043a09 	andeq	r3, r4, r9, lsl #20
    1378:	4c052400 	cfstrsmi	mvf2, [r5], {-0}
    137c:	00000ec9 	andeq	r0, r0, r9, asr #29
    1380:	000cb40b 	andeq	fp, ip, fp, lsl #8
    1384:	534e0500 	movtpl	r0, #58624	; 0xe500
    1388:	02000000 	andeq	r0, r0, #0
    138c:	630c0023 	movwvs	r0, #49187	; 0xc023
    1390:	50050072 	andpl	r0, r5, r2, ror r0
    1394:	00000053 	andeq	r0, r0, r3, asr r0
    1398:	0b042302 	bleq	109fa8 <__bss_end+0x106a30>
    139c:	00000a92 	muleq	r0, r2, sl
    13a0:	00535105 	subseq	r5, r3, r5, lsl #2
    13a4:	23020000 	movwcs	r0, #8192	; 0x2000
    13a8:	0ae60b08 	beq	ff983fd0 <__bss_end+0xff980a58>
    13ac:	53050000 	movwpl	r0, #20480	; 0x5000
    13b0:	00000053 	andeq	r0, r0, r3, asr r0
    13b4:	0b0c2302 	bleq	309fc4 <__bss_end+0x306a4c>
    13b8:	00000bf3 	strdeq	r0, [r0], -r3
    13bc:	00535405 	subseq	r5, r3, r5, lsl #8
    13c0:	23020000 	movwcs	r0, #8192	; 0x2000
    13c4:	08010b10 	stmdaeq	r1, {r4, r8, r9, fp}
    13c8:	55050000 	strpl	r0, [r5, #-0]
    13cc:	00000053 	andeq	r0, r0, r3, asr r0
    13d0:	0b142302 	bleq	509fe0 <__bss_end+0x506a68>
    13d4:	0000069f 	muleq	r0, pc, r6	; <UNPREDICTABLE>
    13d8:	00535805 	subseq	r5, r3, r5, lsl #16
    13dc:	23020000 	movwcs	r0, #8192	; 0x2000
    13e0:	0d510b18 	vldreq	d16, [r1, #-96]	; 0xffffffa0
    13e4:	5b050000 	blpl	1413ec <__bss_end+0x13de74>
    13e8:	00000053 	andeq	r0, r0, r3, asr r0
    13ec:	0b1c2302 	bleq	709ffc <__bss_end+0x706a84>
    13f0:	0000068e 	andeq	r0, r0, lr, lsl #13
    13f4:	00535c05 	subseq	r5, r3, r5, lsl #24
    13f8:	23020000 	movwcs	r0, #8192	; 0x2000
    13fc:	45090020 	strmi	r0, [r9, #-32]
    1400:	c000000d 	andgt	r0, r0, sp
    1404:	0f726205 	svceq	0x00726205
    1408:	750b0000 	strvc	r0, [fp, #-0]
    140c:	05000008 	streq	r0, [r0, #-8]
    1410:	000f7263 	andeq	r7, pc, r3, ror #4
    1414:	00230200 	eoreq	r0, r3, r0, lsl #4
    1418:	000dec0b 	andeq	lr, sp, fp, lsl #24
    141c:	26640500 	strbtcs	r0, [r4], -r0, lsl #10
    1420:	0200000b 	andeq	r0, r0, #11
    1424:	5b0b0423 	blpl	2c24b8 <__bss_end+0x2bef40>
    1428:	05000009 	streq	r0, [r0, #-9]
    142c:	00005365 	andeq	r5, r0, r5, ror #6
    1430:	08230200 	stmdaeq	r3!, {r9}
    1434:	000b950b 	andeq	r9, fp, fp, lsl #10
    1438:	53660500 	cmnpl	r6, #0
    143c:	02000000 	andeq	r0, r0, #0
    1440:	8d0b0c23 	stchi	12, cr0, [fp, #-140]	; 0xffffff74
    1444:	05000003 	streq	r0, [r0, #-3]
    1448:	00005367 	andeq	r5, r0, r7, ror #6
    144c:	10230200 	eorne	r0, r3, r0, lsl #4
    1450:	0005e30b 	andeq	lr, r5, fp, lsl #6
    1454:	53680500 	cmnpl	r8, #0
    1458:	02000000 	andeq	r0, r0, #0
    145c:	d60b1423 	strle	r1, [fp], -r3, lsr #8
    1460:	05000003 	streq	r0, [r0, #-3]
    1464:	000f7a69 	andeq	r7, pc, r9, ror #20
    1468:	18230200 	stmdane	r3!, {r9}
    146c:	0006040b 	andeq	r0, r6, fp, lsl #8
    1470:	056a0500 	strbeq	r0, [sl, #-1280]!	; 0x500
    1474:	0200000c 	andeq	r0, r0, #12
    1478:	e70b5023 	str	r5, [fp, -r3, lsr #32]
    147c:	05000007 	streq	r0, [r0, #-7]
    1480:	000c2e6b 	andeq	r2, ip, fp, ror #28
    1484:	58230200 	stmdapl	r3!, {r9}
    1488:	001e660b 	andseq	r6, lr, fp, lsl #12
    148c:	0d6c0500 	cfstr64eq	mvdx0, [ip, #-0]
    1490:	0300000d 	movweq	r0, #13
    1494:	0b019423 	bleq	66528 <__bss_end+0x62fb0>
    1498:	00000434 	andeq	r0, r0, r4, lsr r4
    149c:	0e3f6d05 	cdpeq	13, 3, cr6, cr15, cr5, {0}
    14a0:	23030000 	movwcs	r0, #12288	; 0x3000
    14a4:	1000019c 	mulne	r0, ip, r1
    14a8:	000f7804 	andeq	r7, pc, r4, lsl #16
    14ac:	0e041400 	cfcpyseq	mvf1, mvf4
    14b0:	00000053 	andeq	r0, r0, r3, asr r0
    14b4:	00000f8a 	andeq	r0, r0, sl, lsl #31
    14b8:	00005e0f 	andeq	r5, r0, pc, lsl #28
    14bc:	15000d00 	strne	r0, [r0, #-3328]	; 0xd00
    14c0:	00081801 	andeq	r1, r8, r1, lsl #16
    14c4:	012e0100 	teqeq	lr, r0, lsl #2
    14c8:	0000004c 	andeq	r0, r0, ip, asr #32
    14cc:	000000dc 	ldrdeq	r0, [r0], -ip
    14d0:	00000238 	andeq	r0, r0, r8, lsr r2
    14d4:	00000064 	andeq	r0, r0, r4, rrx
    14d8:	0a260116 	beq	981938 <__bss_end+0x97e3c0>
    14dc:	80010000 	andhi	r0, r1, r0
    14e0:	00023801 	andeq	r3, r2, r1, lsl #16
    14e4:	00036800 	andeq	r6, r3, r0, lsl #16
    14e8:	00008400 	andeq	r8, r0, r0, lsl #8
    14ec:	00102300 	andseq	r2, r0, r0, lsl #6
    14f0:	0b0b1700 	bleq	2c70f8 <__bss_end+0x2c3b80>
    14f4:	82010000 	andhi	r0, r1, #0
    14f8:	00000bff 	strdeq	r0, [r0], -pc	; <UNPREDICTABLE>
    14fc:	000000a4 	andeq	r0, r0, r4, lsr #1
    1500:	0008e117 	andeq	lr, r8, r7, lsl r1
    1504:	5e830100 	rmfpls	f0, f3, f0
    1508:	cd000000 	stcgt	0, cr0, [r0, #-0]
    150c:	18000000 	stmdane	r0, {}	; <UNPREDICTABLE>
    1510:	00000382 	andeq	r0, r0, r2, lsl #7
    1514:	005e8401 	subseq	r8, lr, r1, lsl #8
    1518:	18000000 	stmdane	r0, {}	; <UNPREDICTABLE>
    151c:	00000914 	andeq	r0, r0, r4, lsl r9
    1520:	005e8501 	subseq	r8, lr, r1, lsl #10
    1524:	18000000 	stmdane	r0, {}	; <UNPREDICTABLE>
    1528:	000004a6 	andeq	r0, r0, r6, lsr #9
    152c:	005e8601 	subseq	r8, lr, r1, lsl #12
    1530:	18000000 	stmdane	r0, {}	; <UNPREDICTABLE>
    1534:	00000aaf 	andeq	r0, r0, pc, lsr #21
    1538:	005e8701 	subseq	r8, lr, r1, lsl #14
    153c:	18000000 	stmdane	r0, {}	; <UNPREDICTABLE>
    1540:	00000abc 			; <UNDEFINED> instruction: 0x00000abc
    1544:	005e8801 	subseq	r8, lr, r1, lsl #16
    1548:	18000000 	stmdane	r0, {}	; <UNPREDICTABLE>
    154c:	000005c6 	andeq	r0, r0, r6, asr #11
    1550:	005e8901 	subseq	r8, lr, r1, lsl #18
    1554:	00000000 	andeq	r0, r0, r0
    1558:	0007aa19 	andeq	sl, r7, r9, lsl sl
    155c:	4c0a0100 	stfmis	f0, [sl], {-0}
    1560:	19000000 	stmdbne	r0, {}	; <UNPREDICTABLE>
    1564:	000007fb 	strdeq	r0, [r0], -fp
    1568:	004c0a01 	subeq	r0, ip, r1, lsl #20
    156c:	68190000 	ldmdavs	r9, {}	; <UNPREDICTABLE>
    1570:	0100000d 	tsteq	r0, sp
    1574:	00005e0b 	andeq	r5, r0, fp, lsl #28
    1578:	0b631a00 	bleq	18c7d80 <__bss_end+0x18c4808>
    157c:	0c010000 	stceq	0, cr0, [r1], {-0}
    1580:	00000dd4 	ldrdeq	r0, [r0], -r4
    1584:	31940305 	orrscc	r0, r4, r5, lsl #6
    1588:	f4180000 			; <UNDEFINED> instruction: 0xf4180000
    158c:	0100000e 	tsteq	r0, lr
    1590:	00005e0d 	andeq	r5, r0, sp, lsl #28
    1594:	6a1b0000 	bvs	6c159c <__bss_end+0x6be024>
    1598:	0100000b 	tsteq	r0, fp
    159c:	000ec906 	andeq	ip, lr, r6, lsl #18
    15a0:	03050100 	movweq	r0, #20736	; 0x5100
    15a4:	000033a0 	andeq	r3, r0, r0, lsr #7
    15a8:	0006931c 	andeq	r9, r6, ip, lsl r3
    15ac:	80080100 	andhi	r0, r8, r0, lsl #2
    15b0:	01000010 	tsteq	r0, r0, lsl r0
    15b4:	cd041001 	stcgt	0, cr1, [r4, #-4]
    15b8:	1c00000d 	stcne	0, cr0, [r0], {13}
    15bc:	000004d5 	ldrdeq	r0, [r0], -r5
    15c0:	10800901 	addne	r0, r0, r1, lsl #18
    15c4:	01010000 	mrseq	r0, (UNDEF: 1)
    15c8:	0003dd00 	andeq	sp, r3, r0, lsl #26
    15cc:	79000200 	stmdbvc	r0, {r9}
    15d0:	04000003 	streq	r0, [r0], #-3
    15d4:	00004601 	andeq	r4, r0, r1, lsl #12
    15d8:	0e110100 	mufeqs	f0, f1, f0
    15dc:	00c10000 	sbceq	r0, r1, r0
    15e0:	03680000 	cmneq	r8, #0
    15e4:	06e00000 	strbteq	r0, [r0], r0
    15e8:	04170000 	ldreq	r0, [r7], #-0
    15ec:	01020000 	mrseq	r0, (UNDEF: 2)
    15f0:	00008106 	andeq	r8, r0, r6, lsl #2
    15f4:	08010200 	stmdaeq	r1, {r9}
    15f8:	0000007f 	andeq	r0, r0, pc, ror r0
    15fc:	b6050202 	strlt	r0, [r5], -r2, lsl #4
    1600:	02000001 	andeq	r0, r0, #1
    1604:	00a30702 	adceq	r0, r3, r2, lsl #14
    1608:	04030000 	streq	r0, [r3], #-0
    160c:	746e6905 	strbtvc	r6, [lr], #-2309	; 0x905
    1610:	08070400 	stmdaeq	r7, {sl}
    1614:	13030000 	movwne	r0, #12288	; 0x3000
    1618:	00000053 	andeq	r0, r0, r3, asr r0
    161c:	4a070402 	bmi	1c262c <__bss_end+0x1bf0b4>
    1620:	02000001 	andeq	r0, r0, #1
    1624:	01910508 	orrseq	r0, r1, r8, lsl #10
    1628:	08020000 	stmdaeq	r2, {}	; <UNPREDICTABLE>
    162c:	00014007 	andeq	r4, r1, r7
    1630:	0ecd0500 	cdpeq	5, 12, cr0, cr13, cr0, {0}
    1634:	02040000 	andeq	r0, r4, #0
    1638:	0000ca1d 	andeq	ip, r0, sp, lsl sl
    163c:	0dc90600 	stcleq	6, cr0, [r9]
    1640:	1f020000 	svcne	0x00020000
    1644:	00000048 	andeq	r0, r0, r8, asr #32
    1648:	02180804 	andseq	r0, r8, #262144	; 0x40000
    164c:	71060023 	tstvc	r6, r3, lsr #32
    1650:	0200000e 	andeq	r0, r0, #14
    1654:	00004820 	andeq	r4, r0, r0, lsr #16
    1658:	10080400 	andne	r0, r8, r0, lsl #8
    165c:	06002302 	streq	r2, [r0], -r2, lsl #6
    1660:	00000d72 	andeq	r0, r0, r2, ror sp
    1664:	00482102 	subeq	r2, r8, r2, lsl #2
    1668:	02040000 	andeq	r0, r4, #0
    166c:	0023020e 	eoreq	r0, r3, lr, lsl #4
    1670:	000c6a06 	andeq	r6, ip, r6, lsl #20
    1674:	48220200 	stmdami	r2!, {r9}
    1678:	04000000 	streq	r0, [r0], #-0
    167c:	2302010d 	movwcs	r0, #8461	; 0x210d
    1680:	0f110600 	svceq	0x00110600
    1684:	23020000 	movwcs	r0, #8192	; 0x2000
    1688:	00000048 	andeq	r0, r0, r8, asr #32
    168c:	02000104 	andeq	r0, r0, #1
    1690:	07000023 	streq	r0, [r0, -r3, lsr #32]
    1694:	e91b0204 	ldmdb	fp, {r2, r9}
    1698:	08000000 	stmdaeq	r0, {}	; <UNPREDICTABLE>
    169c:	000003bc 			; <UNDEFINED> instruction: 0x000003bc
    16a0:	00481c02 	subeq	r1, r8, r2, lsl #24
    16a4:	30080000 	andcc	r0, r8, r0
    16a8:	02000008 	andeq	r0, r0, #8
    16ac:	00006826 	andeq	r6, r0, r6, lsr #16
    16b0:	fb040000 	blx	1016ba <__bss_end+0xfe142>
    16b4:	0200000e 	andeq	r0, r0, #14
    16b8:	0000ca27 	andeq	ip, r0, r7, lsr #20
    16bc:	00480900 	subeq	r0, r8, r0, lsl #18
    16c0:	6d0a0000 	stcvs	0, cr0, [sl, #-0]
    16c4:	04000001 	streq	r0, [r0], #-1
    16c8:	01667a04 	cmneq	r6, r4, lsl #20
    16cc:	1e0b0000 	cdpne	0, 0, cr0, cr11, cr0, {0}
    16d0:	00000000 	andeq	r0, r0, r0
    16d4:	0000960b 	andeq	r9, r0, fp, lsl #12
    16d8:	390b0100 	stmdbcc	fp, {r8}
    16dc:	02000000 	andeq	r0, r0, #0
    16e0:	0000730b 	andeq	r7, r0, fp, lsl #6
    16e4:	9f0b0300 	svcls	0x000b0300
    16e8:	04000001 	streq	r0, [r0], #-1
    16ec:	0001340b 	andeq	r3, r1, fp, lsl #8
    16f0:	1c0b0500 	cfstr32ne	mvfx0, [fp], {-0}
    16f4:	06000001 	streq	r0, [r0], -r1
    16f8:	0001570b 	andeq	r5, r1, fp, lsl #14
    16fc:	120b0700 	andne	r0, fp, #0
    1700:	08000000 	stmdaeq	r0, {}	; <UNPREDICTABLE>
    1704:	0000680b 	andeq	r6, r0, fp, lsl #16
    1708:	290b0900 	stmdbcs	fp, {r8, fp}
    170c:	0a000001 	beq	1718 <set_serial_gpio+0x34>
    1710:	0001ab0b 	andeq	sl, r1, fp, lsl #22
    1714:	670b0b00 	strvs	r0, [fp, -r0, lsl #22]
    1718:	0c000001 	stceq	0, cr0, [r0], {1}
    171c:	0001830b 	andeq	r8, r1, fp, lsl #6
    1720:	300b0d00 	andcc	r0, fp, r0, lsl #26
    1724:	0e000002 	cdpeq	0, 0, cr0, cr0, cr2, {0}
    1728:	00002b0b 	andeq	r2, r0, fp, lsl #22
    172c:	02000f00 	andeq	r0, r0, #0
    1730:	00880801 	addeq	r0, r8, r1, lsl #16
    1734:	04020000 	streq	r0, [r2], #-0
    1738:	00014507 	andeq	r4, r1, r7, lsl #10
    173c:	de010c00 	cdple	12, 0, cr0, cr1, cr0, {0}
    1740:	0100000e 	tsteq	r0, lr
    1744:	0368010b 	cmneq	r8, #-1073741822	; 0xc0000002
    1748:	03880000 	orreq	r0, r8, #0
    174c:	01120000 	tsteq	r2, r0
    1750:	019c0000 	orrseq	r0, ip, r0
    1754:	870d0000 	strhi	r0, [sp, -r0]
    1758:	0100000d 	tsteq	r0, sp
    175c:	0000f40e 	andeq	pc, r0, lr, lsl #8
    1760:	74910200 	ldrvc	r0, [r1], #512	; 0x200
    1764:	e7010e00 	str	r0, [r1, -r0, lsl #28]
    1768:	0100000d 	tsteq	r0, sp
    176c:	03880119 	orreq	r0, r8, #1073741830	; 0x40000006
    1770:	038c0000 	orreq	r0, ip, #0
    1774:	7d020000 	stcvc	0, cr0, [r2, #-0]
    1778:	a0010e00 	andge	r0, r1, r0, lsl #28
    177c:	0100000e 	tsteq	r0, lr
    1780:	038c0129 	orreq	r0, ip, #1073741834	; 0x4000000a
    1784:	03900000 	orrseq	r0, r0, #0
    1788:	7d020000 	stcvc	0, cr0, [r2, #-0]
    178c:	46010e00 	strmi	r0, [r1], -r0, lsl #28
    1790:	0100000e 	tsteq	r0, lr
    1794:	03900138 	orrseq	r0, r0, #14
    1798:	03b40000 			; <UNDEFINED> instruction: 0x03b40000
    179c:	7d020000 	stcvc	0, cr0, [r2, #-0]
    17a0:	d1010e00 	tstle	r1, r0, lsl #28
    17a4:	0100000d 	tsteq	r0, sp
    17a8:	03b40141 			; <UNDEFINED> instruction: 0x03b40141
    17ac:	03d80000 	bicseq	r0, r8, #0
    17b0:	7d020000 	stcvc	0, cr0, [r2, #-0]
    17b4:	f5010c00 			; <UNDEFINED> instruction: 0xf5010c00
    17b8:	0100000d 	tsteq	r0, sp
    17bc:	03d8014a 	bicseq	r0, r8, #-2147483630	; 0x80000012
    17c0:	046c0000 	strbteq	r0, [ip], #-0
    17c4:	01320000 	teqeq	r2, r0
    17c8:	02130000 	andseq	r0, r3, #0
    17cc:	690f0000 	stmdbvs	pc, {}	; <UNPREDICTABLE>
    17d0:	414c0100 	mrsmi	r0, (UNDEF: 92)
    17d4:	52000000 	andpl	r0, r0, #0
    17d8:	00000001 	andeq	r0, r0, r1
    17dc:	0eaf010e 	fdveqe	f0, f7, #0.5
    17e0:	60010000 	andvs	r0, r1, r0
    17e4:	00046c01 	andeq	r6, r4, r1, lsl #24
    17e8:	00047000 	andeq	r7, r4, r0
    17ec:	007d0200 	rsbseq	r0, sp, r0, lsl #4
    17f0:	0eeb010c 	cdpeq	1, 14, cr0, cr11, cr12, {0}
    17f4:	65010000 	strvs	r0, [r1, #-0]
    17f8:	00047001 	andeq	r7, r4, r1
    17fc:	00050400 	andeq	r0, r5, r0, lsl #8
    1800:	00016600 	andeq	r6, r1, r0, lsl #12
    1804:	00025000 	andeq	r5, r2, r0
    1808:	61761000 	cmnvs	r6, r0
    180c:	6501006c 	strvs	r0, [r1, #-108]	; 0x6c
    1810:	000000f4 	strdeq	r0, [r0], -r4
    1814:	00000192 	muleq	r0, r2, r1
    1818:	56011100 	strpl	r1, [r1], -r0, lsl #2
    181c:	0100000e 	tsteq	r0, lr
    1820:	00480179 	subeq	r0, r8, r9, ror r1
    1824:	05040000 	streq	r0, [r4, #-0]
    1828:	05580000 	ldrbeq	r0, [r8, #-0]
    182c:	01b10000 			; <UNDEFINED> instruction: 0x01b10000
    1830:	027d0000 	rsbseq	r0, sp, #0
    1834:	760f0000 	strvc	r0, [pc], -r0
    1838:	01006c61 	tsteq	r0, r1, ror #24
    183c:	0000417b 	andeq	r4, r0, fp, ror r1
    1840:	0001d100 	andeq	sp, r1, r0, lsl #2
    1844:	010c0000 	mrseq	r0, (UNDEF: 12)
    1848:	00000e79 	andeq	r0, r0, r9, ror lr
    184c:	58018901 	stmdapl	r1, {r0, r8, fp, pc}
    1850:	d0000005 	andle	r0, r0, r5
    1854:	fb000005 	blx	1872 <serial_exit+0x3a>
    1858:	b3000001 	movwlt	r0, #1
    185c:	0f000002 	svceq	0x00000002
    1860:	8b010069 	blhi	41a0c <__bss_end+0x3e494>
    1864:	00000041 	andeq	r0, r0, r1, asr #32
    1868:	0000021b 	andeq	r0, r0, fp, lsl r2
    186c:	6c61760f 	stclvs	6, cr7, [r1], #-60	; 0xffffffc4
    1870:	418c0100 	orrmi	r0, ip, r0, lsl #2
    1874:	3a000000 	bcc	187c <serial_init_nommu+0x4>
    1878:	00000002 	andeq	r0, r0, r2
    187c:	0dab010c 	stfeqs	f0, [fp, #48]!	; 0x30
    1880:	9f010000 	svcls	0x00010000
    1884:	0005d001 	andeq	sp, r5, r1
    1888:	00066400 	andeq	r6, r6, r0, lsl #8
    188c:	00026400 	andeq	r6, r2, r0, lsl #8
    1890:	0002dc00 	andeq	sp, r2, r0, lsl #24
    1894:	61761000 	cmnvs	r6, r0
    1898:	9f01006c 	svcls	0x0001006c
    189c:	000000f4 	strdeq	r0, [r0], -r4
    18a0:	00000290 	muleq	r0, r0, r2
    18a4:	3e010e00 	cdpcc	14, 0, cr0, cr1, cr0, {0}
    18a8:	0100000e 	tsteq	r0, lr
    18ac:	066401f7 			; <UNDEFINED> instruction: 0x066401f7
    18b0:	067c0000 	ldrbteq	r0, [ip], -r0
    18b4:	7d020000 	stcvc	0, cr0, [r2, #-0]
    18b8:	7a011200 	bvc	460c0 <__bss_end+0x42b48>
    18bc:	0100000d 	tsteq	r0, sp
    18c0:	067c01ff 			; <UNDEFINED> instruction: 0x067c01ff
    18c4:	06940000 	ldreq	r0, [r4], r0
    18c8:	7d020000 	stcvc	0, cr0, [r2, #-0]
    18cc:	00031700 	andeq	r1, r3, r0, lsl #14
    18d0:	0e891300 	cdpeq	3, 8, cr1, cr9, cr0, {0}
    18d4:	01010000 	mrseq	r0, (UNDEF: 1)
    18d8:	00004801 	andeq	r4, r0, r1, lsl #16
    18dc:	00520100 	subseq	r0, r2, r0, lsl #2
    18e0:	0e650114 	mcreq	1, 3, r0, cr5, cr4, {0}
    18e4:	0b010000 	bleq	418ec <__bss_end+0x3e374>
    18e8:	06940101 	ldreq	r0, [r4], r1, lsl #2
    18ec:	06ac0000 	strteq	r0, [ip], r0
    18f0:	7d020000 	stcvc	0, cr0, [r2, #-0]
    18f4:	00033f00 	andeq	r3, r3, r0, lsl #30
    18f8:	0e891300 	cdpeq	3, 8, cr1, cr9, cr0, {0}
    18fc:	0d010000 	stceq	0, cr0, [r1, #-0]
    1900:	00004801 	andeq	r4, r0, r1, lsl #16
    1904:	00520100 	subseq	r0, r2, r0, lsl #2
    1908:	0dc10115 	stfeqe	f0, [r1, #84]	; 0x54
    190c:	1a010000 	bne	41914 <__bss_end+0x3e39c>
    1910:	06ac0101 	strteq	r0, [ip], r1, lsl #2
    1914:	06e00000 	strbteq	r0, [r0], r0
    1918:	02af0000 	adceq	r0, pc, #0
    191c:	037a0000 	cmneq	sl, #0
    1920:	6e160000 	cdpvs	0, 1, cr0, cr6, cr0, {0}
    1924:	01006d75 	tsteq	r0, r5, ror sp
    1928:	0041011a 	subeq	r0, r1, sl, lsl r1
    192c:	02cf0000 	sbceq	r0, pc, #0
    1930:	89170000 	ldmdbhi	r7, {}	; <UNPREDICTABLE>
    1934:	0100000e 	tsteq	r0, lr
    1938:	0048011c 	subeq	r0, r8, ip, lsl r1
    193c:	02e20000 	rsceq	r0, r2, #0
    1940:	0d000000 	stceq	0, cr0, [r0, #-0]
    1944:	00000d91 	muleq	r0, r1, sp
    1948:	038b3401 	orreq	r3, fp, #16777216	; 0x1000000
    194c:	03050000 	movweq	r0, #20480	; 0x5000
    1950:	00003198 	muleq	r0, r8, r1
    1954:	03910418 	orrseq	r0, r1, #402653184	; 0x18000000
    1958:	e9090000 	stmdb	r9, {}	; <UNPREDICTABLE>
    195c:	0d000000 	stceq	0, cr0, [r0, #-0]
    1960:	00000d9c 	muleq	r0, ip, sp
    1964:	00e93501 	rsceq	r3, r9, r1, lsl #10
    1968:	03050000 	movweq	r0, #20480	; 0x5000
    196c:	000031a0 	andeq	r3, r0, r0, lsr #3
    1970:	000ebf0d 	andeq	fp, lr, sp, lsl #30
    1974:	8b360100 	blhi	d81d7c <__bss_end+0xd7e804>
    1978:	05000003 	streq	r0, [r0, #-3]
    197c:	00319c03 	eorseq	r9, r1, r3, lsl #24
    1980:	0e8e0d00 	cdpeq	13, 8, cr0, cr14, cr0, {0}
    1984:	37010000 	strcc	r0, [r1, -r0]
    1988:	000000e9 	andeq	r0, r0, r9, ror #1
    198c:	31a40305 			; <UNDEFINED> instruction: 0x31a40305
    1990:	06190000 	ldreq	r0, [r9], -r0
    1994:	0100000e 	tsteq	r0, lr
    1998:	0003db09 	andeq	sp, r3, r9, lsl #22
    199c:	03050100 	movweq	r0, #20736	; 0x5100
    19a0:	000031a8 	andeq	r3, r0, r8, lsr #3
    19a4:	00004109 	andeq	r4, r0, r9, lsl #2
    19a8:	04f60000 	ldrbteq	r0, [r6], #0
    19ac:	00020000 	andeq	r0, r2, r0
    19b0:	0000050b 	andeq	r0, r0, fp, lsl #10
    19b4:	00460104 	subeq	r0, r6, r4, lsl #2
    19b8:	2a010000 	bcs	419c0 <__bss_end+0x3e448>
    19bc:	c1000010 	tstgt	r0, r0, lsl r0
    19c0:	e0000000 	and	r0, r0, r0
    19c4:	e0000006 	and	r0, r0, r6
    19c8:	64000008 	strvs	r0, [r0], #-8
    19cc:	02000005 	andeq	r0, r0, #5
    19d0:	00810601 	addeq	r0, r1, r1, lsl #12
    19d4:	01020000 	mrseq	r0, (UNDEF: 2)
    19d8:	00007f08 	andeq	r7, r0, r8, lsl #30
    19dc:	05020200 	streq	r0, [r2, #-512]	; 0x200
    19e0:	000001b6 			; <UNDEFINED> instruction: 0x000001b6
    19e4:	a3070202 	movwge	r0, #29186	; 0x7202
    19e8:	03000000 	movweq	r0, #0
    19ec:	00000ff8 	strdeq	r0, [r0], -r8
    19f0:	004c1202 	subeq	r1, ip, r2, lsl #4
    19f4:	04040000 	streq	r0, [r4], #-0
    19f8:	746e6905 	strbtvc	r6, [lr], #-2309	; 0x905
    19fc:	08070300 	stmdaeq	r7, {r8, r9}
    1a00:	13020000 	movwne	r0, #8192	; 0x2000
    1a04:	0000005e 	andeq	r0, r0, lr, asr r0
    1a08:	4a070402 	bmi	1c2a18 <__bss_end+0x1bf4a0>
    1a0c:	02000001 	andeq	r0, r0, #1
    1a10:	01910508 	orrseq	r0, r1, r8, lsl #10
    1a14:	08020000 	stmdaeq	r2, {}	; <UNPREDICTABLE>
    1a18:	00014007 	andeq	r4, r1, r7
    1a1c:	10ac0500 	adcne	r0, ip, r0, lsl #10
    1a20:	03040000 	movweq	r0, #16384	; 0x4000
    1a24:	00009814 	andeq	r9, r0, r4, lsl r8
    1a28:	0fbd0600 	svceq	0x00bd0600
    1a2c:	06010000 	streq	r0, [r1], -r0
    1a30:	000010cf 	andeq	r1, r0, pc, asr #1
    1a34:	10590602 	subsne	r0, r9, r2, lsl #12
    1a38:	06030000 	streq	r0, [r3], -r0
    1a3c:	00000fda 	ldrdeq	r0, [r0], -sl
    1a40:	6d050005 	stcvs	0, cr0, [r5, #-20]	; 0xffffffec
    1a44:	04000001 	streq	r0, [r0], #-1
    1a48:	01057a04 	tsteq	r5, r4, lsl #20
    1a4c:	1e060000 	cdpne	0, 0, cr0, cr6, cr0, {0}
    1a50:	00000000 	andeq	r0, r0, r0
    1a54:	00009606 	andeq	r9, r0, r6, lsl #12
    1a58:	39060100 	stmdbcc	r6, {r8}
    1a5c:	02000000 	andeq	r0, r0, #0
    1a60:	00007306 	andeq	r7, r0, r6, lsl #6
    1a64:	9f060300 	svcls	0x00060300
    1a68:	04000001 	streq	r0, [r0], #-1
    1a6c:	00013406 	andeq	r3, r1, r6, lsl #8
    1a70:	1c060500 	cfstr32ne	mvfx0, [r6], {-0}
    1a74:	06000001 	streq	r0, [r0], -r1
    1a78:	00015706 	andeq	r5, r1, r6, lsl #14
    1a7c:	12060700 	andne	r0, r6, #0
    1a80:	08000000 	stmdaeq	r0, {}	; <UNPREDICTABLE>
    1a84:	00006806 	andeq	r6, r0, r6, lsl #16
    1a88:	29060900 	stmdbcs	r6, {r8, fp}
    1a8c:	0a000001 	beq	1a98 <serial_init+0x38>
    1a90:	0001ab06 	andeq	sl, r1, r6, lsl #22
    1a94:	67060b00 	strvs	r0, [r6, -r0, lsl #22]
    1a98:	0c000001 	stceq	0, cr0, [r0], {1}
    1a9c:	00018306 	andeq	r8, r1, r6, lsl #6
    1aa0:	30060d00 	andcc	r0, r6, r0, lsl #26
    1aa4:	0e000002 	cdpeq	0, 0, cr0, cr0, cr2, {0}
    1aa8:	00002b06 	andeq	r2, r0, r6, lsl #22
    1aac:	02000f00 	andeq	r0, r0, #0
    1ab0:	00880801 	addeq	r0, r8, r1, lsl #16
    1ab4:	04020000 	streq	r0, [r2], #-0
    1ab8:	00014507 	andeq	r4, r1, r7, lsl #10
    1abc:	66010700 	strvs	r0, [r1], -r0, lsl #14
    1ac0:	01000010 	tsteq	r0, r0, lsl r0
    1ac4:	00530141 	subseq	r0, r3, r1, asr #2
    1ac8:	31010000 	mrscc	r0, (UNDEF: 1)
    1acc:	08000001 	stmdaeq	r0, {r0}
    1ad0:	0000132d 	andeq	r1, r0, sp, lsr #6
    1ad4:	00534301 	subseq	r4, r3, r1, lsl #6
    1ad8:	09000000 	stmdbeq	r0, {}	; <UNPREDICTABLE>
    1adc:	00107501 	andseq	r7, r0, r1, lsl #10
    1ae0:	010c0100 	mrseq	r0, (UNDEF: 28)
    1ae4:	00016101 	andeq	r6, r1, r1, lsl #2
    1ae8:	0fd10a00 	svceq	0x00d10a00
    1aec:	0c010000 	stceq	0, cr0, [r1], {-0}
    1af0:	00000053 	andeq	r0, r0, r3, asr r0
    1af4:	000f7b0a 	andeq	r7, pc, sl, lsl #22
    1af8:	530c0100 	movwpl	r0, #49408	; 0xc100
    1afc:	08000000 	stmdaeq	r0, {}	; <UNPREDICTABLE>
    1b00:	0000132d 	andeq	r1, r0, sp, lsr #6
    1b04:	00530f01 	subseq	r0, r3, r1, lsl #30
    1b08:	0b000000 	bleq	1b10 <serial_puts+0x24>
    1b0c:	000010bb 	strheq	r1, [r0], -fp
    1b10:	5301b501 	movwpl	fp, #5377	; 0x1501
    1b14:	01000000 	mrseq	r0, (UNDEF: 0)
    1b18:	00000189 	andeq	r0, r0, r9, lsl #3
    1b1c:	0010250a 	andseq	r2, r0, sl, lsl #10
    1b20:	73b50100 			; <UNDEFINED> instruction: 0x73b50100
    1b24:	08000000 	stmdaeq	r0, {}	; <UNPREDICTABLE>
    1b28:	00000f98 	muleq	r0, r8, pc	; <UNPREDICTABLE>
    1b2c:	004cb701 	subeq	fp, ip, r1, lsl #14
    1b30:	0c000000 	stceq	0, cr0, [r0], {-0}
    1b34:	00000131 	andeq	r0, r0, r1, lsr r1
    1b38:	000006e0 	andeq	r0, r0, r0, ror #13
    1b3c:	00000714 	andeq	r0, r0, r4, lsl r7
    1b40:	b7007d02 	strlt	r7, [r0, -r2, lsl #26]
    1b44:	0d000001 	stceq	0, cr0, [r0, #-4]
    1b48:	0000013f 	andeq	r0, r0, pc, lsr r1
    1b4c:	00000300 	andeq	r0, r0, r0, lsl #6
    1b50:	00014a0e 	andeq	r4, r1, lr, lsl #20
    1b54:	0f510100 	svceq	0x00510100
    1b58:	00000155 	andeq	r0, r0, r5, asr r1
    1b5c:	00000313 	andeq	r0, r0, r3, lsl r3
    1b60:	e5011000 	str	r1, [r1, #-0]
    1b64:	0100000f 	tsteq	r0, pc
    1b68:	0714012c 	ldreq	r0, [r4, -ip, lsr #2]
    1b6c:	07300000 	ldreq	r0, [r0, -r0]!
    1b70:	7d020000 	stcvc	0, cr0, [r2, #-0]
    1b74:	43011000 	movwmi	r1, #4096	; 0x1000
    1b78:	0100000f 	tsteq	r0, pc
    1b7c:	07300136 			; <UNDEFINED> instruction: 0x07300136
    1b80:	07540000 	ldrbeq	r0, [r4, -r0]
    1b84:	7d020000 	stcvc	0, cr0, [r2, #-0]
    1b88:	01130c00 	tsteq	r3, r0, lsl #24
    1b8c:	07540000 	ldrbeq	r0, [r4, -r0]
    1b90:	075c0000 	ldrbeq	r0, [ip, -r0]
    1b94:	7d020000 	stcvc	0, cr0, [r2, #-0]
    1b98:	0001fb00 	andeq	pc, r1, r0, lsl #22
    1b9c:	01251100 	teqeq	r5, r0, lsl #2
    1ba0:	50010000 	andpl	r0, r1, r0
    1ba4:	8a011200 	bhi	463ac <__bss_end+0x42e34>
    1ba8:	0100000f 	tsteq	r0, pc
    1bac:	075c0149 	ldrbeq	r0, [ip, -r9, asr #2]
    1bb0:	076c0000 	strbeq	r0, [ip, -r0]!
    1bb4:	7d020000 	stcvc	0, cr0, [r2, #-0]
    1bb8:	00022300 	andeq	r2, r2, r0, lsl #6
    1bbc:	132d1300 	teqne	sp, #0
    1bc0:	4b010000 	blmi	41bc8 <__bss_end+0x3e650>
    1bc4:	00000053 	andeq	r0, r0, r3, asr r0
    1bc8:	0000035c 	andeq	r0, r0, ip, asr r3
    1bcc:	30011400 	andcc	r1, r1, r0, lsl #8
    1bd0:	0100000f 	tsteq	r0, pc
    1bd4:	076c0154 			; <UNDEFINED> instruction: 0x076c0154
    1bd8:	07a00000 	streq	r0, [r0, r0]!
    1bdc:	038a0000 	orreq	r0, sl, #0
    1be0:	02a50000 	adceq	r0, r5, #0
    1be4:	99130000 	ldmdbls	r3, {}	; <UNPREDICTABLE>
    1be8:	01000006 	tsteq	r0, r6
    1bec:	00005356 	andeq	r5, r0, r6, asr r3
    1bf0:	0003aa00 	andeq	sl, r3, r0, lsl #20
    1bf4:	6e651500 	cdpvs	5, 6, cr1, cr5, cr0, {0}
    1bf8:	57010064 	strpl	r0, [r1, -r4, rrx]
    1bfc:	00000053 	andeq	r0, r0, r3, asr r0
    1c00:	000003be 			; <UNDEFINED> instruction: 0x000003be
    1c04:	00011316 	andeq	r1, r1, r6, lsl r3
    1c08:	00077000 	andeq	r7, r7, r0
    1c0c:	00077400 	andeq	r7, r7, r0, lsl #8
    1c10:	815c0100 	cmphi	ip, r0, lsl #2
    1c14:	17000002 	strne	r0, [r0, -r2]
    1c18:	00000770 	andeq	r0, r0, r0, ror r7
    1c1c:	00000774 	andeq	r0, r0, r4, ror r7
    1c20:	0001250f 	andeq	r2, r1, pc, lsl #10
    1c24:	0003d200 	andeq	sp, r3, r0, lsl #4
    1c28:	18000000 	stmdane	r0, {}	; <UNPREDICTABLE>
    1c2c:	00000113 	andeq	r0, r0, r3, lsl r1
    1c30:	00000774 	andeq	r0, r0, r4, ror r7
    1c34:	00000778 	andeq	r0, r0, r8, ror r7
    1c38:	74175d01 	ldrvc	r5, [r7], #-3329	; 0xd01
    1c3c:	78000007 	stmdavc	r0, {r0, r1, r2}
    1c40:	0f000007 	svceq	0x00000007
    1c44:	00000125 	andeq	r0, r0, r5, lsr #2
    1c48:	000003e5 	andeq	r0, r0, r5, ror #7
    1c4c:	14000000 	strne	r0, [r0], #-0
    1c50:	000f5701 	andeq	r5, pc, r1, lsl #14
    1c54:	01660100 	cmneq	r6, r0, lsl #2
    1c58:	000007a0 	andeq	r0, r0, r0, lsr #15
    1c5c:	00000828 	andeq	r0, r0, r8, lsr #16
    1c60:	000003f8 	strdeq	r0, [r0], -r8
    1c64:	00000395 	muleq	r0, r5, r3
    1c68:	00737519 	rsbseq	r7, r3, r9, lsl r5
    1c6c:	00536601 	subseq	r6, r3, r1, lsl #12
    1c70:	04180000 	ldreq	r0, [r8], #-0
    1c74:	ca130000 	bgt	4c1c7c <__bss_end+0x4be704>
    1c78:	0100000f 	tsteq	r0, pc
    1c7c:	00005368 	andeq	r5, r0, r8, ror #6
    1c80:	00044100 	andeq	r4, r4, r0, lsl #2
    1c84:	75631500 	strbvc	r1, [r3, #-1280]!	; 0x500
    1c88:	69010072 	stmdbvs	r1, {r1, r4, r5, r6}
    1c8c:	00000053 	andeq	r0, r0, r3, asr r0
    1c90:	00000471 	andeq	r0, r0, r1, ror r4
    1c94:	000f2913 	andeq	r2, pc, r3, lsl r9	; <UNPREDICTABLE>
    1c98:	536a0100 	cmnpl	sl, #0
    1c9c:	a7000000 	strge	r0, [r0, -r0]
    1ca0:	13000004 	movwne	r0, #4
    1ca4:	00000f1a 	andeq	r0, r0, sl, lsl pc
    1ca8:	00536b01 	subseq	r6, r3, r1, lsl #22
    1cac:	04d20000 	ldrbeq	r0, [r2], #0
    1cb0:	6f1a0000 	svcvs	0x001a0000
    1cb4:	01007475 	tsteq	r0, r5, ror r4
    1cb8:	0007b89f 	muleq	r7, pc, r8	; <UNPREDICTABLE>
    1cbc:	01131600 	tsteq	r3, r0, lsl #12
    1cc0:	07cc0000 	strbeq	r0, [ip, r0]
    1cc4:	07d00000 	ldrbeq	r0, [r0, r0]
    1cc8:	76010000 	strvc	r0, [r1], -r0
    1ccc:	00000338 	andeq	r0, r0, r8, lsr r3
    1cd0:	0007cc17 	andeq	ip, r7, r7, lsl ip
    1cd4:	0007d000 	andeq	sp, r7, r0
    1cd8:	01251100 	teqeq	r5, r0, lsl #2
    1cdc:	53010000 	movwpl	r0, #4096	; 0x1000
    1ce0:	31160000 	tstcc	r6, r0
    1ce4:	f0000001 			; <UNDEFINED> instruction: 0xf0000001
    1ce8:	10000007 	andne	r0, r0, r7
    1cec:	01000008 	tsteq	r0, r8
    1cf0:	0003717c 	andeq	r7, r3, ip, ror r1
    1cf4:	014a0d00 	cmpeq	sl, r0, lsl #26
    1cf8:	04fd0000 	ldrbteq	r0, [sp], #0
    1cfc:	3f0d0000 	svccc	0x000d0000
    1d00:	11000001 	tstne	r0, r1
    1d04:	17000005 	strne	r0, [r0, -r5]
    1d08:	000007f0 	strdeq	r0, [r0], -r0	; <UNPREDICTABLE>
    1d0c:	00000810 	andeq	r0, r0, r0, lsl r8
    1d10:	0001550f 	andeq	r5, r1, pc, lsl #10
    1d14:	00052500 	andeq	r2, r5, r0, lsl #10
    1d18:	18000000 	stmdane	r0, {}	; <UNPREDICTABLE>
    1d1c:	00000113 	andeq	r0, r0, r3, lsl r1
    1d20:	00000810 	andeq	r0, r0, r0, lsl r8
    1d24:	00000814 	andeq	r0, r0, r4, lsl r8
    1d28:	10178001 	andsne	r8, r7, r1
    1d2c:	14000008 	strne	r0, [r0], #-8
    1d30:	0f000008 	svceq	0x00000008
    1d34:	00000125 	andeq	r0, r0, r5, lsr #2
    1d38:	00000549 	andeq	r0, r0, r9, asr #10
    1d3c:	14000000 	strne	r0, [r0], #-0
    1d40:	0005eb01 	andeq	lr, r5, r1, lsl #22
    1d44:	01a90100 			; <UNDEFINED> instruction: 0x01a90100
    1d48:	00000828 	andeq	r0, r0, r8, lsr #16
    1d4c:	0000085c 	andeq	r0, r0, ip, asr r8
    1d50:	0000055c 	andeq	r0, r0, ip, asr r5
    1d54:	000003bd 			; <UNDEFINED> instruction: 0x000003bd
    1d58:	00736d19 	rsbseq	r6, r3, r9, lsl sp
    1d5c:	0053a901 	subseq	sl, r3, r1, lsl #18
    1d60:	057c0000 	ldrbeq	r0, [ip, #-0]!
    1d64:	12000000 	andne	r0, r0, #0
    1d68:	00109901 	andseq	r9, r0, r1, lsl #18
    1d6c:	01cf0100 	biceq	r0, pc, r0, lsl #2
    1d70:	0000085c 	andeq	r0, r0, ip, asr r8
    1d74:	00000888 	andeq	r0, r0, r8, lsl #17
    1d78:	01007d02 	tsteq	r0, r2, lsl #26
    1d7c:	1b000004 	blne	1d94 <itoa.constprop.0+0x8>
    1d80:	00000fd1 	ldrdeq	r0, [r0], -r1
    1d84:	0053cf01 	subseq	ip, r3, r1, lsl #30
    1d88:	05b20000 	ldreq	r0, [r2, #0]!
    1d8c:	7b1c0000 	blvc	701d94 <__bss_end+0x6fe81c>
    1d90:	0100000f 	tsteq	r0, pc
    1d94:	000053cf 	andeq	r5, r0, pc, asr #7
    1d98:	13510100 	cmpne	r1, #0
    1d9c:	0000132d 	andeq	r1, r0, sp, lsr #6
    1da0:	0053d201 	subseq	sp, r3, r1, lsl #4
    1da4:	05c50000 	strbeq	r0, [r5]
    1da8:	12000000 	andne	r0, r0, #0
    1dac:	00108701 	andseq	r8, r0, r1, lsl #14
    1db0:	01ed0100 	mvneq	r0, r0, lsl #2
    1db4:	00000888 	andeq	r0, r0, r8, lsl #17
    1db8:	000008b4 			; <UNDEFINED> instruction: 0x000008b4
    1dbc:	4d007d02 	stcmi	13, cr7, [r0, #-8]
    1dc0:	1c000004 	stcne	0, cr0, [r0], {4}
    1dc4:	00001025 	andeq	r1, r0, r5, lsr #32
    1dc8:	0073ed01 	rsbseq	lr, r3, r1, lsl #26
    1dcc:	50010000 	andpl	r0, r1, r0
    1dd0:	000f9813 	andeq	r9, pc, r3, lsl r8	; <UNPREDICTABLE>
    1dd4:	53f00100 	mvnspl	r0, #0
    1dd8:	0e000000 	cdpeq	0, 0, cr0, cr0, cr0, {0}
    1ddc:	18000006 	stmdane	r0, {r1, r2}
    1de0:	00000161 	andeq	r0, r0, r1, ror #2
    1de4:	00000888 	andeq	r0, r0, r8, lsl #17
    1de8:	0000089c 	muleq	r0, ip, r8
    1dec:	720ef101 	andvc	pc, lr, #1073741824	; 0x40000000
    1df0:	01000001 	tsteq	r0, r1
    1df4:	1d000050 	stcne	0, cr0, [r0, #-320]	; 0xfffffec0
    1df8:	000f6901 	andeq	r6, pc, r1, lsl #18
    1dfc:	01000100 	mrseq	r0, (UNDEF: 16)
    1e00:	00004c01 	andeq	r4, r0, r1, lsl #24
    1e04:	0008b400 	andeq	fp, r8, r0, lsl #8
    1e08:	0008e000 	andeq	lr, r8, r0
    1e0c:	007d0200 	rsbseq	r0, sp, r0, lsl #4
    1e10:	000004b5 			; <UNDEFINED> instruction: 0x000004b5
    1e14:	0010251e 	andseq	r2, r0, lr, lsl r5
    1e18:	01000100 	mrseq	r0, (UNDEF: 16)
    1e1c:	00000073 	andeq	r0, r0, r3, ror r0
    1e20:	00000622 	andeq	r0, r0, r2, lsr #12
    1e24:	000f981f 	andeq	r9, pc, pc, lsl r8	; <UNPREDICTABLE>
    1e28:	01020100 	mrseq	r0, (UNDEF: 18)
    1e2c:	0000004c 	andeq	r0, r0, ip, asr #32
    1e30:	00000642 	andeq	r0, r0, r2, asr #12
    1e34:	000ffe1f 	andeq	pc, pc, pc, lsl lr	; <UNPREDICTABLE>
    1e38:	01030100 	mrseq	r0, (UNDEF: 19)
    1e3c:	0000004c 	andeq	r0, r0, ip, asr #32
    1e40:	00000661 	andeq	r0, r0, r1, ror #12
    1e44:	00016120 	andeq	r6, r1, r0, lsr #2
    1e48:	0008b400 	andeq	fp, r8, r0, lsl #8
    1e4c:	0008c800 	andeq	ip, r8, r0, lsl #16
    1e50:	01040100 	mrseq	r0, (UNDEF: 20)
    1e54:	0001720d 	andeq	r7, r1, sp, lsl #4
    1e58:	00062200 	andeq	r2, r6, r0, lsl #4
    1e5c:	21000000 	mrscs	r0, (UNDEF: 0)
    1e60:	00001e35 	andeq	r1, r0, r5, lsr lr
    1e64:	00530501 	subseq	r0, r3, r1, lsl #10
    1e68:	03050000 	movweq	r0, #20480	; 0x5000
    1e6c:	000031b8 			; <UNDEFINED> instruction: 0x000031b8
    1e70:	000f6021 	andeq	r6, pc, r1, lsr #32
    1e74:	53060100 	movwpl	r0, #24832	; 0x6100
    1e78:	05000000 	streq	r0, [r0, #-0]
    1e7c:	0031b403 	eorseq	fp, r1, r3, lsl #8
    1e80:	10082100 	andne	r2, r8, r0, lsl #2
    1e84:	07010000 	streq	r0, [r1, -r0]
    1e88:	00000053 	andeq	r0, r0, r3, asr r0
    1e8c:	31ac0305 			; <UNDEFINED> instruction: 0x31ac0305
    1e90:	9e210000 	cdpls	0, 2, cr0, cr1, cr0, {0}
    1e94:	0100000f 	tsteq	r0, pc
    1e98:	00005308 	andeq	r5, r0, r8, lsl #6
    1e9c:	b0030500 	andlt	r0, r3, r0, lsl #10
    1ea0:	00000031 	andeq	r0, r0, r1, lsr r0
    1ea4:	0000014b 	andeq	r0, r0, fp, asr #2
    1ea8:	06fb0002 	ldrbteq	r0, [fp], r2
    1eac:	01040000 	mrseq	r0, (UNDEF: 4)
    1eb0:	00000046 	andeq	r0, r0, r6, asr #32
    1eb4:	0010da01 	andseq	sp, r0, r1, lsl #20
    1eb8:	0000c100 	andeq	ip, r0, r0, lsl #2
    1ebc:	0008e000 	andeq	lr, r8, r0
    1ec0:	00098000 	andeq	r8, r9, r0
    1ec4:	00069700 	andeq	r9, r6, r0, lsl #14
    1ec8:	07040200 	streq	r0, [r4, -r0, lsl #4]
    1ecc:	0000014a 	andeq	r0, r0, sl, asr #2
    1ed0:	88080102 	stmdahi	r8, {r1, r8}
    1ed4:	02000000 	andeq	r0, r0, #0
    1ed8:	00a30702 	adceq	r0, r3, r2, lsl #14
    1edc:	04030000 	streq	r0, [r3], #-0
    1ee0:	746e6905 	strbtvc	r6, [lr], #-2309	; 0x905
    1ee4:	07040200 	streq	r0, [r4, -r0, lsl #4]
    1ee8:	00000145 	andeq	r0, r0, r5, asr #2
    1eec:	7f080102 	svcvc	0x00080102
    1ef0:	02000000 	andeq	r0, r0, #0
    1ef4:	00810601 	addeq	r0, r1, r1, lsl #12
    1ef8:	02020000 	andeq	r0, r2, #0
    1efc:	0001b605 	andeq	fp, r1, r5, lsl #12
    1f00:	08070400 	stmdaeq	r7, {sl}
    1f04:	13030000 	movwne	r0, #12288	; 0x3000
    1f08:	00000025 	andeq	r0, r0, r5, lsr #32
    1f0c:	91050802 	tstls	r5, r2, lsl #16
    1f10:	02000001 	andeq	r0, r0, #1
    1f14:	01400708 	cmpeq	r0, r8, lsl #14
    1f18:	3a050000 	bcc	141f20 <__bss_end+0x13e9a8>
    1f1c:	24000004 	strcs	r0, [r0], #-4
    1f20:	01004c02 	tsteq	r0, r2, lsl #24
    1f24:	b4060000 	strlt	r0, [r6], #-0
    1f28:	0200000c 	andeq	r0, r0, #12
    1f2c:	00005d4e 	andeq	r5, r0, lr, asr #26
    1f30:	00230200 	eoreq	r0, r3, r0, lsl #4
    1f34:	00726307 	rsbseq	r6, r2, r7, lsl #6
    1f38:	005d5002 	subseq	r5, sp, r2
    1f3c:	23020000 	movwcs	r0, #8192	; 0x2000
    1f40:	0a920604 	beq	fe483758 <__bss_end+0xfe4801e0>
    1f44:	51020000 	mrspl	r0, (UNDEF: 2)
    1f48:	0000005d 	andeq	r0, r0, sp, asr r0
    1f4c:	06082302 	streq	r2, [r8], -r2, lsl #6
    1f50:	00000ae6 	andeq	r0, r0, r6, ror #21
    1f54:	005d5302 	subseq	r5, sp, r2, lsl #6
    1f58:	23020000 	movwcs	r0, #8192	; 0x2000
    1f5c:	0bf3060c 	bleq	ffcc3794 <__bss_end+0xffcc021c>
    1f60:	54020000 	strpl	r0, [r2], #-0
    1f64:	0000005d 	andeq	r0, r0, sp, asr r0
    1f68:	06102302 	ldreq	r2, [r0], -r2, lsl #6
    1f6c:	00000801 	andeq	r0, r0, r1, lsl #16
    1f70:	005d5502 	subseq	r5, sp, r2, lsl #10
    1f74:	23020000 	movwcs	r0, #8192	; 0x2000
    1f78:	069f0614 			; <UNDEFINED> instruction: 0x069f0614
    1f7c:	58020000 	stmdapl	r2, {}	; <UNPREDICTABLE>
    1f80:	0000005d 	andeq	r0, r0, sp, asr r0
    1f84:	06182302 	ldreq	r2, [r8], -r2, lsl #6
    1f88:	00000d51 	andeq	r0, r0, r1, asr sp
    1f8c:	005d5b02 	subseq	r5, sp, r2, lsl #22
    1f90:	23020000 	movwcs	r0, #8192	; 0x2000
    1f94:	068e061c 	pkhbteq	r0, lr, ip, lsl #12
    1f98:	5c020000 	stcpl	0, cr0, [r2], {-0}
    1f9c:	0000005d 	andeq	r0, r0, sp, asr r0
    1fa0:	00202302 	eoreq	r2, r0, r2, lsl #6
    1fa4:	111b0108 	tstne	fp, r8, lsl #2
    1fa8:	07010000 	streq	r0, [r1, -r0]
    1fac:	0008e001 	andeq	lr, r8, r1
    1fb0:	00091c00 	andeq	r1, r9, r0, lsl #24
    1fb4:	007d0200 	rsbseq	r0, sp, r0, lsl #4
    1fb8:	00000126 	andeq	r0, r0, r6, lsr #2
    1fbc:	00043409 	andeq	r3, r4, r9, lsl #8
    1fc0:	26070100 	strcs	r0, [r7], -r0, lsl #2
    1fc4:	01000001 	tsteq	r0, r1
    1fc8:	040a0050 	streq	r0, [sl], #-80	; 0x50
    1fcc:	00000076 	andeq	r0, r0, r6, ror r0
    1fd0:	1109010b 	tstne	r9, fp, lsl #2
    1fd4:	1e010000 	cdpne	0, 0, cr0, cr1, cr0, {0}
    1fd8:	00091c01 	andeq	r1, r9, r1, lsl #24
    1fdc:	00098000 	andeq	r8, r9, r0
    1fe0:	007d0200 	rsbseq	r0, sp, r0, lsl #4
    1fe4:	00043409 	andeq	r3, r4, r9, lsl #8
    1fe8:	261e0100 	ldrcs	r0, [lr], -r0, lsl #2
    1fec:	01000001 	tsteq	r0, r1
    1ff0:	7b000050 	blvc	2138 <printk+0x2c4>
    1ff4:	02000000 	andeq	r0, r0, #0
    1ff8:	0007a300 	andeq	sl, r7, r0, lsl #6
    1ffc:	47010400 	strmi	r0, [r1, -r0, lsl #8]
    2000:	80000007 	andhi	r0, r0, r7
    2004:	cc000009 	stcgt	0, cr0, [r0], {9}
    2008:	6100000e 	tstvs	r0, lr
    200c:	2f686372 	svccs	0x00686372
    2010:	2f6d7261 	svccs	0x006d7261
    2014:	6863616d 	stmdavs	r3!, {r0, r2, r3, r5, r6, r8, sp, lr}^
    2018:	6e75732d 	cdpvs	3, 7, cr7, cr5, cr13, {1}
    201c:	702f6978 	eorvc	r6, pc, r8, ror r9	; <UNPREDICTABLE>
    2020:	74732f6d 	ldrbtvc	r2, [r3], #-3949	; 0xf6d
    2024:	62646e61 	rsbvs	r6, r4, #1552	; 0x610
    2028:	2e2e2f79 	mcrcs	15, 1, r2, cr14, cr9, {3}
    202c:	6d656d2f 	stclvs	13, cr6, [r5, #-188]!	; 0xffffff44
    2030:	756d6d5f 	strbvc	r6, [sp, #-3423]!	; 0xd5f
    2034:	5f63705f 	svcpl	0x0063705f
    2038:	2e6d7361 	cdpcs	3, 6, cr7, cr13, cr1, {3}
    203c:	682f0053 	stmdavs	pc!, {r0, r1, r4, r6}	; <UNPREDICTABLE>
    2040:	2f656d6f 	svccs	0x00656d6f
    2044:	2f6d6f74 	svccs	0x006d6f74
    2048:	5f736274 	svcpl	0x00736274
    204c:	6c626174 	stfvse	f6, [r2], #-464	; 0xfffffe30
    2050:	6c2f7465 	cfstrsvs	mvf7, [pc], #-404	; 1ec4 <printk+0x50>
    2054:	65686369 	strbvs	r6, [r8, #-873]!	; 0x369
    2058:	696c2f65 	stmdbvs	ip!, {r0, r2, r5, r6, r8, r9, sl, fp, sp}^
    205c:	2d78756e 	cfldr64cs	mvdx7, [r8, #-440]!	; 0xfffffe48
    2060:	00342e33 	eorseq	r2, r4, r3, lsr lr
    2064:	20554e47 	subscs	r4, r5, r7, asr #28
    2068:	32205341 	eorcc	r5, r0, #67108865	; 0x4000001
    206c:	0032322e 	eorseq	r3, r2, lr, lsr #4
    2070:	05908001 	ldreq	r8, [r0, #1]
    2074:	00020000 	andeq	r0, r2, r0
    2078:	000007b7 			; <UNDEFINED> instruction: 0x000007b7
    207c:	00460104 	subeq	r0, r6, r4, lsl #2
    2080:	78010000 	stmdavc	r1, {}	; <UNPREDICTABLE>
    2084:	c1000012 	tstgt	r0, r2, lsl r0
    2088:	e0000000 	and	r0, r0, r0
    208c:	e400000e 	str	r0, [r0], #-14
    2090:	fa000016 	blx	20f0 <printk+0x27c>
    2094:	02000008 	andeq	r0, r0, #8
    2098:	00810601 	addeq	r0, r1, r1, lsl #12
    209c:	01020000 	mrseq	r0, (UNDEF: 2)
    20a0:	00007f08 	andeq	r7, r0, r8, lsl #30
    20a4:	05020200 	streq	r0, [r2, #-512]	; 0x200
    20a8:	000001b6 			; <UNDEFINED> instruction: 0x000001b6
    20ac:	a3070202 	movwge	r0, #29186	; 0x7202
    20b0:	03000000 	movweq	r0, #0
    20b4:	6e690504 	cdpvs	5, 6, cr0, cr9, cr4, {0}
    20b8:	07040074 	smlsdxeq	r4, r4, r0, r0
    20bc:	03000008 	movweq	r0, #8
    20c0:	00005313 	andeq	r5, r0, r3, lsl r3
    20c4:	07040200 	streq	r0, [r4, -r0, lsl #4]
    20c8:	0000014a 	andeq	r0, r0, sl, asr #2
    20cc:	91050802 	tstls	r5, r2, lsl #16
    20d0:	02000001 	andeq	r0, r0, #1
    20d4:	01400708 	cmpeq	r0, r8, lsl #14
    20d8:	34050000 	strcc	r0, [r5], #-0
    20dc:	a0000012 	andge	r0, r0, r2, lsl r0
    20e0:	02ac1202 	adceq	r1, ip, #536870912	; 0x20000000
    20e4:	b4060000 	strlt	r0, [r6], #-0
    20e8:	0200000c 	andeq	r0, r0, #12
    20ec:	00004817 	andeq	r4, r0, r7, lsl r8
    20f0:	00230200 	eoreq	r0, r3, r0, lsl #4
    20f4:	00726307 	rsbseq	r6, r2, r7, lsl #6
    20f8:	00482702 	subeq	r2, r8, r2, lsl #14
    20fc:	23020000 	movwcs	r0, #8192	; 0x2000
    2100:	63610704 	cmnvs	r1, #1048576	; 0x100000
    2104:	28020072 	stmdacs	r2, {r1, r4, r5, r6}
    2108:	00000048 	andeq	r0, r0, r8, asr #32
    210c:	06082302 	streq	r2, [r8], -r2, lsl #6
    2110:	00000a92 	muleq	r0, r2, sl
    2114:	00482902 	subeq	r2, r8, r2, lsl #18
    2118:	23020000 	movwcs	r0, #8192	; 0x2000
    211c:	1137060c 	teqne	r7, ip, lsl #12
    2120:	2a020000 	bcs	82128 <__bss_end+0x7ebb0>
    2124:	00000048 	andeq	r0, r0, r8, asr #32
    2128:	06102302 	ldreq	r2, [r0], -r2, lsl #6
    212c:	0000116f 	andeq	r1, r0, pc, ror #2
    2130:	00482b02 	subeq	r2, r8, r2, lsl #22
    2134:	23020000 	movwcs	r0, #8192	; 0x2000
    2138:	12540614 	subsne	r0, r4, #20971520	; 0x1400000
    213c:	2c020000 	stccs	0, cr0, [r2], {-0}
    2140:	00000048 	andeq	r0, r0, r8, asr #32
    2144:	06182302 	ldreq	r2, [r8], -r2, lsl #6
    2148:	00000ae6 	andeq	r0, r0, r6, ror #21
    214c:	00483002 	subeq	r3, r8, r2
    2150:	23020000 	movwcs	r0, #8192	; 0x2000
    2154:	0bf3061c 	bleq	ffcc39cc <__bss_end+0xffcc0454>
    2158:	31020000 	mrscc	r0, (UNDEF: 2)
    215c:	00000048 	andeq	r0, r0, r8, asr #32
    2160:	06202302 	strteq	r2, [r0], -r2, lsl #6
    2164:	00000801 	andeq	r0, r0, r1, lsl #16
    2168:	00483202 	subeq	r3, r8, r2, lsl #4
    216c:	23020000 	movwcs	r0, #8192	; 0x2000
    2170:	069f0624 	ldreq	r0, [pc], r4, lsr #12
    2174:	34020000 	strcc	r0, [r2], #-0
    2178:	00000048 	andeq	r0, r0, r8, asr #32
    217c:	06282302 	strteq	r2, [r8], -r2, lsl #6
    2180:	00001143 	andeq	r1, r0, r3, asr #2
    2184:	00483602 	subeq	r3, r8, r2, lsl #12
    2188:	23020000 	movwcs	r0, #8192	; 0x2000
    218c:	1333062c 	teqne	r3, #46137344	; 0x2c00000
    2190:	37020000 	strcc	r0, [r2, -r0]
    2194:	00000048 	andeq	r0, r0, r8, asr #32
    2198:	06302302 	ldrteq	r2, [r0], -r2, lsl #6
    219c:	0000122d 	andeq	r1, r0, sp, lsr #4
    21a0:	00483802 	subeq	r3, r8, r2, lsl #16
    21a4:	23020000 	movwcs	r0, #8192	; 0x2000
    21a8:	134e0634 	movtne	r0, #58932	; 0xe634
    21ac:	39020000 	stmdbcc	r2, {}	; <UNPREDICTABLE>
    21b0:	00000048 	andeq	r0, r0, r8, asr #32
    21b4:	06382302 	ldrteq	r2, [r8], -r2, lsl #6
    21b8:	00001339 	andeq	r1, r0, r9, lsr r3
    21bc:	00483b02 	subeq	r3, r8, r2, lsl #22
    21c0:	23020000 	movwcs	r0, #8192	; 0x2000
    21c4:	1131063c 	teqne	r1, ip, lsr r6
    21c8:	3c020000 	stccc	0, cr0, [r2], {-0}
    21cc:	00000048 	andeq	r0, r0, r8, asr #32
    21d0:	07402302 	strbeq	r2, [r0, -r2, lsl #6]
    21d4:	00726170 	rsbseq	r6, r2, r0, ror r1
    21d8:	00483e02 	subeq	r3, r8, r2, lsl #28
    21dc:	23020000 	movwcs	r0, #8192	; 0x2000
    21e0:	130f0644 	movwne	r0, #63044	; 0xf644
    21e4:	40020000 	andmi	r0, r2, r0
    21e8:	00000048 	andeq	r0, r0, r8, asr #32
    21ec:	06482302 	strbeq	r2, [r8], -r2, lsl #6
    21f0:	0000131a 	andeq	r1, r0, sl, lsl r3
    21f4:	00484102 	subeq	r4, r8, r2, lsl #2
    21f8:	23020000 	movwcs	r0, #8192	; 0x2000
    21fc:	1261064c 	rsbne	r0, r1, #79691776	; 0x4c00000
    2200:	42020000 	andmi	r0, r2, #0
    2204:	00000048 	andeq	r0, r0, r8, asr #32
    2208:	06502302 	ldrbeq	r2, [r0], -r2, lsl #6
    220c:	0000130a 	andeq	r1, r0, sl, lsl #6
    2210:	00484302 	subeq	r4, r8, r2, lsl #6
    2214:	23020000 	movwcs	r0, #8192	; 0x2000
    2218:	69730754 	ldmdbvs	r3!, {r2, r4, r6, r8, r9, sl}^
    221c:	47020072 	smlsdxmi	r2, r2, r0, r0
    2220:	00000048 	andeq	r0, r0, r8, asr #32
    2224:	06582302 	ldrbeq	r2, [r8], -r2, lsl #6
    2228:	00001214 	andeq	r1, r0, r4, lsl r2
    222c:	00484902 	subeq	r4, r8, r2, lsl #18
    2230:	23020000 	movwcs	r0, #8192	; 0x2000
    2234:	6363075c 	cmnvs	r3, #24117248	; 0x1700000
    2238:	4a020072 	bmi	82408 <__bss_end+0x7ee90>
    223c:	00000048 	andeq	r0, r0, r8, asr #32
    2240:	07602302 	strbeq	r2, [r0, -r2, lsl #6]!
    2244:	00727365 	rsbseq	r7, r2, r5, ror #6
    2248:	00484b02 	subeq	r4, r8, r2, lsl #22
    224c:	23020000 	movwcs	r0, #8192	; 0x2000
    2250:	13450664 	movtne	r0, #22116	; 0x5664
    2254:	4c020000 	stcmi	0, cr0, [r2], {-0}
    2258:	00000048 	andeq	r0, r0, r8, asr #32
    225c:	07682302 	strbeq	r2, [r8, -r2, lsl #6]!
    2260:	00726575 	rsbseq	r6, r2, r5, ror r5
    2264:	00484d02 	subeq	r4, r8, r2, lsl #26
    2268:	23020000 	movwcs	r0, #8192	; 0x2000
    226c:	1200066c 	andne	r0, r0, #113246208	; 0x6c00000
    2270:	4e020000 	cdpmi	0, 0, cr0, cr2, cr0, {0}
    2274:	00000048 	andeq	r0, r0, r8, asr #32
    2278:	06702302 	ldrbteq	r2, [r0], -r2, lsl #6
    227c:	0000113e 	andeq	r1, r0, lr, lsr r1
    2280:	00484f02 	subeq	r4, r8, r2, lsl #30
    2284:	23020000 	movwcs	r0, #8192	; 0x2000
    2288:	0d510674 	ldcleq	6, cr0, [r1, #-464]	; 0xfffffe30
    228c:	5d020000 	stcpl	0, cr0, [r2, #-0]
    2290:	00000048 	andeq	r0, r0, r8, asr #32
    2294:	06782302 	ldrbteq	r2, [r8], -r2, lsl #6
    2298:	0000068e 	andeq	r0, r0, lr, lsl #13
    229c:	00485e02 	subeq	r5, r8, r2, lsl #28
    22a0:	23020000 	movwcs	r0, #8192	; 0x2000
    22a4:	1340067c 	movtne	r0, #1660	; 0x67c
    22a8:	74020000 	strvc	r0, [r2], #-0
    22ac:	00000048 	andeq	r0, r0, r8, asr #32
    22b0:	01802303 	orreq	r2, r0, r3, lsl #6
    22b4:	00133f06 	andseq	r3, r3, r6, lsl #30
    22b8:	48750200 	ldmdami	r5!, {r9}^
    22bc:	03000000 	movweq	r0, #0
    22c0:	07018423 	streq	r8, [r1, -r3, lsr #8]
    22c4:	00727369 	rsbseq	r7, r2, r9, ror #6
    22c8:	00487602 	subeq	r7, r8, r2, lsl #12
    22cc:	23030000 	movwcs	r0, #12288	; 0x3000
    22d0:	ca060188 	bgt	1828f8 <__bss_end+0x17f380>
    22d4:	02000012 	andeq	r0, r0, #18
    22d8:	0000487a 	andeq	r4, r0, sl, ror r8
    22dc:	8c230300 	stchi	3, cr0, [r3], #-0
    22e0:	69630701 	stmdbvs	r3!, {r0, r8, r9, sl}^
    22e4:	7b020064 	blvc	8247c <__bss_end+0x7ef04>
    22e8:	00000048 	andeq	r0, r0, r8, asr #32
    22ec:	01902303 	orrseq	r2, r0, r3, lsl #6
    22f0:	00115806 	andseq	r5, r1, r6, lsl #16
    22f4:	487c0200 	ldmdami	ip!, {r9}^
    22f8:	03000000 	movweq	r0, #0
    22fc:	06019423 	streq	r9, [r1], -r3, lsr #8
    2300:	00001270 	andeq	r1, r0, r0, ror r2
    2304:	00487d02 	subeq	r7, r8, r2, lsl #26
    2308:	23030000 	movwcs	r0, #12288	; 0x3000
    230c:	2a060198 	bcs	182974 <__bss_end+0x17f3fc>
    2310:	02000011 	andeq	r0, r0, #17
    2314:	0000487e 	andeq	r4, r0, lr, ror r8
    2318:	9c230300 	stcls	3, cr0, [r3], #-0
    231c:	6d080001 	stcvs	0, cr0, [r8, #-4]
    2320:	04000001 	streq	r0, [r0], #-1
    2324:	03197a04 	tsteq	r9, #16384	; 0x4000
    2328:	1e090000 	cdpne	0, 0, cr0, cr9, cr0, {0}
    232c:	00000000 	andeq	r0, r0, r0
    2330:	00009609 	andeq	r9, r0, r9, lsl #12
    2334:	39090100 	stmdbcc	r9, {r8}
    2338:	02000000 	andeq	r0, r0, #0
    233c:	00007309 	andeq	r7, r0, r9, lsl #6
    2340:	9f090300 	svcls	0x00090300
    2344:	04000001 	streq	r0, [r0], #-1
    2348:	00013409 	andeq	r3, r1, r9, lsl #8
    234c:	1c090500 	cfstr32ne	mvfx0, [r9], {-0}
    2350:	06000001 	streq	r0, [r0], -r1
    2354:	00015709 	andeq	r5, r1, r9, lsl #14
    2358:	12090700 	andne	r0, r9, #0
    235c:	08000000 	stmdaeq	r0, {}	; <UNPREDICTABLE>
    2360:	00006809 	andeq	r6, r0, r9, lsl #16
    2364:	29090900 	stmdbcs	r9, {r8, fp}
    2368:	0a000001 	beq	2374 <printk_nommu+0x230>
    236c:	0001ab09 	andeq	sl, r1, r9, lsl #22
    2370:	67090b00 	strvs	r0, [r9, -r0, lsl #22]
    2374:	0c000001 	stceq	0, cr0, [r0], {1}
    2378:	00018309 	andeq	r8, r1, r9, lsl #6
    237c:	30090d00 	andcc	r0, r9, r0, lsl #26
    2380:	0e000002 	cdpeq	0, 0, cr0, cr0, cr2, {0}
    2384:	00002b09 	andeq	r2, r0, r9, lsl #22
    2388:	02000f00 	andeq	r0, r0, #0
    238c:	00880801 	addeq	r0, r8, r1, lsl #16
    2390:	04020000 	streq	r0, [r2], #-0
    2394:	00014507 	andeq	r4, r1, r7, lsl #10
    2398:	a4010a00 	strge	r0, [r1], #-2560	; 0xa00
    239c:	01000012 	tsteq	r0, r2, lsl r0
    23a0:	0ee00189 	cdpeq	1, 14, cr0, cr0, cr9, {4}
    23a4:	13040000 	movwne	r0, #16384	; 0x4000
    23a8:	7d020000 	stcvc	0, cr0, [r2, #-0]
    23ac:	00034d00 	andeq	r4, r3, r0, lsl #26
    23b0:	12190b00 	andsne	r0, r9, #0
    23b4:	89010000 	stmdbhi	r1, {}	; <UNPREDICTABLE>
    23b8:	0000034d 	andeq	r0, r0, sp, asr #6
    23bc:	0c005001 	stceq	0, cr5, [r0], {1}
    23c0:	00006804 	andeq	r6, r0, r4, lsl #16
    23c4:	e6010d00 	str	r0, [r1], -r0, lsl #26
    23c8:	01000011 	tsteq	r0, r1, lsl r0
    23cc:	04010116 	streq	r0, [r1], #-278	; 0x116
    23d0:	e8000013 	stmda	r0, {r0, r1, r4}
    23d4:	02000015 	andeq	r0, r0, #21
    23d8:	037b007d 	cmneq	fp, #125	; 0x7d
    23dc:	190e0000 	stmdbne	lr, {}	; <UNPREDICTABLE>
    23e0:	01000012 	tsteq	r0, r2, lsl r0
    23e4:	034d0116 	movteq	r0, #53526	; 0xd116
    23e8:	50010000 	andpl	r0, r1, r0
    23ec:	cd010d00 	stcgt	13, cr0, [r1, #-0]
    23f0:	01000011 	tsteq	r0, r1, lsl r0
    23f4:	e8010178 	stmda	r1, {r3, r4, r5, r6, r8}
    23f8:	00000015 	andeq	r0, r0, r5, lsl r0
    23fc:	02000016 	andeq	r0, r0, #22
    2400:	03a5007d 			; <UNDEFINED> instruction: 0x03a5007d
    2404:	760f0000 	strvc	r0, [pc], -r0
    2408:	01006c61 	tsteq	r0, r1, ror #24
    240c:	0048017b 	subeq	r0, r8, fp, ror r1
    2410:	06800000 	streq	r0, [r0], r0
    2414:	0d000000 	stceq	0, cr0, [r0, #-0]
    2418:	00124201 	andseq	r4, r2, r1, lsl #4
    241c:	01860100 	orreq	r0, r6, r0, lsl #2
    2420:	00160001 	andseq	r0, r6, r1
    2424:	0016a800 	andseq	sl, r6, r0, lsl #16
    2428:	007d0200 	rsbseq	r0, sp, r0, lsl #4
    242c:	000003cb 	andeq	r0, r0, fp, asr #7
    2430:	00121910 	andseq	r1, r2, r0, lsl r9
    2434:	01880100 	orreq	r0, r8, r0, lsl #2
    2438:	0000034d 	andeq	r0, r0, sp, asr #6
    243c:	a6011100 	strge	r1, [r1], -r0, lsl #2
    2440:	01000012 	tsteq	r0, r2, lsl r0
    2444:	a80101e5 	stmdage	r1, {r0, r2, r5, r6, r7, r8}
    2448:	b4000016 	strlt	r0, [r0], #-22
    244c:	02000016 	andeq	r0, r0, #22
    2450:	0111007d 	tsteq	r1, sp, ror r0
    2454:	000011e8 	andeq	r1, r0, r8, ror #3
    2458:	0101eb01 	tsteq	r1, r1, lsl #22
    245c:	000016b4 			; <UNDEFINED> instruction: 0x000016b4
    2460:	000016c0 	andeq	r1, r0, r0, asr #13
    2464:	11007d02 	tstne	r0, r2, lsl #26
    2468:	0011a601 	andseq	sl, r1, r1, lsl #12
    246c:	01f00100 	mvnseq	r0, r0, lsl #2
    2470:	0016c001 	andseq	ip, r6, r1
    2474:	0016d400 	andseq	sp, r6, r0, lsl #8
    2478:	007d0200 	rsbseq	r0, sp, r0, lsl #4
    247c:	1266010d 	rsbne	r0, r6, #1073741827	; 0x40000003
    2480:	f6010000 			; <UNDEFINED> instruction: 0xf6010000
    2484:	16d40101 	ldrbne	r0, [r4], r1, lsl #2
    2488:	16e40000 	strbtne	r0, [r4], r0
    248c:	7d020000 	stcvc	0, cr0, [r2, #-0]
    2490:	00043400 	andeq	r3, r4, r0, lsl #8
    2494:	74740f00 	ldrbtvc	r0, [r4], #-3840	; 0xf00
    2498:	f8010062 			; <UNDEFINED> instruction: 0xf8010062
    249c:	00004801 	andeq	r4, r0, r1, lsl #16
    24a0:	0006a300 	andeq	sl, r6, r0, lsl #6
    24a4:	34120000 	ldrcc	r0, [r2], #-0
    24a8:	01000012 	tsteq	r0, r2, lsl r0
    24ac:	0000681f 	andeq	r6, r0, pc, lsl r8
    24b0:	bc030500 	cfstr32lt	mvfx0, [r3], {-0}
    24b4:	13000031 	movwne	r0, #49	; 0x31
    24b8:	0000131f 	andeq	r1, r0, pc, lsl r3
    24bc:	04502101 	ldrbeq	r2, [r0], #-257	; 0x101
    24c0:	68140000 	ldmdavs	r4, {}	; <UNPREDICTABLE>
    24c4:	15000000 	strne	r0, [r0, #-0]
    24c8:	00000320 	andeq	r0, r0, r0, lsr #6
    24cc:	00000465 	andeq	r0, r0, r5, ror #8
    24d0:	00005316 	andeq	r5, r0, r6, lsl r3
    24d4:	17000100 	strne	r0, [r0, -r0, lsl #2]
    24d8:	00001383 	andeq	r1, r0, r3, lsl #7
    24dc:	04550f01 	ldrbeq	r0, [r5], #-3841	; 0xf01
    24e0:	05010000 	streq	r0, [r1, #-0]
    24e4:	00355803 	eorseq	r5, r5, r3, lsl #16
    24e8:	12fb1700 	rscsne	r1, fp, #0
    24ec:	10010000 	andne	r0, r1, r0
    24f0:	00000320 	andeq	r0, r0, r0, lsr #6
    24f4:	54030501 	strpl	r0, [r3], #-1281	; 0x501
    24f8:	17000035 	smladxne	r0, r5, r0, r0
    24fc:	000012e5 	andeq	r1, r0, r5, ror #5
    2500:	04551101 	ldrbeq	r1, [r5], #-257	; 0x101
    2504:	05010000 	streq	r0, [r1, #-0]
    2508:	00346803 	eorseq	r6, r4, r3, lsl #16
    250c:	11be1700 			; <UNDEFINED> instruction: 0x11be1700
    2510:	12010000 	andne	r0, r1, #0
    2514:	00000320 	andeq	r0, r0, r0, lsr #6
    2518:	6c030501 	cfstr32vs	mvfx0, [r3], {1}
    251c:	15000035 	strne	r0, [r0, #-53]	; 0x35
    2520:	00000320 	andeq	r0, r0, r0, lsr #6
    2524:	000004bd 			; <UNDEFINED> instruction: 0x000004bd
    2528:	00005316 	andeq	r5, r0, r6, lsl r3
    252c:	17000600 	strne	r0, [r0, -r0, lsl #12]
    2530:	0000117a 	andeq	r1, r0, sl, ror r1
    2534:	04ad1301 	strteq	r1, [sp], #769	; 0x301
    2538:	05010000 	streq	r0, [r1, #-0]
    253c:	00353803 	eorseq	r3, r5, r3, lsl #16
    2540:	12051700 	andne	r1, r5, #0
    2544:	14010000 	strne	r0, [r1], #-0
    2548:	00000320 	andeq	r0, r0, r0, lsr #6
    254c:	70030501 	andvc	r0, r3, r1, lsl #10
    2550:	17000034 	smladxne	r0, r4, r0, r0
    2554:	00001355 	andeq	r1, r0, r5, asr r3
    2558:	04551501 	ldrbeq	r1, [r5], #-1281	; 0x501
    255c:	05010000 	streq	r0, [r1, #-0]
    2560:	00347c03 	eorseq	r7, r4, r3, lsl #24
    2564:	11491700 	cmpne	r9, r0, lsl #14
    2568:	16010000 	strne	r0, [r1], -r0
    256c:	00000320 	andeq	r0, r0, r0, lsr #6
    2570:	60030501 	andvs	r0, r3, r1, lsl #10
    2574:	17000035 	smladxne	r0, r5, r0, r0
    2578:	00001190 	muleq	r0, r0, r1
    257c:	04551701 	ldrbeq	r1, [r5], #-1793	; 0x701
    2580:	05010000 	streq	r0, [r1, #-0]
    2584:	00346003 	eorseq	r6, r4, r3
    2588:	121e1700 	andsne	r1, lr, #0
    258c:	18010000 	stmdane	r1, {}	; <UNPREDICTABLE>
    2590:	00000320 	andeq	r0, r0, r0, lsr #6
    2594:	78030501 	stmdavc	r3, {r0, r8, sl}
    2598:	17000034 	smladxne	r0, r4, r0, r0
    259c:	000012cf 	andeq	r1, r0, pc, asr #5
    25a0:	04551901 	ldrbeq	r1, [r5], #-2305	; 0x901
    25a4:	05010000 	streq	r0, [r1, #-0]
    25a8:	00357003 	eorseq	r7, r5, r3
    25ac:	12bb1700 	adcsne	r1, fp, #0
    25b0:	1a010000 	bne	425b8 <__bss_end+0x3f040>
    25b4:	00000320 	andeq	r0, r0, r0, lsr #6
    25b8:	74030501 	strvc	r0, [r3], #-1281	; 0x501
    25bc:	17000034 	smladxne	r0, r4, r0, r0
    25c0:	00001399 	muleq	r0, r9, r3
    25c4:	04551b01 	ldrbeq	r1, [r5], #-2817	; 0xb01
    25c8:	05010000 	streq	r0, [r1, #-0]
    25cc:	00356403 	eorseq	r6, r5, r3, lsl #8
    25d0:	11601700 	cmnne	r0, r0, lsl #14
    25d4:	1c010000 	stcne	0, cr0, [r1], {-0}
    25d8:	00000320 	andeq	r0, r0, r0, lsr #6
    25dc:	84030501 	strhi	r0, [r3], #-1281	; 0x501
    25e0:	15000034 	strne	r0, [r0, #-52]	; 0x34
    25e4:	00000320 	andeq	r0, r0, r0, lsr #6
    25e8:	00000581 	andeq	r0, r0, r1, lsl #11
    25ec:	00005316 	andeq	r5, r0, r6, lsl r3
    25f0:	17002b00 	strne	r2, [r0, -r0, lsl #22]
    25f4:	0000136b 	andeq	r1, r0, fp, ror #6
    25f8:	05711d01 	ldrbeq	r1, [r1, #-3329]!	; 0xd01
    25fc:	05010000 	streq	r0, [r1, #-0]
    2600:	00348803 	eorseq	r8, r4, r3, lsl #16
    2604:	11b90000 			; <UNDEFINED> instruction: 0x11b90000
    2608:	00020000 	andeq	r0, r2, r0
    260c:	000008ff 	strdeq	r0, [r0], -pc	; <UNPREDICTABLE>
    2610:	00460104 	subeq	r0, r6, r4, lsl #2
    2614:	13010000 	movwne	r0, #4096	; 0x1000
    2618:	c1000015 	tstgt	r0, r5, lsl r0
    261c:	e4000000 	str	r0, [r0], #-0
    2620:	28000016 	stmdacs	r0, {r1, r2, r4}
    2624:	4300001c 	movwmi	r0, #28
    2628:	0200000a 	andeq	r0, r0, #10
    262c:	00810601 	addeq	r0, r1, r1, lsl #12
    2630:	01020000 	mrseq	r0, (UNDEF: 2)
    2634:	00007f08 	andeq	r7, r0, r8, lsl #30
    2638:	05020200 	streq	r0, [r2, #-512]	; 0x200
    263c:	000001b6 			; <UNDEFINED> instruction: 0x000001b6
    2640:	a3070202 	movwge	r0, #29186	; 0x7202
    2644:	03000000 	movweq	r0, #0
    2648:	00000ff8 	strdeq	r0, [r0], -r8
    264c:	004c1202 	subeq	r1, ip, r2, lsl #4
    2650:	04040000 	streq	r0, [r4], #-0
    2654:	746e6905 	strbtvc	r6, [lr], #-2309	; 0x905
    2658:	08070300 	stmdaeq	r7, {r8, r9}
    265c:	13020000 	movwne	r0, #8192	; 0x2000
    2660:	0000005e 	andeq	r0, r0, lr, asr r0
    2664:	4a070402 	bmi	1c3674 <__bss_end+0x1c00fc>
    2668:	02000001 	andeq	r0, r0, #1
    266c:	01910508 	orrseq	r0, r1, r8, lsl #10
    2670:	08020000 	stmdaeq	r2, {}	; <UNPREDICTABLE>
    2674:	00014007 	andeq	r4, r1, r7
    2678:	03040500 	movweq	r0, #17664	; 0x4500
    267c:	0001041a 	andeq	r0, r1, sl, lsl r4
    2680:	05760600 	ldrbeq	r0, [r6, #-1536]!	; 0x600
    2684:	1c030000 	stcne	0, cr0, [r3], {-0}
    2688:	00000053 	andeq	r0, r0, r3, asr r0
    268c:	021e0204 	andseq	r0, lr, #1073741824	; 0x40000000
    2690:	38060023 	stmdacc	r6, {r0, r1, r5}
    2694:	0300000a 	movweq	r0, #10
    2698:	0000531d 	andeq	r5, r0, sp, lsl r3
    269c:	18060400 	stmdane	r6, {sl}
    26a0:	06002302 	streq	r2, [r0], -r2, lsl #6
    26a4:	0000057e 	andeq	r0, r0, lr, ror r5
    26a8:	00531e03 	subseq	r1, r3, r3, lsl #28
    26ac:	08040000 	stmdaeq	r4, {}	; <UNPREDICTABLE>
    26b0:	00230210 	eoreq	r0, r3, r0, lsl r2
    26b4:	00058e06 	andeq	r8, r5, r6, lsl #28
    26b8:	531f0300 	tstpl	pc, #0
    26bc:	04000000 	streq	r0, [r0], #-0
    26c0:	23020f01 	movwcs	r0, #12033	; 0x2f01
    26c4:	0a560600 	beq	1583ecc <__bss_end+0x1580954>
    26c8:	20030000 	andcs	r0, r3, r0
    26cc:	00000053 	andeq	r0, r0, r3, asr r0
    26d0:	02080704 	andeq	r0, r8, #1048576	; 0x100000
    26d4:	4e060023 	cdpmi	0, 0, cr0, cr6, cr3, {1}
    26d8:	03000007 	movweq	r0, #7
    26dc:	00005321 	andeq	r5, r0, r1, lsr #6
    26e0:	05030400 	streq	r0, [r3, #-1024]	; 0x400
    26e4:	06002302 	streq	r2, [r0], -r2, lsl #6
    26e8:	00000a60 	andeq	r0, r0, r0, ror #20
    26ec:	00532203 	subseq	r2, r3, r3, lsl #4
    26f0:	04040000 	streq	r0, [r4], #-0
    26f4:	00230201 	eoreq	r0, r3, r1, lsl #4
    26f8:	0009fa06 	andeq	pc, r9, r6, lsl #20
    26fc:	53230300 	teqpl	r3, #0
    2700:	04000000 	streq	r0, [r0], #-0
    2704:	23020001 	movwcs	r0, #8193	; 0x2001
    2708:	04070000 	streq	r0, [r7], #-0
    270c:	01231803 	teqeq	r3, r3, lsl #16
    2710:	bc080000 	stclt	0, cr0, [r8], {-0}
    2714:	03000003 	movweq	r0, #3
    2718:	00005319 	andeq	r5, r0, r9, lsl r3
    271c:	08300800 	ldmdaeq	r0!, {fp}
    2720:	25030000 	strcs	r0, [r3, #-0]
    2724:	00000073 	andeq	r0, r0, r3, ror r0
    2728:	0a000300 	beq	3330 <debugger_buffer+0xc0>
    272c:	26030000 	strcs	r0, [r3], -r0
    2730:	00000104 	andeq	r0, r0, r4, lsl #2
    2734:	3e030405 	cdpcc	4, 0, cr0, cr3, cr5, {0}
    2738:	000001bf 			; <UNDEFINED> instruction: 0x000001bf
    273c:	000c7306 	andeq	r7, ip, r6, lsl #6
    2740:	53400300 	movtpl	r0, #768	; 0x300
    2744:	04000000 	streq	r0, [r0], #-0
    2748:	23021e02 	movwcs	r1, #11778	; 0x2e02
    274c:	0a380600 	beq	e03f54 <__bss_end+0xe009dc>
    2750:	41030000 	mrsmi	r0, (UNDEF: 3)
    2754:	00000053 	andeq	r0, r0, r3, asr r0
    2758:	02140a04 	andseq	r0, r4, #16384	; 0x4000
    275c:	84060023 	strhi	r0, [r6], #-35	; 0x23
    2760:	03000006 	movweq	r0, #6
    2764:	00005342 	andeq	r5, r0, r2, asr #6
    2768:	13010400 	movwne	r0, #5120	; 0x1400
    276c:	06002302 	streq	r2, [r0], -r2, lsl #6
    2770:	00000a42 	andeq	r0, r0, r2, asr #20
    2774:	00534303 	subseq	r4, r3, r3, lsl #6
    2778:	03040000 	movweq	r0, #16384	; 0x4000
    277c:	00230210 	eoreq	r0, r3, r0, lsl r2
    2780:	00080d06 	andeq	r0, r8, r6, lsl #26
    2784:	53440300 	movtpl	r0, #17152	; 0x4300
    2788:	04000000 	streq	r0, [r0], #-0
    278c:	23020e02 	movwcs	r0, #11778	; 0x2e02
    2790:	0a4c0600 	beq	1303f98 <__bss_end+0x1300a20>
    2794:	45030000 	strmi	r0, [r3, #-0]
    2798:	00000053 	andeq	r0, r0, r3, asr r0
    279c:	02040a04 	andeq	r0, r4, #16384	; 0x4000
    27a0:	f4060023 	vst4.8	{d0-d3}, [r6 :128], r3
    27a4:	03000005 	movweq	r0, #5
    27a8:	00005346 	andeq	r5, r0, r6, asr #6
    27ac:	03010400 	movweq	r0, #5120	; 0x1400
    27b0:	06002302 	streq	r2, [r0], -r2, lsl #6
    27b4:	00000a56 	andeq	r0, r0, r6, asr sl
    27b8:	00534703 	subseq	r4, r3, r3, lsl #14
    27bc:	03040000 	movweq	r0, #16384	; 0x4000
    27c0:	00230200 	eoreq	r0, r3, r0, lsl #4
    27c4:	03040700 	movweq	r0, #18176	; 0x4700
    27c8:	0001de3c 	andeq	sp, r1, ip, lsr lr
    27cc:	03bc0800 			; <UNDEFINED> instruction: 0x03bc0800
    27d0:	3d030000 	stccc	0, cr0, [r3, #-0]
    27d4:	00000053 	andeq	r0, r0, r3, asr r0
    27d8:	00083008 	andeq	r3, r8, r8
    27dc:	2e480300 	cdpcs	3, 4, cr0, cr8, cr0, {0}
    27e0:	00000001 	andeq	r0, r0, r1
    27e4:	00047b03 	andeq	r7, r4, r3, lsl #22
    27e8:	bf490300 	svclt	0x00490300
    27ec:	09000001 	stmdbeq	r0, {r0}
    27f0:	0000034e 	andeq	r0, r0, lr, asr #6
    27f4:	6d4f0304 	stclvs	3, cr0, [pc, #-16]	; 27ec <mem_gpio_save+0x8>
    27f8:	06000002 	streq	r0, [r0], -r2
    27fc:	00000a38 	andeq	r0, r0, r8, lsr sl
    2800:	00535103 	subseq	r5, r3, r3, lsl #2
    2804:	04040000 	streq	r0, [r4], #-0
    2808:	0023021c 	eoreq	r0, r3, ip, lsl r2
    280c:	00088406 	andeq	r8, r8, r6, lsl #8
    2810:	53520300 	cmppl	r2, #0
    2814:	04000000 	streq	r0, [r0], #-0
    2818:	23021a02 	movwcs	r1, #10754	; 0x2a02
    281c:	07f00600 	ldrbeq	r0, [r0, r0, lsl #12]!
    2820:	53030000 	movwpl	r0, #12288	; 0x3000
    2824:	00000053 	andeq	r0, r0, r3, asr r0
    2828:	02180204 	andseq	r0, r8, #1073741824	; 0x40000000
    282c:	99060023 	stmdbls	r6, {r0, r1, r5}
    2830:	03000009 	movweq	r0, #9
    2834:	00005354 	andeq	r5, r0, r4, asr r3
    2838:	16020400 	strne	r0, [r2], -r0, lsl #8
    283c:	06002302 	streq	r2, [r0], -r2, lsl #6
    2840:	00000a42 	andeq	r0, r0, r2, asr #20
    2844:	00535503 	subseq	r5, r3, r3, lsl #10
    2848:	02040000 	andeq	r0, r4, #0
    284c:	00230214 	eoreq	r0, r3, r4, lsl r2
    2850:	00097b06 	andeq	r7, r9, r6, lsl #22
    2854:	53560300 	cmppl	r6, #0
    2858:	04000000 	streq	r0, [r0], #-0
    285c:	23021202 	movwcs	r1, #8706	; 0x2202
    2860:	0a4c0600 	beq	1304068 <__bss_end+0x1300af0>
    2864:	57030000 	strpl	r0, [r3, -r0]
    2868:	00000053 	andeq	r0, r0, r3, asr r0
    286c:	02001204 	andeq	r1, r0, #1073741824	; 0x40000000
    2870:	03000023 	movweq	r0, #35	; 0x23
    2874:	00000bcd 	andeq	r0, r0, sp, asr #23
    2878:	01e95803 	mvneq	r5, r3, lsl #16
    287c:	04050000 	streq	r0, [r5], #-0
    2880:	02e75f03 	rsceq	r5, r7, #12
    2884:	0c060000 	stceq	0, cr0, [r6], {-0}
    2888:	03000006 	movweq	r0, #6
    288c:	00005361 	andeq	r5, r0, r1, ror #6
    2890:	1b050400 	blne	143898 <__bss_end+0x140320>
    2894:	06002302 	streq	r2, [r0], -r2, lsl #6
    2898:	00000c6a 	andeq	r0, r0, sl, ror #24
    289c:	00536203 	subseq	r6, r3, r3, lsl #4
    28a0:	0b040000 	bleq	1028a8 <__bss_end+0xff330>
    28a4:	00230210 	eoreq	r0, r3, r0, lsl r2
    28a8:	00061106 	andeq	r1, r6, r6, lsl #2
    28ac:	53630300 	cmnpl	r3, #0
    28b0:	04000000 	streq	r0, [r0], #-0
    28b4:	23020e02 	movwcs	r0, #11778	; 0x2e02
    28b8:	0a420600 	beq	10840c0 <__bss_end+0x1080b48>
    28bc:	64030000 	strvs	r0, [r3], #-0
    28c0:	00000053 	andeq	r0, r0, r3, asr r0
    28c4:	02080604 	andeq	r0, r8, #4194304	; 0x400000
    28c8:	f6060023 			; <UNDEFINED> instruction: 0xf6060023
    28cc:	03000005 	movweq	r0, #5
    28d0:	00005365 	andeq	r5, r0, r5, ror #6
    28d4:	06020400 	streq	r0, [r2], -r0, lsl #8
    28d8:	06002302 	streq	r2, [r0], -r2, lsl #6
    28dc:	00000a4c 	andeq	r0, r0, ip, asr #20
    28e0:	00536603 	subseq	r6, r3, r3, lsl #12
    28e4:	06040000 	streq	r0, [r4], -r0
    28e8:	00230200 	eoreq	r0, r3, r0, lsl #4
    28ec:	03040700 	movweq	r0, #18176	; 0x4700
    28f0:	0003065d 	andeq	r0, r3, sp, asr r6
    28f4:	03bc0800 			; <UNDEFINED> instruction: 0x03bc0800
    28f8:	5e030000 	cdppl	0, 0, cr0, cr3, cr0, {0}
    28fc:	00000053 	andeq	r0, r0, r3, asr r0
    2900:	00083008 	andeq	r3, r8, r8
    2904:	78670300 	stmdavc	r7!, {r8, r9}^
    2908:	00000002 	andeq	r0, r0, r2
    290c:	0008be03 	andeq	fp, r8, r3, lsl #28
    2910:	e7680300 	strb	r0, [r8, -r0, lsl #6]!
    2914:	09000002 	stmdbeq	r0, {r1}
    2918:	00000788 	andeq	r0, r0, r8, lsl #15
    291c:	406a0304 	rsbmi	r0, sl, r4, lsl #6
    2920:	06000003 	streq	r0, [r0], -r3
    2924:	00000c4b 	andeq	r0, r0, fp, asr #24
    2928:	00536c03 	subseq	r6, r3, r3, lsl #24
    292c:	10040000 	andne	r0, r4, r0
    2930:	00230210 	eoreq	r0, r3, r0, lsl r2
    2934:	000c6a06 	andeq	r6, ip, r6, lsl #20
    2938:	536d0300 	cmnpl	sp, #0
    293c:	04000000 	streq	r0, [r0], #-0
    2940:	23020010 	movwcs	r0, #8208	; 0x2010
    2944:	12030000 	andne	r0, r3, #0
    2948:	0300000b 	movweq	r0, #11
    294c:	0003116e 	andeq	r1, r3, lr, ror #2
    2950:	0ced0a00 	vstmiaeq	sp!, {s1-s0}
    2954:	02dc0000 	sbcseq	r0, ip, #0
    2958:	0b217003 	bleq	85e96c <__bss_end+0x85b3f4>
    295c:	570b0000 	strpl	r0, [fp, -r0]
    2960:	03000007 	movweq	r0, #7
    2964:	000b2172 	andeq	r2, fp, r2, ror r1
    2968:	00230200 	eoreq	r0, r3, r0, lsl #4
    296c:	00076b0b 	andeq	r6, r7, fp, lsl #22
    2970:	26730300 	ldrbtcs	r0, [r3], -r0, lsl #6
    2974:	0200000b 	andeq	r0, r0, #11
    2978:	e50b0423 	str	r0, [fp, #-1059]	; 0x423
    297c:	0300000c 	movweq	r0, #12
    2980:	000b2674 	andeq	r2, fp, r4, ror r6
    2984:	08230200 	stmdaeq	r3!, {r9}
    2988:	000a420b 	andeq	r4, sl, fp, lsl #4
    298c:	26750300 	ldrbtcs	r0, [r5], -r0, lsl #6
    2990:	0200000b 	andeq	r0, r0, #11
    2994:	ac0b0c23 	stcge	12, cr0, [fp], {35}	; 0x23
    2998:	03000008 	movweq	r0, #8
    299c:	000b2676 	andeq	r2, fp, r6, ror r6
    29a0:	10230200 	eorne	r0, r3, r0, lsl #4
    29a4:	000a4c0b 	andeq	r4, sl, fp, lsl #24
    29a8:	26770300 	ldrbtcs	r0, [r7], -r0, lsl #6
    29ac:	0200000b 	andeq	r0, r0, #11
    29b0:	5c0b1423 	cfstrspl	mvf1, [fp], {35}	; 0x23
    29b4:	03000004 	movweq	r0, #4
    29b8:	000b2678 	andeq	r2, fp, r8, ror r6
    29bc:	18230200 	stmdane	r3!, {r9}
    29c0:	000a560b 	andeq	r5, sl, fp, lsl #12
    29c4:	26790300 	ldrbtcs	r0, [r9], -r0, lsl #6
    29c8:	0200000b 	andeq	r0, r0, #11
    29cc:	e80b1c23 	stmda	fp, {r0, r1, r5, sl, fp, ip}
    29d0:	03000009 	movweq	r0, #9
    29d4:	000b267a 	andeq	r2, fp, sl, ror r6
    29d8:	20230200 	eorcs	r0, r3, r0, lsl #4
    29dc:	000a600b 	andeq	r6, sl, fp
    29e0:	267b0300 	ldrbtcs	r0, [fp], -r0, lsl #6
    29e4:	0200000b 	andeq	r0, r0, #11
    29e8:	140b2423 	strne	r2, [fp], #-1059	; 0x423
    29ec:	03000004 	movweq	r0, #4
    29f0:	000b267c 	andeq	r2, fp, ip, ror r6
    29f4:	28230200 	stmdacs	r3!, {r9}
    29f8:	000a6a0b 	andeq	r6, sl, fp, lsl #20
    29fc:	267d0300 	ldrbtcs	r0, [sp], -r0, lsl #6
    2a00:	0200000b 	andeq	r0, r0, #11
    2a04:	d00b2c23 	andle	r2, fp, r3, lsr #24
    2a08:	03000009 	movweq	r0, #9
    2a0c:	000b267e 	andeq	r2, fp, lr, ror r6
    2a10:	30230200 	eorcc	r0, r3, r0, lsl #4
    2a14:	000a740b 	andeq	r7, sl, fp, lsl #8
    2a18:	267f0300 	ldrbtcs	r0, [pc], -r0, lsl #6
    2a1c:	0200000b 	andeq	r0, r0, #11
    2a20:	800b3423 	andhi	r3, fp, r3, lsr #8
    2a24:	03000007 	movweq	r0, #7
    2a28:	000b2680 	andeq	r2, fp, r0, lsl #13
    2a2c:	38230200 	stmdacc	r3!, {r9}
    2a30:	000a7e0b 	andeq	r7, sl, fp, lsl #28
    2a34:	26810300 	strcs	r0, [r1], r0, lsl #6
    2a38:	0200000b 	andeq	r0, r0, #11
    2a3c:	000b3c23 	andeq	r3, fp, r3, lsr #24
    2a40:	0300000b 	movweq	r0, #11
    2a44:	000b2682 	andeq	r2, fp, r2, lsl #13
    2a48:	40230200 	eormi	r0, r3, r0, lsl #4
    2a4c:	000d600b 	andeq	r6, sp, fp
    2a50:	26830300 	strcs	r0, [r3], r0, lsl #6
    2a54:	0200000b 	andeq	r0, r0, #11
    2a58:	530b4423 	movwpl	r4, #46115	; 0xb423
    2a5c:	03000004 	movweq	r0, #4
    2a60:	000b2684 	andeq	r2, fp, r4, lsl #13
    2a64:	48230200 	stmdami	r3!, {r9}
    2a68:	000ba90b 	andeq	sl, fp, fp, lsl #18
    2a6c:	26850300 	strcs	r0, [r5], r0, lsl #6
    2a70:	0200000b 	andeq	r0, r0, #11
    2a74:	b40b4c23 	strlt	r4, [fp], #-3107	; 0xc23
    2a78:	03000008 	movweq	r0, #8
    2a7c:	000b2b86 	andeq	r2, fp, r6, lsl #23
    2a80:	50230200 	eorpl	r0, r3, r0, lsl #4
    2a84:	0008840b 	andeq	r8, r8, fp, lsl #8
    2a88:	30870300 	addcc	r0, r7, r0, lsl #6
    2a8c:	0200000b 	andeq	r0, r0, #11
    2a90:	860b5423 	strhi	r5, [fp], -r3, lsr #8
    2a94:	03000005 	movweq	r0, #5
    2a98:	000b3588 	andeq	r3, fp, r8, lsl #11
    2a9c:	58230200 	stmdapl	r3!, {r9}
    2aa0:	000a160b 	andeq	r1, sl, fp, lsl #12
    2aa4:	26890300 	strcs	r0, [r9], r0, lsl #6
    2aa8:	0200000b 	andeq	r0, r0, #11
    2aac:	f70b5c23 			; <UNDEFINED> instruction: 0xf70b5c23
    2ab0:	0300000a 	movweq	r0, #10
    2ab4:	000b268a 	andeq	r2, fp, sl, lsl #13
    2ab8:	60230200 	eorvs	r0, r3, r0, lsl #4
    2abc:	0007110b 	andeq	r1, r7, fp, lsl #2
    2ac0:	268b0300 	strcs	r0, [fp], r0, lsl #6
    2ac4:	0200000b 	andeq	r0, r0, #11
    2ac8:	7d0b6423 	cfstrsvc	mvf6, [fp, #-140]	; 0xffffff74
    2acc:	0300000c 	movweq	r0, #12
    2ad0:	000b268c 	andeq	r2, fp, ip, lsl #13
    2ad4:	68230200 	stmdavs	r3!, {r9}
    2ad8:	0009280b 	andeq	r2, r9, fp, lsl #16
    2adc:	268d0300 	strcs	r0, [sp], r0, lsl #6
    2ae0:	0200000b 	andeq	r0, r0, #11
    2ae4:	880b6c23 	stmdahi	fp, {r0, r1, r5, sl, fp, sp, lr}
    2ae8:	0300000a 	movweq	r0, #10
    2aec:	000b4a8e 	andeq	r4, fp, lr, lsl #21
    2af0:	70230200 	eorvc	r0, r3, r0, lsl #4
    2af4:	000d560b 	andeq	r5, sp, fp, lsl #12
    2af8:	268f0300 	strcs	r0, [pc], r0, lsl #6
    2afc:	0200000b 	andeq	r0, r0, #11
    2b00:	000b7823 	andeq	r7, fp, r3, lsr #16
    2b04:	03000004 	movweq	r0, #4
    2b08:	000b2690 	muleq	fp, r0, r6
    2b0c:	7c230200 	sfmvc	f0, 4, [r3], #-0
    2b10:	000d230b 	andeq	r2, sp, fp, lsl #6
    2b14:	26910300 	ldrcs	r0, [r1], r0, lsl #6
    2b18:	0300000b 	movweq	r0, #11
    2b1c:	0b018023 	bleq	62bb0 <__bss_end+0x5f638>
    2b20:	00000c86 	andeq	r0, r0, r6, lsl #25
    2b24:	0b269203 	bleq	9a7338 <__bss_end+0x9a3dc0>
    2b28:	23030000 	movwcs	r0, #12288	; 0x3000
    2b2c:	530c0184 	movwpl	r0, #49540	; 0xc184
    2b30:	03003064 	movweq	r3, #100	; 0x64
    2b34:	000b2693 	muleq	fp, r3, r6
    2b38:	88230300 	stmdahi	r3!, {r8, r9}
    2b3c:	64530c01 	ldrbvs	r0, [r3], #-3073	; 0xc01
    2b40:	94030031 	strls	r0, [r3], #-49	; 0x31
    2b44:	00000b26 	andeq	r0, r0, r6, lsr #22
    2b48:	018c2303 	orreq	r2, ip, r3, lsl #6
    2b4c:	3264530c 	rsbcc	r5, r4, #805306368	; 0x30000000
    2b50:	26950300 	ldrcs	r0, [r5], r0, lsl #6
    2b54:	0300000b 	movweq	r0, #11
    2b58:	0b019023 	bleq	66bec <__bss_end+0x63674>
    2b5c:	00000c91 	muleq	r0, r1, ip
    2b60:	0b4f9603 	bleq	13e8374 <__bss_end+0x13e4dfc>
    2b64:	23030000 	movwcs	r0, #12288	; 0x3000
    2b68:	530c0194 	movwpl	r0, #49556	; 0xc194
    2b6c:	97030073 	smlsdxls	r3, r3, r0, r0
    2b70:	00000b26 	andeq	r0, r0, r6, lsr #22
    2b74:	019c2303 	orrseq	r2, ip, r3, lsl #6
    2b78:	000aed0b 	andeq	lr, sl, fp, lsl #26
    2b7c:	26980300 	ldrcs	r0, [r8], r0, lsl #6
    2b80:	0300000b 	movweq	r0, #11
    2b84:	0b01a023 	bleq	6ac18 <__bss_end+0x676a0>
    2b88:	00000af2 	strdeq	r0, [r0], -r2
    2b8c:	0b269903 	bleq	9a8fa0 <__bss_end+0x9a5a28>
    2b90:	23030000 	movwcs	r0, #12288	; 0x3000
    2b94:	9c0b01a4 	stflss	f0, [fp], {164}	; 0xa4
    2b98:	0300000c 	movweq	r0, #12
    2b9c:	000b549a 	muleq	fp, sl, r4
    2ba0:	a8230300 	stmdage	r3!, {r8, r9}
    2ba4:	04440b01 	strbeq	r0, [r4], #-2817	; 0xb01
    2ba8:	9b030000 	blls	c2bb0 <__bss_end+0xbf638>
    2bac:	00000b26 	andeq	r0, r0, r6, lsr #22
    2bb0:	01b02303 	lslseq	r2, r3, #6
    2bb4:	0004490b 	andeq	r4, r4, fp, lsl #18
    2bb8:	269c0300 	ldrcs	r0, [ip], r0, lsl #6
    2bbc:	0300000b 	movweq	r0, #11
    2bc0:	0b01b423 	bleq	6fc54 <__bss_end+0x6c6dc>
    2bc4:	0000044e 	andeq	r0, r0, lr, asr #8
    2bc8:	0b269d03 	bleq	9a9fdc <__bss_end+0x9a6a64>
    2bcc:	23030000 	movwcs	r0, #12288	; 0x3000
    2bd0:	f80b01b8 			; <UNDEFINED> instruction: 0xf80b01b8
    2bd4:	03000004 	movweq	r0, #4
    2bd8:	000b269e 	muleq	fp, lr, r6
    2bdc:	bc230300 	stclt	3, cr0, [r3], #-0
    2be0:	091f0b01 	ldmdbeq	pc, {r0, r8, r9, fp}	; <UNPREDICTABLE>
    2be4:	9f030000 	svcls	0x00030000
    2be8:	00000b26 	andeq	r0, r0, r6, lsr #22
    2bec:	01c02303 	biceq	r2, r0, r3, lsl #6
    2bf0:	0008620b 	andeq	r6, r8, fp, lsl #4
    2bf4:	59a00300 	stmibpl	r0!, {r8, r9}
    2bf8:	0300000b 	movweq	r0, #11
    2bfc:	0c01c423 	cfstrseq	mvf12, [r1], {35}	; 0x23
    2c00:	00627355 	rsbeq	r7, r2, r5, asr r3
    2c04:	0b26a103 	bleq	9ab018 <__bss_end+0x9a7aa0>
    2c08:	23030000 	movwcs	r0, #12288	; 0x3000
    2c0c:	1a0b01cc 	bne	2c3344 <__bss_end+0x2bfdcc>
    2c10:	0300000c 	movweq	r0, #12
    2c14:	000b26a2 	andeq	r2, fp, r2, lsr #13
    2c18:	d0230300 	eorle	r0, r3, r0, lsl #6
    2c1c:	079f0b01 	ldreq	r0, [pc, r1, lsl #22]
    2c20:	a3030000 	movwge	r0, #12288	; 0x3000
    2c24:	00000b6e 	andeq	r0, r0, lr, ror #22
    2c28:	01d42303 	bicseq	r2, r4, r3, lsl #6
    2c2c:	000cd90b 	andeq	sp, ip, fp, lsl #18
    2c30:	26a40300 	strtcs	r0, [r4], r0, lsl #6
    2c34:	0300000b 	movweq	r0, #11
    2c38:	0b01f023 	bleq	7eccc <__bss_end+0x7b754>
    2c3c:	00000bc5 	andeq	r0, r0, r5, asr #23
    2c40:	0b26a503 	bleq	9ac054 <__bss_end+0x9a8adc>
    2c44:	23030000 	movwcs	r0, #12288	; 0x3000
    2c48:	540b01f4 	strpl	r0, [fp], #-500	; 0x1f4
    2c4c:	0300000c 	movweq	r0, #12
    2c50:	000b26a6 	andeq	r2, fp, r6, lsr #13
    2c54:	f8230300 			; <UNDEFINED> instruction: 0xf8230300
    2c58:	09a10b01 	stmibeq	r1!, {r0, r8, r9, fp}
    2c5c:	a7030000 	strge	r0, [r3, -r0]
    2c60:	00000b26 	andeq	r0, r0, r6, lsr #22
    2c64:	01fc2303 	mvnseq	r2, r3, lsl #6
    2c68:	0009720b 	andeq	r7, r9, fp, lsl #4
    2c6c:	26a80300 	strtcs	r0, [r8], r0, lsl #6
    2c70:	0300000b 	movweq	r0, #11
    2c74:	0b028023 	bleq	a2d08 <__bss_end+0x9f790>
    2c78:	0000075f 	andeq	r0, r0, pc, asr r7
    2c7c:	0b26a903 	bleq	9ad090 <__bss_end+0x9a9b18>
    2c80:	23030000 	movwcs	r0, #12288	; 0x3000
    2c84:	980b0284 	stmdals	fp, {r2, r7, r9}
    2c88:	03000003 	movweq	r0, #3
    2c8c:	000b26aa 	andeq	r2, fp, sl, lsr #13
    2c90:	88230300 	stmdahi	r3!, {r8, r9}
    2c94:	04df0b02 	ldrbeq	r0, [pc], #2818	; 2c9c <mem_clk_save+0x20>
    2c98:	ab030000 	blge	c2ca0 <__bss_end+0xbf728>
    2c9c:	00000b26 	andeq	r0, r0, r6, lsr #22
    2ca0:	028c2303 	addeq	r2, ip, #201326592	; 0xc000000
    2ca4:	0003a40b 	andeq	sl, r3, fp, lsl #8
    2ca8:	26ac0300 	strtcs	r0, [ip], r0, lsl #6
    2cac:	0300000b 	movweq	r0, #11
    2cb0:	0b029023 	bleq	a6d44 <__bss_end+0xa37cc>
    2cb4:	000003b0 			; <UNDEFINED> instruction: 0x000003b0
    2cb8:	0b26ad03 	bleq	9ae0cc <__bss_end+0x9aab54>
    2cbc:	23030000 	movwcs	r0, #12288	; 0x3000
    2cc0:	f00b0294 			; <UNDEFINED> instruction: 0xf00b0294
    2cc4:	03000003 	movweq	r0, #3
    2cc8:	000b26ae 	andeq	r2, fp, lr, lsr #13
    2ccc:	98230300 	stmdals	r3!, {r8, r9}
    2cd0:	03f80b02 	mvnseq	r0, #2048	; 0x800
    2cd4:	af030000 	svcge	0x00030000
    2cd8:	00000b26 	andeq	r0, r0, r6, lsr #22
    2cdc:	029c2303 	addseq	r2, ip, #201326592	; 0xc000000
    2ce0:	0007b00b 	andeq	fp, r7, fp
    2ce4:	83b00300 	movshi	r0, #0
    2ce8:	0300000b 	movweq	r0, #11
    2cec:	0b02a023 	bleq	aad80 <__bss_end+0xa7808>
    2cf0:	00000a1e 	andeq	r0, r0, lr, lsl sl
    2cf4:	0b26b103 	bleq	9af108 <__bss_end+0x9abb90>
    2cf8:	23030000 	movwcs	r0, #12288	; 0x3000
    2cfc:	b70b02b0 			; <UNDEFINED> instruction: 0xb70b02b0
    2d00:	0300000a 	movweq	r0, #10
    2d04:	000b26b2 			; <UNDEFINED> instruction: 0x000b26b2
    2d08:	b4230300 	strtlt	r0, [r3], #-768	; 0x300
    2d0c:	041c0b02 	ldreq	r0, [ip], #-2818	; 0xb02
    2d10:	b3030000 	movwlt	r0, #12288	; 0x3000
    2d14:	00000b26 	andeq	r0, r0, r6, lsr #22
    2d18:	02b82303 	adcseq	r2, r8, #201326592	; 0xc000000
    2d1c:	0065560c 	rsbeq	r5, r5, ip, lsl #12
    2d20:	0b26b403 	bleq	9afd34 <__bss_end+0x9ac7bc>
    2d24:	23030000 	movwcs	r0, #12288	; 0x3000
    2d28:	650b02bc 	strvs	r0, [fp, #-700]	; 0x2bc
    2d2c:	03000009 	movweq	r0, #9
    2d30:	000b26b5 			; <UNDEFINED> instruction: 0x000b26b5
    2d34:	c0230300 	eorgt	r0, r3, r0, lsl #6
    2d38:	76410c02 	strbvc	r0, [r1], -r2, lsl #24
    2d3c:	b6030073 			; <UNDEFINED> instruction: 0xb6030073
    2d40:	00000b26 	andeq	r0, r0, r6, lsr #22
    2d44:	02c42303 	sbceq	r2, r4, #201326592	; 0xc000000
    2d48:	0004280b 	andeq	r2, r4, fp, lsl #16
    2d4c:	26b70300 	ldrtcs	r0, [r7], r0, lsl #6
    2d50:	0300000b 	movweq	r0, #11
    2d54:	0b02c823 	bleq	b4de8 <__bss_end+0xb1870>
    2d58:	000007bb 			; <UNDEFINED> instruction: 0x000007bb
    2d5c:	0b26b803 	bleq	9b0d70 <__bss_end+0x9ad7f8>
    2d60:	23030000 	movwcs	r0, #12288	; 0x3000
    2d64:	6d0b02cc 	sfmvs	f0, 4, [fp, #-816]	; 0xfffffcd0
    2d68:	03000008 	movweq	r0, #8
    2d6c:	000b26b9 			; <UNDEFINED> instruction: 0x000b26b9
    2d70:	d0230300 	eorle	r0, r3, r0, lsl #6
    2d74:	0b490b02 	bleq	1245984 <__bss_end+0x124240c>
    2d78:	ba030000 	blt	c2d80 <__bss_end+0xbf808>
    2d7c:	00000b26 	andeq	r0, r0, r6, lsr #22
    2d80:	02d42303 	sbcseq	r2, r4, #201326592	; 0xc000000
    2d84:	0004bd0b 	andeq	fp, r4, fp, lsl #26
    2d88:	26bb0300 	ldrtcs	r0, [fp], r0, lsl #6
    2d8c:	0300000b 	movweq	r0, #11
    2d90:	0b02d823 	bleq	b8e24 <__bss_end+0xb58ac>
    2d94:	00000507 	andeq	r0, r0, r7, lsl #10
    2d98:	0b26bc03 	bleq	9b1dac <__bss_end+0x9ae834>
    2d9c:	23030000 	movwcs	r0, #12288	; 0x3000
    2da0:	c90b02dc 	stmdbgt	fp, {r2, r3, r4, r6, r7, r9}
    2da4:	03000004 	movweq	r0, #4
    2da8:	000b26bd 			; <UNDEFINED> instruction: 0x000b26bd
    2dac:	e0230300 	eor	r0, r3, r0, lsl #6
    2db0:	07c60b02 	strbeq	r0, [r6, r2, lsl #22]
    2db4:	be030000 	cdplt	0, 0, cr0, cr3, cr0, {0}
    2db8:	00000b26 	andeq	r0, r0, r6, lsr #22
    2dbc:	02e42303 	rsceq	r2, r4, #201326592	; 0xc000000
    2dc0:	000a970b 	andeq	r9, sl, fp, lsl #14
    2dc4:	26bf0300 	ldrtcs	r0, [pc], r0, lsl #6
    2dc8:	0300000b 	movweq	r0, #11
    2dcc:	0b02e823 	bleq	bce60 <__bss_end+0xb98e8>
    2dd0:	00000aa3 	andeq	r0, r0, r3, lsr #21
    2dd4:	0b26c003 	bleq	9b2de8 <__bss_end+0x9af870>
    2dd8:	23030000 	movwcs	r0, #12288	; 0x3000
    2ddc:	d10b02ec 	smlattle	fp, ip, r2, r0
    2de0:	03000007 	movweq	r0, #7
    2de4:	000b88c1 	andeq	r8, fp, r1, asr #17
    2de8:	f0230300 			; <UNDEFINED> instruction: 0xf0230300
    2dec:	0ca70b02 	vstmiaeq	r7!, {d0}
    2df0:	c2030000 	andgt	r0, r3, #0
    2df4:	00000b26 	andeq	r0, r0, r6, lsr #22
    2df8:	03802303 	orreq	r2, r0, #201326592	; 0xc000000
    2dfc:	0006470b 	andeq	r4, r6, fp, lsl #14
    2e00:	26c30300 	strbcs	r0, [r3], r0, lsl #6
    2e04:	0300000b 	movweq	r0, #11
    2e08:	0b038423 	bleq	e3e9c <__bss_end+0xe0924>
    2e0c:	00000653 	andeq	r0, r0, r3, asr r6
    2e10:	0b26c403 	bleq	9b3e24 <__bss_end+0x9b08ac>
    2e14:	23030000 	movwcs	r0, #12288	; 0x3000
    2e18:	5f0b0388 	svcpl	0x000b0388
    2e1c:	03000006 	movweq	r0, #6
    2e20:	000b26c5 	andeq	r2, fp, r5, asr #13
    2e24:	8c230300 	stchi	3, cr0, [r3], #-0
    2e28:	07dc0b03 	ldrbeq	r0, [ip, r3, lsl #22]
    2e2c:	c6030000 	strgt	r0, [r3], -r0
    2e30:	00000b8d 	andeq	r0, r0, sp, lsl #23
    2e34:	03902303 	orrseq	r2, r0, #201326592	; 0xc000000
    2e38:	00067c0b 	andeq	r7, r6, fp, lsl #24
    2e3c:	26c70300 	strbcs	r0, [r7], r0, lsl #6
    2e40:	0300000b 	movweq	r0, #11
    2e44:	0b03a023 	bleq	eaed8 <__bss_end+0xe7960>
    2e48:	000005fd 	strdeq	r0, [r0], -sp
    2e4c:	0b26c803 	bleq	9b4e60 <__bss_end+0x9b18e8>
    2e50:	23030000 	movwcs	r0, #12288	; 0x3000
    2e54:	da0b03a4 	ble	2c3cec <__bss_end+0x2c0774>
    2e58:	03000008 	movweq	r0, #8
    2e5c:	000b26c9 	andeq	r2, fp, r9, asr #13
    2e60:	a8230300 	stmdage	r3!, {r8, r9}
    2e64:	06bc0b03 	ldrteq	r0, [ip], r3, lsl #22
    2e68:	ca030000 	bgt	c2e70 <__bss_end+0xbf8f8>
    2e6c:	00000b26 	andeq	r0, r0, r6, lsr #22
    2e70:	03ac2303 			; <UNDEFINED> instruction: 0x03ac2303
    2e74:	0006c80b 	andeq	ip, r6, fp, lsl #16
    2e78:	26cb0300 	strbcs	r0, [fp], r0, lsl #6
    2e7c:	0300000b 	movweq	r0, #11
    2e80:	0b03b023 	bleq	eef14 <__bss_end+0xeb99c>
    2e84:	0000088c 	andeq	r0, r0, ip, lsl #17
    2e88:	0ba2cc03 	bleq	fe8b5e9c <__bss_end+0xfe8b2924>
    2e8c:	23030000 	movwcs	r0, #12288	; 0x3000
    2e90:	d00b03b4 			; <UNDEFINED> instruction: 0xd00b03b4
    2e94:	03000003 	movweq	r0, #3
    2e98:	000b26cd 	andeq	r2, fp, sp, asr #13
    2e9c:	c0230300 	eorgt	r0, r3, r0, lsl #6
    2ea0:	07740b03 	ldrbeq	r0, [r4, -r3, lsl #22]!
    2ea4:	ce030000 	cdpgt	0, 0, cr0, cr3, cr0, {0}
    2ea8:	00000bb7 			; <UNDEFINED> instruction: 0x00000bb7
    2eac:	03c42303 	biceq	r2, r4, #201326592	; 0xc000000
    2eb0:	00066b0b 	andeq	r6, r6, fp, lsl #22
    2eb4:	bccf0300 	stcllt	3, cr0, [pc], {0}
    2eb8:	0300000b 	movweq	r0, #11
    2ebc:	0b048023 	bleq	122f50 <__bss_end+0x11f9d8>
    2ec0:	00000945 	andeq	r0, r0, r5, asr #18
    2ec4:	0b26d003 	bleq	9b6ed8 <__bss_end+0x9b3960>
    2ec8:	23030000 	movwcs	r0, #12288	; 0x3000
    2ecc:	5e0b0484 	cdppl	4, 0, cr0, cr11, cr4, {4}
    2ed0:	0300000c 	movweq	r0, #12
    2ed4:	000b26d1 	ldrdeq	r2, [fp], -r1
    2ed8:	88230300 	stmdahi	r3!, {r8, r9}
    2edc:	0c260b04 	stceq	11, cr0, [r6], #-16
    2ee0:	d2030000 	andle	r0, r3, #0
    2ee4:	00000b26 	andeq	r0, r0, r6, lsr #22
    2ee8:	048c2303 	streq	r2, [ip], #771	; 0x303
    2eec:	0005960b 	andeq	r9, r5, fp, lsl #12
    2ef0:	c1d30300 	bicsgt	r0, r3, r0, lsl #6
    2ef4:	0300000b 	movweq	r0, #11
    2ef8:	0b049023 	bleq	126f8c <__bss_end+0x123a14>
    2efc:	00000827 	andeq	r0, r0, r7, lsr #16
    2f00:	0bd6d503 	bleq	ff5b8314 <__bss_end+0xff5b4d9c>
    2f04:	23030000 	movwcs	r0, #12288	; 0x3000
    2f08:	990b04a0 	stmdbls	fp, {r5, r7, sl}
    2f0c:	03000004 	movweq	r0, #4
    2f10:	000b26d6 	ldrdeq	r2, [fp], -r6
    2f14:	a4230300 	strtge	r0, [r3], #-768	; 0x300
    2f18:	03c20b04 	biceq	r0, r2, #4096	; 0x1000
    2f1c:	d7030000 	strle	r0, [r3, -r0]
    2f20:	00000b26 	andeq	r0, r0, r6, lsr #22
    2f24:	04a82303 	strteq	r2, [r8], #771	; 0x303
    2f28:	00084b0b 	andeq	r4, r8, fp, lsl #22
    2f2c:	26d80300 	ldrbcs	r0, [r8], r0, lsl #6
    2f30:	0300000b 	movweq	r0, #11
    2f34:	0b04ac23 	bleq	12dfc8 <__bss_end+0x12aa50>
    2f38:	000006a4 	andeq	r0, r0, r4, lsr #13
    2f3c:	0b26d903 	bleq	9b9350 <__bss_end+0x9b5dd8>
    2f40:	23030000 	movwcs	r0, #12288	; 0x3000
    2f44:	2b0b04b0 	blcs	2c420c <__bss_end+0x2c0c94>
    2f48:	0300000b 	movweq	r0, #11
    2f4c:	000b26da 	ldrdeq	r2, [fp], -sl
    2f50:	b4230300 	strtlt	r0, [r3], #-768	; 0x300
    2f54:	0d150b04 	vldreq	d0, [r5, #-16]
    2f58:	db030000 	blle	c2f60 <__bss_end+0xbf9e8>
    2f5c:	00000b26 	andeq	r0, r0, r6, lsr #22
    2f60:	04b82303 	ldrteq	r2, [r8], #771	; 0x303
    2f64:	0005d80b 	andeq	sp, r5, fp, lsl #16
    2f68:	26dc0300 	ldrbcs	r0, [ip], r0, lsl #6
    2f6c:	0300000b 	movweq	r0, #11
    2f70:	0b04bc23 	bleq	132004 <__bss_end+0x12ea8c>
    2f74:	000006af 	andeq	r0, r0, pc, lsr #13
    2f78:	0b26dd03 	bleq	9ba38c <__bss_end+0x9b6e14>
    2f7c:	23030000 	movwcs	r0, #12288	; 0x3000
    2f80:	ec0b04c0 	cfstrs	mvf0, [fp], {192}	; 0xc0
    2f84:	03000004 	movweq	r0, #4
    2f88:	000b26de 	ldrdeq	r2, [fp], -lr
    2f8c:	c4230300 	strtgt	r0, [r3], #-768	; 0x300
    2f90:	098f0b04 	stmibeq	pc, {r2, r8, r9, fp}	; <UNPREDICTABLE>
    2f94:	df030000 	svcle	0x00030000
    2f98:	00000b26 	andeq	r0, r0, r6, lsr #22
    2f9c:	04c82303 	strbeq	r2, [r8], #771	; 0x303
    2fa0:	0009c20b 	andeq	ip, r9, fp, lsl #4
    2fa4:	26e00300 	strbtcs	r0, [r0], r0, lsl #6
    2fa8:	0300000b 	movweq	r0, #11
    2fac:	0b04cc23 	bleq	136040 <__bss_end+0x132ac8>
    2fb0:	000004ff 	strdeq	r0, [r0], -pc	; <UNPREDICTABLE>
    2fb4:	0b26e203 	bleq	9bb7c8 <__bss_end+0x9b8250>
    2fb8:	23030000 	movwcs	r0, #12288	; 0x3000
    2fbc:	860b04d0 			; <UNDEFINED> instruction: 0x860b04d0
    2fc0:	03000009 	movweq	r0, #9
    2fc4:	000b26e3 	andeq	r2, fp, r3, ror #13
    2fc8:	d4230300 	strtle	r0, [r3], #-768	; 0x300
    2fcc:	05a20b04 	streq	r0, [r2, #2820]!	; 0xb04
    2fd0:	e5030000 	str	r0, [r3, #-0]
    2fd4:	00000bdb 	ldrdeq	r0, [r0], -fp
    2fd8:	04d82303 	ldrbeq	r2, [r8], #771	; 0x303
    2fdc:	0009db0b 	andeq	sp, r9, fp, lsl #22
    2fe0:	26e60300 	strbtcs	r0, [r6], r0, lsl #6
    2fe4:	0300000b 	movweq	r0, #11
    2fe8:	0b04e023 	bleq	13b07c <__bss_end+0x137b04>
    2fec:	000005ae 	andeq	r0, r0, lr, lsr #11
    2ff0:	0be0e703 	bleq	ff83cc04 <__bss_end+0xff83968c>
    2ff4:	23030000 	movwcs	r0, #12288	; 0x3000
    2ff8:	610b04e4 	smlattvs	fp, r4, r4, r0
    2ffc:	03000005 	movweq	r0, #5
    3000:	000b26e8 	andeq	r2, fp, r8, ror #13
    3004:	f0230300 			; <UNDEFINED> instruction: 0xf0230300
    3008:	05ba0b04 	ldreq	r0, [sl, #2820]!	; 0xb04
    300c:	e9030000 	stmdb	r3, {}	; <UNPREDICTABLE>
    3010:	00000be5 	andeq	r0, r0, r5, ror #23
    3014:	04f42303 	ldrbteq	r2, [r4], #771	; 0x303
    3018:	0009060b 	andeq	r0, r9, fp, lsl #12
    301c:	26ea0300 	strbtcs	r0, [sl], r0, lsl #6
    3020:	0300000b 	movweq	r0, #11
    3024:	0b058023 	bleq	1630b8 <__bss_end+0x15fb40>
    3028:	000009ae 	andeq	r0, r0, lr, lsr #19
    302c:	0b26ec03 	bleq	9be040 <__bss_end+0x9baac8>
    3030:	23030000 	movwcs	r0, #12288	; 0x3000
    3034:	970b0584 	strls	r0, [fp, -r4, lsl #11]
    3038:	03000008 	movweq	r0, #8
    303c:	000b26ed 	andeq	r2, fp, sp, ror #13
    3040:	88230300 	stmdahi	r3!, {r8, r9}
    3044:	094e0b05 	stmdbeq	lr, {r0, r2, r8, r9, fp}^
    3048:	ee030000 	cdp	0, 0, cr0, cr3, cr0, {0}
    304c:	00000b26 	andeq	r0, r0, r6, lsr #22
    3050:	058c2303 	streq	r2, [ip, #771]	; 0x303
    3054:	000b550b 	andeq	r5, fp, fp, lsl #10
    3058:	26ef0300 	strbtcs	r0, [pc], r0, lsl #6
    305c:	0300000b 	movweq	r0, #11
    3060:	0b059023 	bleq	1670f4 <__bss_end+0x163b7c>
    3064:	000005cc 	andeq	r0, r0, ip, asr #11
    3068:	0beaf003 	bleq	ffabf07c <__bss_end+0xffabbb04>
    306c:	23030000 	movwcs	r0, #12288	; 0x3000
    3070:	310b0594 			; <UNDEFINED> instruction: 0x310b0594
    3074:	03000009 	movweq	r0, #9
    3078:	000b26f1 	strdeq	r2, [fp], -r1
    307c:	a4230300 	strtge	r0, [r3], #-768	; 0x300
    3080:	0c360b05 	ldceq	11, cr0, [r6], #-20	; 0xffffffec
    3084:	f2030000 	vhadd.s8	d0, d3, d0
    3088:	00000b26 	andeq	r0, r0, r6, lsr #22
    308c:	05a82303 	streq	r2, [r8, #771]!	; 0x303
    3090:	0003680b 	andeq	r6, r3, fp, lsl #16
    3094:	26f30300 	ldrbtcs	r0, [r3], r0, lsl #6
    3098:	0300000b 	movweq	r0, #11
    309c:	0b05ac23 	bleq	16e130 <__bss_end+0x16abb8>
    30a0:	00000bb3 			; <UNDEFINED> instruction: 0x00000bb3
    30a4:	0b26f403 	bleq	9c00b8 <__bss_end+0x9bcb40>
    30a8:	23030000 	movwcs	r0, #12288	; 0x3000
    30ac:	750b05b0 	strvc	r0, [fp, #-1456]	; 0x5b0
    30b0:	03000003 	movweq	r0, #3
    30b4:	000beff5 	strdeq	lr, [fp], -r5
    30b8:	b4230300 	strtlt	r0, [r3], #-768	; 0x300
    30bc:	08e80b05 	stmiaeq	r8!, {r0, r2, r8, r9, fp}^
    30c0:	f7030000 			; <UNDEFINED> instruction: 0xf7030000
    30c4:	00000b26 	andeq	r0, r0, r6, lsr #22
    30c8:	05c02303 	strbeq	r2, [r0, #771]	; 0x303
    30cc:	0008f20b 	andeq	pc, r8, fp, lsl #4
    30d0:	26f80300 	ldrbtcs	r0, [r8], r0, lsl #6
    30d4:	0300000b 	movweq	r0, #11
    30d8:	0b05c423 	bleq	17416c <__bss_end+0x170bf4>
    30dc:	000008fc 	strdeq	r0, [r0], -ip
    30e0:	0b26f903 	bleq	9c14f4 <__bss_end+0x9bdf7c>
    30e4:	23030000 	movwcs	r0, #12288	; 0x3000
    30e8:	350b05c8 	strcc	r0, [fp, #-1480]	; 0x5c8
    30ec:	03000008 	movweq	r0, #8
    30f0:	000b26fa 	strdeq	r2, [fp], -sl
    30f4:	cc230300 	stcgt	3, cr0, [r3], #-0
    30f8:	0a2e0b05 	beq	b85d14 <__bss_end+0xb8279c>
    30fc:	fb030000 	blx	c3106 <__bss_end+0xbfb8e>
    3100:	00000b26 	andeq	r0, r0, r6, lsr #22
    3104:	05d02303 	ldrbeq	r2, [r0, #771]	; 0x303
    3108:	0008400b 	andeq	r4, r8, fp
    310c:	26fc0300 	ldrbtcs	r0, [ip], r0, lsl #6
    3110:	0300000b 	movweq	r0, #11
    3114:	0b05d423 	bleq	1781a8 <__bss_end+0x174c30>
    3118:	00000616 	andeq	r0, r0, r6, lsl r6
    311c:	0b26fd03 	bleq	9c2530 <__bss_end+0x9befb8>
    3120:	23030000 	movwcs	r0, #12288	; 0x3000
    3124:	0d0005d8 	cfstr32eq	mvfx0, [r0, #-864]	; 0xfffffca0
    3128:	00000123 	andeq	r0, r0, r3, lsr #2
    312c:	0000530d 	andeq	r5, r0, sp, lsl #6
    3130:	01de0d00 	bicseq	r0, lr, r0, lsl #26
    3134:	6d0d0000 	stcvs	0, cr0, [sp, #-0]
    3138:	0d000002 	stceq	0, cr0, [r0, #-8]
    313c:	00000306 	andeq	r0, r0, r6, lsl #6
    3140:	0000530e 	andeq	r5, r0, lr, lsl #6
    3144:	000b4a00 	andeq	r4, fp, r0, lsl #20
    3148:	005e0f00 	subseq	r0, lr, r0, lsl #30
    314c:	00010000 	andeq	r0, r1, r0
    3150:	000b3a0d 	andeq	r3, fp, sp, lsl #20
    3154:	0b3a0d00 	bleq	e8655c <__bss_end+0xe82fe4>
    3158:	3a0d0000 	bcc	343160 <__bss_end+0x33fbe8>
    315c:	0d00000b 	stceq	0, cr0, [r0, #-44]	; 0xffffffd4
    3160:	00000b3a 	andeq	r0, r0, sl, lsr fp
    3164:	0000530e 	andeq	r5, r0, lr, lsl #6
    3168:	000b6e00 	andeq	r6, fp, r0, lsl #28
    316c:	005e0f00 	subseq	r0, lr, r0, lsl #30
    3170:	00060000 	andeq	r0, r6, r0
    3174:	000b5e0d 	andeq	r5, fp, sp, lsl #28
    3178:	00530e00 	subseq	r0, r3, r0, lsl #28
    317c:	0b830000 	bleq	fe0c3184 <__bss_end+0xfe0bfc0c>
    3180:	5e0f0000 	cdppl	0, 0, cr0, cr15, cr0, {0}
    3184:	03000000 	movweq	r0, #0
    3188:	0b730d00 	bleq	1cc6590 <__bss_end+0x1cc3018>
    318c:	730d0000 	movwvc	r0, #53248	; 0xd000
    3190:	0d00000b 	stceq	0, cr0, [r0, #-44]	; 0xffffffd4
    3194:	00000b73 	andeq	r0, r0, r3, ror fp
    3198:	0000530e 	andeq	r5, r0, lr, lsl #6
    319c:	000ba200 	andeq	sl, fp, r0, lsl #4
    31a0:	005e0f00 	subseq	r0, lr, r0, lsl #30
    31a4:	00020000 	andeq	r0, r2, r0
    31a8:	000b920d 	andeq	r9, fp, sp, lsl #4
    31ac:	00530e00 	subseq	r0, r3, r0, lsl #28
    31b0:	0bb70000 	bleq	fedc31b8 <__bss_end+0xfedbfc40>
    31b4:	5e0f0000 	cdppl	0, 0, cr0, cr15, cr0, {0}
    31b8:	0e000000 	cdpeq	0, 0, cr0, cr0, cr0, {0}
    31bc:	0ba70d00 	bleq	fe9c65c4 <__bss_end+0xfe9c304c>
    31c0:	400d0000 	andmi	r0, sp, r0
    31c4:	0d000003 	stceq	0, cr0, [r0, #-12]
    31c8:	00000b73 	andeq	r0, r0, r3, ror fp
    31cc:	0000530e 	andeq	r5, r0, lr, lsl #6
    31d0:	000bd600 	andeq	sp, fp, r0, lsl #12
    31d4:	005e0f00 	subseq	r0, lr, r0, lsl #30
    31d8:	00000000 	andeq	r0, r0, r0
    31dc:	000bc60d 	andeq	ip, fp, sp, lsl #12
    31e0:	0b3a0d00 	bleq	e865e8 <__bss_end+0xe83070>
    31e4:	920d0000 	andls	r0, sp, #0
    31e8:	0d00000b 	stceq	0, cr0, [r0, #-44]	; 0xffffffd4
    31ec:	00000b92 	muleq	r0, r2, fp
    31f0:	000b730d 	andeq	r7, fp, sp, lsl #6
    31f4:	0b920d00 	bleq	fe4865fc <__bss_end+0xfe483084>
    31f8:	78030000 	stmdavc	r3, {}	; <UNPREDICTABLE>
    31fc:	0300000b 	movweq	r0, #11
    3200:	00034bfe 	strdeq	r4, [r3], -lr
    3204:	f4041000 	vst4.8	{d1-d4}, [r4], r0
    3208:	1100000b 	tstne	r0, fp
    320c:	0000016d 	andeq	r0, r0, sp, ror #2
    3210:	727a0404 	rsbsvc	r0, sl, #67108864	; 0x4000000
    3214:	1200000c 	andne	r0, r0, #12
    3218:	0000001e 	andeq	r0, r0, lr, lsl r0
    321c:	00961200 	addseq	r1, r6, r0, lsl #4
    3220:	12010000 	andne	r0, r1, #0
    3224:	00000039 	andeq	r0, r0, r9, lsr r0
    3228:	00731202 	rsbseq	r1, r3, r2, lsl #4
    322c:	12030000 	andne	r0, r3, #0
    3230:	0000019f 	muleq	r0, pc, r1	; <UNPREDICTABLE>
    3234:	01341204 	teqeq	r4, r4, lsl #4
    3238:	12050000 	andne	r0, r5, #0
    323c:	0000011c 	andeq	r0, r0, ip, lsl r1
    3240:	01571206 	cmpeq	r7, r6, lsl #4
    3244:	12070000 	andne	r0, r7, #0
    3248:	00000012 	andeq	r0, r0, r2, lsl r0
    324c:	00681208 	rsbeq	r1, r8, r8, lsl #4
    3250:	12090000 	andne	r0, r9, #0
    3254:	00000129 	andeq	r0, r0, r9, lsr #2
    3258:	01ab120a 			; <UNDEFINED> instruction: 0x01ab120a
    325c:	120b0000 	andne	r0, fp, #0
    3260:	00000167 	andeq	r0, r0, r7, ror #2
    3264:	0183120c 	orreq	r1, r3, ip, lsl #4
    3268:	120d0000 	andne	r0, sp, #0
    326c:	00000230 	andeq	r0, r0, r0, lsr r2
    3270:	002b120e 	eoreq	r1, fp, lr, lsl #4
    3274:	000f0000 	andeq	r0, pc, r0
    3278:	88080102 	stmdahi	r8, {r1, r8}
    327c:	02000000 	andeq	r0, r0, #0
    3280:	01450704 	cmpeq	r5, r4, lsl #14
    3284:	af130000 	svcge	0x00130000
    3288:	01000013 	tsteq	r0, r3, lsl r0
    328c:	00530111 	subseq	r0, r3, r1, lsl r1
    3290:	e8010000 	stmda	r1, {}	; <UNPREDICTABLE>
    3294:	1400000c 	strne	r0, [r0], #-12
    3298:	000014c2 	andeq	r1, r0, r2, asr #9
    329c:	00531101 	subseq	r1, r3, r1, lsl #2
    32a0:	2e150000 	cdpcs	0, 1, cr0, cr5, cr0, {0}
    32a4:	01000014 	tsteq	r0, r4, lsl r0
    32a8:	00005313 	andeq	r5, r0, r3, lsl r3
    32ac:	147e1500 	ldrbtne	r1, [lr], #-1280	; 0x500
    32b0:	14010000 	strne	r0, [r1], #-0
    32b4:	00000053 	andeq	r0, r0, r3, asr r0
    32b8:	67657216 			; <UNDEFINED> instruction: 0x67657216
    32bc:	e8160100 	ldmda	r6, {r8}
    32c0:	1500000c 	strne	r0, [r0, #-12]
    32c4:	000014a6 	andeq	r1, r0, r6, lsr #9
    32c8:	0bff1701 	bleq	fffc8ed4 <__bss_end+0xfffc595c>
    32cc:	42150000 	andsmi	r0, r5, #0
    32d0:	01000015 	tsteq	r0, r5, lsl r0
    32d4:	00030618 	andeq	r0, r3, r8, lsl r6
    32d8:	15611500 	strbne	r1, [r1, #-1280]!	; 0x500
    32dc:	1a010000 	bne	432e4 <__bss_end+0x3fd6c>
    32e0:	00000053 	andeq	r0, r0, r3, asr r0
    32e4:	01006916 	tsteq	r0, r6, lsl r9
    32e8:	0000531b 	andeq	r5, r0, fp, lsl r3
    32ec:	04100000 	ldreq	r0, [r0], #-0
    32f0:	00000cee 	andeq	r0, r0, lr, ror #25
    32f4:	00005e0d 	andeq	r5, r0, sp, lsl #28
    32f8:	14491700 	strbne	r1, [r9], #-1792	; 0x700
    32fc:	5b010000 	blpl	43304 <__bss_end+0x3fd8c>
    3300:	0c010101 	stfeqs	f0, [r1], {1}
    3304:	1800000d 	stmdane	r0, {r0, r2, r3}
    3308:	5b010063 	blpl	4349c <__bss_end+0x3ff24>
    330c:	000c7201 	andeq	r7, ip, r1, lsl #4
    3310:	4b190000 	blmi	643318 <__bss_end+0x63fda0>
    3314:	01000015 	tsteq	r0, r5, lsl r0
    3318:	72010167 	andvc	r0, r1, #-1073741799	; 0xc0000019
    331c:	0100000c 	tsteq	r0, ip
    3320:	00000d2b 	andeq	r0, r0, fp, lsr #26
    3324:	0007521a 	andeq	r5, r7, sl, lsl r2
    3328:	01690100 	cmneq	r9, r0, lsl #2
    332c:	00000053 	andeq	r0, r0, r3, asr r0
    3330:	ae011b00 	vmlage.f64	d1, d1, d0
    3334:	01000014 	tsteq	r0, r4, lsl r0
    3338:	01010198 			; <UNDEFINED> instruction: 0x01010198
    333c:	14cb011b 	strbne	r0, [fp], #283	; 0x11b
    3340:	9f010000 	svcls	0x00010000
    3344:	17010101 	strne	r0, [r1, -r1, lsl #2]
    3348:	0000146e 	andeq	r1, r0, lr, ror #8
    334c:	0101c501 	tsteq	r1, r1, lsl #10
    3350:	000d5a01 	andeq	r5, sp, r1, lsl #20
    3354:	00631800 	rsbeq	r1, r3, r0, lsl #16
    3358:	7201c501 	andvc	ip, r1, #4194304	; 0x400000
    335c:	0000000c 	andeq	r0, r0, ip
    3360:	00140c19 	andseq	r0, r4, r9, lsl ip
    3364:	01d10100 	bicseq	r0, r1, r0, lsl #2
    3368:	000c7201 	andeq	r7, ip, r1, lsl #4
    336c:	0d790100 	ldfeqe	f0, [r9, #-0]
    3370:	521a0000 	andspl	r0, sl, #0
    3374:	01000007 	tsteq	r0, r7
    3378:	005301d3 	ldrsbeq	r0, [r3], #-19	; 0xffffffed
    337c:	1c000000 	stcne	0, cr0, [r0], {-0}
    3380:	000013d3 	ldrdeq	r1, [r0], -r3
    3384:	e401d901 	str	sp, [r1], #-2305	; 0x901
    3388:	8c000016 	stchi	0, cr0, [r0], {22}
    338c:	c2000017 	andgt	r0, r0, #23
    3390:	e7000006 	str	r0, [r0, -r6]
    3394:	1d00000d 	stcne	0, cr0, [r0, #-52]	; 0xffffffcc
    3398:	000014c2 	andeq	r1, r0, r2, asr #9
    339c:	0053d901 	subseq	sp, r3, r1, lsl #18
    33a0:	06e20000 	strbteq	r0, [r2], r0
    33a4:	8b1d0000 	blhi	7433ac <__bss_end+0x73fe34>
    33a8:	01000014 	tsteq	r0, r4, lsl r0
    33ac:	000053d9 	ldrdeq	r5, [r0], -r9
    33b0:	00070000 	andeq	r0, r7, r0
    33b4:	00691e00 	rsbeq	r1, r9, r0, lsl #28
    33b8:	0053db01 	subseq	sp, r3, r1, lsl #22
    33bc:	1f000000 	svcne	0x00000000
    33c0:	00676572 	rsbeq	r6, r7, r2, ror r5
    33c4:	0ce8dc01 	stcleq	12, cr13, [r8], #4
    33c8:	071e0000 	ldreq	r0, [lr, -r0]
    33cc:	5f200000 	svcpl	0x00200000
    33d0:	01000014 	tsteq	r0, r4, lsl r0
    33d4:	000053dd 	ldrdeq	r5, [r0], -sp
    33d8:	00075900 	andeq	r5, r7, r0, lsl #18
    33dc:	13be2000 			; <UNDEFINED> instruction: 0x13be2000
    33e0:	de010000 	cdple	0, 0, cr0, cr1, cr0, {0}
    33e4:	00000053 	andeq	r0, r0, r3, asr r0
    33e8:	00000779 	andeq	r0, r0, r9, ror r7
    33ec:	0c802100 	stfeqs	f2, [r0], {0}
    33f0:	178c0000 	strne	r0, [ip, r0]
    33f4:	18380000 	ldmdane	r8!, {}	; <UNPREDICTABLE>
    33f8:	07a40000 	streq	r0, [r4, r0]!
    33fc:	0e840000 	cdpeq	0, 8, cr0, cr4, cr0, {0}
    3400:	91220000 	teqls	r2, r0
    3404:	c400000c 	strgt	r0, [r0], #-12
    3408:	23000007 	movwcs	r0, #7
    340c:	00000c9c 	muleq	r0, ip, ip
    3410:	000007e2 	andeq	r0, r0, r2, ror #15
    3414:	000ca723 	andeq	sl, ip, r3, lsr #14
    3418:	00080100 	andeq	r0, r8, r0, lsl #2
    341c:	0cb22300 	ldceq	3, cr2, [r2]
    3420:	082b0000 	stmdaeq	fp!, {}	; <UNPREDICTABLE>
    3424:	bd230000 	stclt	0, cr0, [r3, #-0]
    3428:	5f00000c 	svcpl	0x0000000c
    342c:	23000008 	movwcs	r0, #8
    3430:	00000cc8 	andeq	r0, r0, r8, asr #25
    3434:	0000087e 	andeq	r0, r0, lr, ror r8
    3438:	000cd324 	andeq	sp, ip, r4, lsr #6
    343c:	de240000 	cdple	0, 2, cr0, cr4, cr0, {0}
    3440:	0000000c 	andeq	r0, r0, ip
    3444:	000c8025 	andeq	r8, ip, r5, lsr #32
    3448:	0017c800 	andseq	ip, r7, r0, lsl #16
    344c:	00000000 	andeq	r0, r0, r0
    3450:	26110100 	ldrcs	r0, [r1], -r0, lsl #2
    3454:	00000018 	andeq	r0, r0, r8, lsl r0
    3458:	000c9c27 	andeq	r9, ip, r7, lsr #24
    345c:	0ca72700 	stceq	7, cr2, [r7]
    3460:	b2280000 	eorlt	r0, r8, #0
    3464:	d800000c 	stmdale	r0, {r2, r3}
    3468:	7f8e8885 	svcvc	0x008e8885
    346c:	000cbd27 	andeq	fp, ip, r7, lsr #26
    3470:	0cc82700 	stcleq	7, cr2, [r8], {0}
    3474:	91290000 	teqls	r9, r0
    3478:	2400000c 	strcs	r0, [r0], #-12
    347c:	00000cd3 	ldrdeq	r0, [r0], -r3
    3480:	0cde2400 	cfldrdeq	mvd2, [lr], {0}
    3484:	00000000 	andeq	r0, r0, r0
    3488:	012a0000 	teqeq	sl, r0
    348c:	00001566 	andeq	r1, r0, r6, ror #10
    3490:	01010701 	tsteq	r1, r1, lsl #14
    3494:	00001838 	andeq	r1, r0, r8, lsr r8
    3498:	00001878 	andeq	r1, r0, r8, ror r8
    349c:	ae007d02 	cdpge	13, 0, cr7, cr0, cr2, {0}
    34a0:	2b00000e 	blcs	34e0 <saved_empty_context_svc+0x58>
    34a4:	00000d36 	andeq	r0, r0, r6, lsr sp
    34a8:	00001868 	andeq	r1, r0, r8, ror #16
    34ac:	00001870 	andeq	r1, r0, r0, ror r8
    34b0:	00011401 	andeq	r1, r1, r1, lsl #8
    34b4:	141c012c 	ldrne	r0, [ip], #-300	; 0x12c
    34b8:	3f010000 	svccc	0x00010000
    34bc:	18780101 	ldmdane	r8!, {r0, r8}^
    34c0:	18fc0000 	ldmne	ip!, {}^	; <UNPREDICTABLE>
    34c4:	08910000 	ldmeq	r1, {}	; <UNPREDICTABLE>
    34c8:	0f180000 	svceq	0x00180000
    34cc:	8b2d0000 	blhi	b434d4 <__bss_end+0xb3ff5c>
    34d0:	01000014 	tsteq	r0, r4, lsl r0
    34d4:	0053013f 	subseq	r0, r3, pc, lsr r1
    34d8:	08b10000 	ldmeq	r1!, {}	; <UNPREDICTABLE>
    34dc:	642e0000 	strtvs	r0, [lr], #-0
    34e0:	41010066 	tstmi	r1, r6, rrx
    34e4:	00005301 	andeq	r5, r0, r1, lsl #6
    34e8:	0008cf00 	andeq	ip, r8, r0, lsl #30
    34ec:	636c2e00 	cmnvs	ip, #0
    34f0:	42010072 	andmi	r0, r1, #114	; 0x72
    34f4:	00005301 	andeq	r5, r0, r1, lsl #6
    34f8:	0008f200 	andeq	pc, r8, r0, lsl #4
    34fc:	147e2f00 	ldrbtne	r2, [lr], #-3840	; 0xf00
    3500:	43010000 	movwmi	r0, #4096	; 0x1000
    3504:	00005301 	andeq	r5, r0, r1, lsl #6
    3508:	00091100 	andeq	r1, r9, r0, lsl #2
    350c:	0d2b3000 	stceq	0, cr3, [fp, #-0]
    3510:	18b40000 	ldmne	r4!, {}	; <UNPREDICTABLE>
    3514:	00300000 	eorseq	r0, r0, r0
    3518:	57010000 	strpl	r0, [r1, -r0]
    351c:	01310001 	teqeq	r1, r1
    3520:	00001437 	andeq	r1, r0, r7, lsr r4
    3524:	01017001 	tsteq	r1, r1
    3528:	00000041 	andeq	r0, r0, r1, asr #32
    352c:	000018fc 	strdeq	r1, [r0], -ip
    3530:	000019ac 	andeq	r1, r0, ip, lsr #19
    3534:	0000093f 	andeq	r0, r0, pc, lsr r9
    3538:	00000f7b 	andeq	r0, r0, fp, ror pc
    353c:	0016232d 	andseq	r2, r6, sp, lsr #6
    3540:	01700100 	cmneq	r0, r0, lsl #2
    3544:	00000f7b 	andeq	r0, r0, fp, ror pc
    3548:	0000095f 	andeq	r0, r0, pc, asr r9
    354c:	000cf332 	andeq	pc, ip, r2, lsr r3	; <UNPREDICTABLE>
    3550:	00192000 	andseq	r2, r9, r0
    3554:	00004800 	andeq	r4, r0, r0, lsl #16
    3558:	017e0100 	cmneq	lr, r0, lsl #2
    355c:	00000f60 	andeq	r0, r0, r0, ror #30
    3560:	000d0129 	andeq	r0, sp, r9, lsr #2
    3564:	f3330000 	vhadd.u<illegal width 64>	d0, d3, d0
    3568:	3c00000c 	stccc	0, cr0, [r0], {12}
    356c:	64000019 	strvs	r0, [r0], #-25
    3570:	01000019 	tsteq	r0, r9, lsl r0
    3574:	01220180 	smlawbeq	r2, r0, r1, r0
    3578:	8a00000d 	bhi	35b4 <__bss_end+0x3c>
    357c:	00000009 	andeq	r0, r0, r9
    3580:	81041000 	mrshi	r1, (UNDEF: 4)
    3584:	3400000f 	strcc	r0, [r0], #-15
    3588:	00000c72 	andeq	r0, r0, r2, ror ip
    358c:	14df0131 	ldrbne	r0, [pc], #305	; 3594 <__bss_end+0x1c>
    3590:	86010000 	strhi	r0, [r1], -r0
    3594:	00530101 	subseq	r0, r3, r1, lsl #2
    3598:	19ac0000 	stmibne	ip!, {}	; <UNPREDICTABLE>
    359c:	1a380000 	bne	e035a4 <__bss_end+0xe0002c>
    35a0:	099d0000 	ldmibeq	sp, {}	; <UNPREDICTABLE>
    35a4:	0ffd0000 	svceq	0x00fd0000
    35a8:	62350000 	eorsvs	r0, r5, #0
    35ac:	01006675 	tsteq	r0, r5, ror r6
    35b0:	0ffd0186 	svceq	0x00fd0186
    35b4:	09bd0000 	ldmibeq	sp!, {}	; <UNPREDICTABLE>
    35b8:	6e360000 	cdpvs	0, 3, cr0, cr6, cr0, {0}
    35bc:	01860100 	orreq	r0, r6, r0, lsl #2
    35c0:	00000053 	andeq	r0, r0, r3, asr r0
    35c4:	692e5101 	stmdbvs	lr!, {r0, r8, ip, lr}
    35c8:	01880100 	orreq	r0, r8, r0, lsl #2
    35cc:	00000053 	andeq	r0, r0, r3, asr r0
    35d0:	000009d0 	ldrdeq	r0, [r0], -r0	; <UNPREDICTABLE>
    35d4:	0100632e 	tsteq	r0, lr, lsr #6
    35d8:	0c720189 	ldfeqe	f0, [r2], #-548	; 0xfffffddc
    35dc:	09fb0000 	ldmibeq	fp!, {}^	; <UNPREDICTABLE>
    35e0:	0c370000 	ldceq	0, cr0, [r7], #-0
    35e4:	d800000d 	stmdale	r0, {r0, r2, r3}
    35e8:	68000019 	stmdavs	r0, {r0, r3, r4}
    35ec:	01000000 	mrseq	r0, (UNDEF: 0)
    35f0:	90260190 	mlals	r6, r0, r1, r0
    35f4:	23000000 	movwcs	r0, #0
    35f8:	00000d1e 	andeq	r0, r0, lr, lsl sp
    35fc:	00000a1b 	andeq	r0, r0, fp, lsl sl
    3600:	10000000 	andne	r0, r0, r0
    3604:	000c7204 	andeq	r7, ip, r4, lsl #4
    3608:	0d2b3800 	stceq	8, cr3, [fp, #-0]
    360c:	1a380000 	bne	e03614 <__bss_end+0xe0009c>
    3610:	1a4c0000 	bne	1303618 <__bss_end+0x13000a0>
    3614:	7d020000 	stcvc	0, cr0, [r2, #-0]
    3618:	0d363800 	ldceq	8, cr3, [r6, #-0]
    361c:	1a4c0000 	bne	1303624 <__bss_end+0x13000ac>
    3620:	1a600000 	bne	1803628 <__bss_end+0x18000b0>
    3624:	7d020000 	stcvc	0, cr0, [r2, #-0]
    3628:	ef012c00 	svc	0x00012c00
    362c:	01000013 	tsteq	r0, r3, lsl r0
    3630:	600101a5 	andvs	r0, r1, r5, lsr #3
    3634:	ec00001a 	stc	0, cr0, [r0], {26}
    3638:	4600001a 			; <UNDEFINED> instruction: 0x4600001a
    363c:	8d00000a 	stchi	0, cr0, [r0, #-40]	; 0xffffffd8
    3640:	2d000010 	stccs	0, cr0, [r0, #-64]	; 0xffffffc0
    3644:	0000148b 	andeq	r1, r0, fp, lsl #9
    3648:	5301a501 	movwpl	sl, #5377	; 0x1501
    364c:	66000000 	strvs	r0, [r0], -r0
    3650:	2f00000a 	svccs	0x0000000a
    3654:	0000147e 	andeq	r1, r0, lr, ror r4
    3658:	5301a801 	movwpl	sl, #6145	; 0x1801
    365c:	84000000 	strhi	r0, [r0], #-0
    3660:	2e00000a 	cdpcs	0, 0, cr0, cr0, cr10, {0}
    3664:	01006664 	tsteq	r0, r4, ror #12
    3668:	005301a9 	subseq	r0, r3, r9, lsr #3
    366c:	0ab20000 	beq	fec83674 <__bss_end+0xfec800fc>
    3670:	6c2e0000 	stcvs	0, cr0, [lr], #-0
    3674:	01007263 	tsteq	r0, r3, ror #4
    3678:	005301aa 	subseq	r0, r3, sl, lsr #3
    367c:	0ad50000 	beq	ff543684 <__bss_end+0xff54010c>
    3680:	2b2b0000 	blcs	ac3688 <__bss_end+0xac0110>
    3684:	e400000d 	str	r0, [r0], #-13
    3688:	e800001a 	stmda	r0, {r1, r3, r4}
    368c:	0100001a 	tsteq	r0, sl, lsl r0
    3690:	310001bf 			; <UNDEFINED> instruction: 0x310001bf
    3694:	00150701 	andseq	r0, r5, r1, lsl #14
    3698:	01e60100 	mvneq	r0, r0, lsl #2
    369c:	00004101 	andeq	r4, r0, r1, lsl #2
    36a0:	001aec00 	andseq	lr, sl, r0, lsl #24
    36a4:	001b9c00 	andseq	r9, fp, r0, lsl #24
    36a8:	000af400 	andeq	pc, sl, r0, lsl #8
    36ac:	0010f000 	andseq	pc, r0, r0
    36b0:	16232d00 	strtne	r2, [r3], -r0, lsl #26
    36b4:	e6010000 	str	r0, [r1], -r0
    36b8:	000f7b01 	andeq	r7, pc, r1, lsl #22
    36bc:	000b1400 	andeq	r1, fp, r0, lsl #8
    36c0:	0d413200 	sfmeq	f3, 2, [r1, #-0]
    36c4:	1b100000 	blne	4036cc <__bss_end+0x400154>
    36c8:	00b80000 	adcseq	r0, r8, r0
    36cc:	f4010000 	vst4.8	{d0-d3}, [r1], r0
    36d0:	0010d501 	andseq	sp, r0, r1, lsl #10
    36d4:	0d4f2900 	stcleq	9, cr2, [pc, #-0]	; 36dc <__bss_end+0x164>
    36d8:	33000000 	movwcc	r0, #0
    36dc:	00000d41 	andeq	r0, r0, r1, asr #26
    36e0:	00001b2c 	andeq	r1, r0, ip, lsr #22
    36e4:	00001b54 	andeq	r1, r0, r4, asr fp
    36e8:	2201f601 	andcs	pc, r1, #1048576	; 0x100000
    36ec:	00000d4f 	andeq	r0, r0, pc, asr #26
    36f0:	00000b3f 	andeq	r0, r0, pc, lsr fp
    36f4:	01310000 	teqeq	r1, r0
    36f8:	000013e3 	andeq	r1, r0, r3, ror #7
    36fc:	0101fd01 	tsteq	r1, r1, lsl #26
    3700:	00000053 	andeq	r0, r0, r3, asr r0
    3704:	00001b9c 	muleq	r0, ip, fp
    3708:	00001c28 	andeq	r1, r0, r8, lsr #24
    370c:	00000b52 	andeq	r0, r0, r2, asr fp
    3710:	00001167 	andeq	r1, r0, r7, ror #2
    3714:	66756235 			; <UNDEFINED> instruction: 0x66756235
    3718:	01fd0100 	mvnseq	r0, r0, lsl #2
    371c:	00000ffd 	strdeq	r0, [r0], -sp
    3720:	00000b72 	andeq	r0, r0, r2, ror fp
    3724:	01006e36 	tsteq	r0, r6, lsr lr
    3728:	005301fd 	ldrsheq	r0, [r3], #-29	; 0xffffffe3
    372c:	51010000 	mrspl	r0, (UNDEF: 1)
    3730:	0100692e 	tsteq	r0, lr, lsr #18
    3734:	005301ff 	ldrsheq	r0, [r3], #-31	; 0xffffffe1
    3738:	0b850000 	bleq	fe143740 <__bss_end+0xfe1401c8>
    373c:	632e0000 	teqvs	lr, #0
    3740:	02000100 	andeq	r0, r0, #0
    3744:	00000c72 	andeq	r0, r0, r2, ror ip
    3748:	00000bb0 			; <UNDEFINED> instruction: 0x00000bb0
    374c:	000d5a37 	andeq	r5, sp, r7, lsr sl
    3750:	001bc800 	andseq	ip, fp, r0, lsl #16
    3754:	0000d800 	andeq	sp, r0, r0, lsl #16
    3758:	02070100 	andeq	r0, r7, #0
    375c:	00010026 	andeq	r0, r1, r6, lsr #32
    3760:	0d6c2300 	stcleq	3, cr2, [ip, #-0]
    3764:	0bd00000 	bleq	ff40376c <__bss_end+0xff4001f4>
    3768:	00000000 	andeq	r0, r0, r0
    376c:	15723900 	ldrbne	r3, [r2, #-2304]!	; 0x900
    3770:	0a010000 	beq	43778 <__bss_end+0x40200>
    3774:	00000053 	andeq	r0, r0, r3, asr r0
    3778:	32600305 	rsbcc	r0, r0, #335544320	; 0x14000000
    377c:	f1390000 			; <UNDEFINED> instruction: 0xf1390000
    3780:	01000014 	tsteq	r0, r4, lsl r0
    3784:	0000530b 	andeq	r5, r0, fp, lsl #6
    3788:	64030500 	strvs	r0, [r3], #-1280	; 0x500
    378c:	39000032 	stmdbcc	r0, {r1, r4, r5}
    3790:	000013fb 	strdeq	r1, [r0], -fp
    3794:	00530c01 	subseq	r0, r3, r1, lsl #24
    3798:	03050000 	movweq	r0, #20480	; 0x5000
    379c:	0000325c 	andeq	r3, r0, ip, asr r2
    37a0:	00149339 	andseq	r9, r4, r9, lsr r3
    37a4:	530d0100 	movwpl	r0, #53504	; 0xd100
    37a8:	05000000 	streq	r0, [r0, #-0]
    37ac:	00326c03 	eorseq	r6, r2, r3, lsl #24
    37b0:	14843900 	strne	r3, [r4], #2304	; 0x900
    37b4:	0e010000 	cdpeq	0, 0, cr0, cr1, cr0, {0}
    37b8:	00000053 	andeq	r0, r0, r3, asr r0
    37bc:	32680305 	rsbcc	r0, r8, #335544320	; 0x14000000
    37c0:	40000000 	andmi	r0, r0, r0
    37c4:	02000008 	andeq	r0, r0, #8
    37c8:	000c1b00 	andeq	r1, ip, r0, lsl #22
    37cc:	46010400 	strmi	r0, [r1], -r0, lsl #8
    37d0:	01000000 	mrseq	r0, (UNDEF: 0)
    37d4:	000015d1 	ldrdeq	r1, [r0], -r1	; <UNPREDICTABLE>
    37d8:	000000c1 	andeq	r0, r0, r1, asr #1
    37dc:	00001c28 	andeq	r1, r0, r8, lsr #24
    37e0:	00002414 	andeq	r2, r0, r4, lsl r4
    37e4:	00000c4e 	andeq	r0, r0, lr, asr #24
    37e8:	81060102 	tsthi	r6, r2, lsl #2
    37ec:	02000000 	andeq	r0, r0, #0
    37f0:	007f0801 	rsbseq	r0, pc, r1, lsl #16
    37f4:	02020000 	andeq	r0, r2, #0
    37f8:	0001b605 	andeq	fp, r1, r5, lsl #12
    37fc:	07020200 	streq	r0, [r2, -r0, lsl #4]
    3800:	000000a3 	andeq	r0, r0, r3, lsr #1
    3804:	000ff803 	andeq	pc, pc, r3, lsl #16
    3808:	4c120200 	lfmmi	f0, 4, [r2], {-0}
    380c:	04000000 	streq	r0, [r0], #-0
    3810:	6e690504 	cdpvs	5, 6, cr0, cr9, cr4, {0}
    3814:	04020074 	streq	r0, [r2], #-116	; 0x74
    3818:	00014a07 	andeq	r4, r1, r7, lsl #20
    381c:	05080200 	streq	r0, [r8, #-512]	; 0x200
    3820:	00000191 	muleq	r0, r1, r1
    3824:	40070802 	andmi	r0, r7, r2, lsl #16
    3828:	03000001 	movweq	r0, #1
    382c:	00001587 	andeq	r1, r0, r7, lsl #11
    3830:	00531802 	subseq	r1, r3, r2, lsl #16
    3834:	6d050000 	stcvs	0, cr0, [r5, #-0]
    3838:	04000001 	streq	r0, [r0], #-1
    383c:	00e07a04 	rsceq	r7, r0, r4, lsl #20
    3840:	1e060000 	cdpne	0, 0, cr0, cr6, cr0, {0}
    3844:	00000000 	andeq	r0, r0, r0
    3848:	00009606 	andeq	r9, r0, r6, lsl #12
    384c:	39060100 	stmdbcc	r6, {r8}
    3850:	02000000 	andeq	r0, r0, #0
    3854:	00007306 	andeq	r7, r0, r6, lsl #6
    3858:	9f060300 	svcls	0x00060300
    385c:	04000001 	streq	r0, [r0], #-1
    3860:	00013406 	andeq	r3, r1, r6, lsl #8
    3864:	1c060500 	cfstr32ne	mvfx0, [r6], {-0}
    3868:	06000001 	streq	r0, [r0], -r1
    386c:	00015706 	andeq	r5, r1, r6, lsl #14
    3870:	12060700 	andne	r0, r6, #0
    3874:	08000000 	stmdaeq	r0, {}	; <UNPREDICTABLE>
    3878:	00006806 	andeq	r6, r0, r6, lsl #16
    387c:	29060900 	stmdbcs	r6, {r8, fp}
    3880:	0a000001 	beq	388c <__bss_end+0x314>
    3884:	0001ab06 	andeq	sl, r1, r6, lsl #22
    3888:	67060b00 	strvs	r0, [r6, -r0, lsl #22]
    388c:	0c000001 	stceq	0, cr0, [r0], {1}
    3890:	00018306 	andeq	r8, r1, r6, lsl #6
    3894:	30060d00 	andcc	r0, r6, r0, lsl #26
    3898:	0e000002 	cdpeq	0, 0, cr0, cr0, cr2, {0}
    389c:	00002b06 	andeq	r2, r0, r6, lsl #22
    38a0:	02000f00 	andeq	r0, r0, #0
    38a4:	00880801 	addeq	r0, r8, r1, lsl #16
    38a8:	04020000 	streq	r0, [r2], #-0
    38ac:	00014507 	andeq	r4, r1, r7, lsl #10
    38b0:	03040700 	movweq	r0, #18176	; 0x4700
    38b4:	00001650 	andeq	r1, r0, r0, asr r6
    38b8:	00fb2803 	rscseq	r2, fp, r3, lsl #16
    38bc:	a2080000 	andge	r0, r8, #0
    38c0:	04000015 	streq	r0, [r0], #-21
    38c4:	01150005 	tsteq	r5, r5
    38c8:	11090000 	mrsne	r0, (UNDEF: 9)
    38cc:	ee000016 	mcr	0, 0, r0, cr0, cr6, {0}
    38d0:	02000000 	andeq	r0, r0, #0
    38d4:	00010023 	andeq	r0, r1, r3, lsr #32
    38d8:	0015a403 	andseq	sl, r5, r3, lsl #8
    38dc:	f0660300 			; <UNDEFINED> instruction: 0xf0660300
    38e0:	0a000000 	beq	38e8 <__bss_end+0x370>
    38e4:	0000165f 	andeq	r1, r0, pc, asr r6
    38e8:	5e015b01 	vmlapl.f64	d5, d1, d1
    38ec:	01000001 	tsteq	r0, r1
    38f0:	0000015e 	andeq	r0, r0, lr, asr r1
    38f4:	0016320b 	andseq	r3, r6, fp, lsl #4
    38f8:	5e5b0100 	rdfple	f0, f3, f0
    38fc:	0c000001 	stceq	0, cr0, [r0], {1}
    3900:	00637273 	rsbeq	r7, r3, r3, ror r2
    3904:	01645b01 	cmneq	r4, r1, lsl #22
    3908:	6f0b0000 	svcvs	0x000b0000
    390c:	01000010 	tsteq	r0, r0, lsl r0
    3910:	0000685b 	andeq	r6, r0, fp, asr r8
    3914:	6d740d00 	ldclvs	13, cr0, [r4, #-0]
    3918:	5d010070 	stcpl	0, cr0, [r1, #-448]	; 0xfffffe40
    391c:	0000015e 	andeq	r0, r0, lr, asr r1
    3920:	e0040e00 	and	r0, r4, r0, lsl #28
    3924:	0e000000 	cdpeq	0, 0, cr0, cr0, cr0, {0}
    3928:	00016a04 	andeq	r6, r1, r4, lsl #20
    392c:	00e00f00 	rsceq	r0, r0, r0, lsl #30
    3930:	160a0000 	strne	r0, [sl], -r0
    3934:	01000016 	tsteq	r0, r6, lsl r0
    3938:	0068011d 	rsbeq	r0, r8, sp, lsl r1
    393c:	94010000 	strls	r0, [r1], #-0
    3940:	0c000001 	stceq	0, cr0, [r0], {1}
    3944:	1d010073 	stcne	0, cr0, [r1, #-460]	; 0xfffffe34
    3948:	00000164 	andeq	r0, r0, r4, ror #2
    394c:	0063730d 	rsbeq	r7, r3, sp, lsl #6
    3950:	01641f01 	cmneq	r4, r1, lsl #30
    3954:	0a000000 	beq	395c <__bss_end+0x3e4>
    3958:	0000162a 	andeq	r1, r0, sl, lsr #12
    395c:	5e012e01 	cdppl	14, 0, cr2, cr1, cr1, {0}
    3960:	01000001 	tsteq	r0, r1
    3964:	000001c7 	andeq	r0, r0, r7, asr #3
    3968:	0016320b 	andseq	r3, r6, fp, lsl #4
    396c:	5e2e0100 	sufple	f0, f6, f0
    3970:	0c000001 	stceq	0, cr0, [r0], {1}
    3974:	00637273 	rsbeq	r7, r3, r3, ror r2
    3978:	01642e01 	cmneq	r4, r1, lsl #28
    397c:	740d0000 	strvc	r0, [sp], #-0
    3980:	0100706d 	tsteq	r0, sp, rrx
    3984:	00015e30 	andeq	r5, r1, r0, lsr lr
    3988:	cc0a0000 	stcgt	0, cr0, [sl], {-0}
    398c:	01000015 	tsteq	r0, r5, lsl r0
    3990:	015e019f 			; <UNDEFINED> instruction: 0x015e019f
    3994:	2d010000 	stccs	0, cr0, [r1, #-0]
    3998:	0b000002 	bleq	39a8 <__bss_end+0x430>
    399c:	0000132d 	andeq	r1, r0, sp, lsr #6
    39a0:	004c9f01 	subeq	r9, ip, r1, lsl #30
    39a4:	230b0000 	movwcs	r0, #45056	; 0xb000
    39a8:	01000016 	tsteq	r0, r6, lsl r0
    39ac:	00015e9f 	muleq	r1, pc, lr	; <UNPREDICTABLE>
    39b0:	160b0b00 	strne	r0, [fp], -r0, lsl #22
    39b4:	9f010000 	svcls	0x00010000
    39b8:	0000004c 	andeq	r0, r0, ip, asr #32
    39bc:	00160010 	andseq	r0, r6, r0, lsl r0
    39c0:	2da10100 	stfcss	f0, [r1]
    39c4:	10000002 	andne	r0, r0, r2
    39c8:	000015bc 			; <UNDEFINED> instruction: 0x000015bc
    39cc:	004ca201 	subeq	sl, ip, r1, lsl #4
    39d0:	690d0000 	stmdbvs	sp, {}	; <UNPREDICTABLE>
    39d4:	4ca30100 	stfmis	f0, [r3]
    39d8:	0d000000 	stceq	0, cr0, [r0, #-0]
    39dc:	a401006a 	strge	r0, [r1], #-106	; 0x6a
    39e0:	0000004c 	andeq	r0, r0, ip, asr #32
    39e4:	00161d10 	andseq	r1, r6, r0, lsl sp
    39e8:	3da50100 	stfccs	f0, [r5]
    39ec:	00000002 	andeq	r0, r0, r2
    39f0:	0000e011 	andeq	lr, r0, r1, lsl r0
    39f4:	00023d00 	andeq	r3, r2, r0, lsl #26
    39f8:	00531200 	subseq	r1, r3, r0, lsl #4
    39fc:	000f0000 	andeq	r0, pc, r0
    3a00:	0000e011 	andeq	lr, r0, r1, lsl r0
    3a04:	00024d00 	andeq	r4, r2, r0, lsl #26
    3a08:	00531200 	subseq	r1, r3, r0, lsl #4
    3a0c:	00100000 	andseq	r0, r0, r0
    3a10:	00158213 	andseq	r8, r5, r3, lsl r2
    3a14:	01ce0100 	biceq	r0, lr, r0, lsl #2
    3a18:	0000015e 	andeq	r0, r0, lr, asr r1
    3a1c:	00001c28 	andeq	r1, r0, r8, lsr #24
    3a20:	00001ce4 	andeq	r1, r0, r4, ror #25
    3a24:	00000bfb 	strdeq	r0, [r0], -fp
    3a28:	000002ce 	andeq	r0, r0, lr, asr #5
    3a2c:	00132d14 	andseq	r2, r3, r4, lsl sp
    3a30:	53ce0100 	bicpl	r0, lr, #0
    3a34:	28000000 	stmdacs	r0, {}	; <UNPREDICTABLE>
    3a38:	1400000c 	strne	r0, [r0], #-12
    3a3c:	00001623 	andeq	r1, r0, r3, lsr #12
    3a40:	015ece01 	cmpeq	lr, r1, lsl #28
    3a44:	0c5c0000 	mraeq	r0, ip, acc0
    3a48:	0b140000 	bleq	503a50 <__bss_end+0x5004d8>
    3a4c:	01000016 	tsteq	r0, r6, lsl r0
    3a50:	00004cce 	andeq	r4, r0, lr, asr #25
    3a54:	000c7a00 	andeq	r7, ip, r0, lsl #20
    3a58:	16001500 	strne	r1, [r0], -r0, lsl #10
    3a5c:	d0010000 	andle	r0, r1, r0
    3a60:	0000022d 	andeq	r0, r0, sp, lsr #4
    3a64:	16509102 	ldrbne	r9, [r0], -r2, lsl #2
    3a68:	d1010069 	tstle	r1, r9, rrx
    3a6c:	0000004c 	andeq	r0, r0, ip, asr #32
    3a70:	00000c98 	muleq	r0, r8, ip
    3a74:	01006a16 	tsteq	r0, r6, lsl sl
    3a78:	00004cd2 	ldrdeq	r4, [r0], -r2
    3a7c:	000cc100 	andeq	ip, ip, r0, lsl #2
    3a80:	161d1500 	ldrne	r1, [sp], -r0, lsl #10
    3a84:	d3010000 	movwle	r0, #4096	; 0x1000
    3a88:	0000023d 	andeq	r0, r0, sp, lsr r2
    3a8c:	7fbc9103 	svcvc	0x00bc9103
    3a90:	16371700 	ldrtne	r1, [r7], -r0, lsl #14
    3a94:	6a010000 	bvs	43a9c <__bss_end+0x40524>
    3a98:	00410101 	subeq	r0, r1, r1, lsl #2
    3a9c:	1ce40000 	stclne	0, cr0, [r4]
    3aa0:	1d8c0000 	stcne	0, cr0, [ip]
    3aa4:	0cd50000 	ldcleq	0, cr0, [r5], {0}
    3aa8:	03660000 	cmneq	r6, #0
    3aac:	23180000 	tstcs	r8, #0
    3ab0:	01000016 	tsteq	r0, r6, lsl r0
    3ab4:	015e016a 	cmpeq	lr, sl, ror #2
    3ab8:	0d010000 	stceq	0, cr0, [r1, #-0]
    3abc:	6c190000 	ldcvs	0, cr0, [r9], {-0}
    3ac0:	01006e65 	tsteq	r0, r5, ror #28
    3ac4:	0041016a 	subeq	r0, r1, sl, ror #2
    3ac8:	0d1f0000 	ldceq	0, cr0, [pc, #-0]	; 3ad0 <__bss_end+0x558>
    3acc:	3d180000 	ldccc	0, cr0, [r8, #-0]
    3ad0:	01000016 	tsteq	r0, r6, lsl r0
    3ad4:	0041016a 	subeq	r0, r1, sl, ror #2
    3ad8:	0d3d0000 	ldceq	0, cr0, [sp, #-0]
    3adc:	9a1a0000 	bls	683ae4 <__bss_end+0x68056c>
    3ae0:	01000015 	tsteq	r0, r5, lsl r0
    3ae4:	023d016e 	eorseq	r0, sp, #-2147483621	; 0x8000001b
    3ae8:	91020000 	mrsls	r0, (UNDEF: 2)
    3aec:	01201b5c 	teqeq	r0, ip, asr fp
    3af0:	1d200000 	stcne	0, cr0, [r0, #-0]
    3af4:	01280000 	teqeq	r8, r0
    3af8:	72010000 	andvc	r0, r1, #0
    3afc:	01471c01 	cmpeq	r7, r1, lsl #24
    3b00:	0d5b0000 	ldcleq	0, cr0, [fp, #-0]
    3b04:	3c1c0000 	ldccc	0, cr0, [ip], {-0}
    3b08:	91000001 	tstls	r0, r1
    3b0c:	1c00000d 	stcne	0, cr0, [r0], {13}
    3b10:	00000131 	andeq	r0, r0, r1, lsr r1
    3b14:	00000db3 			; <UNDEFINED> instruction: 0x00000db3
    3b18:	0001401d 	andeq	r4, r1, sp, lsl r0
    3b1c:	01521e00 	cmpeq	r2, r0, lsl #28
    3b20:	0e130000 	cdpeq	0, 1, cr0, cr3, cr0, {0}
    3b24:	00000000 	andeq	r0, r0, r0
    3b28:	01c71f00 	biceq	r1, r7, r0, lsl #30
    3b2c:	1d8c0000 	stcne	0, cr0, [ip]
    3b30:	1e740000 	cdpne	0, 7, cr0, cr4, cr0, {0}
    3b34:	0e260000 	cdpeq	0, 2, cr0, cr6, cr0, {0}
    3b38:	03bf0000 			; <UNDEFINED> instruction: 0x03bf0000
    3b3c:	d81c0000 	ldmdale	ip, {}	; <UNPREDICTABLE>
    3b40:	53000001 	movwpl	r0, #1
    3b44:	1c00000e 	stcne	0, cr0, [r0], {14}
    3b48:	000001e3 	andeq	r0, r0, r3, ror #3
    3b4c:	00000e87 	andeq	r0, r0, r7, lsl #29
    3b50:	0001f920 	andeq	pc, r1, r0, lsr #18
    3b54:	58910200 	ldmpl	r1, {r9}
    3b58:	0002041e 	andeq	r0, r2, lr, lsl r4
    3b5c:	000ea500 	andeq	sl, lr, r0, lsl #10
    3b60:	020f1e00 	andeq	r1, pc, #0
    3b64:	0ed00000 	cdpeq	0, 13, cr0, cr0, cr0, {0}
    3b68:	181e0000 	ldmdane	lr, {}	; <UNPREDICTABLE>
    3b6c:	05000002 	streq	r0, [r0, #-2]
    3b70:	2000000f 	andcs	r0, r0, pc
    3b74:	00000221 	andeq	r0, r0, r1, lsr #4
    3b78:	21449102 	cmpcs	r4, r2, lsl #2
    3b7c:	000001ee 	andeq	r0, r0, lr, ror #3
    3b80:	0122000a 	teqeq	r2, sl
    3b84:	000015c5 	andeq	r1, r0, r5, asr #11
    3b88:	01010401 	tsteq	r1, r1, lsl #8
    3b8c:	00000041 	andeq	r0, r0, r1, asr #32
    3b90:	00001e74 	andeq	r1, r0, r4, ror lr
    3b94:	00002144 	andeq	r2, r0, r4, asr #2
    3b98:	00000f24 	andeq	r0, r0, r4, lsr #30
    3b9c:	000005f0 	strdeq	r0, [r0], -r0	; <UNPREDICTABLE>
    3ba0:	00159318 	andseq	r9, r5, r8, lsl r3
    3ba4:	01040100 	mrseq	r0, (UNDEF: 20)
    3ba8:	00000164 	andeq	r0, r0, r4, ror #2
    3bac:	00000f5d 	andeq	r0, r0, sp, asr pc
    3bb0:	16061a23 	strne	r1, [r6], -r3, lsr #20
    3bb4:	06010000 	streq	r0, [r1], -r0
    3bb8:	00011501 	andeq	r1, r1, r1, lsl #10
    3bbc:	4c910200 	lfmmi	f0, 4, [r1], {0}
    3bc0:	0016231a 	andseq	r2, r6, sl, lsl r3
    3bc4:	01070100 	mrseq	r0, (UNDEF: 23)
    3bc8:	0000022d 	andeq	r0, r0, sp, lsr #4
    3bcc:	7fbc9103 	svcvc	0x00bc9103
    3bd0:	00163124 	andseq	r3, r6, r4, lsr #2
    3bd4:	01080100 	mrseq	r0, (UNDEF: 24)
    3bd8:	0000015e 	andeq	r0, r0, lr, asr r1
    3bdc:	00000fa0 	andeq	r0, r0, r0, lsr #31
    3be0:	00158e24 	andseq	r8, r5, r4, lsr #28
    3be4:	01090100 	mrseq	r0, (UNDEF: 25)
    3be8:	0000015e 	andeq	r0, r0, lr, asr r1
    3bec:	00001012 	andeq	r1, r0, r2, lsl r0
    3bf0:	00163d24 	andseq	r3, r6, r4, lsr #26
    3bf4:	010a0100 	mrseq	r0, (UNDEF: 26)
    3bf8:	00000041 	andeq	r0, r0, r1, asr #32
    3bfc:	00001028 	andeq	r1, r0, r8, lsr #32
    3c00:	6e656c25 	cdpvs	12, 6, cr6, cr5, cr5, {1}
    3c04:	010b0100 	mrseq	r0, (UNDEF: 27)
    3c08:	00000041 	andeq	r0, r0, r1, asr #32
    3c0c:	00001046 	andeq	r1, r0, r6, asr #32
    3c10:	00016f26 	andeq	r6, r1, r6, lsr #30
    3c14:	001f9400 	andseq	r9, pc, r0, lsl #8
    3c18:	001fb400 	andseq	fp, pc, r0, lsl #8
    3c1c:	013c0100 	teqeq	ip, r0, lsl #2
    3c20:	0000047e 	andeq	r0, r0, lr, ror r4
    3c24:	0001801c 	andeq	r8, r1, ip, lsl r0
    3c28:	00109c00 	andseq	r9, r0, r0, lsl #24
    3c2c:	1f942700 	svcne	0x00942700
    3c30:	1fb40000 	svcne	0x00b40000
    3c34:	891e0000 	ldmdbhi	lr, {}	; <UNPREDICTABLE>
    3c38:	af000001 	svcge	0x00000001
    3c3c:	00000010 	andeq	r0, r0, r0, lsl r0
    3c40:	01942600 	orrseq	r2, r4, r0, lsl #12
    3c44:	1fd00000 	svcne	0x00d00000
    3c48:	1fe00000 	svcne	0x00e00000
    3c4c:	3e010000 	cdpcc	0, 0, cr0, cr1, cr0, {0}
    3c50:	0004b801 	andeq	fp, r4, r1, lsl #16
    3c54:	01b01c00 	lslseq	r1, r0, #24
    3c58:	10da0000 	sbcsne	r0, sl, r0
    3c5c:	a51c0000 	ldrge	r0, [ip, #-0]
    3c60:	ed000001 	stc	0, cr0, [r0, #-4]
    3c64:	27000010 	smladcs	r0, r0, r0, r0
    3c68:	00001fd0 	ldrdeq	r1, [r0], -r0
    3c6c:	00001fe0 	andeq	r1, r0, r0, ror #31
    3c70:	0001bb1e 	andeq	fp, r1, lr, lsl fp
    3c74:	00110b00 	andseq	r0, r1, r0, lsl #22
    3c78:	26000000 	strcs	r0, [r0], -r0
    3c7c:	00000194 	muleq	r0, r4, r1
    3c80:	00002000 	andeq	r2, r0, r0
    3c84:	00002010 	andeq	r2, r0, r0, lsl r0
    3c88:	f2014c01 			; <UNDEFINED> instruction: 0xf2014c01
    3c8c:	1c000004 	stcne	0, cr0, [r0], {4}
    3c90:	000001b0 			; <UNDEFINED> instruction: 0x000001b0
    3c94:	0000111e 	andeq	r1, r0, lr, lsl r1
    3c98:	0001a51c 	andeq	sl, r1, ip, lsl r5
    3c9c:	00113400 	andseq	r3, r1, r0, lsl #8
    3ca0:	20002700 	andcs	r2, r0, r0, lsl #14
    3ca4:	20100000 	andscs	r0, r0, r0
    3ca8:	bb1e0000 	bllt	783cb0 <__bss_end+0x780738>
    3cac:	52000001 	andpl	r0, r0, #1
    3cb0:	00000011 	andeq	r0, r0, r1, lsl r0
    3cb4:	016f2600 	cmneq	pc, r0, lsl #12
    3cb8:	20100000 	andscs	r0, r0, r0
    3cbc:	20300000 	eorscs	r0, r0, r0
    3cc0:	4d010000 	stcmi	0, cr0, [r1, #-0]
    3cc4:	00051f01 	andeq	r1, r5, r1, lsl #30
    3cc8:	01802800 	orreq	r2, r0, r0, lsl #16
    3ccc:	10270000 	eorne	r0, r7, r0
    3cd0:	30000020 	andcc	r0, r0, r0, lsr #32
    3cd4:	1e000020 	cdpne	0, 0, cr0, cr0, cr0, {1}
    3cd8:	00000189 	andeq	r0, r0, r9, lsl #3
    3cdc:	00001165 	andeq	r1, r0, r5, ror #2
    3ce0:	6f260000 	svcvs	0x00260000
    3ce4:	54000001 	strpl	r0, [r0], #-1
    3ce8:	74000020 	strvc	r0, [r0], #-32
    3cec:	01000020 	tsteq	r0, r0, lsr #32
    3cf0:	05500132 	ldrbeq	r0, [r0, #-306]	; 0x132
    3cf4:	801c0000 	andshi	r0, ip, r0
    3cf8:	93000001 	movwls	r0, #1
    3cfc:	27000011 	smladcs	r0, r1, r0, r0
    3d00:	00002054 	andeq	r2, r0, r4, asr r0
    3d04:	00002074 	andeq	r2, r0, r4, ror r0
    3d08:	0001891e 	andeq	r8, r1, lr, lsl r9
    3d0c:	0011a600 	andseq	sl, r1, r0, lsl #12
    3d10:	26000000 	strcs	r0, [r0], -r0
    3d14:	00000194 	muleq	r0, r4, r1
    3d18:	00002090 	muleq	r0, r0, r0
    3d1c:	000020a0 	andeq	r2, r0, r0, lsr #1
    3d20:	8a013401 	bhi	50d2c <__bss_end+0x4d7b4>
    3d24:	1c000005 	stcne	0, cr0, [r0], {5}
    3d28:	000001b0 			; <UNDEFINED> instruction: 0x000001b0
    3d2c:	000011d1 	ldrdeq	r1, [r0], -r1	; <UNPREDICTABLE>
    3d30:	0001a51c 	andeq	sl, r1, ip, lsl r5
    3d34:	0011e400 	andseq	lr, r1, r0, lsl #8
    3d38:	20902700 	addscs	r2, r0, r0, lsl #14
    3d3c:	20a00000 	adccs	r0, r0, r0
    3d40:	bb1e0000 	bllt	783d48 <__bss_end+0x7807d0>
    3d44:	02000001 	andeq	r0, r0, #1
    3d48:	00000012 	andeq	r0, r0, r2, lsl r0
    3d4c:	016f2600 	cmneq	pc, r0, lsl #12
    3d50:	20ec0000 	rsccs	r0, ip, r0
    3d54:	210c0000 	mrscs	r0, (UNDEF: 12)
    3d58:	27010000 	strcs	r0, [r1, -r0]
    3d5c:	0005b901 	andeq	fp, r5, r1, lsl #18
    3d60:	01802900 	orreq	r2, r0, r0, lsl #18
    3d64:	56010000 	strpl	r0, [r1], -r0
    3d68:	0020ec27 	eoreq	lr, r0, r7, lsr #24
    3d6c:	00210c00 	eoreq	r0, r1, r0, lsl #24
    3d70:	01891e00 	orreq	r1, r9, r0, lsl #28
    3d74:	12150000 	andsne	r0, r5, #0
    3d78:	00000000 	andeq	r0, r0, r0
    3d7c:	0001942a 	andeq	r9, r1, sl, lsr #8
    3d80:	00212800 	eoreq	r2, r1, r0, lsl #16
    3d84:	00213800 	eoreq	r3, r1, r0, lsl #16
    3d88:	01290100 	teqeq	r9, r0, lsl #2
    3d8c:	0001b01c 	andeq	fp, r1, ip, lsl r0
    3d90:	00124000 	andseq	r4, r2, r0
    3d94:	01a51c00 			; <UNDEFINED> instruction: 0x01a51c00
    3d98:	12530000 	subsne	r0, r3, #0
    3d9c:	28270000 	stmdacs	r7!, {}	; <UNPREDICTABLE>
    3da0:	38000021 	stmdacc	r0, {r0, r5}
    3da4:	1e000021 	cdpne	0, 0, cr0, cr0, cr1, {1}
    3da8:	000001bb 			; <UNDEFINED> instruction: 0x000001bb
    3dac:	00001271 	andeq	r1, r0, r1, ror r2
    3db0:	22000000 	andcs	r0, r0, #0
    3db4:	00164301 	andseq	r4, r6, r1, lsl #6
    3db8:	01790100 	cmneq	r9, r0, lsl #2
    3dbc:	00004101 	andeq	r4, r0, r1, lsl #2
    3dc0:	00214400 	eoreq	r4, r1, r0, lsl #8
    3dc4:	00241400 	eoreq	r1, r4, r0, lsl #8
    3dc8:	00128400 	andseq	r8, r2, r0, lsl #8
    3dcc:	00082100 	andeq	r2, r8, r0, lsl #2
    3dd0:	15931800 	ldrne	r1, [r3, #2048]	; 0x800
    3dd4:	79010000 	stmdbvc	r1, {}	; <UNPREDICTABLE>
    3dd8:	00016401 	andeq	r6, r1, r1, lsl #8
    3ddc:	0012bd00 	andseq	fp, r2, r0, lsl #26
    3de0:	061a2300 	ldreq	r2, [sl], -r0, lsl #6
    3de4:	01000016 	tsteq	r0, r6, lsl r0
    3de8:	0115017b 	tsteq	r5, fp, ror r1
    3dec:	91020000 	mrsls	r0, (UNDEF: 2)
    3df0:	16231a4c 	strtne	r1, [r3], -ip, asr #20
    3df4:	7c010000 	stcvc	0, cr0, [r1], {-0}
    3df8:	00022d01 	andeq	r2, r2, r1, lsl #26
    3dfc:	bc910300 	ldclt	3, cr0, [r1], {0}
    3e00:	1631247f 			; <UNDEFINED> instruction: 0x1631247f
    3e04:	7d010000 	stcvc	0, cr0, [r1, #-0]
    3e08:	00015e01 	andeq	r5, r1, r1, lsl #28
    3e0c:	00130000 	andseq	r0, r3, r0
    3e10:	158e2400 	strne	r2, [lr, #1024]	; 0x400
    3e14:	7e010000 	cdpvc	0, 0, cr0, cr1, cr0, {0}
    3e18:	00015e01 	andeq	r5, r1, r1, lsl #28
    3e1c:	00137200 	andseq	r7, r3, r0, lsl #4
    3e20:	163d2400 	ldrtne	r2, [sp], -r0, lsl #8
    3e24:	7f010000 	svcvc	0x00010000
    3e28:	00004101 	andeq	r4, r0, r1, lsl #2
    3e2c:	00138800 	andseq	r8, r3, r0, lsl #16
    3e30:	656c2500 	strbvs	r2, [ip, #-1280]!	; 0x500
    3e34:	8001006e 	andhi	r0, r1, lr, rrx
    3e38:	00004101 	andeq	r4, r0, r1, lsl #2
    3e3c:	0013a600 	andseq	sl, r3, r0, lsl #12
    3e40:	016f2600 	cmneq	pc, r0, lsl #12
    3e44:	22640000 	rsbcs	r0, r4, #0
    3e48:	22840000 	addcs	r0, r4, #0
    3e4c:	b1010000 	mrslt	r0, (UNDEF: 1)
    3e50:	0006af01 	andeq	sl, r6, r1, lsl #30
    3e54:	01801c00 	orreq	r1, r0, r0, lsl #24
    3e58:	13fc0000 	mvnsne	r0, #0
    3e5c:	64270000 	strtvs	r0, [r7], #-0
    3e60:	84000022 	strhi	r0, [r0], #-34	; 0x22
    3e64:	1e000022 	cdpne	0, 0, cr0, cr0, cr2, {1}
    3e68:	00000189 	andeq	r0, r0, r9, lsl #3
    3e6c:	0000140f 	andeq	r1, r0, pc, lsl #8
    3e70:	94260000 	strtls	r0, [r6], #-0
    3e74:	a0000001 	andge	r0, r0, r1
    3e78:	b0000022 	andlt	r0, r0, r2, lsr #32
    3e7c:	01000022 	tsteq	r0, r2, lsr #32
    3e80:	06e901b3 			; <UNDEFINED> instruction: 0x06e901b3
    3e84:	b01c0000 	andslt	r0, ip, r0
    3e88:	3a000001 	bcc	3e94 <__bss_end+0x91c>
    3e8c:	1c000014 	stcne	0, cr0, [r0], {20}
    3e90:	000001a5 	andeq	r0, r0, r5, lsr #3
    3e94:	0000144d 	andeq	r1, r0, sp, asr #8
    3e98:	0022a027 	eoreq	sl, r2, r7, lsr #32
    3e9c:	0022b000 	eoreq	fp, r2, r0
    3ea0:	01bb1e00 			; <UNDEFINED> instruction: 0x01bb1e00
    3ea4:	146b0000 	strbtne	r0, [fp], #-0
    3ea8:	00000000 	andeq	r0, r0, r0
    3eac:	00019426 	andeq	r9, r1, r6, lsr #8
    3eb0:	0022d000 	eoreq	sp, r2, r0
    3eb4:	0022e000 	eoreq	lr, r2, r0
    3eb8:	01c10100 	biceq	r0, r1, r0, lsl #2
    3ebc:	00000723 	andeq	r0, r0, r3, lsr #14
    3ec0:	0001b01c 	andeq	fp, r1, ip, lsl r0
    3ec4:	00147e00 	andseq	r7, r4, r0, lsl #28
    3ec8:	01a51c00 			; <UNDEFINED> instruction: 0x01a51c00
    3ecc:	14940000 	ldrne	r0, [r4], #0
    3ed0:	d0270000 	eorle	r0, r7, r0
    3ed4:	e0000022 	and	r0, r0, r2, lsr #32
    3ed8:	1e000022 	cdpne	0, 0, cr0, cr0, cr2, {1}
    3edc:	000001bb 			; <UNDEFINED> instruction: 0x000001bb
    3ee0:	000014b2 			; <UNDEFINED> instruction: 0x000014b2
    3ee4:	6f260000 	svcvs	0x00260000
    3ee8:	e0000001 	and	r0, r0, r1
    3eec:	00000022 	andeq	r0, r0, r2, lsr #32
    3ef0:	01000023 	tsteq	r0, r3, lsr #32
    3ef4:	075001c2 	ldrbeq	r0, [r0, -r2, asr #3]
    3ef8:	80280000 	eorhi	r0, r8, r0
    3efc:	27000001 	strcs	r0, [r0, -r1]
    3f00:	000022e0 	andeq	r2, r0, r0, ror #5
    3f04:	00002300 	andeq	r2, r0, r0, lsl #6
    3f08:	0001891e 	andeq	r8, r1, lr, lsl r9
    3f0c:	0014c500 	andseq	ip, r4, r0, lsl #10
    3f10:	26000000 	strcs	r0, [r0], -r0
    3f14:	0000016f 	andeq	r0, r0, pc, ror #2
    3f18:	00002324 	andeq	r2, r0, r4, lsr #6
    3f1c:	00002344 	andeq	r2, r0, r4, asr #6
    3f20:	8101a701 	tsthi	r1, r1, lsl #14
    3f24:	1c000007 	stcne	0, cr0, [r0], {7}
    3f28:	00000180 	andeq	r0, r0, r0, lsl #3
    3f2c:	000014f3 	strdeq	r1, [r0], -r3
    3f30:	00232427 	eoreq	r2, r3, r7, lsr #8
    3f34:	00234400 	eoreq	r4, r3, r0, lsl #8
    3f38:	01891e00 	orreq	r1, r9, r0, lsl #28
    3f3c:	15060000 	strne	r0, [r6, #-0]
    3f40:	00000000 	andeq	r0, r0, r0
    3f44:	00019426 	andeq	r9, r1, r6, lsr #8
    3f48:	00236000 	eoreq	r6, r3, r0
    3f4c:	00237000 	eoreq	r7, r3, r0
    3f50:	01a90100 			; <UNDEFINED> instruction: 0x01a90100
    3f54:	000007bb 			; <UNDEFINED> instruction: 0x000007bb
    3f58:	0001b01c 	andeq	fp, r1, ip, lsl r0
    3f5c:	00153100 	andseq	r3, r5, r0, lsl #2
    3f60:	01a51c00 			; <UNDEFINED> instruction: 0x01a51c00
    3f64:	15440000 	strbne	r0, [r4, #-0]
    3f68:	60270000 	eorvs	r0, r7, r0
    3f6c:	70000023 	andvc	r0, r0, r3, lsr #32
    3f70:	1e000023 	cdpne	0, 0, cr0, cr0, cr3, {1}
    3f74:	000001bb 			; <UNDEFINED> instruction: 0x000001bb
    3f78:	00001562 	andeq	r1, r0, r2, ror #10
    3f7c:	6f260000 	svcvs	0x00260000
    3f80:	bc000001 	stclt	0, cr0, [r0], {1}
    3f84:	dc000023 	stcle	0, cr0, [r0], {35}	; 0x23
    3f88:	01000023 	tsteq	r0, r3, lsr #32
    3f8c:	07ea019c 			; <UNDEFINED> instruction: 0x07ea019c
    3f90:	80290000 	eorhi	r0, r9, r0
    3f94:	01000001 	tsteq	r0, r1
    3f98:	23bc2756 			; <UNDEFINED> instruction: 0x23bc2756
    3f9c:	23dc0000 	bicscs	r0, ip, #0
    3fa0:	891e0000 	ldmdbhi	lr, {}	; <UNPREDICTABLE>
    3fa4:	75000001 	strvc	r0, [r0, #-1]
    3fa8:	00000015 	andeq	r0, r0, r5, lsl r0
    3fac:	01942a00 	orrseq	r2, r4, r0, lsl #20
    3fb0:	23f80000 	mvnscs	r0, #0
    3fb4:	24080000 	strcs	r0, [r8], #-0
    3fb8:	9e010000 	cdpls	0, 0, cr0, cr1, cr0, {0}
    3fbc:	01b01c01 	lslseq	r1, r1, #24
    3fc0:	15a00000 	strne	r0, [r0, #0]!
    3fc4:	a51c0000 	ldrge	r0, [ip, #-0]
    3fc8:	b3000001 	movwlt	r0, #1
    3fcc:	27000015 	smladcs	r0, r5, r0, r0
    3fd0:	000023f8 	strdeq	r2, [r0], -r8
    3fd4:	00002408 	andeq	r2, r0, r8, lsl #8
    3fd8:	0001bb1e 	andeq	fp, r1, lr, lsl fp
    3fdc:	0015d100 	andseq	sp, r5, r0, lsl #2
    3fe0:	00000000 	andeq	r0, r0, r0
    3fe4:	0000e011 	andeq	lr, r0, r1, lsl r0
    3fe8:	00083100 	andeq	r3, r8, r0, lsl #2
    3fec:	00531200 	subseq	r1, r3, r0, lsl #4
    3ff0:	00ff0000 	rscseq	r0, pc, r0
    3ff4:	0015ac1a 	andseq	sl, r5, sl, lsl ip
    3ff8:	01030100 	mrseq	r0, (UNDEF: 19)
    3ffc:	00000821 	andeq	r0, r0, r1, lsr #16
    4000:	32700305 	rsbscc	r0, r0, #335544320	; 0x14000000
    4004:	77000000 	strvc	r0, [r0, -r0]
    4008:	02000000 	andeq	r0, r0, #0
    400c:	000e3c00 	andeq	r3, lr, r0, lsl #24
    4010:	9a010400 	bls	45018 <__bss_end+0x41aa0>
    4014:	1400000f 	strne	r0, [r0], #-15
    4018:	f0000024 			; <UNDEFINED> instruction: 0xf0000024
    401c:	61000025 	tstvs	r0, r5, lsr #32
    4020:	2f686372 	svccs	0x00686372
    4024:	2f6d7261 	svccs	0x006d7261
    4028:	6863616d 	stmdavs	r3!, {r0, r2, r3, r5, r6, r8, sp, lr}^
    402c:	6e75732d 	cdpvs	3, 7, cr7, cr5, cr13, {1}
    4030:	702f6978 	eorvc	r6, pc, r8, ror r9	; <UNPREDICTABLE>
    4034:	74732f6d 	ldrbtvc	r2, [r3], #-3949	; 0xf6d
    4038:	62646e61 	rsbvs	r6, r4, #1552	; 0x610
    403c:	2e2e2f79 	mcrcs	15, 1, r2, cr14, cr9, {3}
    4040:	6d656d2f 	stclvs	13, cr6, [r5, #-188]!	; 0xffffff44
    4044:	7669645f 			; <UNDEFINED> instruction: 0x7669645f
    4048:	2e62696c 	cdpcs	9, 6, cr6, cr2, cr12, {3}
    404c:	682f0053 	stmdavs	pc!, {r0, r1, r4, r6}	; <UNPREDICTABLE>
    4050:	2f656d6f 	svccs	0x00656d6f
    4054:	2f6d6f74 	svccs	0x006d6f74
    4058:	5f736274 	svcpl	0x00736274
    405c:	6c626174 	stfvse	f6, [r2], #-464	; 0xfffffe30
    4060:	6c2f7465 	cfstrsvs	mvf7, [pc], #-404	; 3ed4 <__bss_end+0x95c>
    4064:	65686369 	strbvs	r6, [r8, #-873]!	; 0x369
    4068:	696c2f65 	stmdbvs	ip!, {r0, r2, r5, r6, r8, r9, sl, fp, sp}^
    406c:	2d78756e 	cfldr64cs	mvdx7, [r8, #-440]!	; 0xfffffe48
    4070:	00342e33 	eorseq	r2, r4, r3, lsr lr
    4074:	20554e47 	subscs	r4, r5, r7, asr #28
    4078:	32205341 	eorcc	r5, r0, #67108865	; 0x4000001
    407c:	0032322e 	eorseq	r3, r2, lr, lsr #4
    4080:	00f68001 	rscseq	r8, r6, r1
    4084:	00020000 	andeq	r0, r2, r0
    4088:	00000e50 	andeq	r0, r0, r0, asr lr
    408c:	00460104 	subeq	r0, r6, r4, lsl #2
    4090:	a0010000 	andge	r0, r1, r0
    4094:	c1000016 	tstgt	r0, r6, lsl r0
    4098:	f0000000 			; <UNDEFINED> instruction: 0xf0000000
    409c:	48000025 	stmdami	r0, {r0, r2, r5}
    40a0:	47000026 	strmi	r0, [r0, -r6, lsr #32]
    40a4:	02000010 	andeq	r0, r0, #16
    40a8:	00810601 	addeq	r0, r1, r1, lsl #12
    40ac:	01020000 	mrseq	r0, (UNDEF: 2)
    40b0:	00007f08 	andeq	r7, r0, r8, lsl #30
    40b4:	05020200 	streq	r0, [r2, #-512]	; 0x200
    40b8:	000001b6 			; <UNDEFINED> instruction: 0x000001b6
    40bc:	a3070202 	movwge	r0, #29186	; 0x7202
    40c0:	03000000 	movweq	r0, #0
    40c4:	00000ff8 	strdeq	r0, [r0], -r8
    40c8:	004c1202 	subeq	r1, ip, r2, lsl #4
    40cc:	04040000 	streq	r0, [r4], #-0
    40d0:	746e6905 	strbtvc	r6, [lr], #-2309	; 0x905
    40d4:	08070300 	stmdaeq	r7, {r8, r9}
    40d8:	13020000 	movwne	r0, #8192	; 0x2000
    40dc:	0000005e 	andeq	r0, r0, lr, asr r0
    40e0:	4a070402 	bmi	1c50f0 <__bss_end+0x1c1b78>
    40e4:	02000001 	andeq	r0, r0, #1
    40e8:	01910508 	orrseq	r0, r1, r8, lsl #10
    40ec:	08020000 	stmdaeq	r2, {}	; <UNPREDICTABLE>
    40f0:	00014007 	andeq	r4, r1, r7
    40f4:	08010200 	stmdaeq	r1, {r9}
    40f8:	00000088 	andeq	r0, r0, r8, lsl #1
    40fc:	45070402 	strmi	r0, [r7, #-1026]	; 0x402
    4100:	05000001 	streq	r0, [r0, #-1]
    4104:	00167801 	andseq	r7, r6, r1, lsl #16
    4108:	01030100 	mrseq	r0, (UNDEF: 19)
    410c:	000025f0 	strdeq	r2, [r0], -r0
    4110:	000025fc 	strdeq	r2, [r0], -ip
    4114:	06007d02 	streq	r7, [r0], -r2, lsl #26
    4118:	00168c01 	andseq	r8, r6, r1, lsl #24
    411c:	01080100 	mrseq	r0, (UNDEF: 24)
    4120:	00000053 	andeq	r0, r0, r3, asr r0
    4124:	000025fc 	strdeq	r2, [r0], -ip
    4128:	00002648 	andeq	r2, r0, r8, asr #12
    412c:	07007d02 	streq	r7, [r0, -r2, lsl #26]
    4130:	00001683 	andeq	r1, r0, r3, lsl #13
    4134:	00530801 	subseq	r0, r3, r1, lsl #16
    4138:	15e40000 	strbne	r0, [r4, #0]!
    413c:	6f070000 	svcvs	0x00070000
    4140:	01000016 	tsteq	r0, r6, lsl r0
    4144:	00005308 	andeq	r5, r0, r8, lsl #6
    4148:	0015f700 	andseq	pc, r5, r0, lsl #14
    414c:	16990800 	ldrne	r0, [r9], r0, lsl #16
    4150:	0a010000 	beq	44158 <__bss_end+0x40be0>
    4154:	00000053 	andeq	r0, r0, r3, asr r0
    4158:	0000160a 	andeq	r1, r0, sl, lsl #12
    415c:	00166708 	andseq	r6, r6, r8, lsl #14
    4160:	530b0100 	movwpl	r0, #45312	; 0xb100
    4164:	42000000 	andmi	r0, r0, #0
    4168:	08000016 	stmdaeq	r0, {r1, r2, r4}
    416c:	000016d0 	ldrdeq	r1, [r0], -r0
    4170:	00410c01 	subeq	r0, r1, r1, lsl #24
    4174:	166c0000 	strbtne	r0, [ip], -r0
    4178:	00000000 	andeq	r0, r0, r0
    417c:	000002cd 	andeq	r0, r0, sp, asr #5
    4180:	0ed10002 	cdpeq	0, 13, cr0, cr1, cr2, {0}
    4184:	01040000 	mrseq	r0, (UNDEF: 4)
    4188:	00000046 	andeq	r0, r0, r6, asr #32
    418c:	0016ea01 	andseq	lr, r6, r1, lsl #20
    4190:	0000c100 	andeq	ip, r0, r0, lsl #2
    4194:	00264800 	eoreq	r4, r6, r0, lsl #16
    4198:	0027e400 	eoreq	lr, r7, r0, lsl #8
    419c:	0010cd00 	andseq	ip, r0, r0, lsl #26
    41a0:	06010200 	streq	r0, [r1], -r0, lsl #4
    41a4:	00000081 	andeq	r0, r0, r1, lsl #1
    41a8:	7f080102 	svcvc	0x00080102
    41ac:	02000000 	andeq	r0, r0, #0
    41b0:	01b60502 			; <UNDEFINED> instruction: 0x01b60502
    41b4:	02020000 	andeq	r0, r2, #0
    41b8:	0000a307 	andeq	sl, r0, r7, lsl #6
    41bc:	0ff80300 	svceq	0x00f80300
    41c0:	12020000 	andne	r0, r2, #0
    41c4:	0000004c 	andeq	r0, r0, ip, asr #32
    41c8:	69050404 	stmdbvs	r5, {r2, sl}
    41cc:	0300746e 	movweq	r7, #1134	; 0x46e
    41d0:	00000807 	andeq	r0, r0, r7, lsl #16
    41d4:	005e1302 	subseq	r1, lr, r2, lsl #6
    41d8:	04020000 	streq	r0, [r2], #-0
    41dc:	00014a07 	andeq	r4, r1, r7, lsl #20
    41e0:	05080200 	streq	r0, [r8, #-512]	; 0x200
    41e4:	00000191 	muleq	r0, r1, r1
    41e8:	40070802 	andmi	r0, r7, r2, lsl #16
    41ec:	05000001 	streq	r0, [r0, #-1]
    41f0:	00000053 	andeq	r0, r0, r3, asr r0
    41f4:	00178206 	andseq	r8, r7, r6, lsl #4
    41f8:	18030400 	stmdane	r3, {sl}
    41fc:	00000129 	andeq	r0, r0, r9, lsr #2
    4200:	0018cb07 	andseq	ip, r8, r7, lsl #22
    4204:	dd073200 	sfmle	f3, 4, [r7, #-0]
    4208:	33000018 	movwcc	r0, #24
    420c:	00175207 	andseq	r5, r7, r7, lsl #4
    4210:	5a070000 	bpl	1c4218 <__bss_end+0x1c0ca0>
    4214:	ca000018 	bgt	427c <__bss_end+0xd04>
    4218:	18a70700 	stmiane	r7!, {r8, r9, sl}
    421c:	00c00000 	sbceq	r0, r0, r0
    4220:	00192407 	andseq	r2, r9, r7, lsl #8
    4224:	0700d100 	streq	sp, [r0, -r0, lsl #2]
    4228:	0000193e 	andeq	r1, r0, lr, lsr r9
    422c:	19060700 	stmdbne	r6, {r8, r9, sl}
    4230:	07000000 	streq	r0, [r0, -r0]
    4234:	00001915 	andeq	r1, r0, r5, lsl r9
    4238:	183f0700 	ldmdane	pc!, {r8, r9, sl}	; <UNPREDICTABLE>
    423c:	00e70000 	rsceq	r0, r7, r0
    4240:	00171607 	andseq	r1, r7, r7, lsl #12
    4244:	0700e800 	streq	lr, [r0, -r0, lsl #16]
    4248:	0000172a 	andeq	r1, r0, sl, lsr #14
    424c:	3e0700ea 	cdpcc	0, 0, cr0, cr7, cr10, {7}
    4250:	00000017 	andeq	r0, r0, r7, lsl r0
    4254:	00186b07 	andseq	r6, r8, r7, lsl #22
    4258:	0700e900 	streq	lr, [r0, -r0, lsl #18]
    425c:	0000187f 	andeq	r1, r0, pc, ror r8
    4260:	18930700 	ldmne	r3, {r8, r9, sl}
    4264:	07000000 	streq	r0, [r0, -r0]
    4268:	00001795 	muleq	r0, r5, r7
    426c:	17a60700 	strne	r0, [r6, r0, lsl #14]!
    4270:	072f0000 	streq	r0, [pc, -r0]!
    4274:	000017b7 			; <UNDEFINED> instruction: 0x000017b7
    4278:	17c80700 	strbne	r0, [r8, r0, lsl #14]
    427c:	07000000 	streq	r0, [r0, -r0]
    4280:	000017d9 	ldrdeq	r1, [r0], -r9
    4284:	17ea0700 	strbne	r0, [sl, r0, lsl #14]!
    4288:	07000000 	streq	r0, [r0, -r0]
    428c:	000017fb 	strdeq	r1, [r0], -fp
    4290:	180c0731 	stmdane	ip, {r0, r4, r5, r8, r9, sl}
    4294:	01840000 	orreq	r0, r4, r0
    4298:	00181d07 	andseq	r1, r8, r7, lsl #26
    429c:	2e070000 	cdpcs	0, 0, cr0, cr7, cr0, {0}
    42a0:	00000018 	andeq	r0, r0, r8, lsl r0
    42a4:	016d0600 	cmneq	sp, r0, lsl #12
    42a8:	04040000 	streq	r0, [r4], #-0
    42ac:	0001967a 	andeq	r9, r1, sl, ror r6
    42b0:	001e0700 	andseq	r0, lr, r0, lsl #14
    42b4:	07000000 	streq	r0, [r0, -r0]
    42b8:	00000096 	muleq	r0, r6, r0
    42bc:	00390701 	eorseq	r0, r9, r1, lsl #14
    42c0:	07020000 	streq	r0, [r2, -r0]
    42c4:	00000073 	andeq	r0, r0, r3, ror r0
    42c8:	019f0703 	orrseq	r0, pc, r3, lsl #14
    42cc:	07040000 	streq	r0, [r4, -r0]
    42d0:	00000134 	andeq	r0, r0, r4, lsr r1
    42d4:	011c0705 	tsteq	ip, r5, lsl #14
    42d8:	07060000 	streq	r0, [r6, -r0]
    42dc:	00000157 	andeq	r0, r0, r7, asr r1
    42e0:	00120707 	andseq	r0, r2, r7, lsl #14
    42e4:	07080000 	streq	r0, [r8, -r0]
    42e8:	00000068 	andeq	r0, r0, r8, rrx
    42ec:	01290709 	teqeq	r9, r9, lsl #14
    42f0:	070a0000 	streq	r0, [sl, -r0]
    42f4:	000001ab 	andeq	r0, r0, fp, lsr #3
    42f8:	0167070b 	cmneq	r7, fp, lsl #14
    42fc:	070c0000 	streq	r0, [ip, -r0]
    4300:	00000183 	andeq	r0, r0, r3, lsl #3
    4304:	0230070d 	eorseq	r0, r0, #3407872	; 0x340000
    4308:	070e0000 	streq	r0, [lr, -r0]
    430c:	0000002b 	andeq	r0, r0, fp, lsr #32
    4310:	0102000f 	tsteq	r2, pc
    4314:	00008808 	andeq	r8, r0, r8, lsl #16
    4318:	07040200 	streq	r0, [r4, -r0, lsl #4]
    431c:	00000145 	andeq	r0, r0, r5, asr #2
    4320:	01090408 	tsteq	r9, r8, lsl #8
    4324:	00001766 	andeq	r1, r0, r6, ror #14
    4328:	41012201 	tstmi	r1, r1, lsl #4
    432c:	48000000 	stmdami	r0, {}	; <UNPREDICTABLE>
    4330:	d8000026 	stmdale	r0, {r1, r2, r5}
    4334:	96000026 	strls	r0, [r0], -r6, lsr #32
    4338:	d1000016 	tstle	r0, r6, lsl r0
    433c:	0a000001 	beq	4348 <__bss_end+0xdd0>
    4340:	24010069 	strcs	r0, [r1], #-105	; 0x69
    4344:	00000053 	andeq	r0, r0, r3, asr r0
    4348:	000016b6 			; <UNDEFINED> instruction: 0x000016b6
    434c:	dd010900 	stcle	9, cr0, [r1, #-0]
    4350:	01000016 	tsteq	r0, r6, lsl r0
    4354:	00410157 	subeq	r0, r1, r7, asr r1
    4358:	26d80000 	ldrbcs	r0, [r8], r0
    435c:	272c0000 	strcs	r0, [ip, -r0]!
    4360:	16d50000 	ldrbne	r0, [r5], r0
    4364:	020b0000 	andeq	r0, fp, #0
    4368:	690a0000 	stmdbvs	sl, {}	; <UNPREDICTABLE>
    436c:	4c590100 	ldfmie	f0, [r9], {-0}
    4370:	f5000000 			; <UNDEFINED> instruction: 0xf5000000
    4374:	0b000016 	bleq	43d4 <__bss_end+0xe5c>
    4378:	000018b9 			; <UNDEFINED> instruction: 0x000018b9
    437c:	00735a01 	rsbseq	r5, r3, r1, lsl #20
    4380:	17140000 	ldrne	r0, [r4, -r0]
    4384:	0c000000 	stceq	0, cr0, [r0], {-0}
    4388:	00177301 	andseq	r7, r7, r1, lsl #6
    438c:	01710100 	cmneq	r1, r0, lsl #2
    4390:	00000041 	andeq	r0, r0, r1, asr #32
    4394:	0000272c 	andeq	r2, r0, ip, lsr #14
    4398:	00002788 	andeq	r2, r0, r8, lsl #15
    439c:	55007d02 	strpl	r7, [r0, #-3330]	; 0xd02
    43a0:	0d000002 	stceq	0, cr0, [r0, #-8]
    43a4:	00637273 	rsbeq	r7, r3, r3, ror r2
    43a8:	00787101 	rsbseq	r7, r8, r1, lsl #2
    43ac:	173f0000 	ldrne	r0, [pc, -r0]!
    43b0:	370b0000 	strcc	r0, [fp, -r0]
    43b4:	01000019 	tsteq	r0, r9, lsl r0
    43b8:	00005373 	andeq	r5, r0, r3, ror r3
    43bc:	00175d00 	andseq	r5, r7, r0, lsl #26
    43c0:	18c40b00 	stmiane	r4, {r8, r9, fp}^
    43c4:	74010000 	strvc	r0, [r1], #-0
    43c8:	00000053 	andeq	r0, r0, r3, asr r0
    43cc:	00001790 	muleq	r0, r0, r7
    43d0:	f8010c00 			; <UNDEFINED> instruction: 0xf8010c00
    43d4:	01000018 	tsteq	r0, r8, lsl r0
    43d8:	00410193 	umaaleq	r0, r1, r3, r1
    43dc:	27880000 	strcs	r0, [r8, r0]
    43e0:	27e40000 	strbcs	r0, [r4, r0]!
    43e4:	7d020000 	stcvc	0, cr0, [r2, #-0]
    43e8:	0002ae00 	andeq	sl, r2, r0, lsl #28
    43ec:	72730d00 	rsbsvc	r0, r3, #0
    43f0:	93010063 	movwls	r0, #4195	; 0x1063
    43f4:	00000078 	andeq	r0, r0, r8, ror r0
    43f8:	000017c1 	andeq	r1, r0, r1, asr #15
    43fc:	0016d60b 	andseq	sp, r6, fp, lsl #12
    4400:	41950100 	orrsmi	r0, r5, r0, lsl #2
    4404:	df000000 	svcle	0x00000000
    4408:	0b000017 	bleq	446c <__bss_end+0xef4>
    440c:	00001937 	andeq	r1, r0, r7, lsr r9
    4410:	00539601 	subseq	r9, r3, r1, lsl #12
    4414:	17ff0000 	ldrbne	r0, [pc, r0]!
    4418:	c40b0000 	strgt	r0, [fp], #-0
    441c:	01000018 	tsteq	r0, r8, lsl r0
    4420:	00005397 	muleq	r0, r7, r3
    4424:	00183e00 	andseq	r3, r8, r0, lsl #28
    4428:	ef0e0000 	svc	0x000e0000
    442c:	01000018 	tsteq	r0, r8, lsl r0
    4430:	0001a414 	andeq	sl, r1, r4, lsl r4
    4434:	70030500 	andvc	r0, r3, r0, lsl #10
    4438:	0e000033 	mcreq	0, 0, r0, cr0, cr3, {1}
    443c:	00001851 	andeq	r1, r0, r1, asr r8
    4440:	01a41501 			; <UNDEFINED> instruction: 0x01a41501
    4444:	03050000 	movweq	r0, #20480	; 0x5000
    4448:	00003374 	andeq	r3, r0, r4, ror r3
    444c:	00016600 	andeq	r6, r1, r0, lsl #12
    4450:	9c000200 	sfmls	f0, 4, [r0], {-0}
    4454:	0400000f 	streq	r0, [r0], #-15
    4458:	00004601 	andeq	r4, r0, r1, lsl #12
    445c:	199a0100 	ldmibne	sl, {r8}
    4460:	00c10000 	sbceq	r0, r1, r0
    4464:	27e40000 	strbcs	r0, [r4, r0]!
    4468:	28840000 	stmcs	r4, {}	; <UNPREDICTABLE>
    446c:	11f20000 	mvnsne	r0, r0
    4470:	01020000 	mrseq	r0, (UNDEF: 2)
    4474:	00008106 	andeq	r8, r0, r6, lsl #2
    4478:	08010200 	stmdaeq	r1, {r9}
    447c:	0000007f 	andeq	r0, r0, pc, ror r0
    4480:	b6050202 	strlt	r0, [r5], -r2, lsl #4
    4484:	02000001 	andeq	r0, r0, #1
    4488:	00a30702 	adceq	r0, r3, r2, lsl #14
    448c:	f8030000 			; <UNDEFINED> instruction: 0xf8030000
    4490:	0200000f 	andeq	r0, r0, #15
    4494:	00004c12 	andeq	r4, r0, r2, lsl ip
    4498:	05040400 	streq	r0, [r4, #-1024]	; 0x400
    449c:	00746e69 	rsbseq	r6, r4, r9, ror #28
    44a0:	00080703 	andeq	r0, r8, r3, lsl #14
    44a4:	5e130200 	cdppl	2, 1, cr0, cr3, cr0, {0}
    44a8:	02000000 	andeq	r0, r0, #0
    44ac:	014a0704 	cmpeq	sl, r4, lsl #14
    44b0:	08020000 	stmdaeq	r2, {}	; <UNPREDICTABLE>
    44b4:	00019105 	andeq	r9, r1, r5, lsl #2
    44b8:	07080200 	streq	r0, [r8, -r0, lsl #4]
    44bc:	00000140 	andeq	r0, r0, r0, asr #2
    44c0:	00196105 	andseq	r6, r9, r5, lsl #2
    44c4:	03032000 	movweq	r2, #12288	; 0x3000
    44c8:	00008f16 	andeq	r8, r0, r6, lsl pc
    44cc:	198c0600 	stmibne	ip, {r9, sl}
    44d0:	17030000 	strne	r0, [r3, -r0]
    44d4:	0000008f 	andeq	r0, r0, pc, lsl #1
    44d8:	00002302 	andeq	r2, r0, r2, lsl #6
    44dc:	00005307 	andeq	r5, r0, r7, lsl #6
    44e0:	00009f00 	andeq	r9, r0, r0, lsl #30
    44e4:	005e0800 	subseq	r0, lr, r0, lsl #16
    44e8:	00c70000 	sbceq	r0, r7, r0
    44ec:	88080102 	stmdahi	r8, {r1, r8}
    44f0:	02000000 	andeq	r0, r0, #0
    44f4:	01450704 	cmpeq	r5, r4, lsl #14
    44f8:	01090000 	mrseq	r0, (UNDEF: 9)
    44fc:	000019c7 	andeq	r1, r0, r7, asr #19
    4500:	41010f01 	tstmi	r1, r1, lsl #30
    4504:	e4000000 	str	r0, [r0], #-0
    4508:	10000027 	andne	r0, r0, r7, lsr #32
    450c:	02000028 	andeq	r0, r0, #40	; 0x28
    4510:	00e6007d 	rsceq	r0, r6, sp, ror r0
    4514:	600a0000 	andvs	r0, sl, r0
    4518:	01000019 	tsteq	r0, r9, lsl r0
    451c:	0000e60f 	andeq	lr, r0, pc, lsl #12
    4520:	00186f00 	andseq	r6, r8, r0, lsl #30
    4524:	00690b00 	rsbeq	r0, r9, r0, lsl #22
    4528:	004c1101 	subeq	r1, ip, r1, lsl #2
    452c:	188f0000 	stmne	pc, {}	; <UNPREDICTABLE>
    4530:	0c000000 	stceq	0, cr0, [r0], {-0}
    4534:	00007304 	andeq	r7, r0, r4, lsl #6
    4538:	4f010900 	svcmi	0x00010900
    453c:	01000019 	tsteq	r0, r9, lsl r0
    4540:	00410125 	subeq	r0, r1, r5, lsr #2
    4544:	28100000 	ldmdacs	r0, {}	; <UNPREDICTABLE>
    4548:	283c0000 	ldmdacs	ip!, {}	; <UNPREDICTABLE>
    454c:	7d020000 	stcvc	0, cr0, [r2, #-0]
    4550:	00012500 	andeq	r2, r1, r0, lsl #10
    4554:	19600a00 	stmdbne	r0!, {r9, fp}^
    4558:	25010000 	strcs	r0, [r1, #-0]
    455c:	000000e6 	andeq	r0, r0, r6, ror #1
    4560:	000018a3 	andeq	r1, r0, r3, lsr #17
    4564:	0100690b 	tsteq	r0, fp, lsl #18
    4568:	00004c27 	andeq	r4, r0, r7, lsr #24
    456c:	0018c300 	andseq	ip, r8, r0, lsl #6
    4570:	010d0000 	mrseq	r0, (UNDEF: 13)
    4574:	0000196c 	andeq	r1, r0, ip, ror #18
    4578:	3c013901 	stccc	9, cr3, [r1], {1}
    457c:	84000028 	strhi	r0, [r0], #-40	; 0x28
    4580:	02000028 	andeq	r0, r0, #40	; 0x28
    4584:	c20a007d 	andgt	r0, sl, #125	; 0x7d
    4588:	01000014 	tsteq	r0, r4, lsl r0
    458c:	00005339 	andeq	r5, r0, r9, lsr r3
    4590:	0018d700 	andseq	sp, r8, r0, lsl #14
    4594:	197c0e00 	ldmdbne	ip!, {r9, sl, fp}^
    4598:	3b010000 	blcc	445a0 <__bss_end+0x41028>
    459c:	00000053 	andeq	r0, r0, r3, asr r0
    45a0:	33780305 	cmncc	r8, #335544320	; 0x14000000
    45a4:	d50f0000 	strle	r0, [pc, #-0]	; 45ac <__bss_end+0x1034>
    45a8:	01000019 	tsteq	r0, r9, lsl r0
    45ac:	0000533c 	andeq	r5, r0, ip, lsr r3
    45b0:	0018ea00 	andseq	lr, r8, r0, lsl #20
    45b4:	88000000 	stmdahi	r0, {}	; <UNPREDICTABLE>
    45b8:	02000004 	andeq	r0, r0, #4
    45bc:	00107600 	andseq	r7, r0, r0, lsl #12
    45c0:	46010400 	strmi	r0, [r1], -r0, lsl #8
    45c4:	01000000 	mrseq	r0, (UNDEF: 0)
    45c8:	00001a90 	muleq	r0, r0, sl
    45cc:	000000c1 	andeq	r0, r0, r1, asr #1
    45d0:	00002884 	andeq	r2, r0, r4, lsl #17
    45d4:	00002a6c 	andeq	r2, r0, ip, ror #20
    45d8:	0000129e 	muleq	r0, lr, r2
    45dc:	81060102 	tsthi	r6, r2, lsl #2
    45e0:	02000000 	andeq	r0, r0, #0
    45e4:	007f0801 	rsbseq	r0, pc, r1, lsl #16
    45e8:	02020000 	andeq	r0, r2, #0
    45ec:	0001b605 	andeq	fp, r1, r5, lsl #12
    45f0:	07020200 	streq	r0, [r2, -r0, lsl #4]
    45f4:	000000a3 	andeq	r0, r0, r3, lsr #1
    45f8:	000ff803 	andeq	pc, pc, r3, lsl #16
    45fc:	4c120200 	lfmmi	f0, 4, [r2], {-0}
    4600:	04000000 	streq	r0, [r0], #-0
    4604:	6e690504 	cdpvs	5, 6, cr0, cr9, cr4, {0}
    4608:	07030074 	smlsdxeq	r3, r4, r0, r0
    460c:	02000008 	andeq	r0, r0, #8
    4610:	00005e13 	andeq	r5, r0, r3, lsl lr
    4614:	07040200 	streq	r0, [r4, -r0, lsl #4]
    4618:	0000014a 	andeq	r0, r0, sl, asr #2
    461c:	91050802 	tstls	r5, r2, lsl #16
    4620:	02000001 	andeq	r0, r0, #1
    4624:	01400708 	cmpeq	r0, r8, lsl #14
    4628:	53050000 	movwpl	r0, #20480	; 0x5000
    462c:	06000000 	streq	r0, [r0], -r0
    4630:	00000053 	andeq	r0, r0, r3, asr r0
    4634:	00000088 	andeq	r0, r0, r8, lsl #1
    4638:	00005e07 	andeq	r5, r0, r7, lsl #28
    463c:	06000100 	streq	r0, [r0], -r0, lsl #2
    4640:	00000053 	andeq	r0, r0, r3, asr r0
    4644:	00000098 	muleq	r0, r8, r0
    4648:	00005e07 	andeq	r5, r0, r7, lsl #28
    464c:	08000300 	stmdaeq	r0, {r8, r9}
    4650:	00001b6b 	andeq	r1, r0, fp, ror #22
    4654:	b61503bc 			; <UNDEFINED> instruction: 0xb61503bc
    4658:	09000002 	stmdbeq	r0, {r1}
    465c:	00001a00 	andeq	r1, r0, r0, lsl #20
    4660:	00731803 	rsbseq	r1, r3, r3, lsl #16
    4664:	23020000 	movwcs	r0, #8192	; 0x2000
    4668:	1bc90900 	blne	ff246a70 <__bss_end+0xff2434f8>
    466c:	19030000 	stmdbne	r3, {}	; <UNPREDICTABLE>
    4670:	00000073 	andeq	r0, r0, r3, ror r0
    4674:	09042302 	stmdbeq	r4, {r1, r8, r9, sp}
    4678:	00000a38 	andeq	r0, r0, r8, lsr sl
    467c:	02b61a03 	adcseq	r1, r6, #12288	; 0x3000
    4680:	23020000 	movwcs	r0, #8192	; 0x2000
    4684:	1c0e0908 	stcne	9, cr0, [lr], {8}
    4688:	1c030000 	stcne	0, cr0, [r3], {-0}
    468c:	00000073 	andeq	r0, r0, r3, ror r0
    4690:	09102302 	ldmdbeq	r0, {r1, r8, r9, sp}
    4694:	00001a07 	andeq	r1, r0, r7, lsl #20
    4698:	00731d03 	rsbseq	r1, r3, r3, lsl #26
    469c:	23020000 	movwcs	r0, #8192	; 0x2000
    46a0:	1a350914 	bne	d46af8 <__bss_end+0xd43580>
    46a4:	1e030000 	cdpne	0, 0, cr0, cr3, cr0, {0}
    46a8:	00000073 	andeq	r0, r0, r3, ror r0
    46ac:	09182302 	ldmdbeq	r8, {r1, r8, r9, sp}
    46b0:	00000a42 	andeq	r0, r0, r2, asr #20
    46b4:	00731f03 	rsbseq	r1, r3, r3, lsl #30
    46b8:	23020000 	movwcs	r0, #8192	; 0x2000
    46bc:	1a2d091c 	bne	b46b34 <__bss_end+0xb435bc>
    46c0:	21030000 	mrscs	r0, (UNDEF: 3)
    46c4:	00000073 	andeq	r0, r0, r3, ror r0
    46c8:	09202302 	stmdbeq	r0!, {r1, r8, r9, sp}
    46cc:	00001b9d 	muleq	r0, sp, fp
    46d0:	00732203 	rsbseq	r2, r3, r3, lsl #4
    46d4:	23020000 	movwcs	r0, #8192	; 0x2000
    46d8:	1bd00924 	blne	ff406b70 <__bss_end+0xff4035f8>
    46dc:	23030000 	movwcs	r0, #12288	; 0x3000
    46e0:	00000073 	andeq	r0, r0, r3, ror r0
    46e4:	09282302 	stmdbeq	r8!, {r1, r8, r9, sp}
    46e8:	00000a4c 	andeq	r0, r0, ip, asr #20
    46ec:	00732403 	rsbseq	r2, r3, r3, lsl #8
    46f0:	23020000 	movwcs	r0, #8192	; 0x2000
    46f4:	1af5092c 	bne	ffd46bac <__bss_end+0xffd43634>
    46f8:	26030000 	strcs	r0, [r3], -r0
    46fc:	00000073 	andeq	r0, r0, r3, ror r0
    4700:	09302302 	ldmdbeq	r0!, {r1, r8, r9, sp}
    4704:	00001a48 	andeq	r1, r0, r8, asr #20
    4708:	00732703 	rsbseq	r2, r3, r3, lsl #14
    470c:	23020000 	movwcs	r0, #8192	; 0x2000
    4710:	1a630934 	bne	18c6be8 <__bss_end+0x18c3670>
    4714:	28030000 	stmdacs	r3, {}	; <UNPREDICTABLE>
    4718:	00000073 	andeq	r0, r0, r3, ror r0
    471c:	09382302 	ldmdbeq	r8!, {r1, r8, r9, sp}
    4720:	00000a56 	andeq	r0, r0, r6, asr sl
    4724:	00732903 	rsbseq	r2, r3, r3, lsl #18
    4728:	23020000 	movwcs	r0, #8192	; 0x2000
    472c:	1bba093c 	blne	fee86c24 <__bss_end+0xfee836ac>
    4730:	2b030000 	blcs	c4738 <__bss_end+0xc11c0>
    4734:	00000073 	andeq	r0, r0, r3, ror r0
    4738:	09402302 	stmdbeq	r0, {r1, r8, r9, sp}^
    473c:	00001bdb 	ldrdeq	r1, [r0], -fp
    4740:	00732c03 	rsbseq	r2, r3, r3, lsl #24
    4744:	23020000 	movwcs	r0, #8192	; 0x2000
    4748:	0a600944 	beq	1806c60 <__bss_end+0x18036e8>
    474c:	2d030000 	stccs	0, cr0, [r3, #-0]
    4750:	000002bb 			; <UNDEFINED> instruction: 0x000002bb
    4754:	09482302 	stmdbeq	r8, {r1, r8, r9, sp}^
    4758:	00001c16 	andeq	r1, r0, r6, lsl ip
    475c:	00732f03 	rsbseq	r2, r3, r3, lsl #30
    4760:	23020000 	movwcs	r0, #8192	; 0x2000
    4764:	1abc0950 	bne	fef06cac <__bss_end+0xfef03734>
    4768:	30030000 	andcc	r0, r3, r0
    476c:	00000073 	andeq	r0, r0, r3, ror r0
    4770:	09542302 	ldmdbeq	r4, {r1, r8, r9, sp}^
    4774:	00001ac7 	andeq	r1, r0, r7, asr #21
    4778:	00733103 	rsbseq	r3, r3, r3, lsl #2
    477c:	23020000 	movwcs	r0, #8192	; 0x2000
    4780:	0a6a0958 	beq	1a86ce8 <__bss_end+0x1a83770>
    4784:	32030000 	andcc	r0, r3, #0
    4788:	00000073 	andeq	r0, r0, r3, ror r0
    478c:	095c2302 	ldmdbeq	ip, {r1, r8, r9, sp}^
    4790:	00001a40 	andeq	r1, r0, r0, asr #20
    4794:	00733403 	rsbseq	r3, r3, r3, lsl #8
    4798:	23020000 	movwcs	r0, #8192	; 0x2000
    479c:	1b920960 	blne	fe486d24 <__bss_end+0xfe4837ac>
    47a0:	35030000 	strcc	r0, [r3, #-0]
    47a4:	00000073 	andeq	r0, r0, r3, ror r0
    47a8:	09642302 	stmdbeq	r4!, {r1, r8, r9, sp}^
    47ac:	00001bfc 	strdeq	r1, [r0], -ip
    47b0:	00733603 	rsbseq	r3, r3, r3, lsl #12
    47b4:	23020000 	movwcs	r0, #8192	; 0x2000
    47b8:	0a740968 	beq	1d06d60 <__bss_end+0x1d037e8>
    47bc:	37030000 	strcc	r0, [r3, -r0]
    47c0:	000002d0 	ldrdeq	r0, [r0], -r0	; <UNPREDICTABLE>
    47c4:	096c2302 	stmdbeq	ip!, {r1, r8, r9, sp}^
    47c8:	00001bc2 	andeq	r1, r0, r2, asr #23
    47cc:	00733903 	rsbseq	r3, r3, r3, lsl #18
    47d0:	23030000 	movwcs	r0, #12288	; 0x3000
    47d4:	f4090180 	vst4.32	{d0,d2,d4,d6}, [r9], r0
    47d8:	0300001b 	movweq	r0, #27
    47dc:	0000733a 	andeq	r7, r0, sl, lsr r3
    47e0:	84230300 	strthi	r0, [r3], #-768	; 0x300
    47e4:	19f80901 	ldmibne	r8!, {r0, r8, fp}^
    47e8:	3b030000 	blcc	c47f0 <__bss_end+0xc1278>
    47ec:	00000073 	andeq	r0, r0, r3, ror r0
    47f0:	01882303 	orreq	r2, r8, r3, lsl #6
    47f4:	001bb309 	andseq	fp, fp, r9, lsl #6
    47f8:	733c0300 	teqvc	ip, #0
    47fc:	03000000 	movweq	r0, #0
    4800:	09018c23 	stmdbeq	r1, {r0, r1, r5, sl, fp, pc}
    4804:	00000a7e 	andeq	r0, r0, lr, ror sl
    4808:	02d53f03 	sbcseq	r3, r5, #12
    480c:	23030000 	movwcs	r0, #12288	; 0x3000
    4810:	47090190 			; <UNDEFINED> instruction: 0x47090190
    4814:	0300001b 	movweq	r0, #27
    4818:	00007342 	andeq	r7, r0, r2, asr #6
    481c:	a0230300 	eorge	r0, r3, r0, lsl #6
    4820:	19ea0901 	stmibne	sl!, {r0, r8, fp}^
    4824:	43030000 	movwmi	r0, #12288	; 0x3000
    4828:	00000073 	andeq	r0, r0, r3, ror r0
    482c:	01a42303 			; <UNDEFINED> instruction: 0x01a42303
    4830:	001aeb09 	andseq	lr, sl, r9, lsl #22
    4834:	da440300 	ble	110543c <__bss_end+0x1101ec4>
    4838:	03000002 	movweq	r0, #2
    483c:	0901a823 	stmdbeq	r1, {r0, r1, r5, fp, sp, pc}
    4840:	00001a12 	andeq	r1, r0, r2, lsl sl
    4844:	00734703 	rsbseq	r4, r3, r3, lsl #14
    4848:	23030000 	movwcs	r0, #12288	; 0x3000
    484c:	e60901b0 			; <UNDEFINED> instruction: 0xe60901b0
    4850:	0300001b 	movweq	r0, #27
    4854:	00007348 	andeq	r7, r0, r8, asr #6
    4858:	b4230300 	strtlt	r0, [r3], #-768	; 0x300
    485c:	1afd0901 	bne	fff46c68 <__bss_end+0xfff436f0>
    4860:	49030000 	stmdbmi	r3, {}	; <UNPREDICTABLE>
    4864:	00000073 	andeq	r0, r0, r3, ror r0
    4868:	01b82303 			; <UNDEFINED> instruction: 0x01b82303
    486c:	00780500 	rsbseq	r0, r8, r0, lsl #10
    4870:	78050000 	stmdavc	r5, {}	; <UNPREDICTABLE>
    4874:	06000000 	streq	r0, [r0], -r0
    4878:	00000053 	andeq	r0, r0, r3, asr r0
    487c:	000002d0 	ldrdeq	r0, [r0], -r0	; <UNPREDICTABLE>
    4880:	00005e07 	andeq	r5, r0, r7, lsl #28
    4884:	05000400 	streq	r0, [r0, #-1024]	; 0x400
    4888:	000002c0 	andeq	r0, r0, r0, asr #5
    488c:	00008805 	andeq	r8, r0, r5, lsl #16
    4890:	00780500 	rsbseq	r0, r8, r0, lsl #10
    4894:	53030000 	movwpl	r0, #12288	; 0x3000
    4898:	0300001a 	movweq	r0, #26
    489c:	0000984b 	andeq	r9, r0, fp, asr #16
    48a0:	016d0a00 	cmneq	sp, r0, lsl #20
    48a4:	04040000 	streq	r0, [r4], #-0
    48a8:	0003577a 	andeq	r5, r3, sl, ror r7
    48ac:	001e0b00 	andseq	r0, lr, r0, lsl #22
    48b0:	0b000000 	bleq	48b8 <__bss_end+0x1340>
    48b4:	00000096 	muleq	r0, r6, r0
    48b8:	00390b01 	eorseq	r0, r9, r1, lsl #22
    48bc:	0b020000 	bleq	848c4 <__bss_end+0x8134c>
    48c0:	00000073 	andeq	r0, r0, r3, ror r0
    48c4:	019f0b03 	orrseq	r0, pc, r3, lsl #22
    48c8:	0b040000 	bleq	1048d0 <__bss_end+0x101358>
    48cc:	00000134 	andeq	r0, r0, r4, lsr r1
    48d0:	011c0b05 	tsteq	ip, r5, lsl #22
    48d4:	0b060000 	bleq	1848dc <__bss_end+0x181364>
    48d8:	00000157 	andeq	r0, r0, r7, asr r1
    48dc:	00120b07 	andseq	r0, r2, r7, lsl #22
    48e0:	0b080000 	bleq	2048e8 <__bss_end+0x201370>
    48e4:	00000068 	andeq	r0, r0, r8, rrx
    48e8:	01290b09 	teqeq	r9, r9, lsl #22
    48ec:	0b0a0000 	bleq	2848f4 <__bss_end+0x28137c>
    48f0:	000001ab 	andeq	r0, r0, fp, lsr #3
    48f4:	01670b0b 	cmneq	r7, fp, lsl #22
    48f8:	0b0c0000 	bleq	304900 <__bss_end+0x301388>
    48fc:	00000183 	andeq	r0, r0, r3, lsl #3
    4900:	02300b0d 	eorseq	r0, r0, #13312	; 0x3400
    4904:	0b0e0000 	bleq	38490c <__bss_end+0x381394>
    4908:	0000002b 	andeq	r0, r0, fp, lsr #32
    490c:	0102000f 	tsteq	r2, pc
    4910:	00008808 	andeq	r8, r0, r8, lsl #16
    4914:	07040200 	streq	r0, [r4, -r0, lsl #4]
    4918:	00000145 	andeq	r0, r0, r5, asr #2
    491c:	1c1e010c 	ldfnes	f0, [lr], {12}
    4920:	11010000 	mrsne	r0, (UNDEF: 1)
    4924:	00004101 	andeq	r4, r0, r1, lsl #2
    4928:	00288400 	eoreq	r8, r8, r0, lsl #8
    492c:	0028e400 	eoreq	lr, r8, r0, lsl #8
    4930:	007d0200 	rsbseq	r0, sp, r0, lsl #4
    4934:	00000391 	muleq	r0, r1, r3
    4938:	001ba80d 	andseq	sl, fp, sp, lsl #16
    493c:	91110100 	tstls	r1, r0, lsl #2
    4940:	fe000003 	cdp2	0, 0, cr0, cr0, cr3, {0}
    4944:	00000018 	andeq	r0, r0, r8, lsl r0
    4948:	02df040e 	sbcseq	r0, pc, #234881024	; 0xe000000
    494c:	010c0000 	mrseq	r0, (UNDEF: 12)
    4950:	00001b5b 	andeq	r1, r0, fp, asr fp
    4954:	41012f01 	tstmi	r1, r1, lsl #30
    4958:	e4000000 	str	r0, [r0], #-0
    495c:	34000028 	strcc	r0, [r0], #-40	; 0x28
    4960:	02000029 	andeq	r0, r0, #41	; 0x29
    4964:	03c3007d 	biceq	r0, r3, #125	; 0x7d
    4968:	a80d0000 	stmdage	sp, {}	; <UNPREDICTABLE>
    496c:	0100001b 	tsteq	r0, fp, lsl r0
    4970:	0003912f 	andeq	r9, r3, pc, lsr #2
    4974:	00191c00 	andseq	r1, r9, r0, lsl #24
    4978:	010f0000 	mrseq	r0, CPSR
    497c:	00001b3a 	andeq	r1, r0, sl, lsr fp
    4980:	41014901 	tstmi	r1, r1, lsl #18
    4984:	34000000 	strcc	r0, [r0], #-0
    4988:	6c000029 	stcvs	0, cr0, [r0], {41}	; 0x29
    498c:	02000029 	andeq	r0, r0, #41	; 0x29
    4990:	010f007d 	tsteq	pc, sp, ror r0	; <UNPREDICTABLE>
    4994:	00001a83 	andeq	r1, r0, r3, lsl #21
    4998:	41016101 	tstmi	r1, r1, lsl #2
    499c:	6c000000 	stcvs	0, cr0, [r0], {-0}
    49a0:	94000029 	strls	r0, [r0], #-41	; 0x29
    49a4:	02000029 	andeq	r0, r0, #41	; 0x29
    49a8:	0110007d 	tsteq	r0, sp, ror r0
    49ac:	00001b22 	andeq	r1, r0, r2, lsr #22
    49b0:	94017901 	strls	r7, [r1], #-2305	; 0x901
    49b4:	dc000029 	stcle	0, cr0, [r0], {41}	; 0x29
    49b8:	02000029 	andeq	r0, r0, #41	; 0x29
    49bc:	0110007d 	tsteq	r0, sp, ror r0
    49c0:	00001b79 	andeq	r1, r0, r9, ror fp
    49c4:	dc019a01 	stcle	10, cr9, [r1], {1}
    49c8:	1c000029 	stcne	0, cr0, [r0], {41}	; 0x29
    49cc:	0200002a 	andeq	r0, r0, #42	; 0x2a
    49d0:	010c007d 	tsteq	ip, sp, ror r0
    49d4:	00001a21 	andeq	r1, r0, r1, lsr #20
    49d8:	4101b501 	tstmi	r1, r1, lsl #10
    49dc:	1c000000 	stcne	0, cr0, [r0], {-0}
    49e0:	6c00002a 	stcvs	0, cr0, [r0], {42}	; 0x2a
    49e4:	0200002a 	andeq	r0, r0, #42	; 0x2a
    49e8:	0447007d 	strbeq	r0, [r7], #-125	; 0x7d
    49ec:	540d0000 	strpl	r0, [sp], #-0
    49f0:	0100001b 	tsteq	r0, fp, lsl r0
    49f4:	000053b5 			; <UNDEFINED> instruction: 0x000053b5
    49f8:	00193a00 	andseq	r3, r9, r0, lsl #20
    49fc:	07110000 	ldreq	r0, [r1, -r0]
    4a00:	0100001c 	tsteq	r0, ip, lsl r0
    4a04:	00039103 	andeq	r9, r3, r3, lsl #2
    4a08:	7c030500 	cfstr32vc	mvfx0, [r3], {-0}
    4a0c:	11000033 	tstne	r0, r3, lsr r0
    4a10:	00001ad2 	ldrdeq	r1, [r0], -r2
    4a14:	00530401 	subseq	r0, r3, r1, lsl #8
    4a18:	03050000 	movweq	r0, #20480	; 0x5000
    4a1c:	00003380 	andeq	r3, r0, r0, lsl #7
    4a20:	001b0c11 	andseq	r0, fp, r1, lsl ip
    4a24:	53040100 	movwpl	r0, #16640	; 0x4100
    4a28:	05000000 	streq	r0, [r0, #-0]
    4a2c:	00338403 	eorseq	r8, r3, r3, lsl #8
    4a30:	1a6e1100 	bne	1b88e38 <__bss_end+0x1b858c0>
    4a34:	04010000 	streq	r0, [r1], #-0
    4a38:	00000053 	andeq	r0, r0, r3, asr r0
    4a3c:	33880305 	orrcc	r0, r8, #335544320	; 0x14000000
    4a40:	b6000000 	strlt	r0, [r0], -r0
    4a44:	02000001 	andeq	r0, r0, #1
    4a48:	00116800 	andseq	r6, r1, r0, lsl #16
    4a4c:	46010400 	strmi	r0, [r1], -r0, lsl #8
    4a50:	01000000 	mrseq	r0, (UNDEF: 0)
    4a54:	00001c7c 	andeq	r1, r0, ip, ror ip
    4a58:	000000c1 	andeq	r0, r0, r1, asr #1
    4a5c:	00002a6c 	andeq	r2, r0, ip, ror #20
    4a60:	00002ac4 	andeq	r2, r0, r4, asr #21
    4a64:	0000139e 	muleq	r0, lr, r3
    4a68:	81060102 	tsthi	r6, r2, lsl #2
    4a6c:	02000000 	andeq	r0, r0, #0
    4a70:	007f0801 	rsbseq	r0, pc, r1, lsl #16
    4a74:	02020000 	andeq	r0, r2, #0
    4a78:	0001b605 	andeq	fp, r1, r5, lsl #12
    4a7c:	07020200 	streq	r0, [r2, -r0, lsl #4]
    4a80:	000000a3 	andeq	r0, r0, r3, lsr #1
    4a84:	000ff803 	andeq	pc, pc, r3, lsl #16
    4a88:	4c120200 	lfmmi	f0, 4, [r2], {-0}
    4a8c:	04000000 	streq	r0, [r0], #-0
    4a90:	6e690504 	cdpvs	5, 6, cr0, cr9, cr4, {0}
    4a94:	07030074 	smlsdxeq	r3, r4, r0, r0
    4a98:	02000008 	andeq	r0, r0, #8
    4a9c:	00005e13 	andeq	r5, r0, r3, lsl lr
    4aa0:	07040200 	streq	r0, [r4, -r0, lsl #4]
    4aa4:	0000014a 	andeq	r0, r0, sl, asr #2
    4aa8:	91050802 	tstls	r5, r2, lsl #16
    4aac:	02000001 	andeq	r0, r0, #1
    4ab0:	01400708 	cmpeq	r0, r8, lsl #14
    4ab4:	53050000 	movwpl	r0, #20480	; 0x5000
    4ab8:	06000000 	streq	r0, [r0], -r0
    4abc:	00000053 	andeq	r0, r0, r3, asr r0
    4ac0:	00000088 	andeq	r0, r0, r8, lsl #1
    4ac4:	00005e07 	andeq	r5, r0, r7, lsl #28
    4ac8:	08000600 	stmdaeq	r0, {r9, sl}
    4acc:	00001cb9 			; <UNDEFINED> instruction: 0x00001cb9
    4ad0:	bf150324 	svclt	0x00150324
    4ad4:	09000000 	stmdbeq	r0, {}	; <UNPREDICTABLE>
    4ad8:	006c7443 	rsbeq	r7, ip, r3, asr #8
    4adc:	00731803 	rsbseq	r1, r3, r3, lsl #16
    4ae0:	23020000 	movwcs	r0, #8192	; 0x2000
    4ae4:	0a380a00 	beq	e072ec <__bss_end+0xe03d74>
    4ae8:	19030000 	stmdbne	r3, {}	; <UNPREDICTABLE>
    4aec:	000000bf 	strheq	r0, [r0], -pc	; <UNPREDICTABLE>
    4af0:	0a042302 	beq	10d700 <__bss_end+0x10a188>
    4af4:	00001c2b 	andeq	r1, r0, fp, lsr #24
    4af8:	00731b03 	rsbseq	r1, r3, r3, lsl #22
    4afc:	23020000 	movwcs	r0, #8192	; 0x2000
    4b00:	78050020 	stmdavc	r5, {r5}
    4b04:	03000000 	movweq	r0, #0
    4b08:	00001c69 	andeq	r1, r0, r9, ror #24
    4b0c:	00881d03 	addeq	r1, r8, r3, lsl #26
    4b10:	6d0b0000 	stcvs	0, cr0, [fp, #-0]
    4b14:	04000001 	streq	r0, [r0], #-1
    4b18:	013c7a04 	teqeq	ip, r4, lsl #20
    4b1c:	1e0c0000 	cdpne	0, 0, cr0, cr12, cr0, {0}
    4b20:	00000000 	andeq	r0, r0, r0
    4b24:	0000960c 	andeq	r9, r0, ip, lsl #12
    4b28:	390c0100 	stmdbcc	ip, {r8}
    4b2c:	02000000 	andeq	r0, r0, #0
    4b30:	0000730c 	andeq	r7, r0, ip, lsl #6
    4b34:	9f0c0300 	svcls	0x000c0300
    4b38:	04000001 	streq	r0, [r0], #-1
    4b3c:	0001340c 	andeq	r3, r1, ip, lsl #8
    4b40:	1c0c0500 	cfstr32ne	mvfx0, [ip], {-0}
    4b44:	06000001 	streq	r0, [r0], -r1
    4b48:	0001570c 	andeq	r5, r1, ip, lsl #14
    4b4c:	120c0700 	andne	r0, ip, #0
    4b50:	08000000 	stmdaeq	r0, {}	; <UNPREDICTABLE>
    4b54:	0000680c 	andeq	r6, r0, ip, lsl #16
    4b58:	290c0900 	stmdbcs	ip, {r8, fp}
    4b5c:	0a000001 	beq	4b68 <__bss_end+0x15f0>
    4b60:	0001ab0c 	andeq	sl, r1, ip, lsl #22
    4b64:	670c0b00 	strvs	r0, [ip, -r0, lsl #22]
    4b68:	0c000001 	stceq	0, cr0, [r0], {1}
    4b6c:	0001830c 	andeq	r8, r1, ip, lsl #6
    4b70:	300c0d00 	andcc	r0, ip, r0, lsl #26
    4b74:	0e000002 	cdpeq	0, 0, cr0, cr0, cr2, {0}
    4b78:	00002b0c 	andeq	r2, r0, ip, lsl #22
    4b7c:	02000f00 	andeq	r0, r0, #0
    4b80:	00880801 	addeq	r0, r8, r1, lsl #16
    4b84:	04020000 	streq	r0, [r2], #-0
    4b88:	00014507 	andeq	r4, r1, r7, lsl #10
    4b8c:	3c010d00 	stccc	13, cr0, [r1], {-0}
    4b90:	0100001c 	tsteq	r0, ip, lsl r0
    4b94:	00410111 	subeq	r0, r1, r1, lsl r1
    4b98:	2a6c0000 	bcs	1b04ba0 <__bss_end+0x1b01628>
    4b9c:	2a9c0000 	bcs	fe704ba4 <__bss_end+0xfe70162c>
    4ba0:	7d020000 	stcvc	0, cr0, [r2, #-0]
    4ba4:	00017600 	andeq	r7, r1, r0, lsl #12
    4ba8:	1cab0e00 	stcne	14, cr0, [fp]
    4bac:	11010000 	mrsne	r0, (UNDEF: 1)
    4bb0:	00000176 	andeq	r0, r0, r6, ror r1
    4bb4:	0000194d 	andeq	r1, r0, sp, asr #18
    4bb8:	c4040f00 	strgt	r0, [r4], #-3840	; 0xf00
    4bbc:	0d000000 	stceq	0, cr0, [r0, #-0]
    4bc0:	001c4c01 	andseq	r4, ip, r1, lsl #24
    4bc4:	012a0100 	teqeq	sl, r0, lsl #2
    4bc8:	00000041 	andeq	r0, r0, r1, asr #32
    4bcc:	00002a9c 	muleq	r0, ip, sl
    4bd0:	00002ac4 	andeq	r2, r0, r4, asr #21
    4bd4:	a8007d02 	stmdage	r0, {r1, r8, sl, fp, ip, sp, lr}
    4bd8:	0e000001 	cdpeq	0, 0, cr0, cr0, cr1, {0}
    4bdc:	00001cab 	andeq	r1, r0, fp, lsr #25
    4be0:	01762a01 	cmneq	r6, r1, lsl #20
    4be4:	196b0000 	stmdbne	fp!, {}^	; <UNPREDICTABLE>
    4be8:	10000000 	andne	r0, r0, r0
    4bec:	00001c5f 	andeq	r1, r0, pc, asr ip
    4bf0:	01760401 	cmneq	r6, r1, lsl #8
    4bf4:	03050000 	movweq	r0, #20480	; 0x5000
    4bf8:	0000338c 	andeq	r3, r0, ip, lsl #7
    4bfc:	0002ff00 	andeq	pc, r2, r0, lsl #30
    4c00:	3d000200 	sfmcc	f0, 4, [r0, #-0]
    4c04:	04000012 	streq	r0, [r0], #-18
    4c08:	00004601 	andeq	r4, r0, r1, lsl #12
    4c0c:	1ce60100 	stfnee	f0, [r6]
    4c10:	00c10000 	sbceq	r0, r1, r0
    4c14:	2ac40000 	bcs	ff104c1c <__bss_end+0xff1016a4>
    4c18:	2c3c0000 	ldccs	0, cr0, [ip], #-0
    4c1c:	14510000 	ldrbne	r0, [r1], #-0
    4c20:	01020000 	mrseq	r0, (UNDEF: 2)
    4c24:	00008106 	andeq	r8, r0, r6, lsl #2
    4c28:	08010200 	stmdaeq	r1, {r9}
    4c2c:	0000007f 	andeq	r0, r0, pc, ror r0
    4c30:	b6050202 	strlt	r0, [r5], -r2, lsl #4
    4c34:	02000001 	andeq	r0, r0, #1
    4c38:	00a30702 	adceq	r0, r3, r2, lsl #14
    4c3c:	f8030000 			; <UNDEFINED> instruction: 0xf8030000
    4c40:	0200000f 	andeq	r0, r0, #15
    4c44:	00004c12 	andeq	r4, r0, r2, lsl ip
    4c48:	05040400 	streq	r0, [r4, #-1024]	; 0x400
    4c4c:	00746e69 	rsbseq	r6, r4, r9, ror #28
    4c50:	00080703 	andeq	r0, r8, r3, lsl #14
    4c54:	5e130200 	cdppl	2, 1, cr0, cr3, cr0, {0}
    4c58:	02000000 	andeq	r0, r0, #0
    4c5c:	014a0704 	cmpeq	sl, r4, lsl #14
    4c60:	08020000 	stmdaeq	r2, {}	; <UNPREDICTABLE>
    4c64:	00019105 	andeq	r9, r1, r5, lsl #2
    4c68:	07080200 	streq	r0, [r8, -r0, lsl #4]
    4c6c:	00000140 	andeq	r0, r0, r0, asr #2
    4c70:	00016d05 	andeq	r6, r1, r5, lsl #26
    4c74:	7a030400 	bvc	c5c7c <__bss_end+0xc2704>
    4c78:	000000e0 	andeq	r0, r0, r0, ror #1
    4c7c:	00001e06 	andeq	r1, r0, r6, lsl #28
    4c80:	96060000 	strls	r0, [r6], -r0
    4c84:	01000000 	mrseq	r0, (UNDEF: 0)
    4c88:	00003906 	andeq	r3, r0, r6, lsl #18
    4c8c:	73060200 	movwvc	r0, #25088	; 0x6200
    4c90:	03000000 	movweq	r0, #0
    4c94:	00019f06 	andeq	r9, r1, r6, lsl #30
    4c98:	34060400 	strcc	r0, [r6], #-1024	; 0x400
    4c9c:	05000001 	streq	r0, [r0, #-1]
    4ca0:	00011c06 	andeq	r1, r1, r6, lsl #24
    4ca4:	57060600 	strpl	r0, [r6, -r0, lsl #12]
    4ca8:	07000001 	streq	r0, [r0, -r1]
    4cac:	00001206 	andeq	r1, r0, r6, lsl #4
    4cb0:	68060800 	stmdavs	r6, {fp}
    4cb4:	09000000 	stmdbeq	r0, {}	; <UNPREDICTABLE>
    4cb8:	00012906 	andeq	r2, r1, r6, lsl #18
    4cbc:	ab060a00 	blge	1874c4 <__bss_end+0x183f4c>
    4cc0:	0b000001 	bleq	4ccc <__bss_end+0x1754>
    4cc4:	00016706 	andeq	r6, r1, r6, lsl #14
    4cc8:	83060c00 	movwhi	r0, #27648	; 0x6c00
    4ccc:	0d000001 	stceq	0, cr0, [r0, #-4]
    4cd0:	00023006 	andeq	r3, r2, r6
    4cd4:	2b060e00 	blcs	1884dc <__bss_end+0x184f64>
    4cd8:	0f000000 	svceq	0x00000000
    4cdc:	08010200 	stmdaeq	r1, {r9}
    4ce0:	00000088 	andeq	r0, r0, r8, lsl #1
    4ce4:	45070402 	strmi	r0, [r7, #-1026]	; 0x402
    4ce8:	07000001 	streq	r0, [r0, -r1]
    4cec:	00001d78 	andeq	r1, r0, r8, ror sp
    4cf0:	e7011301 	str	r1, [r1, -r1, lsl #6]
    4cf4:	03000000 	movweq	r0, #0
    4cf8:	0000010b 	andeq	r0, r0, fp, lsl #2
    4cfc:	001d5e08 	andseq	r5, sp, r8, lsl #28
    4d00:	e7150100 	ldr	r0, [r5, -r0, lsl #2]
    4d04:	00000000 	andeq	r0, r0, r0
    4d08:	001d4109 	andseq	r4, sp, r9, lsl #2
    4d0c:	01330100 	teqeq	r3, r0, lsl #2
    4d10:	00012403 	andeq	r2, r1, r3, lsl #8
    4d14:	1d5e0a00 	vldrne	s1, [lr, #-0]
    4d18:	33010000 	movwcc	r0, #4096	; 0x1000
    4d1c:	000000e7 	andeq	r0, r0, r7, ror #1
    4d20:	d6010b00 	strle	r0, [r1], -r0, lsl #22
    4d24:	0100001c 	tsteq	r0, ip, lsl r0
    4d28:	00410147 	subeq	r0, r1, r7, asr #2
    4d2c:	2ac40000 	bcs	ff104d34 <__bss_end+0xff1017bc>
    4d30:	2af40000 	bcs	ffd04d38 <__bss_end+0xffd017c0>
    4d34:	7d020000 	stcvc	0, cr0, [r2, #-0]
    4d38:	00015000 	andeq	r5, r1, r0
    4d3c:	14c20c00 	strbne	r0, [r2], #3072	; 0xc00
    4d40:	47010000 	strmi	r0, [r1, -r0]
    4d44:	00000053 	andeq	r0, r0, r3, asr r0
    4d48:	00001989 	andeq	r1, r0, r9, lsl #19
    4d4c:	64010d00 	strvs	r0, [r1], #-3328	; 0xd00
    4d50:	0100001d 	tsteq	r0, sp, lsl r0
    4d54:	00410161 	subeq	r0, r1, r1, ror #2
    4d58:	2af40000 	bcs	ffd04d60 <__bss_end+0xffd017e8>
    4d5c:	2b700000 	blcs	1c04d64 <__bss_end+0x1c017ec>
    4d60:	199c0000 	ldmibne	ip, {}	; <UNPREDICTABLE>
    4d64:	01db0000 	bicseq	r0, fp, r0
    4d68:	9f0c0000 	svcls	0x000c0000
    4d6c:	0100001d 	tsteq	r0, sp, lsl r0
    4d70:	00005361 	andeq	r5, r0, r1, ror #6
    4d74:	0019bc00 	andseq	fp, r9, r0, lsl #24
    4d78:	1d700c00 	ldclne	12, cr0, [r0, #-0]
    4d7c:	61010000 	mrsvs	r0, (UNDEF: 1)
    4d80:	00000053 	andeq	r0, r0, r3, asr r0
    4d84:	000019e5 	andeq	r1, r0, r5, ror #19
    4d88:	001d570e 	andseq	r5, sp, lr, lsl #14
    4d8c:	53640100 	cmnpl	r4, #0
    4d90:	03000000 	movweq	r0, #0
    4d94:	0f00001a 	svceq	0x0000001a
    4d98:	000000ee 	andeq	r0, r0, lr, ror #1
    4d9c:	00002af8 	strdeq	r2, [r0], -r8
    4da0:	00002b00 	andeq	r2, r0, r0, lsl #22
    4da4:	01c16701 	biceq	r6, r1, r1, lsl #14
    4da8:	f8100000 			; <UNDEFINED> instruction: 0xf8100000
    4dac:	0000002a 	andeq	r0, r0, sl, lsr #32
    4db0:	1100002b 	tstne	r0, fp, lsr #32
    4db4:	000000ff 	strdeq	r0, [r0], -pc	; <UNPREDICTABLE>
    4db8:	00001a59 	andeq	r1, r0, r9, asr sl
    4dbc:	0b120000 	bleq	484dc4 <__bss_end+0x48184c>
    4dc0:	4c000001 	stcmi	0, cr0, [r0], {1}
    4dc4:	5000002b 	andpl	r0, r0, fp, lsr #32
    4dc8:	0100002b 	tsteq	r0, fp, lsr #32
    4dcc:	0118136f 	tsteq	r8, pc, ror #6
    4dd0:	1a770000 	bne	1dc4dd8 <__bss_end+0x1dc1860>
    4dd4:	00000000 	andeq	r0, r0, r0
    4dd8:	1d33010b 	ldfnes	f0, [r3, #-44]!	; 0xffffffd4
    4ddc:	84010000 	strhi	r0, [r1], #-0
    4de0:	00004101 	andeq	r4, r0, r1, lsl #2
    4de4:	002b7000 	eoreq	r7, fp, r0
    4de8:	002ba000 	eoreq	sl, fp, r0
    4dec:	007d0200 	rsbseq	r0, sp, r0, lsl #4
    4df0:	00000222 	andeq	r0, r0, r2, lsr #4
    4df4:	001d9f0c 	andseq	r9, sp, ip, lsl #30
    4df8:	53840100 	orrpl	r0, r4, #0
    4dfc:	8a000000 	bhi	4e04 <__bss_end+0x188c>
    4e00:	1400001a 	strne	r0, [r0], #-26
    4e04:	0000010b 	andeq	r0, r0, fp, lsl #2
    4e08:	00002b74 	andeq	r2, r0, r4, ror fp
    4e0c:	00000158 	andeq	r0, r0, r8, asr r1
    4e10:	18158a01 	ldmdane	r5, {r0, r9, fp, pc}
    4e14:	05000001 	streq	r0, [r0, #-1]
    4e18:	00339003 	eorseq	r9, r3, r3
    4e1c:	0b000000 	bleq	4e24 <__bss_end+0x18ac>
    4e20:	001d1901 	andseq	r1, sp, r1, lsl #18
    4e24:	019a0100 	orrseq	r0, sl, r0, lsl #2
    4e28:	00000041 	andeq	r0, r0, r1, asr #32
    4e2c:	00002ba0 	andeq	r2, r0, r0, lsr #23
    4e30:	00002c0c 	andeq	r2, r0, ip, lsl #24
    4e34:	aa007d02 	bge	24244 <__bss_end+0x20ccc>
    4e38:	0c000002 	stceq	0, cr0, [r0], {2}
    4e3c:	00001d9f 	muleq	r0, pc, sp	; <UNPREDICTABLE>
    4e40:	00539a01 	subseq	r9, r3, r1, lsl #20
    4e44:	1a9d0000 	bne	fe744e4c <__bss_end+0xfe7418d4>
    4e48:	700c0000 	andvc	r0, ip, r0
    4e4c:	0100001d 	tsteq	r0, sp, lsl r0
    4e50:	0000539a 	muleq	r0, sl, r3
    4e54:	001ac600 	andseq	ip, sl, r0, lsl #12
    4e58:	1d570e00 	ldclne	14, cr0, [r7, #-0]
    4e5c:	9d010000 	stcls	0, cr0, [r1, #-0]
    4e60:	00000053 	andeq	r0, r0, r3, asr r0
    4e64:	00001ae4 	andeq	r1, r0, r4, ror #21
    4e68:	0000ee0f 	andeq	lr, r0, pc, lsl #28
    4e6c:	002ba000 	eoreq	sl, fp, r0
    4e70:	002ba800 	eoreq	sl, fp, r0, lsl #16
    4e74:	90a00100 	adcls	r0, r0, r0, lsl #2
    4e78:	10000002 	andne	r0, r0, r2
    4e7c:	00002ba0 	andeq	r2, r0, r0, lsr #23
    4e80:	00002ba8 	andeq	r2, r0, r8, lsr #23
    4e84:	0000ff16 	andeq	pc, r0, r6, lsl pc	; <UNPREDICTABLE>
    4e88:	005c0100 	subseq	r0, ip, r0, lsl #2
    4e8c:	010b1200 	mrseq	r1, R11_fiq
    4e90:	2bf40000 	blcs	ffd04e98 <__bss_end+0xffd01920>
    4e94:	2bf80000 	blcs	ffe04e9c <__bss_end+0xffe01924>
    4e98:	a8010000 	stmdage	r1, {}	; <UNPREDICTABLE>
    4e9c:	00011813 	andeq	r1, r1, r3, lsl r8
    4ea0:	001b3a00 	andseq	r3, fp, r0, lsl #20
    4ea4:	0b000000 	bleq	4eac <__bss_end+0x1934>
    4ea8:	001d8b01 	andseq	r8, sp, r1, lsl #22
    4eac:	01bd0100 			; <UNDEFINED> instruction: 0x01bd0100
    4eb0:	00000041 	andeq	r0, r0, r1, asr #32
    4eb4:	00002c0c 	andeq	r2, r0, ip, lsl #24
    4eb8:	00002c3c 	andeq	r2, r0, ip, lsr ip
    4ebc:	f1007d02 			; <UNDEFINED> instruction: 0xf1007d02
    4ec0:	0c000002 	stceq	0, cr0, [r0], {2}
    4ec4:	00001d9f 	muleq	r0, pc, sp	; <UNPREDICTABLE>
    4ec8:	0053bd01 	subseq	fp, r3, r1, lsl #26
    4ecc:	1b4d0000 	blne	1344ed4 <__bss_end+0x134195c>
    4ed0:	0b140000 	bleq	504ed8 <__bss_end+0x501960>
    4ed4:	10000001 	andne	r0, r0, r1
    4ed8:	8000002c 	andhi	r0, r0, ip, lsr #32
    4edc:	01000001 	tsteq	r0, r1
    4ee0:	011815c3 	tsteq	r8, r3, asr #11
    4ee4:	03050000 	movweq	r0, #20480	; 0x5000
    4ee8:	00003390 	muleq	r0, r0, r3
    4eec:	ca170000 	bgt	5c4ef4 <__bss_end+0x5c197c>
    4ef0:	0100001c 	tsteq	r0, ip, lsl r0
    4ef4:	0000530d 	andeq	r5, r0, sp, lsl #6
    4ef8:	90030500 	andls	r0, r3, r0, lsl #10
    4efc:	00000033 	andeq	r0, r0, r3, lsr r0
    4f00:	0000107f 	andeq	r1, r0, pc, ror r0
    4f04:	13850002 	orrne	r0, r5, #2
    4f08:	01040000 	mrseq	r0, (UNDEF: 4)
    4f0c:	00000046 	andeq	r0, r0, r6, asr #32
    4f10:	001db501 	andseq	fp, sp, r1, lsl #10
    4f14:	0000c100 	andeq	ip, r0, r0, lsl #2
    4f18:	002c3c00 	eoreq	r3, ip, r0, lsl #24
    4f1c:	002fe000 	eoreq	lr, pc, r0
    4f20:	00157200 	andseq	r7, r5, r0, lsl #4
    4f24:	06010200 	streq	r0, [r1], -r0, lsl #4
    4f28:	00000081 	andeq	r0, r0, r1, lsl #1
    4f2c:	000ae103 	andeq	lr, sl, r3, lsl #2
    4f30:	370f0200 	strcc	r0, [pc, -r0, lsl #4]
    4f34:	02000000 	andeq	r0, r0, #0
    4f38:	007f0801 	rsbseq	r0, pc, r1, lsl #16
    4f3c:	02020000 	andeq	r0, r2, #0
    4f40:	0001b605 	andeq	fp, r1, r5, lsl #12
    4f44:	07020200 	streq	r0, [r2, -r0, lsl #4]
    4f48:	000000a3 	andeq	r0, r0, r3, lsr #1
    4f4c:	000ff803 	andeq	pc, pc, r3, lsl #16
    4f50:	57120200 	ldrpl	r0, [r2, -r0, lsl #4]
    4f54:	04000000 	streq	r0, [r0], #-0
    4f58:	6e690504 	cdpvs	5, 6, cr0, cr9, cr4, {0}
    4f5c:	07030074 	smlsdxeq	r3, r4, r0, r0
    4f60:	02000008 	andeq	r0, r0, #8
    4f64:	00006913 	andeq	r6, r0, r3, lsl r9
    4f68:	07040200 	streq	r0, [r4, -r0, lsl #4]
    4f6c:	0000014a 	andeq	r0, r0, sl, asr #2
    4f70:	91050802 	tstls	r5, r2, lsl #16
    4f74:	02000001 	andeq	r0, r0, #1
    4f78:	01400708 	cmpeq	r0, r8, lsl #14
    4f7c:	04050000 	streq	r0, [r5], #-0
    4f80:	010f1a03 	tsteq	pc, r3, lsl #20
    4f84:	76060000 	strvc	r0, [r6], -r0
    4f88:	03000005 	movweq	r0, #5
    4f8c:	00005e1c 	andeq	r5, r0, ip, lsl lr
    4f90:	1e020400 	cfcpysne	mvf0, mvf2
    4f94:	06002302 	streq	r2, [r0], -r2, lsl #6
    4f98:	00000a38 	andeq	r0, r0, r8, lsr sl
    4f9c:	005e1d03 	subseq	r1, lr, r3, lsl #26
    4fa0:	06040000 	streq	r0, [r4], -r0
    4fa4:	00230218 	eoreq	r0, r3, r8, lsl r2
    4fa8:	00057e06 	andeq	r7, r5, r6, lsl #28
    4fac:	5e1e0300 	cdppl	3, 1, cr0, cr14, cr0, {0}
    4fb0:	04000000 	streq	r0, [r0], #-0
    4fb4:	23021008 	movwcs	r1, #8200	; 0x2008
    4fb8:	058e0600 	streq	r0, [lr, #1536]	; 0x600
    4fbc:	1f030000 	svcne	0x00030000
    4fc0:	0000005e 	andeq	r0, r0, lr, asr r0
    4fc4:	020f0104 	andeq	r0, pc, #1
    4fc8:	56060023 	strpl	r0, [r6], -r3, lsr #32
    4fcc:	0300000a 	movweq	r0, #10
    4fd0:	00005e20 	andeq	r5, r0, r0, lsr #28
    4fd4:	08070400 	stmdaeq	r7, {sl}
    4fd8:	06002302 	streq	r2, [r0], -r2, lsl #6
    4fdc:	0000074e 	andeq	r0, r0, lr, asr #14
    4fe0:	005e2103 	subseq	r2, lr, r3, lsl #2
    4fe4:	03040000 	movweq	r0, #16384	; 0x4000
    4fe8:	00230205 	eoreq	r0, r3, r5, lsl #4
    4fec:	000a6006 	andeq	r6, sl, r6
    4ff0:	5e220300 	cdppl	3, 2, cr0, cr2, cr0, {0}
    4ff4:	04000000 	streq	r0, [r0], #-0
    4ff8:	23020104 	movwcs	r0, #8452	; 0x2104
    4ffc:	09fa0600 	ldmibeq	sl!, {r9, sl}^
    5000:	23030000 	movwcs	r0, #12288	; 0x3000
    5004:	0000005e 	andeq	r0, r0, lr, asr r0
    5008:	02000104 	andeq	r0, r0, #1
    500c:	07000023 	streq	r0, [r0, -r3, lsr #32]
    5010:	2e180304 	cdpcs	3, 1, cr0, cr8, cr4, {0}
    5014:	08000001 	stmdaeq	r0, {r0}
    5018:	000003bc 			; <UNDEFINED> instruction: 0x000003bc
    501c:	005e1903 	subseq	r1, lr, r3, lsl #18
    5020:	30080000 	andcc	r0, r8, r0
    5024:	03000008 	movweq	r0, #8
    5028:	00007e25 	andeq	r7, r0, r5, lsr #28
    502c:	00030000 	andeq	r0, r3, r0
    5030:	0300000a 	movweq	r0, #10
    5034:	00010f26 	andeq	r0, r1, r6, lsr #30
    5038:	03040500 	movweq	r0, #17664	; 0x4500
    503c:	0001ca3e 	andeq	ip, r1, lr, lsr sl
    5040:	0c730600 	ldcleq	6, cr0, [r3], #-0
    5044:	40030000 	andmi	r0, r3, r0
    5048:	0000005e 	andeq	r0, r0, lr, asr r0
    504c:	021e0204 	andseq	r0, lr, #1073741824	; 0x40000000
    5050:	38060023 	stmdacc	r6, {r0, r1, r5}
    5054:	0300000a 	movweq	r0, #10
    5058:	00005e41 	andeq	r5, r0, r1, asr #28
    505c:	140a0400 	strne	r0, [sl], #-1024	; 0x400
    5060:	06002302 	streq	r2, [r0], -r2, lsl #6
    5064:	00000684 	andeq	r0, r0, r4, lsl #13
    5068:	005e4203 	subseq	r4, lr, r3, lsl #4
    506c:	01040000 	mrseq	r0, (UNDEF: 4)
    5070:	00230213 	eoreq	r0, r3, r3, lsl r2
    5074:	000a4206 	andeq	r4, sl, r6, lsl #4
    5078:	5e430300 	cdppl	3, 4, cr0, cr3, cr0, {0}
    507c:	04000000 	streq	r0, [r0], #-0
    5080:	23021003 	movwcs	r1, #8195	; 0x2003
    5084:	080d0600 	stmdaeq	sp, {r9, sl}
    5088:	44030000 	strmi	r0, [r3], #-0
    508c:	0000005e 	andeq	r0, r0, lr, asr r0
    5090:	020e0204 	andeq	r0, lr, #1073741824	; 0x40000000
    5094:	4c060023 	stcmi	0, cr0, [r6], {35}	; 0x23
    5098:	0300000a 	movweq	r0, #10
    509c:	00005e45 	andeq	r5, r0, r5, asr #28
    50a0:	040a0400 	streq	r0, [sl], #-1024	; 0x400
    50a4:	06002302 	streq	r2, [r0], -r2, lsl #6
    50a8:	000005f4 	strdeq	r0, [r0], -r4
    50ac:	005e4603 	subseq	r4, lr, r3, lsl #12
    50b0:	01040000 	mrseq	r0, (UNDEF: 4)
    50b4:	00230203 	eoreq	r0, r3, r3, lsl #4
    50b8:	000a5606 	andeq	r5, sl, r6, lsl #12
    50bc:	5e470300 	cdppl	3, 4, cr0, cr7, cr0, {0}
    50c0:	04000000 	streq	r0, [r0], #-0
    50c4:	23020003 	movwcs	r0, #8195	; 0x2003
    50c8:	04070000 	streq	r0, [r7], #-0
    50cc:	01e93c03 	mvneq	r3, r3, lsl #24
    50d0:	bc080000 	stclt	0, cr0, [r8], {-0}
    50d4:	03000003 	movweq	r0, #3
    50d8:	00005e3d 	andeq	r5, r0, sp, lsr lr
    50dc:	08300800 	ldmdaeq	r0!, {fp}
    50e0:	48030000 	stmdami	r3, {}	; <UNPREDICTABLE>
    50e4:	00000139 	andeq	r0, r0, r9, lsr r1
    50e8:	047b0300 	ldrbteq	r0, [fp], #-768	; 0x300
    50ec:	49030000 	stmdbmi	r3, {}	; <UNPREDICTABLE>
    50f0:	000001ca 	andeq	r0, r0, sl, asr #3
    50f4:	00034e09 	andeq	r4, r3, r9, lsl #28
    50f8:	4f030400 	svcmi	0x00030400
    50fc:	00000278 	andeq	r0, r0, r8, ror r2
    5100:	000a3806 	andeq	r3, sl, r6, lsl #16
    5104:	5e510300 	cdppl	3, 5, cr0, cr1, cr0, {0}
    5108:	04000000 	streq	r0, [r0], #-0
    510c:	23021c04 	movwcs	r1, #11268	; 0x2c04
    5110:	08840600 	stmeq	r4, {r9, sl}
    5114:	52030000 	andpl	r0, r3, #0
    5118:	0000005e 	andeq	r0, r0, lr, asr r0
    511c:	021a0204 	andseq	r0, sl, #1073741824	; 0x40000000
    5120:	f0060023 			; <UNDEFINED> instruction: 0xf0060023
    5124:	03000007 	movweq	r0, #7
    5128:	00005e53 	andeq	r5, r0, r3, asr lr
    512c:	18020400 	stmdane	r2, {sl}
    5130:	06002302 	streq	r2, [r0], -r2, lsl #6
    5134:	00000999 	muleq	r0, r9, r9
    5138:	005e5403 	subseq	r5, lr, r3, lsl #8
    513c:	02040000 	andeq	r0, r4, #0
    5140:	00230216 	eoreq	r0, r3, r6, lsl r2
    5144:	000a4206 	andeq	r4, sl, r6, lsl #4
    5148:	5e550300 	cdppl	3, 5, cr0, cr5, cr0, {0}
    514c:	04000000 	streq	r0, [r0], #-0
    5150:	23021402 	movwcs	r1, #9218	; 0x2402
    5154:	097b0600 	ldmdbeq	fp!, {r9, sl}^
    5158:	56030000 	strpl	r0, [r3], -r0
    515c:	0000005e 	andeq	r0, r0, lr, asr r0
    5160:	02120204 	andseq	r0, r2, #1073741824	; 0x40000000
    5164:	4c060023 	stcmi	0, cr0, [r6], {35}	; 0x23
    5168:	0300000a 	movweq	r0, #10
    516c:	00005e57 	andeq	r5, r0, r7, asr lr
    5170:	00120400 	andseq	r0, r2, r0, lsl #8
    5174:	00002302 	andeq	r2, r0, r2, lsl #6
    5178:	000bcd03 	andeq	ip, fp, r3, lsl #26
    517c:	f4580300 			; <UNDEFINED> instruction: 0xf4580300
    5180:	05000001 	streq	r0, [r0, #-1]
    5184:	f25f0304 	vcgt.s16	d16, d15, d4
    5188:	06000002 	streq	r0, [r0], -r2
    518c:	0000060c 	andeq	r0, r0, ip, lsl #12
    5190:	005e6103 	subseq	r6, lr, r3, lsl #2
    5194:	05040000 	streq	r0, [r4, #-0]
    5198:	0023021b 	eoreq	r0, r3, fp, lsl r2
    519c:	000c6a06 	andeq	r6, ip, r6, lsl #20
    51a0:	5e620300 	cdppl	3, 6, cr0, cr2, cr0, {0}
    51a4:	04000000 	streq	r0, [r0], #-0
    51a8:	2302100b 	movwcs	r1, #8203	; 0x200b
    51ac:	06110600 	ldreq	r0, [r1], -r0, lsl #12
    51b0:	63030000 	movwvs	r0, #12288	; 0x3000
    51b4:	0000005e 	andeq	r0, r0, lr, asr r0
    51b8:	020e0204 	andeq	r0, lr, #1073741824	; 0x40000000
    51bc:	42060023 	andmi	r0, r6, #35	; 0x23
    51c0:	0300000a 	movweq	r0, #10
    51c4:	00005e64 	andeq	r5, r0, r4, ror #28
    51c8:	08060400 	stmdaeq	r6, {sl}
    51cc:	06002302 	streq	r2, [r0], -r2, lsl #6
    51d0:	000005f6 	strdeq	r0, [r0], -r6
    51d4:	005e6503 	subseq	r6, lr, r3, lsl #10
    51d8:	02040000 	andeq	r0, r4, #0
    51dc:	00230206 	eoreq	r0, r3, r6, lsl #4
    51e0:	000a4c06 	andeq	r4, sl, r6, lsl #24
    51e4:	5e660300 	cdppl	3, 6, cr0, cr6, cr0, {0}
    51e8:	04000000 	streq	r0, [r0], #-0
    51ec:	23020006 	movwcs	r0, #8198	; 0x2006
    51f0:	04070000 	streq	r0, [r7], #-0
    51f4:	03115d03 	tsteq	r1, #192	; 0xc0
    51f8:	bc080000 	stclt	0, cr0, [r8], {-0}
    51fc:	03000003 	movweq	r0, #3
    5200:	00005e5e 	andeq	r5, r0, lr, asr lr
    5204:	08300800 	ldmdaeq	r0!, {fp}
    5208:	67030000 	strvs	r0, [r3, -r0]
    520c:	00000283 	andeq	r0, r0, r3, lsl #5
    5210:	08be0300 	ldmeq	lr!, {r8, r9}
    5214:	68030000 	stmdavs	r3, {}	; <UNPREDICTABLE>
    5218:	000002f2 	strdeq	r0, [r0], -r2
    521c:	00078809 	andeq	r8, r7, r9, lsl #16
    5220:	6a030400 	bvs	c6228 <__bss_end+0xc2cb0>
    5224:	0000034b 	andeq	r0, r0, fp, asr #6
    5228:	000c4b06 	andeq	r4, ip, r6, lsl #22
    522c:	5e6c0300 	cdppl	3, 6, cr0, cr12, cr0, {0}
    5230:	04000000 	streq	r0, [r0], #-0
    5234:	23021010 	movwcs	r1, #8208	; 0x2010
    5238:	0c6a0600 	stcleq	6, cr0, [sl], #-0
    523c:	6d030000 	stcvs	0, cr0, [r3, #-0]
    5240:	0000005e 	andeq	r0, r0, lr, asr r0
    5244:	02001004 	andeq	r1, r0, #4
    5248:	03000023 	movweq	r0, #35	; 0x23
    524c:	00000b12 	andeq	r0, r0, r2, lsl fp
    5250:	031c6e03 	tsteq	ip, #48	; 0x30
    5254:	ed0a0000 	stc	0, cr0, [sl, #-0]
    5258:	dc00000c 	stcle	0, cr0, [r0], {12}
    525c:	2c700302 	ldclcs	3, cr0, [r0], #-8
    5260:	0b00000b 	bleq	5294 <__bss_end+0x1d1c>
    5264:	00000757 	andeq	r0, r0, r7, asr r7
    5268:	0b2c7203 	bleq	b21a7c <__bss_end+0xb1e504>
    526c:	23020000 	movwcs	r0, #8192	; 0x2000
    5270:	076b0b00 	strbeq	r0, [fp, -r0, lsl #22]!
    5274:	73030000 	movwvc	r0, #12288	; 0x3000
    5278:	00000b31 	andeq	r0, r0, r1, lsr fp
    527c:	0b042302 	bleq	10de8c <__bss_end+0x10a914>
    5280:	00000ce5 	andeq	r0, r0, r5, ror #25
    5284:	0b317403 	bleq	c62298 <__bss_end+0xc5ed20>
    5288:	23020000 	movwcs	r0, #8192	; 0x2000
    528c:	0a420b08 	beq	1087eb4 <__bss_end+0x108493c>
    5290:	75030000 	strvc	r0, [r3, #-0]
    5294:	00000b31 	andeq	r0, r0, r1, lsr fp
    5298:	0b0c2302 	bleq	30dea8 <__bss_end+0x30a930>
    529c:	000008ac 	andeq	r0, r0, ip, lsr #17
    52a0:	0b317603 	bleq	c62ab4 <__bss_end+0xc5f53c>
    52a4:	23020000 	movwcs	r0, #8192	; 0x2000
    52a8:	0a4c0b10 	beq	1307ef0 <__bss_end+0x1304978>
    52ac:	77030000 	strvc	r0, [r3, -r0]
    52b0:	00000b31 	andeq	r0, r0, r1, lsr fp
    52b4:	0b142302 	bleq	50dec4 <__bss_end+0x50a94c>
    52b8:	0000045c 	andeq	r0, r0, ip, asr r4
    52bc:	0b317803 	bleq	c632d0 <__bss_end+0xc5fd58>
    52c0:	23020000 	movwcs	r0, #8192	; 0x2000
    52c4:	0a560b18 	beq	1587f2c <__bss_end+0x15849b4>
    52c8:	79030000 	stmdbvc	r3, {}	; <UNPREDICTABLE>
    52cc:	00000b31 	andeq	r0, r0, r1, lsr fp
    52d0:	0b1c2302 	bleq	70dee0 <__bss_end+0x70a968>
    52d4:	000009e8 	andeq	r0, r0, r8, ror #19
    52d8:	0b317a03 	bleq	c63aec <__bss_end+0xc60574>
    52dc:	23020000 	movwcs	r0, #8192	; 0x2000
    52e0:	0a600b20 	beq	1807f68 <__bss_end+0x18049f0>
    52e4:	7b030000 	blvc	c52ec <__bss_end+0xc1d74>
    52e8:	00000b31 	andeq	r0, r0, r1, lsr fp
    52ec:	0b242302 	bleq	90defc <__bss_end+0x90a984>
    52f0:	00000414 	andeq	r0, r0, r4, lsl r4
    52f4:	0b317c03 	bleq	c64308 <__bss_end+0xc60d90>
    52f8:	23020000 	movwcs	r0, #8192	; 0x2000
    52fc:	0a6a0b28 	beq	1a87fa4 <__bss_end+0x1a84a2c>
    5300:	7d030000 	stcvc	0, cr0, [r3, #-0]
    5304:	00000b31 	andeq	r0, r0, r1, lsr fp
    5308:	0b2c2302 	bleq	b0df18 <__bss_end+0xb0a9a0>
    530c:	000009d0 	ldrdeq	r0, [r0], -r0	; <UNPREDICTABLE>
    5310:	0b317e03 	bleq	c64b24 <__bss_end+0xc615ac>
    5314:	23020000 	movwcs	r0, #8192	; 0x2000
    5318:	0a740b30 	beq	1d07fe0 <__bss_end+0x1d04a68>
    531c:	7f030000 	svcvc	0x00030000
    5320:	00000b31 	andeq	r0, r0, r1, lsr fp
    5324:	0b342302 	bleq	d0df34 <__bss_end+0xd0a9bc>
    5328:	00000780 	andeq	r0, r0, r0, lsl #15
    532c:	0b318003 	bleq	c65340 <__bss_end+0xc61dc8>
    5330:	23020000 	movwcs	r0, #8192	; 0x2000
    5334:	0a7e0b38 	beq	1f8801c <__bss_end+0x1f84aa4>
    5338:	81030000 	mrshi	r0, (UNDEF: 3)
    533c:	00000b31 	andeq	r0, r0, r1, lsr fp
    5340:	0b3c2302 	bleq	f0df50 <__bss_end+0xf0a9d8>
    5344:	00000b00 	andeq	r0, r0, r0, lsl #22
    5348:	0b318203 	bleq	c65b5c <__bss_end+0xc625e4>
    534c:	23020000 	movwcs	r0, #8192	; 0x2000
    5350:	0d600b40 	vstmdbeq	r0!, {d16-<overflow reg d47>}
    5354:	83030000 	movwhi	r0, #12288	; 0x3000
    5358:	00000b31 	andeq	r0, r0, r1, lsr fp
    535c:	0b442302 	bleq	110df6c <__bss_end+0x110a9f4>
    5360:	00000453 	andeq	r0, r0, r3, asr r4
    5364:	0b318403 	bleq	c66378 <__bss_end+0xc62e00>
    5368:	23020000 	movwcs	r0, #8192	; 0x2000
    536c:	0ba90b48 	bleq	fea48094 <__bss_end+0xfea44b1c>
    5370:	85030000 	strhi	r0, [r3, #-0]
    5374:	00000b31 	andeq	r0, r0, r1, lsr fp
    5378:	0b4c2302 	bleq	130df88 <__bss_end+0x130aa10>
    537c:	000008b4 			; <UNDEFINED> instruction: 0x000008b4
    5380:	0b368603 	bleq	da6b94 <__bss_end+0xda361c>
    5384:	23020000 	movwcs	r0, #8192	; 0x2000
    5388:	08840b50 	stmeq	r4, {r4, r6, r8, r9, fp}
    538c:	87030000 	strhi	r0, [r3, -r0]
    5390:	00000b3b 	andeq	r0, r0, fp, lsr fp
    5394:	0b542302 	bleq	150dfa4 <__bss_end+0x150aa2c>
    5398:	00000586 	andeq	r0, r0, r6, lsl #11
    539c:	0b408803 	bleq	10273b0 <__bss_end+0x1023e38>
    53a0:	23020000 	movwcs	r0, #8192	; 0x2000
    53a4:	0a160b58 	beq	58810c <__bss_end+0x584b94>
    53a8:	89030000 	stmdbhi	r3, {}	; <UNPREDICTABLE>
    53ac:	00000b31 	andeq	r0, r0, r1, lsr fp
    53b0:	0b5c2302 	bleq	170dfc0 <__bss_end+0x170aa48>
    53b4:	00000af7 	strdeq	r0, [r0], -r7
    53b8:	0b318a03 	bleq	c67bcc <__bss_end+0xc64654>
    53bc:	23020000 	movwcs	r0, #8192	; 0x2000
    53c0:	07110b60 	ldreq	r0, [r1, -r0, ror #22]
    53c4:	8b030000 	blhi	c53cc <__bss_end+0xc1e54>
    53c8:	00000b31 	andeq	r0, r0, r1, lsr fp
    53cc:	0b642302 	bleq	190dfdc <__bss_end+0x190aa64>
    53d0:	00000c7d 	andeq	r0, r0, sp, ror ip
    53d4:	0b318c03 	bleq	c683e8 <__bss_end+0xc64e70>
    53d8:	23020000 	movwcs	r0, #8192	; 0x2000
    53dc:	09280b68 	stmdbeq	r8!, {r3, r5, r6, r8, r9, fp}
    53e0:	8d030000 	stchi	0, cr0, [r3, #-0]
    53e4:	00000b31 	andeq	r0, r0, r1, lsr fp
    53e8:	0b6c2302 	bleq	1b0dff8 <__bss_end+0x1b0aa80>
    53ec:	00000a88 	andeq	r0, r0, r8, lsl #21
    53f0:	0b558e03 	bleq	1568c04 <__bss_end+0x156568c>
    53f4:	23020000 	movwcs	r0, #8192	; 0x2000
    53f8:	0d560b70 	vldreq	d16, [r6, #-448]	; 0xfffffe40
    53fc:	8f030000 	svchi	0x00030000
    5400:	00000b31 	andeq	r0, r0, r1, lsr fp
    5404:	0b782302 	bleq	1e0e014 <__bss_end+0x1e0aa9c>
    5408:	00000400 	andeq	r0, r0, r0, lsl #8
    540c:	0b319003 	bleq	c69420 <__bss_end+0xc65ea8>
    5410:	23020000 	movwcs	r0, #8192	; 0x2000
    5414:	0d230b7c 	vstmdbeq	r3!, {d0-<overflow reg d61>}
    5418:	91030000 	mrsls	r0, (UNDEF: 3)
    541c:	00000b31 	andeq	r0, r0, r1, lsr fp
    5420:	01802303 	orreq	r2, r0, r3, lsl #6
    5424:	000c860b 	andeq	r8, ip, fp, lsl #12
    5428:	31920300 	orrscc	r0, r2, r0, lsl #6
    542c:	0300000b 	movweq	r0, #11
    5430:	0c018423 	cfstrseq	mvf8, [r1], {35}	; 0x23
    5434:	00306453 	eorseq	r6, r0, r3, asr r4
    5438:	0b319303 	bleq	c6a04c <__bss_end+0xc66ad4>
    543c:	23030000 	movwcs	r0, #12288	; 0x3000
    5440:	530c0188 	movwpl	r0, #49544	; 0xc188
    5444:	03003164 	movweq	r3, #356	; 0x164
    5448:	000b3194 	muleq	fp, r4, r1
    544c:	8c230300 	stchi	3, cr0, [r3], #-0
    5450:	64530c01 	ldrbvs	r0, [r3], #-3073	; 0xc01
    5454:	95030032 	strls	r0, [r3, #-50]	; 0x32
    5458:	00000b31 	andeq	r0, r0, r1, lsr fp
    545c:	01902303 	orrseq	r2, r0, r3, lsl #6
    5460:	000c910b 	andeq	r9, ip, fp, lsl #2
    5464:	5a960300 	bpl	fe58606c <__bss_end+0xfe582af4>
    5468:	0300000b 	movweq	r0, #11
    546c:	0c019423 	cfstrseq	mvf9, [r1], {35}	; 0x23
    5470:	03007353 	movweq	r7, #851	; 0x353
    5474:	000b3197 	muleq	fp, r7, r1
    5478:	9c230300 	stcls	3, cr0, [r3], #-0
    547c:	0aed0b01 	beq	ffb48088 <__bss_end+0xffb44b10>
    5480:	98030000 	stmdals	r3, {}	; <UNPREDICTABLE>
    5484:	00000b31 	andeq	r0, r0, r1, lsr fp
    5488:	01a02303 	lsleq	r2, r3, #6
    548c:	000af20b 	andeq	pc, sl, fp, lsl #4
    5490:	31990300 	orrscc	r0, r9, r0, lsl #6
    5494:	0300000b 	movweq	r0, #11
    5498:	0b01a423 	bleq	6e52c <__bss_end+0x6afb4>
    549c:	00000c9c 	muleq	r0, ip, ip
    54a0:	0b5f9a03 	bleq	17ebcb4 <__bss_end+0x17e873c>
    54a4:	23030000 	movwcs	r0, #12288	; 0x3000
    54a8:	440b01a8 	strmi	r0, [fp], #-424	; 0x1a8
    54ac:	03000004 	movweq	r0, #4
    54b0:	000b319b 	muleq	fp, fp, r1
    54b4:	b0230300 	eorlt	r0, r3, r0, lsl #6
    54b8:	04490b01 	strbeq	r0, [r9], #-2817	; 0xb01
    54bc:	9c030000 	stcls	0, cr0, [r3], {-0}
    54c0:	00000b31 	andeq	r0, r0, r1, lsr fp
    54c4:	01b42303 			; <UNDEFINED> instruction: 0x01b42303
    54c8:	00044e0b 	andeq	r4, r4, fp, lsl #28
    54cc:	319d0300 	orrscc	r0, sp, r0, lsl #6
    54d0:	0300000b 	movweq	r0, #11
    54d4:	0b01b823 	bleq	73568 <__bss_end+0x6fff0>
    54d8:	000004f8 	strdeq	r0, [r0], -r8
    54dc:	0b319e03 	bleq	c6ccf0 <__bss_end+0xc69778>
    54e0:	23030000 	movwcs	r0, #12288	; 0x3000
    54e4:	1f0b01bc 	svcne	0x000b01bc
    54e8:	03000009 	movweq	r0, #9
    54ec:	000b319f 	muleq	fp, pc, r1	; <UNPREDICTABLE>
    54f0:	c0230300 	eorgt	r0, r3, r0, lsl #6
    54f4:	08620b01 	stmdaeq	r2!, {r0, r8, r9, fp}^
    54f8:	a0030000 	andge	r0, r3, r0
    54fc:	00000b64 	andeq	r0, r0, r4, ror #22
    5500:	01c42303 	biceq	r2, r4, r3, lsl #6
    5504:	6273550c 	rsbsvs	r5, r3, #50331648	; 0x3000000
    5508:	31a10300 			; <UNDEFINED> instruction: 0x31a10300
    550c:	0300000b 	movweq	r0, #11
    5510:	0b01cc23 	bleq	785a4 <__bss_end+0x7502c>
    5514:	00000c1a 	andeq	r0, r0, sl, lsl ip
    5518:	0b31a203 	bleq	c6dd2c <__bss_end+0xc6a7b4>
    551c:	23030000 	movwcs	r0, #12288	; 0x3000
    5520:	9f0b01d0 	svcls	0x000b01d0
    5524:	03000007 	movweq	r0, #7
    5528:	000b79a3 	andeq	r7, fp, r3, lsr #19
    552c:	d4230300 	strtle	r0, [r3], #-768	; 0x300
    5530:	0cd90b01 	fldmiaxeq	r9, {d16-d15}	;@ Deprecated
    5534:	a4030000 	strge	r0, [r3], #-0
    5538:	00000b31 	andeq	r0, r0, r1, lsr fp
    553c:	01f02303 	mvnseq	r2, r3, lsl #6
    5540:	000bc50b 	andeq	ip, fp, fp, lsl #10
    5544:	31a50300 			; <UNDEFINED> instruction: 0x31a50300
    5548:	0300000b 	movweq	r0, #11
    554c:	0b01f423 	bleq	825e0 <__bss_end+0x7f068>
    5550:	00000c54 	andeq	r0, r0, r4, asr ip
    5554:	0b31a603 	bleq	c6ed68 <__bss_end+0xc6b7f0>
    5558:	23030000 	movwcs	r0, #12288	; 0x3000
    555c:	a10b01f8 	strdge	r0, [fp, -r8]
    5560:	03000009 	movweq	r0, #9
    5564:	000b31a7 	andeq	r3, fp, r7, lsr #3
    5568:	fc230300 	stc2	3, cr0, [r3], #-0
    556c:	09720b01 	ldmdbeq	r2!, {r0, r8, r9, fp}^
    5570:	a8030000 	stmdage	r3, {}	; <UNPREDICTABLE>
    5574:	00000b31 	andeq	r0, r0, r1, lsr fp
    5578:	02802303 	addeq	r2, r0, #201326592	; 0xc000000
    557c:	00075f0b 	andeq	r5, r7, fp, lsl #30
    5580:	31a90300 			; <UNDEFINED> instruction: 0x31a90300
    5584:	0300000b 	movweq	r0, #11
    5588:	0b028423 	bleq	a661c <__bss_end+0xa30a4>
    558c:	00000398 	muleq	r0, r8, r3
    5590:	0b31aa03 	bleq	c6fda4 <__bss_end+0xc6c82c>
    5594:	23030000 	movwcs	r0, #12288	; 0x3000
    5598:	df0b0288 	svcle	0x000b0288
    559c:	03000004 	movweq	r0, #4
    55a0:	000b31ab 	andeq	r3, fp, fp, lsr #3
    55a4:	8c230300 	stchi	3, cr0, [r3], #-0
    55a8:	03a40b02 			; <UNDEFINED> instruction: 0x03a40b02
    55ac:	ac030000 	stcge	0, cr0, [r3], {-0}
    55b0:	00000b31 	andeq	r0, r0, r1, lsr fp
    55b4:	02902303 	addseq	r2, r0, #201326592	; 0xc000000
    55b8:	0003b00b 	andeq	fp, r3, fp
    55bc:	31ad0300 			; <UNDEFINED> instruction: 0x31ad0300
    55c0:	0300000b 	movweq	r0, #11
    55c4:	0b029423 	bleq	aa658 <__bss_end+0xa70e0>
    55c8:	000003f0 	strdeq	r0, [r0], -r0	; <UNPREDICTABLE>
    55cc:	0b31ae03 	bleq	c70de0 <__bss_end+0xc6d868>
    55d0:	23030000 	movwcs	r0, #12288	; 0x3000
    55d4:	f80b0298 			; <UNDEFINED> instruction: 0xf80b0298
    55d8:	03000003 	movweq	r0, #3
    55dc:	000b31af 	andeq	r3, fp, pc, lsr #3
    55e0:	9c230300 	stcls	3, cr0, [r3], #-0
    55e4:	07b00b02 	ldreq	r0, [r0, r2, lsl #22]!
    55e8:	b0030000 	andlt	r0, r3, r0
    55ec:	00000b8e 	andeq	r0, r0, lr, lsl #23
    55f0:	02a02303 	adceq	r2, r0, #201326592	; 0xc000000
    55f4:	000a1e0b 	andeq	r1, sl, fp, lsl #28
    55f8:	31b10300 			; <UNDEFINED> instruction: 0x31b10300
    55fc:	0300000b 	movweq	r0, #11
    5600:	0b02b023 	bleq	b1694 <__bss_end+0xae11c>
    5604:	00000ab7 			; <UNDEFINED> instruction: 0x00000ab7
    5608:	0b31b203 	bleq	c71e1c <__bss_end+0xc6e8a4>
    560c:	23030000 	movwcs	r0, #12288	; 0x3000
    5610:	1c0b02b4 	sfmne	f0, 4, [fp], {180}	; 0xb4
    5614:	03000004 	movweq	r0, #4
    5618:	000b31b3 			; <UNDEFINED> instruction: 0x000b31b3
    561c:	b8230300 	stmdalt	r3!, {r8, r9}
    5620:	65560c02 	ldrbvs	r0, [r6, #-3074]	; 0xc02
    5624:	31b40300 			; <UNDEFINED> instruction: 0x31b40300
    5628:	0300000b 	movweq	r0, #11
    562c:	0b02bc23 	bleq	b46c0 <__bss_end+0xb1148>
    5630:	00000965 	andeq	r0, r0, r5, ror #18
    5634:	0b31b503 	bleq	c72a48 <__bss_end+0xc6f4d0>
    5638:	23030000 	movwcs	r0, #12288	; 0x3000
    563c:	410c02c0 	smlabtmi	ip, r0, r2, r0
    5640:	03007376 	movweq	r7, #886	; 0x376
    5644:	000b31b6 			; <UNDEFINED> instruction: 0x000b31b6
    5648:	c4230300 	strtgt	r0, [r3], #-768	; 0x300
    564c:	04280b02 	strteq	r0, [r8], #-2818	; 0xb02
    5650:	b7030000 	strlt	r0, [r3, -r0]
    5654:	00000b31 	andeq	r0, r0, r1, lsr fp
    5658:	02c82303 	sbceq	r2, r8, #201326592	; 0xc000000
    565c:	0007bb0b 	andeq	fp, r7, fp, lsl #22
    5660:	31b80300 			; <UNDEFINED> instruction: 0x31b80300
    5664:	0300000b 	movweq	r0, #11
    5668:	0b02cc23 	bleq	b86fc <__bss_end+0xb5184>
    566c:	0000086d 	andeq	r0, r0, sp, ror #16
    5670:	0b31b903 	bleq	c73a84 <__bss_end+0xc7050c>
    5674:	23030000 	movwcs	r0, #12288	; 0x3000
    5678:	490b02d0 	stmdbmi	fp, {r4, r6, r7, r9}
    567c:	0300000b 	movweq	r0, #11
    5680:	000b31ba 			; <UNDEFINED> instruction: 0x000b31ba
    5684:	d4230300 	strtle	r0, [r3], #-768	; 0x300
    5688:	04bd0b02 	ldrteq	r0, [sp], #2818	; 0xb02
    568c:	bb030000 	bllt	c5694 <__bss_end+0xc211c>
    5690:	00000b31 	andeq	r0, r0, r1, lsr fp
    5694:	02d82303 	sbcseq	r2, r8, #201326592	; 0xc000000
    5698:	0005070b 	andeq	r0, r5, fp, lsl #14
    569c:	31bc0300 			; <UNDEFINED> instruction: 0x31bc0300
    56a0:	0300000b 	movweq	r0, #11
    56a4:	0b02dc23 	bleq	bc738 <__bss_end+0xb91c0>
    56a8:	000004c9 	andeq	r0, r0, r9, asr #9
    56ac:	0b31bd03 	bleq	c74ac0 <__bss_end+0xc71548>
    56b0:	23030000 	movwcs	r0, #12288	; 0x3000
    56b4:	c60b02e0 	strgt	r0, [fp], -r0, ror #5
    56b8:	03000007 	movweq	r0, #7
    56bc:	000b31be 			; <UNDEFINED> instruction: 0x000b31be
    56c0:	e4230300 	strt	r0, [r3], #-768	; 0x300
    56c4:	0a970b02 	beq	fe5c82d4 <__bss_end+0xfe5c4d5c>
    56c8:	bf030000 	svclt	0x00030000
    56cc:	00000b31 	andeq	r0, r0, r1, lsr fp
    56d0:	02e82303 	rsceq	r2, r8, #201326592	; 0xc000000
    56d4:	000aa30b 	andeq	sl, sl, fp, lsl #6
    56d8:	31c00300 	biccc	r0, r0, r0, lsl #6
    56dc:	0300000b 	movweq	r0, #11
    56e0:	0b02ec23 	bleq	c0774 <__bss_end+0xbd1fc>
    56e4:	000007d1 	ldrdeq	r0, [r0], -r1
    56e8:	0b93c103 	bleq	fe4f5afc <__bss_end+0xfe4f2584>
    56ec:	23030000 	movwcs	r0, #12288	; 0x3000
    56f0:	a70b02f0 			; <UNDEFINED> instruction: 0xa70b02f0
    56f4:	0300000c 	movweq	r0, #12
    56f8:	000b31c2 	andeq	r3, fp, r2, asr #3
    56fc:	80230300 	eorhi	r0, r3, r0, lsl #6
    5700:	06470b03 	strbeq	r0, [r7], -r3, lsl #22
    5704:	c3030000 	movwgt	r0, #12288	; 0x3000
    5708:	00000b31 	andeq	r0, r0, r1, lsr fp
    570c:	03842303 	orreq	r2, r4, #201326592	; 0xc000000
    5710:	0006530b 	andeq	r5, r6, fp, lsl #6
    5714:	31c40300 	biccc	r0, r4, r0, lsl #6
    5718:	0300000b 	movweq	r0, #11
    571c:	0b038823 	bleq	e77b0 <__bss_end+0xe4238>
    5720:	0000065f 	andeq	r0, r0, pc, asr r6
    5724:	0b31c503 	bleq	c76b38 <__bss_end+0xc735c0>
    5728:	23030000 	movwcs	r0, #12288	; 0x3000
    572c:	dc0b038c 	stcle	3, cr0, [fp], {140}	; 0x8c
    5730:	03000007 	movweq	r0, #7
    5734:	000b98c6 	andeq	r9, fp, r6, asr #17
    5738:	90230300 	eorls	r0, r3, r0, lsl #6
    573c:	067c0b03 	ldrbteq	r0, [ip], -r3, lsl #22
    5740:	c7030000 	strgt	r0, [r3, -r0]
    5744:	00000b31 	andeq	r0, r0, r1, lsr fp
    5748:	03a02303 	moveq	r2, #201326592	; 0xc000000
    574c:	0005fd0b 	andeq	pc, r5, fp, lsl #26
    5750:	31c80300 	biccc	r0, r8, r0, lsl #6
    5754:	0300000b 	movweq	r0, #11
    5758:	0b03a423 	bleq	ee7ec <__bss_end+0xeb274>
    575c:	000008da 	ldrdeq	r0, [r0], -sl
    5760:	0b31c903 	bleq	c77b74 <__bss_end+0xc745fc>
    5764:	23030000 	movwcs	r0, #12288	; 0x3000
    5768:	bc0b03a8 	stclt	3, cr0, [fp], {168}	; 0xa8
    576c:	03000006 	movweq	r0, #6
    5770:	000b31ca 	andeq	r3, fp, sl, asr #3
    5774:	ac230300 	stcge	3, cr0, [r3], #-0
    5778:	06c80b03 	strbeq	r0, [r8], r3, lsl #22
    577c:	cb030000 	blgt	c5784 <__bss_end+0xc220c>
    5780:	00000b31 	andeq	r0, r0, r1, lsr fp
    5784:	03b02303 	movseq	r2, #201326592	; 0xc000000
    5788:	00088c0b 	andeq	r8, r8, fp, lsl #24
    578c:	adcc0300 	stclge	3, cr0, [ip]
    5790:	0300000b 	movweq	r0, #11
    5794:	0b03b423 	bleq	f2828 <__bss_end+0xef2b0>
    5798:	000003d0 	ldrdeq	r0, [r0], -r0	; <UNPREDICTABLE>
    579c:	0b31cd03 	bleq	c78bb0 <__bss_end+0xc75638>
    57a0:	23030000 	movwcs	r0, #12288	; 0x3000
    57a4:	740b03c0 	strvc	r0, [fp], #-960	; 0x3c0
    57a8:	03000007 	movweq	r0, #7
    57ac:	000bc2ce 	andeq	ip, fp, lr, asr #5
    57b0:	c4230300 	strtgt	r0, [r3], #-768	; 0x300
    57b4:	066b0b03 	strbteq	r0, [fp], -r3, lsl #22
    57b8:	cf030000 	svcgt	0x00030000
    57bc:	00000bc7 	andeq	r0, r0, r7, asr #23
    57c0:	04802303 	streq	r2, [r0], #771	; 0x303
    57c4:	0009450b 	andeq	r4, r9, fp, lsl #10
    57c8:	31d00300 	bicscc	r0, r0, r0, lsl #6
    57cc:	0300000b 	movweq	r0, #11
    57d0:	0b048423 	bleq	126864 <__bss_end+0x1232ec>
    57d4:	00000c5e 	andeq	r0, r0, lr, asr ip
    57d8:	0b31d103 	bleq	c79bec <__bss_end+0xc76674>
    57dc:	23030000 	movwcs	r0, #12288	; 0x3000
    57e0:	260b0488 	strcs	r0, [fp], -r8, lsl #9
    57e4:	0300000c 	movweq	r0, #12
    57e8:	000b31d2 	ldrdeq	r3, [fp], -r2
    57ec:	8c230300 	stchi	3, cr0, [r3], #-0
    57f0:	05960b04 	ldreq	r0, [r6, #2820]	; 0xb04
    57f4:	d3030000 	movwle	r0, #12288	; 0x3000
    57f8:	00000bcc 	andeq	r0, r0, ip, asr #23
    57fc:	04902303 	ldreq	r2, [r0], #771	; 0x303
    5800:	0008270b 	andeq	r2, r8, fp, lsl #14
    5804:	e1d50300 	bics	r0, r5, r0, lsl #6
    5808:	0300000b 	movweq	r0, #11
    580c:	0b04a023 	bleq	12d8a0 <__bss_end+0x12a328>
    5810:	00000499 	muleq	r0, r9, r4
    5814:	0b31d603 	bleq	c7b028 <__bss_end+0xc77ab0>
    5818:	23030000 	movwcs	r0, #12288	; 0x3000
    581c:	c20b04a4 	andgt	r0, fp, #-1543503872	; 0xa4000000
    5820:	03000003 	movweq	r0, #3
    5824:	000b31d7 	ldrdeq	r3, [fp], -r7
    5828:	a8230300 	stmdage	r3!, {r8, r9}
    582c:	084b0b04 	stmdaeq	fp, {r2, r8, r9, fp}^
    5830:	d8030000 	stmdale	r3, {}	; <UNPREDICTABLE>
    5834:	00000b31 	andeq	r0, r0, r1, lsr fp
    5838:	04ac2303 	strteq	r2, [ip], #771	; 0x303
    583c:	0006a40b 	andeq	sl, r6, fp, lsl #8
    5840:	31d90300 	bicscc	r0, r9, r0, lsl #6
    5844:	0300000b 	movweq	r0, #11
    5848:	0b04b023 	bleq	1318dc <__bss_end+0x12e364>
    584c:	00000b2b 	andeq	r0, r0, fp, lsr #22
    5850:	0b31da03 	bleq	c7c064 <__bss_end+0xc78aec>
    5854:	23030000 	movwcs	r0, #12288	; 0x3000
    5858:	150b04b4 	strne	r0, [fp, #-1204]	; 0x4b4
    585c:	0300000d 	movweq	r0, #13
    5860:	000b31db 	ldrdeq	r3, [fp], -fp
    5864:	b8230300 	stmdalt	r3!, {r8, r9}
    5868:	05d80b04 	ldrbeq	r0, [r8, #2820]	; 0xb04
    586c:	dc030000 	stcle	0, cr0, [r3], {-0}
    5870:	00000b31 	andeq	r0, r0, r1, lsr fp
    5874:	04bc2303 	ldrteq	r2, [ip], #771	; 0x303
    5878:	0006af0b 	andeq	sl, r6, fp, lsl #30
    587c:	31dd0300 	bicscc	r0, sp, r0, lsl #6
    5880:	0300000b 	movweq	r0, #11
    5884:	0b04c023 	bleq	135918 <__bss_end+0x1323a0>
    5888:	000004ec 	andeq	r0, r0, ip, ror #9
    588c:	0b31de03 	bleq	c7d0a0 <__bss_end+0xc79b28>
    5890:	23030000 	movwcs	r0, #12288	; 0x3000
    5894:	8f0b04c4 	svchi	0x000b04c4
    5898:	03000009 	movweq	r0, #9
    589c:	000b31df 	ldrdeq	r3, [fp], -pc	; <UNPREDICTABLE>
    58a0:	c8230300 	stmdagt	r3!, {r8, r9}
    58a4:	09c20b04 	stmibeq	r2, {r2, r8, r9, fp}^
    58a8:	e0030000 	and	r0, r3, r0
    58ac:	00000b31 	andeq	r0, r0, r1, lsr fp
    58b0:	04cc2303 	strbeq	r2, [ip], #771	; 0x303
    58b4:	0004ff0b 	andeq	pc, r4, fp, lsl #30
    58b8:	31e20300 	mvncc	r0, r0, lsl #6
    58bc:	0300000b 	movweq	r0, #11
    58c0:	0b04d023 	bleq	139954 <__bss_end+0x1363dc>
    58c4:	00000986 	andeq	r0, r0, r6, lsl #19
    58c8:	0b31e303 	bleq	c7e4dc <__bss_end+0xc7af64>
    58cc:	23030000 	movwcs	r0, #12288	; 0x3000
    58d0:	a20b04d4 	andge	r0, fp, #-738197504	; 0xd4000000
    58d4:	03000005 	movweq	r0, #5
    58d8:	000be6e5 	andeq	lr, fp, r5, ror #13
    58dc:	d8230300 	stmdale	r3!, {r8, r9}
    58e0:	09db0b04 	ldmibeq	fp, {r2, r8, r9, fp}^
    58e4:	e6030000 	str	r0, [r3], -r0
    58e8:	00000b31 	andeq	r0, r0, r1, lsr fp
    58ec:	04e02303 	strbteq	r2, [r0], #771	; 0x303
    58f0:	0005ae0b 	andeq	sl, r5, fp, lsl #28
    58f4:	ebe70300 	bl	ff9c64fc <__bss_end+0xff9c2f84>
    58f8:	0300000b 	movweq	r0, #11
    58fc:	0b04e423 	bleq	13e990 <__bss_end+0x13b418>
    5900:	00000561 	andeq	r0, r0, r1, ror #10
    5904:	0b31e803 	bleq	c7f918 <__bss_end+0xc7c3a0>
    5908:	23030000 	movwcs	r0, #12288	; 0x3000
    590c:	ba0b04f0 	blt	2c6cd4 <__bss_end+0x2c375c>
    5910:	03000005 	movweq	r0, #5
    5914:	000bf0e9 	andeq	pc, fp, r9, ror #1
    5918:	f4230300 	vld2.8	{d0-d3}, [r3], r0
    591c:	09060b04 	stmdbeq	r6, {r2, r8, r9, fp}
    5920:	ea030000 	b	c5928 <__bss_end+0xc23b0>
    5924:	00000b31 	andeq	r0, r0, r1, lsr fp
    5928:	05802303 	streq	r2, [r0, #771]	; 0x303
    592c:	0009ae0b 	andeq	sl, r9, fp, lsl #28
    5930:	31ec0300 	mvncc	r0, r0, lsl #6
    5934:	0300000b 	movweq	r0, #11
    5938:	0b058423 	bleq	1669cc <__bss_end+0x163454>
    593c:	00000897 	muleq	r0, r7, r8
    5940:	0b31ed03 	bleq	c80d54 <__bss_end+0xc7d7dc>
    5944:	23030000 	movwcs	r0, #12288	; 0x3000
    5948:	4e0b0588 	cfsh32mi	mvfx0, mvfx11, #-56
    594c:	03000009 	movweq	r0, #9
    5950:	000b31ee 	andeq	r3, fp, lr, ror #3
    5954:	8c230300 	stchi	3, cr0, [r3], #-0
    5958:	0b550b05 	bleq	1548574 <__bss_end+0x1544ffc>
    595c:	ef030000 	svc	0x00030000
    5960:	00000b31 	andeq	r0, r0, r1, lsr fp
    5964:	05902303 	ldreq	r2, [r0, #771]	; 0x303
    5968:	0005cc0b 	andeq	ip, r5, fp, lsl #24
    596c:	f5f00300 			; <UNDEFINED> instruction: 0xf5f00300
    5970:	0300000b 	movweq	r0, #11
    5974:	0b059423 	bleq	16aa08 <__bss_end+0x167490>
    5978:	00000931 	andeq	r0, r0, r1, lsr r9
    597c:	0b31f103 	bleq	c81d90 <__bss_end+0xc7e818>
    5980:	23030000 	movwcs	r0, #12288	; 0x3000
    5984:	360b05a4 	strcc	r0, [fp], -r4, lsr #11
    5988:	0300000c 	movweq	r0, #12
    598c:	000b31f2 	strdeq	r3, [fp], -r2
    5990:	a8230300 	stmdage	r3!, {r8, r9}
    5994:	03680b05 	cmneq	r8, #5120	; 0x1400
    5998:	f3030000 	vhadd.u8	d0, d3, d0
    599c:	00000b31 	andeq	r0, r0, r1, lsr fp
    59a0:	05ac2303 	streq	r2, [ip, #771]!	; 0x303
    59a4:	000bb30b 	andeq	fp, fp, fp, lsl #6
    59a8:	31f40300 	mvnscc	r0, r0, lsl #6
    59ac:	0300000b 	movweq	r0, #11
    59b0:	0b05b023 	bleq	171a44 <__bss_end+0x16e4cc>
    59b4:	00000375 	andeq	r0, r0, r5, ror r3
    59b8:	0bfaf503 	bleq	ffec2dcc <__bss_end+0xffebf854>
    59bc:	23030000 	movwcs	r0, #12288	; 0x3000
    59c0:	e80b05b4 	stmda	fp, {r2, r4, r5, r7, r8, sl}
    59c4:	03000008 	movweq	r0, #8
    59c8:	000b31f7 	strdeq	r3, [fp], -r7
    59cc:	c0230300 	eorgt	r0, r3, r0, lsl #6
    59d0:	08f20b05 	ldmeq	r2!, {r0, r2, r8, r9, fp}^
    59d4:	f8030000 			; <UNDEFINED> instruction: 0xf8030000
    59d8:	00000b31 	andeq	r0, r0, r1, lsr fp
    59dc:	05c42303 	strbeq	r2, [r4, #771]	; 0x303
    59e0:	0008fc0b 	andeq	pc, r8, fp, lsl #24
    59e4:	31f90300 	mvnscc	r0, r0, lsl #6
    59e8:	0300000b 	movweq	r0, #11
    59ec:	0b05c823 	bleq	177a80 <__bss_end+0x174508>
    59f0:	00000835 	andeq	r0, r0, r5, lsr r8
    59f4:	0b31fa03 	bleq	c84208 <__bss_end+0xc80c90>
    59f8:	23030000 	movwcs	r0, #12288	; 0x3000
    59fc:	2e0b05cc 	cfsh32cs	mvfx0, mvfx11, #-20
    5a00:	0300000a 	movweq	r0, #10
    5a04:	000b31fb 	strdeq	r3, [fp], -fp
    5a08:	d0230300 	eorle	r0, r3, r0, lsl #6
    5a0c:	08400b05 	stmdaeq	r0, {r0, r2, r8, r9, fp}^
    5a10:	fc030000 	stc2	0, cr0, [r3], {-0}
    5a14:	00000b31 	andeq	r0, r0, r1, lsr fp
    5a18:	05d42303 	ldrbeq	r2, [r4, #771]	; 0x303
    5a1c:	0006160b 	andeq	r1, r6, fp, lsl #12
    5a20:	31fd0300 	mvnscc	r0, r0, lsl #6
    5a24:	0300000b 	movweq	r0, #11
    5a28:	0005d823 	andeq	sp, r5, r3, lsr #16
    5a2c:	00012e0d 	andeq	r2, r1, sp, lsl #28
    5a30:	005e0d00 	subseq	r0, lr, r0, lsl #26
    5a34:	e90d0000 	stmdb	sp, {}	; <UNPREDICTABLE>
    5a38:	0d000001 	stceq	0, cr0, [r0, #-4]
    5a3c:	00000278 	andeq	r0, r0, r8, ror r2
    5a40:	0003110d 	andeq	r1, r3, sp, lsl #2
    5a44:	005e0e00 	subseq	r0, lr, r0, lsl #28
    5a48:	0b550000 	bleq	1545a50 <__bss_end+0x15424d8>
    5a4c:	690f0000 	stmdbvs	pc, {}	; <UNPREDICTABLE>
    5a50:	01000000 	mrseq	r0, (UNDEF: 0)
    5a54:	0b450d00 	bleq	1148e5c <__bss_end+0x11458e4>
    5a58:	450d0000 	strmi	r0, [sp, #-0]
    5a5c:	0d00000b 	stceq	0, cr0, [r0, #-44]	; 0xffffffd4
    5a60:	00000b45 	andeq	r0, r0, r5, asr #22
    5a64:	000b450d 	andeq	r4, fp, sp, lsl #10
    5a68:	005e0e00 	subseq	r0, lr, r0, lsl #28
    5a6c:	0b790000 	bleq	1e45a74 <__bss_end+0x1e424fc>
    5a70:	690f0000 	stmdbvs	pc, {}	; <UNPREDICTABLE>
    5a74:	06000000 	streq	r0, [r0], -r0
    5a78:	0b690d00 	bleq	1a48e80 <__bss_end+0x1a45908>
    5a7c:	5e0e0000 	cdppl	0, 0, cr0, cr14, cr0, {0}
    5a80:	8e000000 	cdphi	0, 0, cr0, cr0, cr0, {0}
    5a84:	0f00000b 	svceq	0x0000000b
    5a88:	00000069 	andeq	r0, r0, r9, rrx
    5a8c:	7e0d0003 	cdpvc	0, 0, cr0, cr13, cr3, {0}
    5a90:	0d00000b 	stceq	0, cr0, [r0, #-44]	; 0xffffffd4
    5a94:	00000b7e 	andeq	r0, r0, lr, ror fp
    5a98:	000b7e0d 	andeq	r7, fp, sp, lsl #28
    5a9c:	005e0e00 	subseq	r0, lr, r0, lsl #28
    5aa0:	0bad0000 	bleq	feb45aa8 <__bss_end+0xfeb42530>
    5aa4:	690f0000 	stmdbvs	pc, {}	; <UNPREDICTABLE>
    5aa8:	02000000 	andeq	r0, r0, #0
    5aac:	0b9d0d00 	bleq	fe748eb4 <__bss_end+0xfe74593c>
    5ab0:	5e0e0000 	cdppl	0, 0, cr0, cr14, cr0, {0}
    5ab4:	c2000000 	andgt	r0, r0, #0
    5ab8:	0f00000b 	svceq	0x0000000b
    5abc:	00000069 	andeq	r0, r0, r9, rrx
    5ac0:	b20d000e 	andlt	r0, sp, #14
    5ac4:	0d00000b 	stceq	0, cr0, [r0, #-44]	; 0xffffffd4
    5ac8:	0000034b 	andeq	r0, r0, fp, asr #6
    5acc:	000b7e0d 	andeq	r7, fp, sp, lsl #28
    5ad0:	005e0e00 	subseq	r0, lr, r0, lsl #28
    5ad4:	0be10000 	bleq	ff845adc <__bss_end+0xff842564>
    5ad8:	690f0000 	stmdbvs	pc, {}	; <UNPREDICTABLE>
    5adc:	00000000 	andeq	r0, r0, r0
    5ae0:	0bd10d00 	bleq	ff448ee8 <__bss_end+0xff445970>
    5ae4:	450d0000 	strmi	r0, [sp, #-0]
    5ae8:	0d00000b 	stceq	0, cr0, [r0, #-44]	; 0xffffffd4
    5aec:	00000b9d 	muleq	r0, sp, fp
    5af0:	000b9d0d 	andeq	r9, fp, sp, lsl #26
    5af4:	0b7e0d00 	bleq	1f88efc <__bss_end+0x1f85984>
    5af8:	9d0d0000 	stcls	0, cr0, [sp, #-0]
    5afc:	0300000b 	movweq	r0, #11
    5b00:	00000b78 	andeq	r0, r0, r8, ror fp
    5b04:	0356fe03 	cmpeq	r6, #48	; 0x30
    5b08:	04100000 	ldreq	r0, [r0], #-0
    5b0c:	00000bff 	strdeq	r0, [r0], -pc	; <UNPREDICTABLE>
    5b10:	0009f009 	andeq	pc, r9, r9
    5b14:	18040800 	stmdane	r4, {fp}
    5b18:	00000c39 	andeq	r0, r0, r9, lsr ip
    5b1c:	00040c0b 	andeq	r0, r4, fp, lsl #24
    5b20:	5e190400 	cfmulspl	mvf0, mvf9, mvf0
    5b24:	02000000 	andeq	r0, r0, #0
    5b28:	200b0023 	andcs	r0, fp, r3, lsr #32
    5b2c:	04000006 	streq	r0, [r0], #-6
    5b30:	00005e1a 	andeq	r5, r0, sl, lsl lr
    5b34:	04230200 	strteq	r0, [r3], #-512	; 0x200
    5b38:	0b8a0900 	bleq	fe287f40 <__bss_end+0xfe2849c8>
    5b3c:	043c0000 	ldrteq	r0, [ip], #-0
    5b40:	000d181d 	andeq	r1, sp, sp, lsl r8
    5b44:	0be90b00 	bleq	ffa4874c <__bss_end+0xffa451d4>
    5b48:	1e040000 	cdpne	0, 0, cr0, cr4, cr0, {0}
    5b4c:	0000005e 	andeq	r0, r0, lr, asr r0
    5b50:	0b002302 	bleq	e760 <__bss_end+0xb1e8>
    5b54:	00000b9f 	muleq	r0, pc, fp	; <UNPREDICTABLE>
    5b58:	005e1f04 	subseq	r1, lr, r4, lsl #30
    5b5c:	23020000 	movwcs	r0, #8192	; 0x2000
    5b60:	06730b04 	ldrbteq	r0, [r3], -r4, lsl #22
    5b64:	20040000 	andcs	r0, r4, r0
    5b68:	0000005e 	andeq	r0, r0, lr, asr r0
    5b6c:	0b082302 	bleq	20e77c <__bss_end+0x20b204>
    5b70:	000004b1 			; <UNDEFINED> instruction: 0x000004b1
    5b74:	005e2b04 	subseq	r2, lr, r4, lsl #22
    5b78:	23020000 	movwcs	r0, #8192	; 0x2000
    5b7c:	09860b0c 	stmibeq	r6, {r2, r3, r8, r9, fp}
    5b80:	2c040000 	stccs	0, cr0, [r4], {-0}
    5b84:	0000005e 	andeq	r0, r0, lr, asr r0
    5b88:	0b102302 	bleq	40e798 <__bss_end+0x40b220>
    5b8c:	0000076b 	andeq	r0, r0, fp, ror #14
    5b90:	005e2d04 	subseq	r2, lr, r4, lsl #26
    5b94:	23020000 	movwcs	r0, #8192	; 0x2000
    5b98:	08ac0b14 	stmiaeq	ip!, {r2, r4, r8, r9, fp}
    5b9c:	2e040000 	cdpcs	0, 0, cr0, cr4, cr0, {0}
    5ba0:	0000005e 	andeq	r0, r0, lr, asr r0
    5ba4:	0b182302 	bleq	60e7b4 <__bss_end+0x60b23c>
    5ba8:	0000045c 	andeq	r0, r0, ip, asr r4
    5bac:	005e2f04 	subseq	r2, lr, r4, lsl #30
    5bb0:	23020000 	movwcs	r0, #8192	; 0x2000
    5bb4:	04140b1c 	ldreq	r0, [r4], #-2844	; 0xb1c
    5bb8:	30040000 	andcc	r0, r4, r0
    5bbc:	0000005e 	andeq	r0, r0, lr, asr r0
    5bc0:	0b202302 	bleq	80e7d0 <__bss_end+0x80b258>
    5bc4:	000003c2 	andeq	r0, r0, r2, asr #7
    5bc8:	005e3104 	subseq	r3, lr, r4, lsl #2
    5bcc:	23020000 	movwcs	r0, #8192	; 0x2000
    5bd0:	084b0b24 	stmdaeq	fp, {r2, r5, r8, r9, fp}^
    5bd4:	32040000 	andcc	r0, r4, #0
    5bd8:	0000005e 	andeq	r0, r0, lr, asr r0
    5bdc:	0b282302 	bleq	a0e7ec <__bss_end+0xa0b274>
    5be0:	00000b2b 	andeq	r0, r0, fp, lsr #22
    5be4:	005e3304 	subseq	r3, lr, r4, lsl #6
    5be8:	23020000 	movwcs	r0, #8192	; 0x2000
    5bec:	08970b2c 	ldmeq	r7, {r2, r3, r5, r8, r9, fp}
    5bf0:	34040000 	strcc	r0, [r4], #-0
    5bf4:	0000005e 	andeq	r0, r0, lr, asr r0
    5bf8:	0b302302 	bleq	c0e808 <__bss_end+0xc0b290>
    5bfc:	00000c36 	andeq	r0, r0, r6, lsr ip
    5c00:	005e3504 	subseq	r3, lr, r4, lsl #10
    5c04:	23020000 	movwcs	r0, #8192	; 0x2000
    5c08:	05860b34 	streq	r0, [r6, #2868]	; 0xb34
    5c0c:	36040000 	strcc	r0, [r4], -r0
    5c10:	0000005e 	andeq	r0, r0, lr, asr r0
    5c14:	00382302 	eorseq	r2, r8, r2, lsl #6
    5c18:	00085509 	andeq	r5, r8, r9, lsl #10
    5c1c:	3b040800 	blcc	107c24 <__bss_end+0x1046ac>
    5c20:	00000d6b 	andeq	r0, r0, fp, ror #26
    5c24:	00057e0b 	andeq	r7, r5, fp, lsl #28
    5c28:	2c3c0400 	cfldrscs	mvf0, [ip], #-0
    5c2c:	02000000 	andeq	r0, r0, #0
    5c30:	6e0b0023 	cdpvs	0, 0, cr0, cr11, cr3, {1}
    5c34:	04000005 	streq	r0, [r0], #-5
    5c38:	00002c3d 	andeq	r2, r0, sp, lsr ip
    5c3c:	01230200 	teqeq	r3, r0, lsl #4
    5c40:	0005760b 	andeq	r7, r5, fp, lsl #12
    5c44:	2c3e0400 	cfldrscs	mvf0, [lr], #-0
    5c48:	02000000 	andeq	r0, r0, #0
    5c4c:	8e0b0223 	cdphi	2, 0, cr0, cr11, cr3, {1}
    5c50:	04000005 	streq	r0, [r0], #-5
    5c54:	00002c3f 	andeq	r2, r0, pc, lsr ip
    5c58:	03230200 	teqeq	r3, #0
    5c5c:	6c6c500c 	stclvs	0, cr5, [ip], #-48	; 0xffffffd0
    5c60:	5e400400 	cdppl	4, 4, cr0, cr0, cr0, {0}
    5c64:	02000000 	andeq	r0, r0, #0
    5c68:	09000423 	stmdbeq	r0, {r0, r1, r5, sl}
    5c6c:	00001ea1 	andeq	r1, r0, r1, lsr #29
    5c70:	94430440 	strbls	r0, [r3], #-1088	; 0x440
    5c74:	0b00000d 	bleq	5cb0 <__bss_end+0x2738>
    5c78:	00000b0b 	andeq	r0, r0, fp, lsl #22
    5c7c:	0c0a4404 	cfstrseq	mvf4, [sl], {4}
    5c80:	23020000 	movwcs	r0, #8192	; 0x2000
    5c84:	1e4d0b00 	vmlane.f64	d16, d13, d0
    5c88:	45040000 	strmi	r0, [r4, #-0]
    5c8c:	00000bb2 			; <UNDEFINED> instruction: 0x00000bb2
    5c90:	00042302 	andeq	r2, r4, r2, lsl #6
    5c94:	00016d11 	andeq	r6, r1, r1, lsl sp
    5c98:	7a050400 	bvc	146ca0 <__bss_end+0x143728>
    5c9c:	00000e01 	andeq	r0, r0, r1, lsl #28
    5ca0:	00001e12 	andeq	r1, r0, r2, lsl lr
    5ca4:	96120000 	ldrls	r0, [r2], -r0
    5ca8:	01000000 	mrseq	r0, (UNDEF: 0)
    5cac:	00003912 	andeq	r3, r0, r2, lsl r9
    5cb0:	73120200 	tstvc	r2, #0
    5cb4:	03000000 	movweq	r0, #0
    5cb8:	00019f12 	andeq	r9, r1, r2, lsl pc
    5cbc:	34120400 	ldrcc	r0, [r2], #-1024	; 0x400
    5cc0:	05000001 	streq	r0, [r0, #-1]
    5cc4:	00011c12 	andeq	r1, r1, r2, lsl ip
    5cc8:	57120600 	ldrpl	r0, [r2, -r0, lsl #12]
    5ccc:	07000001 	streq	r0, [r0, -r1]
    5cd0:	00001212 	andeq	r1, r0, r2, lsl r2
    5cd4:	68120800 	ldmdavs	r2, {fp}
    5cd8:	09000000 	stmdbeq	r0, {}	; <UNPREDICTABLE>
    5cdc:	00012912 	andeq	r2, r1, r2, lsl r9
    5ce0:	ab120a00 	blge	4884e8 <__bss_end+0x484f70>
    5ce4:	0b000001 	bleq	5cf0 <__bss_end+0x2778>
    5ce8:	00016712 	andeq	r6, r1, r2, lsl r7
    5cec:	83120c00 	tsthi	r2, #0
    5cf0:	0d000001 	stceq	0, cr0, [r0, #-4]
    5cf4:	00023012 	andeq	r3, r2, r2, lsl r0
    5cf8:	2b120e00 	blcs	489500 <__bss_end+0x485f88>
    5cfc:	0f000000 	svceq	0x00000000
    5d00:	08010200 	stmdaeq	r1, {r9}
    5d04:	00000088 	andeq	r0, r0, r8, lsl #1
    5d08:	45070402 	strmi	r0, [r7, #-1026]	; 0x402
    5d0c:	13000001 	movwne	r0, #1
    5d10:	001de101 	andseq	lr, sp, r1, lsl #2
    5d14:	01150100 	tsteq	r5, r0, lsl #2
    5d18:	00000c0a 	andeq	r0, r0, sl, lsl #24
    5d1c:	00002c3c 	andeq	r2, r0, ip, lsr ip
    5d20:	00002c6c 	andeq	r2, r0, ip, ror #24
    5d24:	3b007d02 	blcc	25134 <__bss_end+0x21bbc>
    5d28:	1400000e 	strne	r0, [r0], #-14
    5d2c:	000014c2 	andeq	r1, r0, r2, asr #9
    5d30:	005e1501 	subseq	r1, lr, r1, lsl #10
    5d34:	1b600000 	blne	1805d3c <__bss_end+0x18027c4>
    5d38:	15000000 	strne	r0, [r0, #-0]
    5d3c:	001e9501 	andseq	r9, lr, r1, lsl #10
    5d40:	012e0100 	teqeq	lr, r0, lsl #2
    5d44:	00000c0a 	andeq	r0, r0, sl, lsl #24
    5d48:	00002c6c 	andeq	r2, r0, ip, ror #24
    5d4c:	00002c7c 	andeq	r2, r0, ip, ror ip
    5d50:	13007d02 	movwne	r7, #3330	; 0xd02
    5d54:	001e7901 	andseq	r7, lr, r1, lsl #18
    5d58:	01550100 	cmpeq	r5, r0, lsl #2
    5d5c:	0000004c 	andeq	r0, r0, ip, asr #32
    5d60:	00002c7c 	andeq	r2, r0, ip, ror ip
    5d64:	00002cb8 			; <UNDEFINED> instruction: 0x00002cb8
    5d68:	7f007d02 	svcvc	0x00007d02
    5d6c:	1400000e 	strne	r0, [r0], #-14
    5d70:	00001ea0 	andeq	r1, r0, r0, lsr #29
    5d74:	0e7f5501 	cdpeq	5, 7, cr5, cr15, cr1, {0}
    5d78:	1b730000 	blne	1cc5d80 <__bss_end+0x1cc2808>
    5d7c:	10000000 	andne	r0, r0, r0
    5d80:	000d6b04 	andeq	r6, sp, r4, lsl #22
    5d84:	ab011300 	blge	4a98c <__bss_end+0x47414>
    5d88:	0100001e 	tsteq	r0, lr, lsl r0
    5d8c:	004c0170 	subeq	r0, ip, r0, ror r1
    5d90:	2cb80000 	ldccs	0, cr0, [r8]
    5d94:	2cec0000 	stclcs	0, cr0, [ip]
    5d98:	7d020000 	stcvc	0, cr0, [r2, #-0]
    5d9c:	000eb100 	andeq	fp, lr, r0, lsl #2
    5da0:	1ea01400 	cdpne	4, 10, cr1, cr0, cr0, {0}
    5da4:	70010000 	andvc	r0, r1, r0
    5da8:	00000e7f 	andeq	r0, r0, pc, ror lr
    5dac:	00001b91 	muleq	r0, r1, fp
    5db0:	86011600 	strhi	r1, [r1], -r0, lsl #12
    5db4:	0100001e 	tsteq	r0, lr, lsl r0
    5db8:	004c018e 	subeq	r0, ip, lr, lsl #3
    5dbc:	2cec0000 	stclcs	0, cr0, [ip]
    5dc0:	2d5c0000 	ldclcs	0, cr0, [ip, #-0]
    5dc4:	1baf0000 	blne	febc5dcc <__bss_end+0xfebc2854>
    5dc8:	0ede0000 	cdpeq	0, 13, cr0, cr14, cr0, {0}
    5dcc:	04140000 	ldreq	r0, [r4], #-0
    5dd0:	01000006 	tsteq	r0, r6
    5dd4:	000ede8e 	andeq	sp, lr, lr, lsl #29
    5dd8:	001bcf00 	andseq	ip, fp, r0, lsl #30
    5ddc:	04100000 	ldreq	r0, [r0], #-0
    5de0:	00000c10 	andeq	r0, r0, r0, lsl ip
    5de4:	1e3e0116 	mrcne	1, 1, r0, cr14, cr6, {0}
    5de8:	b3010000 	movwlt	r0, #4096	; 0x1000
    5dec:	00004c01 	andeq	r4, r0, r1, lsl #24
    5df0:	002d5c00 	eoreq	r5, sp, r0, lsl #24
    5df4:	002da400 	eoreq	sl, sp, r0, lsl #8
    5df8:	001bed00 	andseq	lr, fp, r0, lsl #26
    5dfc:	000f1100 	andeq	r1, pc, r0, lsl #2
    5e00:	06041400 	streq	r1, [r4], -r0, lsl #8
    5e04:	b3010000 	movwlt	r0, #4096	; 0x1000
    5e08:	00000ede 	ldrdeq	r0, [r0], -lr
    5e0c:	00001c0d 	andeq	r1, r0, sp, lsl #24
    5e10:	12011600 	andne	r1, r1, #0
    5e14:	0100001e 	tsteq	r0, lr, lsl r0
    5e18:	004c01cd 	subeq	r0, ip, sp, asr #3
    5e1c:	2da40000 	stccs	0, cr0, [r4]
    5e20:	2df80000 	ldclcs	0, cr0, [r8]
    5e24:	1c2b0000 	stcne	0, cr0, [fp], #-0
    5e28:	0f3e0000 	svceq	0x003e0000
    5e2c:	66140000 	ldrvs	r0, [r4], -r0
    5e30:	0100001e 	tsteq	r0, lr, lsl r0
    5e34:	000f3ecd 	andeq	r3, pc, sp, asr #29
    5e38:	001c4b00 	andseq	r4, ip, r0, lsl #22
    5e3c:	04100000 	ldreq	r0, [r0], #-0
    5e40:	00000d18 	andeq	r0, r0, r8, lsl sp
    5e44:	1e5a0116 	mrcne	1, 2, r0, cr10, cr6, {0}
    5e48:	ed010000 	stc	0, cr0, [r1, #-0]
    5e4c:	00004c01 	andeq	r4, r0, r1, lsl #24
    5e50:	002df800 	eoreq	pc, sp, r0, lsl #16
    5e54:	002e4000 	eoreq	r4, lr, r0
    5e58:	001c6900 	andseq	r6, ip, r0, lsl #18
    5e5c:	000f7100 	andeq	r7, pc, r0, lsl #2
    5e60:	1e661400 	cdpne	4, 6, cr1, cr6, cr0, {0}
    5e64:	ed010000 	stc	0, cr0, [r1, #-0]
    5e68:	00000f3e 	andeq	r0, r0, lr, lsr pc
    5e6c:	00001c89 	andeq	r1, r0, r9, lsl #25
    5e70:	ee011700 	cdp	7, 0, cr1, cr1, cr0, {0}
    5e74:	0100001d 	tsteq	r0, sp, lsl r0
    5e78:	4c01010a 	stfmis	f0, [r1], {10}
    5e7c:	40000000 	andmi	r0, r0, r0
    5e80:	f400002e 	vst4.8	{d0-d3}, [r0 :128], lr
    5e84:	0200002e 	andeq	r0, r0, #46	; 0x2e
    5e88:	0f9f007d 	svceq	0x009f007d
    5e8c:	e7180000 	ldr	r0, [r8, -r0]
    5e90:	01000007 	tsteq	r0, r7
    5e94:	0f9f010a 	svceq	0x009f010a
    5e98:	1ca70000 	stcne	0, cr0, [r7]
    5e9c:	10000000 	andne	r0, r0, r0
    5ea0:	000c3904 	andeq	r3, ip, r4, lsl #18
    5ea4:	a4011700 	strge	r1, [r1], #-1792	; 0x700
    5ea8:	0100001d 	tsteq	r0, sp, lsl r0
    5eac:	4c010142 	stfmis	f0, [r1], {66}	; 0x42
    5eb0:	f4000000 	vst4.8	{d0-d3}, [r0], r0
    5eb4:	8400002e 	strhi	r0, [r0], #-46	; 0x2e
    5eb8:	0200002f 	andeq	r0, r0, #47	; 0x2f
    5ebc:	0fd3007d 	svceq	0x00d3007d
    5ec0:	e7180000 	ldr	r0, [r8, -r0]
    5ec4:	01000007 	tsteq	r0, r7
    5ec8:	0f9f0142 	svceq	0x009f0142
    5ecc:	1cc50000 	stclne	0, cr0, [r5], {0}
    5ed0:	19000000 	stmdbne	r0, {}	; <UNPREDICTABLE>
    5ed4:	001e2901 	andseq	r2, lr, r1, lsl #18
    5ed8:	01700100 	cmneq	r0, r0, lsl #2
    5edc:	00005e01 	andeq	r5, r0, r1, lsl #28
    5ee0:	002f8400 	eoreq	r8, pc, r0, lsl #8
    5ee4:	002fe000 	eoreq	lr, pc, r0
    5ee8:	001ce300 	andseq	lr, ip, r0, lsl #6
    5eec:	00104f00 	andseq	r4, r0, r0, lsl #30
    5ef0:	057e1a00 	ldrbeq	r1, [lr, #-2560]!	; 0xa00
    5ef4:	72010000 	andvc	r0, r1, #0
    5ef8:	00005e01 	andeq	r5, r0, r1, lsl #28
    5efc:	001d0300 	andseq	r0, sp, r0, lsl #6
    5f00:	056e1b00 	strbeq	r1, [lr, #-2816]!	; 0xb00
    5f04:	73010000 	movwvc	r0, #4096	; 0x1000
    5f08:	00005e01 	andeq	r5, r0, r1, lsl #28
    5f0c:	761a0100 	ldrvc	r0, [sl], -r0, lsl #2
    5f10:	01000005 	tsteq	r0, r5
    5f14:	005e0174 	subseq	r0, lr, r4, ror r1
    5f18:	1d220000 	stcne	0, cr0, [r2, #-0]
    5f1c:	8e1a0000 	cdphi	0, 1, cr0, cr10, cr0, {0}
    5f20:	01000005 	tsteq	r0, r5
    5f24:	005e0175 	subseq	r0, lr, r5, ror r1
    5f28:	1d430000 	stclne	0, cr0, [r3, #-0]
    5f2c:	711a0000 	tstvc	sl, r0
    5f30:	0100001e 	tsteq	r0, lr, lsl r0
    5f34:	005e0176 	subseq	r0, lr, r6, ror r1
    5f38:	1d620000 	stclne	0, cr0, [r2, #-0]
    5f3c:	351a0000 	ldrcc	r0, [sl, #-0]
    5f40:	0100001e 	tsteq	r0, lr, lsl r0
    5f44:	005e0177 	subseq	r0, lr, r7, ror r1
    5f48:	1d760000 	ldclne	0, cr0, [r6, #-0]
    5f4c:	1c000000 	stcne	0, cr0, [r0], {-0}
    5f50:	00000b0b 	andeq	r0, r0, fp, lsl #22
    5f54:	0c0a0401 	cfstrseq	mvf0, [sl], {1}
    5f58:	03050000 	movweq	r0, #20480	; 0x5000
    5f5c:	00003394 	muleq	r0, r4, r3
    5f60:	001dff1c 	andseq	pc, sp, ip, lsl pc	; <UNPREDICTABLE>
    5f64:	2e350100 	rsfcss	f0, f5, f0
    5f68:	05000001 	streq	r0, [r0, #-1]
    5f6c:	00339c03 	eorseq	r9, r3, r3, lsl #24
    5f70:	1ebb1c00 	cdpne	12, 11, cr1, cr11, cr0, {0}
    5f74:	36010000 	strcc	r0, [r1], -r0
    5f78:	000001e9 	andeq	r0, r0, r9, ror #3
    5f7c:	33980305 	orrscc	r0, r8, #335544320	; 0x14000000
    5f80:	Address 0x00005f80 is out of bounds.


Disassembly of section .debug_abbrev:

00000000 <.debug_abbrev>:
       0:	25011101 	strcs	r1, [r1, #-257]	; 0x101
       4:	030b130e 	movweq	r1, #45838	; 0xb30e
       8:	110e1b0e 	tstne	lr, lr, lsl #22
       c:	10011201 	andne	r1, r1, r1, lsl #4
      10:	02000006 	andeq	r0, r0, #6
      14:	0b0b0024 	bleq	2c00ac <__bss_end+0x2bcb34>
      18:	0e030b3e 	vmoveq.16	d3[0], r0
      1c:	24030000 	strcs	r0, [r3], #-0
      20:	3e0b0b00 	vmlacc.f64	d0, d11, d0
      24:	0008030b 	andeq	r0, r8, fp, lsl #6
      28:	01040400 	tsteq	r4, r0, lsl #8
      2c:	0b0b0e03 	bleq	2c3840 <__bss_end+0x2c02c8>
      30:	0b3b0b3a 	bleq	ec2d20 <__bss_end+0xebf7a8>
      34:	00001301 	andeq	r1, r0, r1, lsl #6
      38:	03002805 	movweq	r2, #2053	; 0x805
      3c:	000d1c0e 	andeq	r1, sp, lr, lsl #24
      40:	01130600 	tsteq	r3, r0, lsl #12
      44:	0b0b0e03 	bleq	2c3858 <__bss_end+0x2c02e0>
      48:	0b3b0b3a 	bleq	ec2d38 <__bss_end+0xebf7c0>
      4c:	00001301 	andeq	r1, r0, r1, lsl #6
      50:	03000d07 	movweq	r0, #3335	; 0xd07
      54:	3b0b3a0e 	blcc	2ce894 <__bss_end+0x2cb31c>
      58:	3813490b 	ldmdacc	r3, {r0, r1, r3, r8, fp, lr}
      5c:	0800000a 	stmdaeq	r0, {r1, r3}
      60:	13490101 	movtne	r0, #37121	; 0x9101
      64:	00001301 	andeq	r1, r0, r1, lsl #6
      68:	49002109 	stmdbmi	r0, {r0, r3, r8, sp}
      6c:	000b2f13 	andeq	r2, fp, r3, lsl pc
      70:	00160a00 	andseq	r0, r6, r0, lsl #20
      74:	0b3a0e03 	bleq	e83888 <__bss_end+0xe80310>
      78:	13490b3b 	movtne	r0, #39739	; 0x9b3b
      7c:	340b0000 	strcc	r0, [fp], #-0
      80:	3a0e0300 	bcc	380c88 <__bss_end+0x37d710>
      84:	490b3b0b 	stmdbmi	fp, {r0, r1, r3, r8, r9, fp, ip, sp}
      88:	020c3f13 	andeq	r3, ip, #76	; 0x4c
      8c:	0c00000a 	stceq	0, cr0, [r0], {10}
      90:	13490026 	movtne	r0, #36902	; 0x9026
      94:	01000000 	mrseq	r0, (UNDEF: 0)
      98:	06100011 			; <UNDEFINED> instruction: 0x06100011
      9c:	01120111 	tsteq	r2, r1, lsl r1
      a0:	081b0803 	ldmdaeq	fp, {r0, r1, fp}
      a4:	05130825 	ldreq	r0, [r3, #-2085]	; 0x825
      a8:	01000000 	mrseq	r0, (UNDEF: 0)
      ac:	0e250111 	mcreq	1, 1, r0, cr5, cr1, {0}
      b0:	0e030b13 	vmoveq.32	d3[0], r0
      b4:	01110e1b 	tsteq	r1, fp, lsl lr
      b8:	06100112 			; <UNDEFINED> instruction: 0x06100112
      bc:	24020000 	strcs	r0, [r2], #-0
      c0:	3e0b0b00 	vmlacc.f64	d0, d11, d0
      c4:	000e030b 	andeq	r0, lr, fp, lsl #6
      c8:	00240300 	eoreq	r0, r4, r0, lsl #6
      cc:	0b3e0b0b 	bleq	f82d00 <__bss_end+0xf7f788>
      d0:	00000803 	andeq	r0, r0, r3, lsl #16
      d4:	0b000f04 	bleq	3cec <__bss_end+0x774>
      d8:	0013490b 	andseq	r4, r3, fp, lsl #18
      dc:	000f0500 	andeq	r0, pc, r0, lsl #10
      e0:	00000b0b 	andeq	r0, r0, fp, lsl #22
      e4:	3f012e06 	svccc	0x00012e06
      e8:	3a0e030c 	bcc	380d20 <__bss_end+0x37d7a8>
      ec:	270b3b0b 	strcs	r3, [fp, -fp, lsl #22]
      f0:	1201110c 	andne	r1, r1, #3
      f4:	000a4001 	andeq	r4, sl, r1
      f8:	00050700 	andeq	r0, r5, r0, lsl #14
      fc:	0b3a0e03 	bleq	e83910 <__bss_end+0xe80398>
     100:	13490b3b 	movtne	r0, #39739	; 0x9b3b
     104:	00000602 	andeq	r0, r0, r2, lsl #12
     108:	03000508 	movweq	r0, #1288	; 0x508
     10c:	3b0b3a08 	blcc	2ce934 <__bss_end+0x2cb3bc>
     110:	0213490b 	andseq	r4, r3, #180224	; 0x2c000
     114:	09000006 	stmdbeq	r0, {r1, r2}
     118:	0e030034 	mcreq	0, 0, r0, cr3, cr4, {1}
     11c:	0b3b0b3a 	bleq	ec2e0c <__bss_end+0xebf894>
     120:	06021349 	streq	r1, [r2], -r9, asr #6
     124:	340a0000 	strcc	r0, [sl], #-0
     128:	3a0e0300 	bcc	380d30 <__bss_end+0x37d7b8>
     12c:	490b3b0b 	stmdbmi	fp, {r0, r1, r3, r8, r9, fp, ip, sp}
     130:	000a0213 	andeq	r0, sl, r3, lsl r2
     134:	11010000 	mrsne	r0, (UNDEF: 1)
     138:	130e2501 	movwne	r2, #58625	; 0xe501
     13c:	1b0e030b 	blne	380d70 <__bss_end+0x37d7f8>
     140:	1201110e 	andne	r1, r1, #-2147483645	; 0x80000003
     144:	00061001 	andeq	r1, r6, r1
     148:	00240200 	eoreq	r0, r4, r0, lsl #4
     14c:	0b3e0b0b 	bleq	f82d80 <__bss_end+0xf7f808>
     150:	00000e03 	andeq	r0, r0, r3, lsl #28
     154:	0b002403 	bleq	9168 <__bss_end+0x5bf0>
     158:	030b3e0b 	movweq	r3, #48651	; 0xbe0b
     15c:	00000008 	andeq	r0, r0, r8
     160:	10001101 	andne	r1, r0, r1, lsl #2
     164:	12011106 	andne	r1, r1, #-2147483647	; 0x80000001
     168:	1b080301 	blne	200d74 <__bss_end+0x1fd7fc>
     16c:	13082508 	movwne	r2, #34056	; 0x8508
     170:	00000005 	andeq	r0, r0, r5
     174:	25011101 	strcs	r1, [r1, #-257]	; 0x101
     178:	030b130e 	movweq	r1, #45838	; 0xb30e
     17c:	110e1b0e 	tstne	lr, lr, lsl #22
     180:	10011201 	andne	r1, r1, r1, lsl #4
     184:	02000006 	andeq	r0, r0, #6
     188:	0b0b0024 	bleq	2c0220 <__bss_end+0x2bcca8>
     18c:	0e030b3e 	vmoveq.16	d3[0], r0
     190:	24030000 	strcs	r0, [r3], #-0
     194:	3e0b0b00 	vmlacc.f64	d0, d11, d0
     198:	0008030b 	andeq	r0, r8, fp, lsl #6
     19c:	11010000 	mrsne	r0, (UNDEF: 1)
     1a0:	130e2501 	movwne	r2, #58625	; 0xe501
     1a4:	1b0e030b 	blne	380dd8 <__bss_end+0x37d860>
     1a8:	1201110e 	andne	r1, r1, #-2147483645	; 0x80000003
     1ac:	00061001 	andeq	r1, r6, r1
     1b0:	00240200 	eoreq	r0, r4, r0, lsl #4
     1b4:	0b3e0b0b 	bleq	f82de8 <__bss_end+0xf7f870>
     1b8:	00000e03 	andeq	r0, r0, r3, lsl #28
     1bc:	0b002403 	bleq	91d0 <__bss_end+0x5c58>
     1c0:	030b3e0b 	movweq	r3, #48651	; 0xbe0b
     1c4:	00000008 	andeq	r0, r0, r8
     1c8:	25011101 	strcs	r1, [r1, #-257]	; 0x101
     1cc:	030b130e 	movweq	r1, #45838	; 0xb30e
     1d0:	110e1b0e 	tstne	lr, lr, lsl #22
     1d4:	10011201 	andne	r1, r1, r1, lsl #4
     1d8:	02000006 	andeq	r0, r0, #6
     1dc:	0b0b0024 	bleq	2c0274 <__bss_end+0x2bccfc>
     1e0:	0e030b3e 	vmoveq.16	d3[0], r0
     1e4:	24030000 	strcs	r0, [r3], #-0
     1e8:	3e0b0b00 	vmlacc.f64	d0, d11, d0
     1ec:	0008030b 	andeq	r0, r8, fp, lsl #6
     1f0:	11010000 	mrsne	r0, (UNDEF: 1)
     1f4:	130e2501 	movwne	r2, #58625	; 0xe501
     1f8:	1b0e030b 	blne	380e2c <__bss_end+0x37d8b4>
     1fc:	1201110e 	andne	r1, r1, #-2147483645	; 0x80000003
     200:	00061001 	andeq	r1, r6, r1
     204:	00240200 	eoreq	r0, r4, r0, lsl #4
     208:	0b3e0b0b 	bleq	f82e3c <__bss_end+0xf7f8c4>
     20c:	00000e03 	andeq	r0, r0, r3, lsl #28
     210:	03001603 	movweq	r1, #1539	; 0x603
     214:	3b0b3a0e 	blcc	2cea54 <__bss_end+0x2cb4dc>
     218:	0013490b 	andseq	r4, r3, fp, lsl #18
     21c:	00240400 	eoreq	r0, r4, r0, lsl #8
     220:	0b3e0b0b 	bleq	f82e54 <__bss_end+0xf7f8dc>
     224:	00000803 	andeq	r0, r0, r3, lsl #16
     228:	0b011305 	bleq	44e44 <__bss_end+0x418cc>
     22c:	3b0b3a0b 	blcc	2cea60 <__bss_end+0x2cb4e8>
     230:	0013010b 	andseq	r0, r3, fp, lsl #2
     234:	000d0600 	andeq	r0, sp, r0, lsl #12
     238:	0b3a0e03 	bleq	e83a4c <__bss_end+0xe804d4>
     23c:	13490b3b 	movtne	r0, #39739	; 0x9b3b
     240:	0b0d0b0b 	bleq	342e74 <__bss_end+0x33f8fc>
     244:	0a380b0c 	beq	e02e7c <__bss_end+0xdff904>
     248:	17070000 	strne	r0, [r7, -r0]
     24c:	3a0b0b01 	bcc	2c2e58 <__bss_end+0x2bf8e0>
     250:	010b3b0b 	tsteq	fp, fp, lsl #22
     254:	08000013 	stmdaeq	r0, {r0, r1, r4}
     258:	0e03000d 	cdpeq	0, 0, cr0, cr3, cr13, {0}
     25c:	0b3b0b3a 	bleq	ec2f4c <__bss_end+0xebf9d4>
     260:	00001349 	andeq	r1, r0, r9, asr #6
     264:	03011309 	movweq	r1, #4873	; 0x1309
     268:	3a0b0b0e 	bcc	2c2ea8 <__bss_end+0x2bf930>
     26c:	010b3b0b 	tsteq	fp, fp, lsl #22
     270:	0a000013 	beq	2c4 <set_pll+0x8c>
     274:	0e030113 	mcreq	1, 0, r0, cr3, cr3, {0}
     278:	0b3a050b 	bleq	e816ac <__bss_end+0xe7e134>
     27c:	13010b3b 	movwne	r0, #6971	; 0x1b3b
     280:	0d0b0000 	stceq	0, cr0, [fp, #-0]
     284:	3a0e0300 	bcc	380e8c <__bss_end+0x37d914>
     288:	490b3b0b 	stmdbmi	fp, {r0, r1, r3, r8, r9, fp, ip, sp}
     28c:	000a3813 	andeq	r3, sl, r3, lsl r8
     290:	000d0c00 	andeq	r0, sp, r0, lsl #24
     294:	0b3a0803 	bleq	e822a8 <__bss_end+0xe7ed30>
     298:	13490b3b 	movtne	r0, #39739	; 0x9b3b
     29c:	00000a38 	andeq	r0, r0, r8, lsr sl
     2a0:	4900350d 	stmdbmi	r0, {r0, r2, r3, r8, sl, ip, sp}
     2a4:	0e000013 	mcreq	0, 0, r0, cr0, cr3, {0}
     2a8:	13490101 	movtne	r0, #37121	; 0x9101
     2ac:	00001301 	andeq	r1, r0, r1, lsl #6
     2b0:	4900210f 	stmdbmi	r0, {r0, r1, r2, r3, r8, sp}
     2b4:	000b2f13 	andeq	r2, fp, r3, lsl pc
     2b8:	000f1000 	andeq	r1, pc, r0
     2bc:	13490b0b 	movtne	r0, #39691	; 0x9b0b
     2c0:	04110000 	ldreq	r0, [r1], #-0
     2c4:	0b0e0301 	bleq	380ed0 <__bss_end+0x37d958>
     2c8:	3b0b3a0b 	blcc	2ceafc <__bss_end+0x2cb584>
     2cc:	0013010b 	andseq	r0, r3, fp, lsl #2
     2d0:	00281200 	eoreq	r1, r8, r0, lsl #4
     2d4:	0d1c0e03 	ldceq	14, cr0, [ip, #-12]
     2d8:	04130000 	ldreq	r0, [r3], #-0
     2dc:	3a0b0b01 	bcc	2c2ee8 <__bss_end+0x2bf970>
     2e0:	010b3b0b 	tsteq	fp, fp, lsl #22
     2e4:	14000013 	strne	r0, [r0], #-19
     2e8:	0b0b000f 	bleq	2c032c <__bss_end+0x2bcdb4>
     2ec:	2e150000 	cdpcs	0, 1, cr0, cr5, cr0, {0}
     2f0:	030c3f00 	movweq	r3, #52992	; 0xcf00
     2f4:	3b0b3a0e 	blcc	2ceb34 <__bss_end+0x2cb5bc>
     2f8:	490c270b 	stmdbmi	ip, {r0, r1, r3, r8, r9, sl, sp}
     2fc:	12011113 	andne	r1, r1, #-1073741820	; 0xc0000004
     300:	00064001 	andeq	r4, r6, r1
     304:	012e1600 	teqeq	lr, r0, lsl #12
     308:	0e030c3f 	mcreq	12, 0, r0, cr3, cr15, {1}
     30c:	0b3b0b3a 	bleq	ec2ffc <__bss_end+0xebfa84>
     310:	01110c27 	tsteq	r1, r7, lsr #24
     314:	06400112 			; <UNDEFINED> instruction: 0x06400112
     318:	00001301 	andeq	r1, r0, r1, lsl #6
     31c:	03003417 	movweq	r3, #1047	; 0x417
     320:	3b0b3a0e 	blcc	2ceb60 <__bss_end+0x2cb5e8>
     324:	0213490b 	andseq	r4, r3, #180224	; 0x2c000
     328:	18000006 	stmdane	r0, {r1, r2}
     32c:	0e030034 	mcreq	0, 0, r0, cr3, cr4, {1}
     330:	0b3b0b3a 	bleq	ec3020 <__bss_end+0xebfaa8>
     334:	0b1c1349 	bleq	705060 <__bss_end+0x701ae8>
     338:	34190000 	ldrcc	r0, [r9], #-0
     33c:	3a0e0300 	bcc	380f44 <__bss_end+0x37d9cc>
     340:	490b3b0b 	stmdbmi	fp, {r0, r1, r3, r8, r9, fp, ip, sp}
     344:	1a000013 	bne	398 <mem_status_init+0x8>
     348:	0e030034 	mcreq	0, 0, r0, cr3, cr4, {1}
     34c:	0b3b0b3a 	bleq	ec303c <__bss_end+0xebfac4>
     350:	0a021349 	beq	8507c <__bss_end+0x81b04>
     354:	341b0000 	ldrcc	r0, [fp], #-0
     358:	3a0e0300 	bcc	380f60 <__bss_end+0x37d9e8>
     35c:	490b3b0b 	stmdbmi	fp, {r0, r1, r3, r8, r9, fp, ip, sp}
     360:	020c3f13 	andeq	r3, ip, #76	; 0x4c
     364:	1c00000a 	stcne	0, cr0, [r0], {10}
     368:	0e030034 	mcreq	0, 0, r0, cr3, cr4, {1}
     36c:	0b3b0b3a 	bleq	ec305c <__bss_end+0xebfae4>
     370:	0c3f1349 	ldceq	3, cr1, [pc], #-292	; 254 <set_pll+0x1c>
     374:	00000c3c 	andeq	r0, r0, ip, lsr ip
     378:	01110100 	tsteq	r1, r0, lsl #2
     37c:	0b130e25 	bleq	4c3c18 <__bss_end+0x4c06a0>
     380:	0e1b0e03 	cdpeq	14, 1, cr0, cr11, cr3, {0}
     384:	01120111 	tsteq	r2, r1, lsl r1
     388:	00000610 	andeq	r0, r0, r0, lsl r6
     38c:	0b002402 	bleq	939c <__bss_end+0x5e24>
     390:	030b3e0b 	movweq	r3, #48651	; 0xbe0b
     394:	0300000e 	movweq	r0, #14
     398:	0b0b0024 	bleq	2c0430 <__bss_end+0x2bceb8>
     39c:	08030b3e 	stmdaeq	r3, {r1, r2, r3, r4, r5, r8, r9, fp}
     3a0:	16040000 	strne	r0, [r4], -r0
     3a4:	3a0e0300 	bcc	380fac <__bss_end+0x37da34>
     3a8:	490b3b0b 	stmdbmi	fp, {r0, r1, r3, r8, r9, fp, ip, sp}
     3ac:	05000013 	streq	r0, [r0, #-19]
     3b0:	0e030113 	mcreq	1, 0, r0, cr3, cr3, {0}
     3b4:	0b3a0b0b 	bleq	e82fe8 <__bss_end+0xe7fa70>
     3b8:	13010b3b 	movwne	r0, #6971	; 0x1b3b
     3bc:	0d060000 	stceq	0, cr0, [r6, #-0]
     3c0:	3a0e0300 	bcc	380fc8 <__bss_end+0x37da50>
     3c4:	490b3b0b 	stmdbmi	fp, {r0, r1, r3, r8, r9, fp, ip, sp}
     3c8:	0d0b0b13 	vstreq	d0, [fp, #-76]	; 0xffffffb4
     3cc:	380b0c0b 	stmdacc	fp, {r0, r1, r3, sl, fp}
     3d0:	0700000a 	streq	r0, [r0, -sl]
     3d4:	0b0b0117 	bleq	2c0838 <__bss_end+0x2bd2c0>
     3d8:	0b3b0b3a 	bleq	ec30c8 <__bss_end+0xebfb50>
     3dc:	00001301 	andeq	r1, r0, r1, lsl #6
     3e0:	03000d08 	movweq	r0, #3336	; 0xd08
     3e4:	3b0b3a0e 	blcc	2cec24 <__bss_end+0x2cb6ac>
     3e8:	0013490b 	andseq	r4, r3, fp, lsl #18
     3ec:	00350900 	eorseq	r0, r5, r0, lsl #18
     3f0:	00001349 	andeq	r1, r0, r9, asr #6
     3f4:	0301040a 	movweq	r0, #5130	; 0x140a
     3f8:	3a0b0b0e 	bcc	2c3038 <__bss_end+0x2bfac0>
     3fc:	010b3b0b 	tsteq	fp, fp, lsl #22
     400:	0b000013 	bleq	454 <mem_status_clear+0x7c>
     404:	0e030028 	cdpeq	0, 0, cr0, cr3, cr8, {1}
     408:	00000d1c 	andeq	r0, r0, ip, lsl sp
     40c:	3f012e0c 	svccc	0x00012e0c
     410:	3a0e030c 	bcc	381048 <__bss_end+0x37dad0>
     414:	270b3b0b 	strcs	r3, [fp, -fp, lsl #22]
     418:	1201110c 	andne	r1, r1, #3
     41c:	01064001 	tsteq	r6, r1
     420:	0d000013 	stceq	0, cr0, [r0, #-76]	; 0xffffffb4
     424:	0e030034 	mcreq	0, 0, r0, cr3, cr4, {1}
     428:	0b3b0b3a 	bleq	ec3118 <__bss_end+0xebfba0>
     42c:	0a021349 	beq	85158 <__bss_end+0x81be0>
     430:	2e0e0000 	cdpcs	0, 0, cr0, cr14, cr0, {0}
     434:	030c3f00 	movweq	r3, #52992	; 0xcf00
     438:	3b0b3a0e 	blcc	2cec78 <__bss_end+0x2cb700>
     43c:	110c270b 	tstne	ip, fp, lsl #14
     440:	40011201 	andmi	r1, r1, r1, lsl #4
     444:	0f00000a 	svceq	0x0000000a
     448:	08030034 	stmdaeq	r3, {r2, r4, r5}
     44c:	0b3b0b3a 	bleq	ec313c <__bss_end+0xebfbc4>
     450:	06021349 	streq	r1, [r2], -r9, asr #6
     454:	05100000 	ldreq	r0, [r0, #-0]
     458:	3a080300 	bcc	201060 <__bss_end+0x1fdae8>
     45c:	490b3b0b 	stmdbmi	fp, {r0, r1, r3, r8, r9, fp, ip, sp}
     460:	00060213 	andeq	r0, r6, r3, lsl r2
     464:	012e1100 	teqeq	lr, r0, lsl #2
     468:	0e030c3f 	mcreq	12, 0, r0, cr3, cr15, {1}
     46c:	0b3b0b3a 	bleq	ec315c <__bss_end+0xebfbe4>
     470:	13490c27 	movtne	r0, #39975	; 0x9c27
     474:	01120111 	tsteq	r2, r1, lsl r1
     478:	13010640 	movwne	r0, #5696	; 0x1640
     47c:	2e120000 	cdpcs	0, 1, cr0, cr2, cr0, {0}
     480:	030c3f01 	movweq	r3, #52993	; 0xcf01
     484:	3b0b3a0e 	blcc	2cecc4 <__bss_end+0x2cb74c>
     488:	110c270b 	tstne	ip, fp, lsl #14
     48c:	40011201 	andmi	r1, r1, r1, lsl #4
     490:	0013010a 	andseq	r0, r3, sl, lsl #2
     494:	00341300 	eorseq	r1, r4, r0, lsl #6
     498:	0b3a0e03 	bleq	e83cac <__bss_end+0xe80734>
     49c:	1349053b 	movtne	r0, #38203	; 0x953b
     4a0:	00000a02 	andeq	r0, r0, r2, lsl #20
     4a4:	3f012e14 	svccc	0x00012e14
     4a8:	3a0e030c 	bcc	3810e0 <__bss_end+0x37db68>
     4ac:	27053b0b 	strcs	r3, [r5, -fp, lsl #22]
     4b0:	1201110c 	andne	r1, r1, #3
     4b4:	010a4001 	tsteq	sl, r1
     4b8:	15000013 	strne	r0, [r0, #-19]
     4bc:	0c3f012e 	ldfeqs	f0, [pc], #-184	; 40c <mem_status_clear+0x34>
     4c0:	0b3a0e03 	bleq	e83cd4 <__bss_end+0xe8075c>
     4c4:	0c27053b 	cfstr32eq	mvfx0, [r7], #-236	; 0xffffff14
     4c8:	01120111 	tsteq	r2, r1, lsl r1
     4cc:	13010640 	movwne	r0, #5696	; 0x1640
     4d0:	05160000 	ldreq	r0, [r6, #-0]
     4d4:	3a080300 	bcc	2010dc <__bss_end+0x1fdb64>
     4d8:	49053b0b 	stmdbmi	r5, {r0, r1, r3, r8, r9, fp, ip, sp}
     4dc:	00060213 	andeq	r0, r6, r3, lsl r2
     4e0:	00341700 	eorseq	r1, r4, r0, lsl #14
     4e4:	0b3a0e03 	bleq	e83cf8 <__bss_end+0xe80780>
     4e8:	1349053b 	movtne	r0, #38203	; 0x953b
     4ec:	00000602 	andeq	r0, r0, r2, lsl #12
     4f0:	0b000f18 	bleq	4158 <__bss_end+0xbe0>
     4f4:	0013490b 	andseq	r4, r3, fp, lsl #18
     4f8:	00341900 	eorseq	r1, r4, r0, lsl #18
     4fc:	0b3a0e03 	bleq	e83d10 <__bss_end+0xe80798>
     500:	13490b3b 	movtne	r0, #39739	; 0x9b3b
     504:	0a020c3f 	beq	83608 <__bss_end+0x80090>
     508:	01000000 	mrseq	r0, (UNDEF: 0)
     50c:	0e250111 	mcreq	1, 1, r0, cr5, cr1, {0}
     510:	0e030b13 	vmoveq.32	d3[0], r0
     514:	01110e1b 	tsteq	r1, fp, lsl lr
     518:	06100112 			; <UNDEFINED> instruction: 0x06100112
     51c:	24020000 	strcs	r0, [r2], #-0
     520:	3e0b0b00 	vmlacc.f64	d0, d11, d0
     524:	000e030b 	andeq	r0, lr, fp, lsl #6
     528:	00160300 	andseq	r0, r6, r0, lsl #6
     52c:	0b3a0e03 	bleq	e83d40 <__bss_end+0xe807c8>
     530:	13490b3b 	movtne	r0, #39739	; 0x9b3b
     534:	24040000 	strcs	r0, [r4], #-0
     538:	3e0b0b00 	vmlacc.f64	d0, d11, d0
     53c:	0008030b 	andeq	r0, r8, fp, lsl #6
     540:	01040500 	tsteq	r4, r0, lsl #10
     544:	0b0b0e03 	bleq	2c3d58 <__bss_end+0x2c07e0>
     548:	0b3b0b3a 	bleq	ec3238 <__bss_end+0xebfcc0>
     54c:	00001301 	andeq	r1, r0, r1, lsl #6
     550:	03002806 	movweq	r2, #2054	; 0x806
     554:	000d1c0e 	andeq	r1, sp, lr, lsl #24
     558:	012e0700 	teqeq	lr, r0, lsl #14
     55c:	0e030c3f 	mcreq	12, 0, r0, cr3, cr15, {1}
     560:	0b3b0b3a 	bleq	ec3250 <__bss_end+0xebfcd8>
     564:	13490c27 	movtne	r0, #39975	; 0x9c27
     568:	13010b20 	movwne	r0, #6944	; 0x1b20
     56c:	34080000 	strcc	r0, [r8], #-0
     570:	3a0e0300 	bcc	381178 <__bss_end+0x37dc00>
     574:	490b3b0b 	stmdbmi	fp, {r0, r1, r3, r8, r9, fp, ip, sp}
     578:	09000013 	stmdbeq	r0, {r0, r1, r4}
     57c:	0c3f012e 	ldfeqs	f0, [pc], #-184	; 4cc <save_mem_status+0x5c>
     580:	0b3a0e03 	bleq	e83d94 <__bss_end+0xe8081c>
     584:	0c270b3b 	stceq	11, cr0, [r7], #-236	; 0xffffff14
     588:	13010b20 	movwne	r0, #6944	; 0x1b20
     58c:	050a0000 	streq	r0, [sl, #-0]
     590:	3a0e0300 	bcc	381198 <__bss_end+0x37dc20>
     594:	490b3b0b 	stmdbmi	fp, {r0, r1, r3, r8, r9, fp, ip, sp}
     598:	0b000013 	bleq	5ec <save_mem_status_nommu+0x1c>
     59c:	0e03012e 	adfeqsp	f0, f3, #0.5
     5a0:	0b3b0b3a 	bleq	ec3290 <__bss_end+0xebfd18>
     5a4:	13490c27 	movtne	r0, #39975	; 0x9c27
     5a8:	13010b20 	movwne	r0, #6944	; 0x1b20
     5ac:	2e0c0000 	cdpcs	0, 0, cr0, cr12, cr0, {0}
     5b0:	11133101 	tstne	r3, r1, lsl #2
     5b4:	40011201 	andmi	r1, r1, r1, lsl #4
     5b8:	0013010a 	andseq	r0, r3, sl, lsl #2
     5bc:	00050d00 	andeq	r0, r5, r0, lsl #26
     5c0:	06021331 			; <UNDEFINED> instruction: 0x06021331
     5c4:	050e0000 	streq	r0, [lr, #-0]
     5c8:	02133100 	andseq	r3, r3, #0
     5cc:	0f00000a 	svceq	0x0000000a
     5d0:	13310034 	teqne	r1, #52	; 0x34
     5d4:	00000602 	andeq	r0, r0, r2, lsl #12
     5d8:	3f002e10 	svccc	0x00002e10
     5dc:	3a0e030c 	bcc	381214 <__bss_end+0x37dc9c>
     5e0:	270b3b0b 	strcs	r3, [fp, -fp, lsl #22]
     5e4:	1201110c 	andne	r1, r1, #3
     5e8:	000a4001 	andeq	r4, sl, r1
     5ec:	00341100 	eorseq	r1, r4, r0, lsl #2
     5f0:	0a021331 	beq	852bc <__bss_end+0x81d44>
     5f4:	2e120000 	cdpcs	0, 1, cr0, cr2, cr0, {0}
     5f8:	030c3f01 	movweq	r3, #52993	; 0xcf01
     5fc:	3b0b3a0e 	blcc	2cee3c <__bss_end+0x2cb8c4>
     600:	110c270b 	tstne	ip, fp, lsl #14
     604:	40011201 	andmi	r1, r1, r1, lsl #4
     608:	0013010a 	andseq	r0, r3, sl, lsl #2
     60c:	00341300 	eorseq	r1, r4, r0, lsl #6
     610:	0b3a0e03 	bleq	e83e24 <__bss_end+0xe808ac>
     614:	13490b3b 	movtne	r0, #39739	; 0x9b3b
     618:	00000602 	andeq	r0, r0, r2, lsl #12
     61c:	3f012e14 	svccc	0x00012e14
     620:	3a0e030c 	bcc	381258 <__bss_end+0x37dce0>
     624:	270b3b0b 	strcs	r3, [fp, -fp, lsl #22]
     628:	1201110c 	andne	r1, r1, #3
     62c:	01064001 	tsteq	r6, r1
     630:	15000013 	strne	r0, [r0, #-19]
     634:	08030034 	stmdaeq	r3, {r2, r4, r5}
     638:	0b3b0b3a 	bleq	ec3328 <__bss_end+0xebfdb0>
     63c:	06021349 	streq	r1, [r2], -r9, asr #6
     640:	1d160000 	ldcne	0, cr0, [r6, #-0]
     644:	11133101 	tstne	r3, r1, lsl #2
     648:	58011201 	stmdapl	r1, {r0, r9, ip}
     64c:	010b590b 	tsteq	fp, fp, lsl #18
     650:	17000013 	smladne	r0, r3, r0, r0
     654:	0111010b 	tsteq	r1, fp, lsl #2
     658:	00000112 	andeq	r0, r0, r2, lsl r1
     65c:	31011d18 	tstcc	r1, r8, lsl sp
     660:	12011113 	andne	r1, r1, #-1073741820	; 0xc0000004
     664:	590b5801 	stmdbpl	fp, {r0, fp, ip, lr}
     668:	1900000b 	stmdbne	r0, {r0, r1, r3}
     66c:	08030005 	stmdaeq	r3, {r0, r2}
     670:	0b3b0b3a 	bleq	ec3360 <__bss_end+0xebfde8>
     674:	06021349 	streq	r1, [r2], -r9, asr #6
     678:	0a1a0000 	beq	680680 <__bss_end+0x67d108>
     67c:	3a080300 	bcc	201284 <__bss_end+0x1fdd0c>
     680:	110b3b0b 	tstne	fp, fp, lsl #22
     684:	1b000001 	blne	690 <io_init_high+0x14>
     688:	0e030005 	cdpeq	0, 0, cr0, cr3, cr5, {0}
     68c:	0b3b0b3a 	bleq	ec337c <__bss_end+0xebfe04>
     690:	06021349 	streq	r1, [r2], -r9, asr #6
     694:	051c0000 	ldreq	r0, [ip, #-0]
     698:	3a0e0300 	bcc	3812a0 <__bss_end+0x37dd28>
     69c:	490b3b0b 	stmdbmi	fp, {r0, r1, r3, r8, r9, fp, ip, sp}
     6a0:	000a0213 	andeq	r0, sl, r3, lsl r2
     6a4:	012e1d00 	teqeq	lr, r0, lsl #26
     6a8:	0e030c3f 	mcreq	12, 0, r0, cr3, cr15, {1}
     6ac:	053b0b3a 	ldreq	r0, [fp, #-2874]!	; 0xb3a
     6b0:	13490c27 	movtne	r0, #39975	; 0x9c27
     6b4:	01120111 	tsteq	r2, r1, lsl r1
     6b8:	13010a40 	movwne	r0, #6720	; 0x1a40
     6bc:	051e0000 	ldreq	r0, [lr, #-0]
     6c0:	3a0e0300 	bcc	3812c8 <__bss_end+0x37dd50>
     6c4:	49053b0b 	stmdbmi	r5, {r0, r1, r3, r8, r9, fp, ip, sp}
     6c8:	00060213 	andeq	r0, r6, r3, lsl r2
     6cc:	00341f00 	eorseq	r1, r4, r0, lsl #30
     6d0:	0b3a0e03 	bleq	e83ee4 <__bss_end+0xe8096c>
     6d4:	1349053b 	movtne	r0, #38203	; 0x953b
     6d8:	00000602 	andeq	r0, r0, r2, lsl #12
     6dc:	31011d20 	tstcc	r1, r0, lsr #26
     6e0:	12011113 	andne	r1, r1, #-1073741820	; 0xc0000004
     6e4:	590b5801 	stmdbpl	fp, {r0, fp, ip, lr}
     6e8:	21000005 	tstcs	r0, r5
     6ec:	0e030034 	mcreq	0, 0, r0, cr3, cr4, {1}
     6f0:	0b3b0b3a 	bleq	ec33e0 <__bss_end+0xebfe68>
     6f4:	0a021349 	beq	85420 <__bss_end+0x81ea8>
     6f8:	01000000 	mrseq	r0, (UNDEF: 0)
     6fc:	0e250111 	mcreq	1, 1, r0, cr5, cr1, {0}
     700:	0e030b13 	vmoveq.32	d3[0], r0
     704:	01110e1b 	tsteq	r1, fp, lsl lr
     708:	06100112 			; <UNDEFINED> instruction: 0x06100112
     70c:	24020000 	strcs	r0, [r2], #-0
     710:	3e0b0b00 	vmlacc.f64	d0, d11, d0
     714:	000e030b 	andeq	r0, lr, fp, lsl #6
     718:	00240300 	eoreq	r0, r4, r0, lsl #6
     71c:	0b3e0b0b 	bleq	f83350 <__bss_end+0xf7fdd8>
     720:	00000803 	andeq	r0, r0, r3, lsl #16
     724:	03001604 	movweq	r1, #1540	; 0x604
     728:	3b0b3a0e 	blcc	2cef68 <__bss_end+0x2cb9f0>
     72c:	0013490b 	andseq	r4, r3, fp, lsl #18
     730:	01130500 	tsteq	r3, r0, lsl #10
     734:	0b0b0e03 	bleq	2c3f48 <__bss_end+0x2c09d0>
     738:	0b3b0b3a 	bleq	ec3428 <__bss_end+0xebfeb0>
     73c:	00001301 	andeq	r1, r0, r1, lsl #6
     740:	03000d06 	movweq	r0, #3334	; 0xd06
     744:	3b0b3a0e 	blcc	2cef84 <__bss_end+0x2cba0c>
     748:	3813490b 	ldmdacc	r3, {r0, r1, r3, r8, fp, lr}
     74c:	0700000a 	streq	r0, [r0, -sl]
     750:	0803000d 	stmdaeq	r3, {r0, r2, r3}
     754:	0b3b0b3a 	bleq	ec3444 <__bss_end+0xebfecc>
     758:	0a381349 	beq	e05484 <__bss_end+0xe01f0c>
     75c:	2e080000 	cdpcs	0, 0, cr0, cr8, cr0, {0}
     760:	030c3f01 	movweq	r3, #52993	; 0xcf01
     764:	3b0b3a0e 	blcc	2cefa4 <__bss_end+0x2cba2c>
     768:	110c270b 	tstne	ip, fp, lsl #14
     76c:	40011201 	andmi	r1, r1, r1, lsl #4
     770:	0013010a 	andseq	r0, r3, sl, lsl #2
     774:	00050900 	andeq	r0, r5, r0, lsl #18
     778:	0b3a0e03 	bleq	e83f8c <__bss_end+0xe80a14>
     77c:	13490b3b 	movtne	r0, #39739	; 0x9b3b
     780:	00000a02 	andeq	r0, r0, r2, lsl #20
     784:	0b000f0a 	bleq	43b4 <__bss_end+0xe3c>
     788:	0013490b 	andseq	r4, r3, fp, lsl #18
     78c:	012e0b00 	teqeq	lr, r0, lsl #22
     790:	0e030c3f 	mcreq	12, 0, r0, cr3, cr15, {1}
     794:	0b3b0b3a 	bleq	ec3484 <__bss_end+0xebff0c>
     798:	01110c27 	tsteq	r1, r7, lsr #24
     79c:	0a400112 	beq	1000bec <__bss_end+0xffd674>
     7a0:	01000000 	mrseq	r0, (UNDEF: 0)
     7a4:	06100011 			; <UNDEFINED> instruction: 0x06100011
     7a8:	01120111 	tsteq	r2, r1, lsl r1
     7ac:	081b0803 	ldmdaeq	fp, {r0, r1, fp}
     7b0:	05130825 	ldreq	r0, [r3, #-2085]	; 0x825
     7b4:	01000000 	mrseq	r0, (UNDEF: 0)
     7b8:	0e250111 	mcreq	1, 1, r0, cr5, cr1, {0}
     7bc:	0e030b13 	vmoveq.32	d3[0], r0
     7c0:	01110e1b 	tsteq	r1, fp, lsl lr
     7c4:	06100112 			; <UNDEFINED> instruction: 0x06100112
     7c8:	24020000 	strcs	r0, [r2], #-0
     7cc:	3e0b0b00 	vmlacc.f64	d0, d11, d0
     7d0:	000e030b 	andeq	r0, lr, fp, lsl #6
     7d4:	00240300 	eoreq	r0, r4, r0, lsl #6
     7d8:	0b3e0b0b 	bleq	f8340c <__bss_end+0xf7fe94>
     7dc:	00000803 	andeq	r0, r0, r3, lsl #16
     7e0:	03001604 	movweq	r1, #1540	; 0x604
     7e4:	3b0b3a0e 	blcc	2cf024 <__bss_end+0x2cbaac>
     7e8:	0013490b 	andseq	r4, r3, fp, lsl #18
     7ec:	01130500 	tsteq	r3, r0, lsl #10
     7f0:	0b0b0e03 	bleq	2c4004 <__bss_end+0x2c0a8c>
     7f4:	0b3b0b3a 	bleq	ec34e4 <__bss_end+0xebff6c>
     7f8:	00001301 	andeq	r1, r0, r1, lsl #6
     7fc:	03000d06 	movweq	r0, #3334	; 0xd06
     800:	3b0b3a0e 	blcc	2cf040 <__bss_end+0x2cbac8>
     804:	3813490b 	ldmdacc	r3, {r0, r1, r3, r8, fp, lr}
     808:	0700000a 	streq	r0, [r0, -sl]
     80c:	0803000d 	stmdaeq	r3, {r0, r2, r3}
     810:	0b3b0b3a 	bleq	ec3500 <__bss_end+0xebff88>
     814:	0a381349 	beq	e05540 <__bss_end+0xe01fc8>
     818:	04080000 	streq	r0, [r8], #-0
     81c:	0b0e0301 	bleq	381428 <__bss_end+0x37deb0>
     820:	3b0b3a0b 	blcc	2cf054 <__bss_end+0x2cbadc>
     824:	0013010b 	andseq	r0, r3, fp, lsl #2
     828:	00280900 	eoreq	r0, r8, r0, lsl #18
     82c:	0d1c0e03 	ldceq	14, cr0, [ip, #-12]
     830:	2e0a0000 	cdpcs	0, 0, cr0, cr10, cr0, {0}
     834:	030c3f01 	movweq	r3, #52993	; 0xcf01
     838:	3b0b3a0e 	blcc	2cf078 <__bss_end+0x2cbb00>
     83c:	110c270b 	tstne	ip, fp, lsl #14
     840:	40011201 	andmi	r1, r1, r1, lsl #4
     844:	0013010a 	andseq	r0, r3, sl, lsl #2
     848:	00050b00 	andeq	r0, r5, r0, lsl #22
     84c:	0b3a0e03 	bleq	e84060 <__bss_end+0xe80ae8>
     850:	13490b3b 	movtne	r0, #39739	; 0x9b3b
     854:	00000a02 	andeq	r0, r0, r2, lsl #20
     858:	0b000f0c 	bleq	4490 <__bss_end+0xf18>
     85c:	0013490b 	andseq	r4, r3, fp, lsl #18
     860:	012e0d00 	teqeq	lr, r0, lsl #26
     864:	0e030c3f 	mcreq	12, 0, r0, cr3, cr15, {1}
     868:	053b0b3a 	ldreq	r0, [fp, #-2874]!	; 0xb3a
     86c:	01110c27 	tsteq	r1, r7, lsr #24
     870:	0a400112 	beq	1000cc0 <__bss_end+0xffd748>
     874:	00001301 	andeq	r1, r0, r1, lsl #6
     878:	0300050e 	movweq	r0, #1294	; 0x50e
     87c:	3b0b3a0e 	blcc	2cf0bc <__bss_end+0x2cbb44>
     880:	02134905 	andseq	r4, r3, #81920	; 0x14000
     884:	0f00000a 	svceq	0x0000000a
     888:	08030034 	stmdaeq	r3, {r2, r4, r5}
     88c:	053b0b3a 	ldreq	r0, [fp, #-2874]!	; 0xb3a
     890:	06021349 	streq	r1, [r2], -r9, asr #6
     894:	34100000 	ldrcc	r0, [r0], #-0
     898:	3a0e0300 	bcc	3814a0 <__bss_end+0x37df28>
     89c:	49053b0b 	stmdbmi	r5, {r0, r1, r3, r8, r9, fp, ip, sp}
     8a0:	11000013 	tstne	r0, r3, lsl r0
     8a4:	0c3f002e 	ldceq	0, cr0, [pc], #-184	; 7f4 <delay_us+0x54>
     8a8:	0b3a0e03 	bleq	e840bc <__bss_end+0xe80b44>
     8ac:	0c27053b 	cfstr32eq	mvfx0, [r7], #-236	; 0xffffff14
     8b0:	01120111 	tsteq	r2, r1, lsl r1
     8b4:	00000a40 	andeq	r0, r0, r0, asr #20
     8b8:	03003412 	movweq	r3, #1042	; 0x412
     8bc:	3b0b3a0e 	blcc	2cf0fc <__bss_end+0x2cbb84>
     8c0:	0213490b 	andseq	r4, r3, #180224	; 0x2c000
     8c4:	1300000a 	movwne	r0, #10
     8c8:	0e030034 	mcreq	0, 0, r0, cr3, cr4, {1}
     8cc:	0b3b0b3a 	bleq	ec35bc <__bss_end+0xec0044>
     8d0:	00001349 	andeq	r1, r0, r9, asr #6
     8d4:	49002614 	stmdbmi	r0, {r2, r4, r9, sl, sp}
     8d8:	15000013 	strne	r0, [r0, #-19]
     8dc:	13490101 	movtne	r0, #37121	; 0x9101
     8e0:	00001301 	andeq	r1, r0, r1, lsl #6
     8e4:	49002116 	stmdbmi	r0, {r1, r2, r4, r8, sp}
     8e8:	000b2f13 	andeq	r2, fp, r3, lsl pc
     8ec:	00341700 	eorseq	r1, r4, r0, lsl #14
     8f0:	0b3a0e03 	bleq	e84104 <__bss_end+0xe80b8c>
     8f4:	13490b3b 	movtne	r0, #39739	; 0x9b3b
     8f8:	0a020c3f 	beq	839fc <__bss_end+0x80484>
     8fc:	01000000 	mrseq	r0, (UNDEF: 0)
     900:	0e250111 	mcreq	1, 1, r0, cr5, cr1, {0}
     904:	0e030b13 	vmoveq.32	d3[0], r0
     908:	01110e1b 	tsteq	r1, fp, lsl lr
     90c:	06100112 			; <UNDEFINED> instruction: 0x06100112
     910:	24020000 	strcs	r0, [r2], #-0
     914:	3e0b0b00 	vmlacc.f64	d0, d11, d0
     918:	000e030b 	andeq	r0, lr, fp, lsl #6
     91c:	00160300 	andseq	r0, r6, r0, lsl #6
     920:	0b3a0e03 	bleq	e84134 <__bss_end+0xe80bbc>
     924:	13490b3b 	movtne	r0, #39739	; 0x9b3b
     928:	24040000 	strcs	r0, [r4], #-0
     92c:	3e0b0b00 	vmlacc.f64	d0, d11, d0
     930:	0008030b 	andeq	r0, r8, fp, lsl #6
     934:	01130500 	tsteq	r3, r0, lsl #10
     938:	0b3a0b0b 	bleq	e8356c <__bss_end+0xe7fff4>
     93c:	13010b3b 	movwne	r0, #6971	; 0x1b3b
     940:	0d060000 	stceq	0, cr0, [r6, #-0]
     944:	3a0e0300 	bcc	38154c <__bss_end+0x37dfd4>
     948:	490b3b0b 	stmdbmi	fp, {r0, r1, r3, r8, r9, fp, ip, sp}
     94c:	0d0b0b13 	vstreq	d0, [fp, #-76]	; 0xffffffb4
     950:	380b0c0b 	stmdacc	fp, {r0, r1, r3, sl, fp}
     954:	0700000a 	streq	r0, [r0, -sl]
     958:	0b0b0117 	bleq	2c0dbc <__bss_end+0x2bd844>
     95c:	0b3b0b3a 	bleq	ec364c <__bss_end+0xec00d4>
     960:	00001301 	andeq	r1, r0, r1, lsl #6
     964:	03000d08 	movweq	r0, #3336	; 0xd08
     968:	3b0b3a0e 	blcc	2cf1a8 <__bss_end+0x2cbc30>
     96c:	0013490b 	andseq	r4, r3, fp, lsl #18
     970:	01130900 	tsteq	r3, r0, lsl #18
     974:	0b0b0e03 	bleq	2c4188 <__bss_end+0x2c0c10>
     978:	0b3b0b3a 	bleq	ec3668 <__bss_end+0xec00f0>
     97c:	00001301 	andeq	r1, r0, r1, lsl #6
     980:	0301130a 	movweq	r1, #4874	; 0x130a
     984:	3a050b0e 	bcc	1435c4 <__bss_end+0x14004c>
     988:	010b3b0b 	tsteq	fp, fp, lsl #22
     98c:	0b000013 	bleq	9e0 <inv_loop1+0x8>
     990:	0e03000d 	cdpeq	0, 0, cr0, cr3, cr13, {0}
     994:	0b3b0b3a 	bleq	ec3684 <__bss_end+0xec010c>
     998:	0a381349 	beq	e056c4 <__bss_end+0xe0214c>
     99c:	0d0c0000 	stceq	0, cr0, [ip, #-0]
     9a0:	3a080300 	bcc	2015a8 <__bss_end+0x1fe030>
     9a4:	490b3b0b 	stmdbmi	fp, {r0, r1, r3, r8, r9, fp, ip, sp}
     9a8:	000a3813 	andeq	r3, sl, r3, lsl r8
     9ac:	00350d00 	eorseq	r0, r5, r0, lsl #26
     9b0:	00001349 	andeq	r1, r0, r9, asr #6
     9b4:	4901010e 	stmdbmi	r1, {r1, r2, r3, r8}
     9b8:	00130113 	andseq	r0, r3, r3, lsl r1
     9bc:	00210f00 	eoreq	r0, r1, r0, lsl #30
     9c0:	0b2f1349 	bleq	bc56ec <__bss_end+0xbc2174>
     9c4:	0f100000 	svceq	0x00100000
     9c8:	490b0b00 	stmdbmi	fp, {r8, r9, fp}
     9cc:	11000013 	tstne	r0, r3, lsl r0
     9d0:	0e030104 	adfeqs	f0, f3, f4
     9d4:	0b3a0b0b 	bleq	e83608 <__bss_end+0xe80090>
     9d8:	13010b3b 	movwne	r0, #6971	; 0x1b3b
     9dc:	28120000 	ldmdacs	r2, {}	; <UNPREDICTABLE>
     9e0:	1c0e0300 	stcne	3, cr0, [lr], {-0}
     9e4:	1300000d 	movwne	r0, #13
     9e8:	0e03012e 	adfeqsp	f0, f3, #0.5
     9ec:	0b3b0b3a 	bleq	ec36dc <__bss_end+0xec0164>
     9f0:	13490c27 	movtne	r0, #39975	; 0x9c27
     9f4:	13010b20 	movwne	r0, #6944	; 0x1b20
     9f8:	05140000 	ldreq	r0, [r4, #-0]
     9fc:	3a0e0300 	bcc	381604 <__bss_end+0x37e08c>
     a00:	490b3b0b 	stmdbmi	fp, {r0, r1, r3, r8, r9, fp, ip, sp}
     a04:	15000013 	strne	r0, [r0, #-19]
     a08:	0e030034 	mcreq	0, 0, r0, cr3, cr4, {1}
     a0c:	0b3b0b3a 	bleq	ec36fc <__bss_end+0xec0184>
     a10:	00001349 	andeq	r1, r0, r9, asr #6
     a14:	03003416 	movweq	r3, #1046	; 0x416
     a18:	3b0b3a08 	blcc	2cf240 <__bss_end+0x2cbcc8>
     a1c:	0013490b 	andseq	r4, r3, fp, lsl #18
     a20:	012e1700 	teqeq	lr, r0, lsl #14
     a24:	0b3a0e03 	bleq	e84238 <__bss_end+0xe80cc0>
     a28:	0c27053b 	cfstr32eq	mvfx0, [r7], #-236	; 0xffffff14
     a2c:	13010b20 	movwne	r0, #6944	; 0x1b20
     a30:	05180000 	ldreq	r0, [r8, #-0]
     a34:	3a080300 	bcc	20163c <__bss_end+0x1fe0c4>
     a38:	49053b0b 	stmdbmi	r5, {r0, r1, r3, r8, r9, fp, ip, sp}
     a3c:	19000013 	stmdbne	r0, {r0, r1, r4}
     a40:	0e03012e 	adfeqsp	f0, f3, #0.5
     a44:	053b0b3a 	ldreq	r0, [fp, #-2874]!	; 0xb3a
     a48:	13490c27 	movtne	r0, #39975	; 0x9c27
     a4c:	13010b20 	movwne	r0, #6944	; 0x1b20
     a50:	341a0000 	ldrcc	r0, [sl], #-0
     a54:	3a0e0300 	bcc	38165c <__bss_end+0x37e0e4>
     a58:	49053b0b 	stmdbmi	r5, {r0, r1, r3, r8, r9, fp, ip, sp}
     a5c:	1b000013 	blne	ab0 <loop1+0x28>
     a60:	0c3f002e 	ldceq	0, cr0, [pc], #-184	; 9b0 <get_cur_cluster_id>
     a64:	0b3a0e03 	bleq	e84278 <__bss_end+0xe80d00>
     a68:	0c27053b 	cfstr32eq	mvfx0, [r7], #-236	; 0xffffff14
     a6c:	00000b20 	andeq	r0, r0, r0, lsr #22
     a70:	03012e1c 	movweq	r2, #7708	; 0x1e1c
     a74:	3b0b3a0e 	blcc	2cf2b4 <__bss_end+0x2cbd3c>
     a78:	110c270b 	tstne	ip, fp, lsl #14
     a7c:	40011201 	andmi	r1, r1, r1, lsl #4
     a80:	00130106 	andseq	r0, r3, r6, lsl #2
     a84:	00051d00 	andeq	r1, r5, r0, lsl #26
     a88:	0b3a0e03 	bleq	e8429c <__bss_end+0xe80d24>
     a8c:	13490b3b 	movtne	r0, #39739	; 0x9b3b
     a90:	00000602 	andeq	r0, r0, r2, lsl #12
     a94:	0300341e 	movweq	r3, #1054	; 0x41e
     a98:	3b0b3a08 	blcc	2cf2c0 <__bss_end+0x2cbd48>
     a9c:	1c13490b 	ldcne	9, cr4, [r3], {11}
     aa0:	1f00000b 	svcne	0x0000000b
     aa4:	08030034 	stmdaeq	r3, {r2, r4, r5}
     aa8:	0b3b0b3a 	bleq	ec3798 <__bss_end+0xec0220>
     aac:	06021349 	streq	r1, [r2], -r9, asr #6
     ab0:	34200000 	strtcc	r0, [r0], #-0
     ab4:	3a0e0300 	bcc	3816bc <__bss_end+0x37e144>
     ab8:	490b3b0b 	stmdbmi	fp, {r0, r1, r3, r8, r9, fp, ip, sp}
     abc:	00060213 	andeq	r0, r6, r3, lsl r2
     ac0:	012e2100 	teqeq	lr, r0, lsl #2
     ac4:	01111331 	tsteq	r1, r1, lsr r3
     ac8:	06400112 			; <UNDEFINED> instruction: 0x06400112
     acc:	00001301 	andeq	r1, r0, r1, lsl #6
     ad0:	31000522 	tstcc	r0, r2, lsr #10
     ad4:	00060213 	andeq	r0, r6, r3, lsl r2
     ad8:	00342300 	eorseq	r2, r4, r0, lsl #6
     adc:	06021331 			; <UNDEFINED> instruction: 0x06021331
     ae0:	34240000 	strtcc	r0, [r4], #-0
     ae4:	1c133100 	ldfnes	f3, [r3], {-0}
     ae8:	2500000b 	strcs	r0, [r0, #-11]
     aec:	1331011d 	teqne	r1, #1073741831	; 0x40000007
     af0:	06550152 			; <UNDEFINED> instruction: 0x06550152
     af4:	0b590b58 	bleq	164385c <__bss_end+0x16402e4>
     af8:	0b260000 	bleq	980b00 <__bss_end+0x97d588>
     afc:	00065501 	andeq	r5, r6, r1, lsl #10
     b00:	00342700 	eorseq	r2, r4, r0, lsl #14
     b04:	00001331 	andeq	r1, r0, r1, lsr r3
     b08:	31003428 	tstcc	r0, r8, lsr #8
     b0c:	000d1c13 	andeq	r1, sp, r3, lsl ip
     b10:	00052900 	andeq	r2, r5, r0, lsl #18
     b14:	00001331 	andeq	r1, r0, r1, lsr r3
     b18:	3f012e2a 	svccc	0x00012e2a
     b1c:	3a0e030c 	bcc	381754 <__bss_end+0x37e1dc>
     b20:	27053b0b 	strcs	r3, [r5, -fp, lsl #22]
     b24:	1201110c 	andne	r1, r1, #3
     b28:	010a4001 	tsteq	sl, r1
     b2c:	2b000013 	blcs	b80 <disable_icache+0x18>
     b30:	1331001d 	teqne	r1, #29
     b34:	01120111 	tsteq	r2, r1, lsl r1
     b38:	05590b58 	ldrbeq	r0, [r9, #-2904]	; 0xb58
     b3c:	2e2c0000 	cdpcs	0, 2, cr0, cr12, cr0, {0}
     b40:	030c3f01 	movweq	r3, #52993	; 0xcf01
     b44:	3b0b3a0e 	blcc	2cf384 <__bss_end+0x2cbe0c>
     b48:	110c2705 	tstne	ip, r5, lsl #14
     b4c:	40011201 	andmi	r1, r1, r1, lsl #4
     b50:	00130106 	andseq	r0, r3, r6, lsl #2
     b54:	00052d00 	andeq	r2, r5, r0, lsl #26
     b58:	0b3a0e03 	bleq	e8436c <__bss_end+0xe80df4>
     b5c:	1349053b 	movtne	r0, #38203	; 0x953b
     b60:	00000602 	andeq	r0, r0, r2, lsl #12
     b64:	0300342e 	movweq	r3, #1070	; 0x42e
     b68:	3b0b3a08 	blcc	2cf390 <__bss_end+0x2cbe18>
     b6c:	02134905 	andseq	r4, r3, #81920	; 0x14000
     b70:	2f000006 	svccs	0x00000006
     b74:	0e030034 	mcreq	0, 0, r0, cr3, cr4, {1}
     b78:	053b0b3a 	ldreq	r0, [fp, #-2874]!	; 0xb3a
     b7c:	06021349 	streq	r1, [r2], -r9, asr #6
     b80:	1d300000 	ldcne	0, cr0, [r0, #-0]
     b84:	52133100 	andspl	r3, r3, #0
     b88:	58065501 	stmdapl	r6, {r0, r8, sl, ip, lr}
     b8c:	0005590b 	andeq	r5, r5, fp, lsl #18
     b90:	012e3100 	teqeq	lr, r0, lsl #2
     b94:	0e030c3f 	mcreq	12, 0, r0, cr3, cr15, {1}
     b98:	053b0b3a 	ldreq	r0, [fp, #-2874]!	; 0xb3a
     b9c:	13490c27 	movtne	r0, #39975	; 0x9c27
     ba0:	01120111 	tsteq	r2, r1, lsl r1
     ba4:	13010640 	movwne	r0, #5696	; 0x1640
     ba8:	1d320000 	ldcne	0, cr0, [r2, #-0]
     bac:	52133101 	andspl	r3, r3, #1073741824	; 0x40000000
     bb0:	58065501 	stmdapl	r6, {r0, r8, sl, ip, lr}
     bb4:	0105590b 	tsteq	r5, fp, lsl #18
     bb8:	33000013 	movwcc	r0, #19
     bbc:	1331011d 	teqne	r1, #1073741831	; 0x40000007
     bc0:	01120111 	tsteq	r2, r1, lsl r1
     bc4:	05590b58 	ldrbeq	r0, [r9, #-2904]	; 0xb58
     bc8:	26340000 	ldrtcs	r0, [r4], -r0
     bcc:	00134900 	andseq	r4, r3, r0, lsl #18
     bd0:	00053500 	andeq	r3, r5, r0, lsl #10
     bd4:	0b3a0803 	bleq	e82be8 <__bss_end+0xe7f670>
     bd8:	1349053b 	movtne	r0, #38203	; 0x953b
     bdc:	00000602 	andeq	r0, r0, r2, lsl #12
     be0:	03000536 	movweq	r0, #1334	; 0x536
     be4:	3b0b3a08 	blcc	2cf40c <__bss_end+0x2cbe94>
     be8:	02134905 	andseq	r4, r3, #81920	; 0x14000
     bec:	3700000a 	strcc	r0, [r0, -sl]
     bf0:	1331011d 	teqne	r1, #1073741831	; 0x40000007
     bf4:	06550152 			; <UNDEFINED> instruction: 0x06550152
     bf8:	05590b58 	ldrbeq	r0, [r9, #-2904]	; 0xb58
     bfc:	2e380000 	cdpcs	0, 3, cr0, cr8, cr0, {0}
     c00:	11133100 	tstne	r3, r0, lsl #2
     c04:	40011201 	andmi	r1, r1, r1, lsl #4
     c08:	3900000a 	stmdbcc	r0, {r1, r3}
     c0c:	0e030034 	mcreq	0, 0, r0, cr3, cr4, {1}
     c10:	0b3b0b3a 	bleq	ec3900 <__bss_end+0xec0388>
     c14:	0a021349 	beq	85940 <__bss_end+0x823c8>
     c18:	01000000 	mrseq	r0, (UNDEF: 0)
     c1c:	0e250111 	mcreq	1, 1, r0, cr5, cr1, {0}
     c20:	0e030b13 	vmoveq.32	d3[0], r0
     c24:	01110e1b 	tsteq	r1, fp, lsl lr
     c28:	06100112 			; <UNDEFINED> instruction: 0x06100112
     c2c:	24020000 	strcs	r0, [r2], #-0
     c30:	3e0b0b00 	vmlacc.f64	d0, d11, d0
     c34:	000e030b 	andeq	r0, lr, fp, lsl #6
     c38:	00160300 	andseq	r0, r6, r0, lsl #6
     c3c:	0b3a0e03 	bleq	e84450 <__bss_end+0xe80ed8>
     c40:	13490b3b 	movtne	r0, #39739	; 0x9b3b
     c44:	24040000 	strcs	r0, [r4], #-0
     c48:	3e0b0b00 	vmlacc.f64	d0, d11, d0
     c4c:	0008030b 	andeq	r0, r8, fp, lsl #6
     c50:	01040500 	tsteq	r4, r0, lsl #10
     c54:	0b0b0e03 	bleq	2c4468 <__bss_end+0x2c0ef0>
     c58:	0b3b0b3a 	bleq	ec3948 <__bss_end+0xec03d0>
     c5c:	00001301 	andeq	r1, r0, r1, lsl #6
     c60:	03002806 	movweq	r2, #2054	; 0x806
     c64:	000d1c0e 	andeq	r1, sp, lr, lsl #24
     c68:	000f0700 	andeq	r0, pc, r0, lsl #14
     c6c:	00000b0b 	andeq	r0, r0, fp, lsl #22
     c70:	03011308 	movweq	r1, #4872	; 0x1308
     c74:	3a0b0b0e 	bcc	2c38b4 <__bss_end+0x2c033c>
     c78:	010b3b0b 	tsteq	fp, fp, lsl #22
     c7c:	09000013 	stmdbeq	r0, {r0, r1, r4}
     c80:	0e03000d 	cdpeq	0, 0, cr0, cr3, cr13, {0}
     c84:	0a381349 	beq	e059b0 <__bss_end+0xe02438>
     c88:	00000c34 	andeq	r0, r0, r4, lsr ip
     c8c:	03012e0a 	movweq	r2, #7690	; 0x1e0a
     c90:	3b0b3a0e 	blcc	2cf4d0 <__bss_end+0x2cbf58>
     c94:	490c270b 	stmdbmi	ip, {r0, r1, r3, r8, r9, sl, sp}
     c98:	010b2013 	tsteq	fp, r3, lsl r0
     c9c:	0b000013 	bleq	cf0 <mem_preload_tlb+0xa0>
     ca0:	0e030005 	cdpeq	0, 0, cr0, cr3, cr5, {0}
     ca4:	0b3b0b3a 	bleq	ec3994 <__bss_end+0xec041c>
     ca8:	00001349 	andeq	r1, r0, r9, asr #6
     cac:	0300050c 	movweq	r0, #1292	; 0x50c
     cb0:	3b0b3a08 	blcc	2cf4d8 <__bss_end+0x2cbf60>
     cb4:	0013490b 	andseq	r4, r3, fp, lsl #18
     cb8:	00340d00 	eorseq	r0, r4, r0, lsl #26
     cbc:	0b3a0803 	bleq	e82cd0 <__bss_end+0xe7f758>
     cc0:	13490b3b 	movtne	r0, #39739	; 0x9b3b
     cc4:	0f0e0000 	svceq	0x000e0000
     cc8:	490b0b00 	stmdbmi	fp, {r8, r9, fp}
     ccc:	0f000013 	svceq	0x00000013
     cd0:	13490026 	movtne	r0, #36902	; 0x9026
     cd4:	34100000 	ldrcc	r0, [r0], #-0
     cd8:	3a0e0300 	bcc	3818e0 <__bss_end+0x37e368>
     cdc:	490b3b0b 	stmdbmi	fp, {r0, r1, r3, r8, r9, fp, ip, sp}
     ce0:	11000013 	tstne	r0, r3, lsl r0
     ce4:	13490101 	movtne	r0, #37121	; 0x9101
     ce8:	00001301 	andeq	r1, r0, r1, lsl #6
     cec:	49002112 	stmdbmi	r0, {r1, r4, r8, sp}
     cf0:	000b2f13 	andeq	r2, fp, r3, lsl pc
     cf4:	012e1300 	teqeq	lr, r0, lsl #6
     cf8:	0b3a0e03 	bleq	e8450c <__bss_end+0xe80f94>
     cfc:	0c270b3b 	stceq	11, cr0, [r7], #-236	; 0xffffff14
     d00:	01111349 	tsteq	r1, r9, asr #6
     d04:	06400112 			; <UNDEFINED> instruction: 0x06400112
     d08:	00001301 	andeq	r1, r0, r1, lsl #6
     d0c:	03000514 	movweq	r0, #1300	; 0x514
     d10:	3b0b3a0e 	blcc	2cf550 <__bss_end+0x2cbfd8>
     d14:	0213490b 	andseq	r4, r3, #180224	; 0x2c000
     d18:	15000006 	strne	r0, [r0, #-6]
     d1c:	0e030034 	mcreq	0, 0, r0, cr3, cr4, {1}
     d20:	0b3b0b3a 	bleq	ec3a10 <__bss_end+0xec0498>
     d24:	0a021349 	beq	85a50 <__bss_end+0x824d8>
     d28:	34160000 	ldrcc	r0, [r6], #-0
     d2c:	3a080300 	bcc	201934 <__bss_end+0x1fe3bc>
     d30:	490b3b0b 	stmdbmi	fp, {r0, r1, r3, r8, r9, fp, ip, sp}
     d34:	00060213 	andeq	r0, r6, r3, lsl r2
     d38:	012e1700 	teqeq	lr, r0, lsl #14
     d3c:	0b3a0e03 	bleq	e84550 <__bss_end+0xe80fd8>
     d40:	0c27053b 	cfstr32eq	mvfx0, [r7], #-236	; 0xffffff14
     d44:	01111349 	tsteq	r1, r9, asr #6
     d48:	06400112 			; <UNDEFINED> instruction: 0x06400112
     d4c:	00001301 	andeq	r1, r0, r1, lsl #6
     d50:	03000518 	movweq	r0, #1304	; 0x518
     d54:	3b0b3a0e 	blcc	2cf594 <__bss_end+0x2cc01c>
     d58:	02134905 	andseq	r4, r3, #81920	; 0x14000
     d5c:	19000006 	stmdbne	r0, {r1, r2}
     d60:	08030005 	stmdaeq	r3, {r0, r2}
     d64:	053b0b3a 	ldreq	r0, [fp, #-2874]!	; 0xb3a
     d68:	06021349 	streq	r1, [r2], -r9, asr #6
     d6c:	341a0000 	ldrcc	r0, [sl], #-0
     d70:	3a0e0300 	bcc	381978 <__bss_end+0x37e400>
     d74:	49053b0b 	stmdbmi	r5, {r0, r1, r3, r8, r9, fp, ip, sp}
     d78:	000a0213 	andeq	r0, sl, r3, lsl r2
     d7c:	011d1b00 	tsteq	sp, r0, lsl #22
     d80:	01521331 	cmpeq	r2, r1, lsr r3
     d84:	0b580655 	bleq	16026e0 <__bss_end+0x15ff168>
     d88:	00000559 	andeq	r0, r0, r9, asr r5
     d8c:	3100051c 	tstcc	r0, ip, lsl r5
     d90:	00060213 	andeq	r0, r6, r3, lsl r2
     d94:	010b1d00 	tsteq	fp, r0, lsl #26
     d98:	00000655 	andeq	r0, r0, r5, asr r6
     d9c:	3100341e 	tstcc	r0, lr, lsl r4
     da0:	00060213 	andeq	r0, r6, r3, lsl r2
     da4:	012e1f00 	teqeq	lr, r0, lsl #30
     da8:	01111331 	tsteq	r1, r1, lsr r3
     dac:	06400112 			; <UNDEFINED> instruction: 0x06400112
     db0:	00001301 	andeq	r1, r0, r1, lsl #6
     db4:	31003420 	tstcc	r0, r0, lsr #8
     db8:	000a0213 	andeq	r0, sl, r3, lsl r2
     dbc:	00052100 	andeq	r2, r5, r0, lsl #2
     dc0:	0b1c1331 	bleq	705a8c <__bss_end+0x702514>
     dc4:	2e220000 	cdpcs	0, 2, cr0, cr2, cr0, {0}
     dc8:	030c3f01 	movweq	r3, #52993	; 0xcf01
     dcc:	3b0b3a0e 	blcc	2cf60c <__bss_end+0x2cc094>
     dd0:	490c2705 	stmdbmi	ip, {r0, r2, r8, r9, sl, sp}
     dd4:	12011113 	andne	r1, r1, #-1073741820	; 0xc0000004
     dd8:	01064001 	tsteq	r6, r1
     ddc:	23000013 	movwcs	r0, #19
     de0:	00000018 	andeq	r0, r0, r8, lsl r0
     de4:	03003424 	movweq	r3, #1060	; 0x424
     de8:	3b0b3a0e 	blcc	2cf628 <__bss_end+0x2cc0b0>
     dec:	02134905 	andseq	r4, r3, #81920	; 0x14000
     df0:	25000006 	strcs	r0, [r0, #-6]
     df4:	08030034 	stmdaeq	r3, {r2, r4, r5}
     df8:	053b0b3a 	ldreq	r0, [fp, #-2874]!	; 0xb3a
     dfc:	06021349 	streq	r1, [r2], -r9, asr #6
     e00:	1d260000 	stcne	0, cr0, [r6, #-0]
     e04:	11133101 	tstne	r3, r1, lsl #2
     e08:	58011201 	stmdapl	r1, {r0, r9, ip}
     e0c:	0105590b 	tsteq	r5, fp, lsl #18
     e10:	27000013 	smladcs	r0, r3, r0, r0
     e14:	0111010b 	tsteq	r1, fp, lsl #2
     e18:	00000112 	andeq	r0, r0, r2, lsl r1
     e1c:	31000528 	tstcc	r0, r8, lsr #10
     e20:	29000013 	stmdbcs	r0, {r0, r1, r4}
     e24:	13310005 	teqne	r1, #5
     e28:	00000a02 	andeq	r0, r0, r2, lsl #20
     e2c:	31011d2a 	tstcc	r1, sl, lsr #26
     e30:	12011113 	andne	r1, r1, #-1073741820	; 0xc0000004
     e34:	590b5801 	stmdbpl	fp, {r0, fp, ip, lr}
     e38:	00000005 	andeq	r0, r0, r5
     e3c:	10001101 	andne	r1, r0, r1, lsl #2
     e40:	12011106 	andne	r1, r1, #-2147483647	; 0x80000001
     e44:	1b080301 	blne	201a50 <__bss_end+0x1fe4d8>
     e48:	13082508 	movwne	r2, #34056	; 0x8508
     e4c:	00000005 	andeq	r0, r0, r5
     e50:	25011101 	strcs	r1, [r1, #-257]	; 0x101
     e54:	030b130e 	movweq	r1, #45838	; 0xb30e
     e58:	110e1b0e 	tstne	lr, lr, lsl #22
     e5c:	10011201 	andne	r1, r1, r1, lsl #4
     e60:	02000006 	andeq	r0, r0, #6
     e64:	0b0b0024 	bleq	2c0efc <__bss_end+0x2bd984>
     e68:	0e030b3e 	vmoveq.16	d3[0], r0
     e6c:	16030000 	strne	r0, [r3], -r0
     e70:	3a0e0300 	bcc	381a78 <__bss_end+0x37e500>
     e74:	490b3b0b 	stmdbmi	fp, {r0, r1, r3, r8, r9, fp, ip, sp}
     e78:	04000013 	streq	r0, [r0], #-19
     e7c:	0b0b0024 	bleq	2c0f14 <__bss_end+0x2bd99c>
     e80:	08030b3e 	stmdaeq	r3, {r1, r2, r3, r4, r5, r8, r9, fp}
     e84:	2e050000 	cdpcs	0, 0, cr0, cr5, cr0, {0}
     e88:	030c3f00 	movweq	r3, #52992	; 0xcf00
     e8c:	3b0b3a0e 	blcc	2cf6cc <__bss_end+0x2cc154>
     e90:	110c270b 	tstne	ip, fp, lsl #14
     e94:	40011201 	andmi	r1, r1, r1, lsl #4
     e98:	0600000a 	streq	r0, [r0], -sl
     e9c:	0c3f012e 	ldfeqs	f0, [pc], #-184	; dec <jump_to_suspend+0x18>
     ea0:	0b3a0e03 	bleq	e846b4 <__bss_end+0xe8113c>
     ea4:	0c270b3b 	stceq	11, cr0, [r7], #-236	; 0xffffff14
     ea8:	01111349 	tsteq	r1, r9, asr #6
     eac:	0a400112 	beq	10012fc <__bss_end+0xffdd84>
     eb0:	05070000 	streq	r0, [r7, #-0]
     eb4:	3a0e0300 	bcc	381abc <__bss_end+0x37e544>
     eb8:	490b3b0b 	stmdbmi	fp, {r0, r1, r3, r8, r9, fp, ip, sp}
     ebc:	00060213 	andeq	r0, r6, r3, lsl r2
     ec0:	00340800 	eorseq	r0, r4, r0, lsl #16
     ec4:	0b3a0e03 	bleq	e846d8 <__bss_end+0xe81160>
     ec8:	13490b3b 	movtne	r0, #39739	; 0x9b3b
     ecc:	00000602 	andeq	r0, r0, r2, lsl #12
     ed0:	01110100 	tsteq	r1, r0, lsl #2
     ed4:	0b130e25 	bleq	4c4770 <__bss_end+0x4c11f8>
     ed8:	0e1b0e03 	cdpeq	14, 1, cr0, cr11, cr3, {0}
     edc:	01120111 	tsteq	r2, r1, lsl r1
     ee0:	00000610 	andeq	r0, r0, r0, lsl r6
     ee4:	0b002402 	bleq	9ef4 <__bss_end+0x697c>
     ee8:	030b3e0b 	movweq	r3, #48651	; 0xbe0b
     eec:	0300000e 	movweq	r0, #14
     ef0:	0e030016 	mcreq	0, 0, r0, cr3, cr6, {0}
     ef4:	0b3b0b3a 	bleq	ec3be4 <__bss_end+0xec066c>
     ef8:	00001349 	andeq	r1, r0, r9, asr #6
     efc:	0b002404 	bleq	9f14 <__bss_end+0x699c>
     f00:	030b3e0b 	movweq	r3, #48651	; 0xbe0b
     f04:	05000008 	streq	r0, [r0, #-8]
     f08:	13490035 	movtne	r0, #36917	; 0x9035
     f0c:	04060000 	streq	r0, [r6], #-0
     f10:	0b0e0301 	bleq	381b1c <__bss_end+0x37e5a4>
     f14:	3b0b3a0b 	blcc	2cf748 <__bss_end+0x2cc1d0>
     f18:	0013010b 	andseq	r0, r3, fp, lsl #2
     f1c:	00280700 	eoreq	r0, r8, r0, lsl #14
     f20:	0d1c0e03 	ldceq	14, cr0, [ip, #-12]
     f24:	0f080000 	svceq	0x00080000
     f28:	000b0b00 	andeq	r0, fp, r0, lsl #22
     f2c:	012e0900 	teqeq	lr, r0, lsl #18
     f30:	0e030c3f 	mcreq	12, 0, r0, cr3, cr15, {1}
     f34:	0b3b0b3a 	bleq	ec3c24 <__bss_end+0xec06ac>
     f38:	13490c27 	movtne	r0, #39975	; 0x9c27
     f3c:	01120111 	tsteq	r2, r1, lsl r1
     f40:	13010640 	movwne	r0, #5696	; 0x1640
     f44:	340a0000 	strcc	r0, [sl], #-0
     f48:	3a080300 	bcc	201b50 <__bss_end+0x1fe5d8>
     f4c:	490b3b0b 	stmdbmi	fp, {r0, r1, r3, r8, r9, fp, ip, sp}
     f50:	00060213 	andeq	r0, r6, r3, lsl r2
     f54:	00340b00 	eorseq	r0, r4, r0, lsl #22
     f58:	0b3a0e03 	bleq	e8476c <__bss_end+0xe811f4>
     f5c:	13490b3b 	movtne	r0, #39739	; 0x9b3b
     f60:	00000602 	andeq	r0, r0, r2, lsl #12
     f64:	3f012e0c 	svccc	0x00012e0c
     f68:	3a0e030c 	bcc	381ba0 <__bss_end+0x37e628>
     f6c:	270b3b0b 	strcs	r3, [fp, -fp, lsl #22]
     f70:	1113490c 	tstne	r3, ip, lsl #18
     f74:	40011201 	andmi	r1, r1, r1, lsl #4
     f78:	0013010a 	andseq	r0, r3, sl, lsl #2
     f7c:	00050d00 	andeq	r0, r5, r0, lsl #26
     f80:	0b3a0803 	bleq	e82f94 <__bss_end+0xe7fa1c>
     f84:	13490b3b 	movtne	r0, #39739	; 0x9b3b
     f88:	00000602 	andeq	r0, r0, r2, lsl #12
     f8c:	0300340e 	movweq	r3, #1038	; 0x40e
     f90:	3b0b3a0e 	blcc	2cf7d0 <__bss_end+0x2cc258>
     f94:	0213490b 	andseq	r4, r3, #180224	; 0x2c000
     f98:	0000000a 	andeq	r0, r0, sl
     f9c:	25011101 	strcs	r1, [r1, #-257]	; 0x101
     fa0:	030b130e 	movweq	r1, #45838	; 0xb30e
     fa4:	110e1b0e 	tstne	lr, lr, lsl #22
     fa8:	10011201 	andne	r1, r1, r1, lsl #4
     fac:	02000006 	andeq	r0, r0, #6
     fb0:	0b0b0024 	bleq	2c1048 <__bss_end+0x2bdad0>
     fb4:	0e030b3e 	vmoveq.16	d3[0], r0
     fb8:	16030000 	strne	r0, [r3], -r0
     fbc:	3a0e0300 	bcc	381bc4 <__bss_end+0x37e64c>
     fc0:	490b3b0b 	stmdbmi	fp, {r0, r1, r3, r8, r9, fp, ip, sp}
     fc4:	04000013 	streq	r0, [r0], #-19
     fc8:	0b0b0024 	bleq	2c1060 <__bss_end+0x2bdae8>
     fcc:	08030b3e 	stmdaeq	r3, {r1, r2, r3, r4, r5, r8, r9, fp}
     fd0:	13050000 	movwne	r0, #20480	; 0x5000
     fd4:	0b0e0301 	bleq	381be0 <__bss_end+0x37e668>
     fd8:	3b0b3a05 	blcc	2cf7f4 <__bss_end+0x2cc27c>
     fdc:	0013010b 	andseq	r0, r3, fp, lsl #2
     fe0:	000d0600 	andeq	r0, sp, r0, lsl #12
     fe4:	0b3a0e03 	bleq	e847f8 <__bss_end+0xe81280>
     fe8:	13490b3b 	movtne	r0, #39739	; 0x9b3b
     fec:	00000a38 	andeq	r0, r0, r8, lsr sl
     ff0:	49010107 	stmdbmi	r1, {r0, r1, r2, r8}
     ff4:	00130113 	andseq	r0, r3, r3, lsl r1
     ff8:	00210800 	eoreq	r0, r1, r0, lsl #16
     ffc:	0b2f1349 	bleq	bc5d28 <__bss_end+0xbc27b0>
    1000:	2e090000 	cdpcs	0, 0, cr0, cr9, cr0, {0}
    1004:	030c3f01 	movweq	r3, #52993	; 0xcf01
    1008:	3b0b3a0e 	blcc	2cf848 <__bss_end+0x2cc2d0>
    100c:	490c270b 	stmdbmi	ip, {r0, r1, r3, r8, r9, sl, sp}
    1010:	12011113 	andne	r1, r1, #-1073741820	; 0xc0000004
    1014:	010a4001 	tsteq	sl, r1
    1018:	0a000013 	beq	106c <__save_processor_state+0x18c>
    101c:	0e030005 	cdpeq	0, 0, cr0, cr3, cr5, {0}
    1020:	0b3b0b3a 	bleq	ec3d10 <__bss_end+0xec0798>
    1024:	06021349 	streq	r1, [r2], -r9, asr #6
    1028:	340b0000 	strcc	r0, [fp], #-0
    102c:	3a080300 	bcc	201c34 <__bss_end+0x1fe6bc>
    1030:	490b3b0b 	stmdbmi	fp, {r0, r1, r3, r8, r9, fp, ip, sp}
    1034:	00060213 	andeq	r0, r6, r3, lsl r2
    1038:	000f0c00 	andeq	r0, pc, r0, lsl #24
    103c:	13490b0b 	movtne	r0, #39691	; 0x9b0b
    1040:	2e0d0000 	cdpcs	0, 0, cr0, cr13, cr0, {0}
    1044:	030c3f01 	movweq	r3, #52993	; 0xcf01
    1048:	3b0b3a0e 	blcc	2cf888 <__bss_end+0x2cc310>
    104c:	110c270b 	tstne	ip, fp, lsl #14
    1050:	40011201 	andmi	r1, r1, r1, lsl #4
    1054:	0e00000a 	cdpeq	0, 0, cr0, cr0, cr10, {0}
    1058:	0e030034 	mcreq	0, 0, r0, cr3, cr4, {1}
    105c:	0b3b0b3a 	bleq	ec3d4c <__bss_end+0xec07d4>
    1060:	0a021349 	beq	85d8c <__bss_end+0x82814>
    1064:	340f0000 	strcc	r0, [pc], #-0	; 106c <__save_processor_state+0x18c>
    1068:	3a0e0300 	bcc	381c70 <__bss_end+0x37e6f8>
    106c:	490b3b0b 	stmdbmi	fp, {r0, r1, r3, r8, r9, fp, ip, sp}
    1070:	00060213 	andeq	r0, r6, r3, lsl r2
    1074:	11010000 	mrsne	r0, (UNDEF: 1)
    1078:	130e2501 	movwne	r2, #58625	; 0xe501
    107c:	1b0e030b 	blne	381cb0 <__bss_end+0x37e738>
    1080:	1201110e 	andne	r1, r1, #-2147483645	; 0x80000003
    1084:	00061001 	andeq	r1, r6, r1
    1088:	00240200 	eoreq	r0, r4, r0, lsl #4
    108c:	0b3e0b0b 	bleq	f83cc0 <__bss_end+0xf80748>
    1090:	00000e03 	andeq	r0, r0, r3, lsl #28
    1094:	03001603 	movweq	r1, #1539	; 0x603
    1098:	3b0b3a0e 	blcc	2cf8d8 <__bss_end+0x2cc360>
    109c:	0013490b 	andseq	r4, r3, fp, lsl #18
    10a0:	00240400 	eoreq	r0, r4, r0, lsl #8
    10a4:	0b3e0b0b 	bleq	f83cd8 <__bss_end+0xf80760>
    10a8:	00000803 	andeq	r0, r0, r3, lsl #16
    10ac:	49003505 	stmdbmi	r0, {r0, r2, r8, sl, ip, sp}
    10b0:	06000013 			; <UNDEFINED> instruction: 0x06000013
    10b4:	13490101 	movtne	r0, #37121	; 0x9101
    10b8:	00001301 	andeq	r1, r0, r1, lsl #6
    10bc:	49002107 	stmdbmi	r0, {r0, r1, r2, r8, sp}
    10c0:	000b2f13 	andeq	r2, fp, r3, lsl pc
    10c4:	01130800 	tsteq	r3, r0, lsl #16
    10c8:	0b0b0e03 	bleq	2c48dc <__bss_end+0x2c1364>
    10cc:	0b3b0b3a 	bleq	ec3dbc <__bss_end+0xec0844>
    10d0:	00001301 	andeq	r1, r0, r1, lsl #6
    10d4:	03000d09 	movweq	r0, #3337	; 0xd09
    10d8:	3b0b3a0e 	blcc	2cf918 <__bss_end+0x2cc3a0>
    10dc:	3813490b 	ldmdacc	r3, {r0, r1, r3, r8, fp, lr}
    10e0:	0a00000a 	beq	1110 <__save_processor_state+0x230>
    10e4:	0e030104 	adfeqs	f0, f3, f4
    10e8:	0b3a0b0b 	bleq	e83d1c <__bss_end+0xe807a4>
    10ec:	13010b3b 	movwne	r0, #6971	; 0x1b3b
    10f0:	280b0000 	stmdacs	fp, {}	; <UNPREDICTABLE>
    10f4:	1c0e0300 	stcne	3, cr0, [lr], {-0}
    10f8:	0c00000d 	stceq	0, cr0, [r0], {13}
    10fc:	0c3f012e 	ldfeqs	f0, [pc], #-184	; 104c <__save_processor_state+0x16c>
    1100:	0b3a0e03 	bleq	e84914 <__bss_end+0xe8139c>
    1104:	0c270b3b 	stceq	11, cr0, [r7], #-236	; 0xffffff14
    1108:	01111349 	tsteq	r1, r9, asr #6
    110c:	0a400112 	beq	100155c <__bss_end+0xffdfe4>
    1110:	00001301 	andeq	r1, r0, r1, lsl #6
    1114:	0300050d 	movweq	r0, #1293	; 0x50d
    1118:	3b0b3a0e 	blcc	2cf958 <__bss_end+0x2cc3e0>
    111c:	0213490b 	andseq	r4, r3, #180224	; 0x2c000
    1120:	0e000006 	cdpeq	0, 0, cr0, cr0, cr6, {0}
    1124:	0b0b000f 	bleq	2c1168 <__bss_end+0x2bdbf0>
    1128:	00001349 	andeq	r1, r0, r9, asr #6
    112c:	3f002e0f 	svccc	0x00002e0f
    1130:	3a0e030c 	bcc	381d68 <__bss_end+0x37e7f0>
    1134:	270b3b0b 	strcs	r3, [fp, -fp, lsl #22]
    1138:	1113490c 	tstne	r3, ip, lsl #18
    113c:	40011201 	andmi	r1, r1, r1, lsl #4
    1140:	1000000a 	andne	r0, r0, sl
    1144:	0c3f002e 	ldceq	0, cr0, [pc], #-184	; 1094 <__save_processor_state+0x1b4>
    1148:	0b3a0e03 	bleq	e8495c <__bss_end+0xe813e4>
    114c:	0c270b3b 	stceq	11, cr0, [r7], #-236	; 0xffffff14
    1150:	01120111 	tsteq	r2, r1, lsl r1
    1154:	00000a40 	andeq	r0, r0, r0, asr #20
    1158:	03003411 	movweq	r3, #1041	; 0x411
    115c:	3b0b3a0e 	blcc	2cf99c <__bss_end+0x2cc424>
    1160:	0213490b 	andseq	r4, r3, #180224	; 0x2c000
    1164:	0000000a 	andeq	r0, r0, sl
    1168:	25011101 	strcs	r1, [r1, #-257]	; 0x101
    116c:	030b130e 	movweq	r1, #45838	; 0xb30e
    1170:	110e1b0e 	tstne	lr, lr, lsl #22
    1174:	10011201 	andne	r1, r1, r1, lsl #4
    1178:	02000006 	andeq	r0, r0, #6
    117c:	0b0b0024 	bleq	2c1214 <__bss_end+0x2bdc9c>
    1180:	0e030b3e 	vmoveq.16	d3[0], r0
    1184:	16030000 	strne	r0, [r3], -r0
    1188:	3a0e0300 	bcc	381d90 <__bss_end+0x37e818>
    118c:	490b3b0b 	stmdbmi	fp, {r0, r1, r3, r8, r9, fp, ip, sp}
    1190:	04000013 	streq	r0, [r0], #-19
    1194:	0b0b0024 	bleq	2c122c <__bss_end+0x2bdcb4>
    1198:	08030b3e 	stmdaeq	r3, {r1, r2, r3, r4, r5, r8, r9, fp}
    119c:	35050000 	strcc	r0, [r5, #-0]
    11a0:	00134900 	andseq	r4, r3, r0, lsl #18
    11a4:	01010600 	tsteq	r1, r0, lsl #12
    11a8:	13011349 	movwne	r1, #4937	; 0x1349
    11ac:	21070000 	mrscs	r0, (UNDEF: 7)
    11b0:	2f134900 	svccs	0x00134900
    11b4:	0800000b 	stmdaeq	r0, {r0, r1, r3}
    11b8:	0e030113 	mcreq	1, 0, r0, cr3, cr3, {0}
    11bc:	0b3a0b0b 	bleq	e83df0 <__bss_end+0xe80878>
    11c0:	13010b3b 	movwne	r0, #6971	; 0x1b3b
    11c4:	0d090000 	stceq	0, cr0, [r9, #-0]
    11c8:	3a080300 	bcc	201dd0 <__bss_end+0x1fe858>
    11cc:	490b3b0b 	stmdbmi	fp, {r0, r1, r3, r8, r9, fp, ip, sp}
    11d0:	000a3813 	andeq	r3, sl, r3, lsl r8
    11d4:	000d0a00 	andeq	r0, sp, r0, lsl #20
    11d8:	0b3a0e03 	bleq	e849ec <__bss_end+0xe81474>
    11dc:	13490b3b 	movtne	r0, #39739	; 0x9b3b
    11e0:	00000a38 	andeq	r0, r0, r8, lsr sl
    11e4:	0301040b 	movweq	r0, #5131	; 0x140b
    11e8:	3a0b0b0e 	bcc	2c3e28 <__bss_end+0x2c08b0>
    11ec:	010b3b0b 	tsteq	fp, fp, lsl #22
    11f0:	0c000013 	stceq	0, cr0, [r0], {19}
    11f4:	0e030028 	cdpeq	0, 0, cr0, cr3, cr8, {1}
    11f8:	00000d1c 	andeq	r0, r0, ip, lsl sp
    11fc:	3f012e0d 	svccc	0x00012e0d
    1200:	3a0e030c 	bcc	381e38 <__bss_end+0x37e8c0>
    1204:	270b3b0b 	strcs	r3, [fp, -fp, lsl #22]
    1208:	1113490c 	tstne	r3, ip, lsl #18
    120c:	40011201 	andmi	r1, r1, r1, lsl #4
    1210:	0013010a 	andseq	r0, r3, sl, lsl #2
    1214:	00050e00 	andeq	r0, r5, r0, lsl #28
    1218:	0b3a0e03 	bleq	e84a2c <__bss_end+0xe814b4>
    121c:	13490b3b 	movtne	r0, #39739	; 0x9b3b
    1220:	00000602 	andeq	r0, r0, r2, lsl #12
    1224:	0b000f0f 	bleq	4e68 <__bss_end+0x18f0>
    1228:	0013490b 	andseq	r4, r3, fp, lsl #18
    122c:	00341000 	eorseq	r1, r4, r0
    1230:	0b3a0e03 	bleq	e84a44 <__bss_end+0xe814cc>
    1234:	13490b3b 	movtne	r0, #39739	; 0x9b3b
    1238:	00000a02 	andeq	r0, r0, r2, lsl #20
    123c:	01110100 	tsteq	r1, r0, lsl #2
    1240:	0b130e25 	bleq	4c4adc <__bss_end+0x4c1564>
    1244:	0e1b0e03 	cdpeq	14, 1, cr0, cr11, cr3, {0}
    1248:	01120111 	tsteq	r2, r1, lsl r1
    124c:	00000610 	andeq	r0, r0, r0, lsl r6
    1250:	0b002402 	bleq	a260 <__bss_end+0x6ce8>
    1254:	030b3e0b 	movweq	r3, #48651	; 0xbe0b
    1258:	0300000e 	movweq	r0, #14
    125c:	0e030016 	mcreq	0, 0, r0, cr3, cr6, {0}
    1260:	0b3b0b3a 	bleq	ec3f50 <__bss_end+0xec09d8>
    1264:	00001349 	andeq	r1, r0, r9, asr #6
    1268:	0b002404 	bleq	a280 <__bss_end+0x6d08>
    126c:	030b3e0b 	movweq	r3, #48651	; 0xbe0b
    1270:	05000008 	streq	r0, [r0, #-8]
    1274:	0e030104 	adfeqs	f0, f3, f4
    1278:	0b3a0b0b 	bleq	e83eac <__bss_end+0xe80934>
    127c:	13010b3b 	movwne	r0, #6971	; 0x1b3b
    1280:	28060000 	stmdacs	r6, {}	; <UNPREDICTABLE>
    1284:	1c0e0300 	stcne	3, cr0, [lr], {-0}
    1288:	0700000d 	streq	r0, [r0, -sp]
    128c:	0e03012e 	adfeqsp	f0, f3, #0.5
    1290:	0b3b0b3a 	bleq	ec3f80 <__bss_end+0xec0a08>
    1294:	13490c27 	movtne	r0, #39975	; 0x9c27
    1298:	13010b20 	movwne	r0, #6944	; 0x1b20
    129c:	34080000 	strcc	r0, [r8], #-0
    12a0:	3a0e0300 	bcc	381ea8 <__bss_end+0x37e930>
    12a4:	490b3b0b 	stmdbmi	fp, {r0, r1, r3, r8, r9, fp, ip, sp}
    12a8:	09000013 	stmdbeq	r0, {r0, r1, r4}
    12ac:	0e03012e 	adfeqsp	f0, f3, #0.5
    12b0:	0b3b0b3a 	bleq	ec3fa0 <__bss_end+0xec0a28>
    12b4:	0b200c27 	bleq	804358 <__bss_end+0x800de0>
    12b8:	00001301 	andeq	r1, r0, r1, lsl #6
    12bc:	0300050a 	movweq	r0, #1290	; 0x50a
    12c0:	3b0b3a0e 	blcc	2cfb00 <__bss_end+0x2cc588>
    12c4:	0013490b 	andseq	r4, r3, fp, lsl #18
    12c8:	012e0b00 	teqeq	lr, r0, lsl #22
    12cc:	0e030c3f 	mcreq	12, 0, r0, cr3, cr15, {1}
    12d0:	0b3b0b3a 	bleq	ec3fc0 <__bss_end+0xec0a48>
    12d4:	13490c27 	movtne	r0, #39975	; 0x9c27
    12d8:	01120111 	tsteq	r2, r1, lsl r1
    12dc:	13010a40 	movwne	r0, #6720	; 0x1a40
    12e0:	050c0000 	streq	r0, [ip, #-0]
    12e4:	3a0e0300 	bcc	381eec <__bss_end+0x37e974>
    12e8:	490b3b0b 	stmdbmi	fp, {r0, r1, r3, r8, r9, fp, ip, sp}
    12ec:	00060213 	andeq	r0, r6, r3, lsl r2
    12f0:	012e0d00 	teqeq	lr, r0, lsl #26
    12f4:	0e030c3f 	mcreq	12, 0, r0, cr3, cr15, {1}
    12f8:	0b3b0b3a 	bleq	ec3fe8 <__bss_end+0xec0a70>
    12fc:	13490c27 	movtne	r0, #39975	; 0x9c27
    1300:	01120111 	tsteq	r2, r1, lsl r1
    1304:	13010640 	movwne	r0, #5696	; 0x1640
    1308:	340e0000 	strcc	r0, [lr], #-0
    130c:	3a0e0300 	bcc	381f14 <__bss_end+0x37e99c>
    1310:	490b3b0b 	stmdbmi	fp, {r0, r1, r3, r8, r9, fp, ip, sp}
    1314:	00060213 	andeq	r0, r6, r3, lsl r2
    1318:	011d0f00 	tsteq	sp, r0, lsl #30
    131c:	01111331 	tsteq	r1, r1, lsr r3
    1320:	0b580112 	bleq	1601770 <__bss_end+0x15fe1f8>
    1324:	13010b59 	movwne	r0, #7001	; 0x1b59
    1328:	0b100000 	bleq	401330 <__bss_end+0x3fddb8>
    132c:	12011101 	andne	r1, r1, #1073741824	; 0x40000000
    1330:	11000001 	tstne	r0, r1
    1334:	13310034 	teqne	r1, #52	; 0x34
    1338:	00000602 	andeq	r0, r0, r2, lsl #12
    133c:	31011d12 	tstcc	r1, r2, lsl sp
    1340:	12011113 	andne	r1, r1, #-1073741820	; 0xc0000004
    1344:	590b5801 	stmdbpl	fp, {r0, fp, ip, lr}
    1348:	1300000b 	movwne	r0, #11
    134c:	13310005 	teqne	r1, #5
    1350:	00000602 	andeq	r0, r0, r2, lsl #12
    1354:	31011d14 	tstcc	r1, r4, lsl sp
    1358:	55015213 	strpl	r5, [r1, #-531]	; 0x213
    135c:	590b5806 	stmdbpl	fp, {r1, r2, fp, ip, lr}
    1360:	1500000b 	strne	r0, [r0, #-11]
    1364:	13310005 	teqne	r1, #5
    1368:	00000a02 	andeq	r0, r0, r2, lsl #20
    136c:	31003416 	tstcc	r0, r6, lsl r4
    1370:	000a0213 	andeq	r0, sl, r3, lsl r2
    1374:	00341700 	eorseq	r1, r4, r0, lsl #14
    1378:	0b3a0e03 	bleq	e84b8c <__bss_end+0xe81614>
    137c:	13490b3b 	movtne	r0, #39739	; 0x9b3b
    1380:	00000a02 	andeq	r0, r0, r2, lsl #20
    1384:	01110100 	tsteq	r1, r0, lsl #2
    1388:	0b130e25 	bleq	4c4c24 <__bss_end+0x4c16ac>
    138c:	0e1b0e03 	cdpeq	14, 1, cr0, cr11, cr3, {0}
    1390:	01120111 	tsteq	r2, r1, lsl r1
    1394:	00000610 	andeq	r0, r0, r0, lsl r6
    1398:	0b002402 	bleq	a3a8 <__bss_end+0x6e30>
    139c:	030b3e0b 	movweq	r3, #48651	; 0xbe0b
    13a0:	0300000e 	movweq	r0, #14
    13a4:	0e030016 	mcreq	0, 0, r0, cr3, cr6, {0}
    13a8:	0b3b0b3a 	bleq	ec4098 <__bss_end+0xec0b20>
    13ac:	00001349 	andeq	r1, r0, r9, asr #6
    13b0:	0b002404 	bleq	a3c8 <__bss_end+0x6e50>
    13b4:	030b3e0b 	movweq	r3, #48651	; 0xbe0b
    13b8:	05000008 	streq	r0, [r0, #-8]
    13bc:	0b0b0113 	bleq	2c1810 <__bss_end+0x2be298>
    13c0:	0b3b0b3a 	bleq	ec40b0 <__bss_end+0xec0b38>
    13c4:	00001301 	andeq	r1, r0, r1, lsl #6
    13c8:	03000d06 	movweq	r0, #3334	; 0xd06
    13cc:	3b0b3a0e 	blcc	2cfc0c <__bss_end+0x2cc694>
    13d0:	0b13490b 	bleq	4d3804 <__bss_end+0x4d028c>
    13d4:	0c0b0d0b 	stceq	13, cr0, [fp], {11}
    13d8:	000a380b 	andeq	r3, sl, fp, lsl #16
    13dc:	01170700 	tsteq	r7, r0, lsl #14
    13e0:	0b3a0b0b 	bleq	e84014 <__bss_end+0xe80a9c>
    13e4:	13010b3b 	movwne	r0, #6971	; 0x1b3b
    13e8:	0d080000 	stceq	0, cr0, [r8, #-0]
    13ec:	3a0e0300 	bcc	381ff4 <__bss_end+0x37ea7c>
    13f0:	490b3b0b 	stmdbmi	fp, {r0, r1, r3, r8, r9, fp, ip, sp}
    13f4:	09000013 	stmdbeq	r0, {r0, r1, r4}
    13f8:	0e030113 	mcreq	1, 0, r0, cr3, cr3, {0}
    13fc:	0b3a0b0b 	bleq	e84030 <__bss_end+0xe80ab8>
    1400:	13010b3b 	movwne	r0, #6971	; 0x1b3b
    1404:	130a0000 	movwne	r0, #40960	; 0xa000
    1408:	0b0e0301 	bleq	382014 <__bss_end+0x37ea9c>
    140c:	3b0b3a05 	blcc	2cfc28 <__bss_end+0x2cc6b0>
    1410:	0013010b 	andseq	r0, r3, fp, lsl #2
    1414:	000d0b00 	andeq	r0, sp, r0, lsl #22
    1418:	0b3a0e03 	bleq	e84c2c <__bss_end+0xe816b4>
    141c:	13490b3b 	movtne	r0, #39739	; 0x9b3b
    1420:	00000a38 	andeq	r0, r0, r8, lsr sl
    1424:	03000d0c 	movweq	r0, #3340	; 0xd0c
    1428:	3b0b3a08 	blcc	2cfc50 <__bss_end+0x2cc6d8>
    142c:	3813490b 	ldmdacc	r3, {r0, r1, r3, r8, fp, lr}
    1430:	0d00000a 	stceq	0, cr0, [r0, #-40]	; 0xffffffd8
    1434:	13490035 	movtne	r0, #36917	; 0x9035
    1438:	010e0000 	mrseq	r0, (UNDEF: 14)
    143c:	01134901 	tsteq	r3, r1, lsl #18
    1440:	0f000013 	svceq	0x00000013
    1444:	13490021 	movtne	r0, #36897	; 0x9021
    1448:	00000b2f 	andeq	r0, r0, pc, lsr #22
    144c:	0b000f10 	bleq	5094 <__bss_end+0x1b1c>
    1450:	0013490b 	andseq	r4, r3, fp, lsl #18
    1454:	01041100 	mrseq	r1, (UNDEF: 20)
    1458:	0b0b0e03 	bleq	2c4c6c <__bss_end+0x2c16f4>
    145c:	0b3b0b3a 	bleq	ec414c <__bss_end+0xec0bd4>
    1460:	00001301 	andeq	r1, r0, r1, lsl #6
    1464:	03002812 	movweq	r2, #2066	; 0x812
    1468:	000d1c0e 	andeq	r1, sp, lr, lsl #24
    146c:	012e1300 	teqeq	lr, r0, lsl #6
    1470:	0e030c3f 	mcreq	12, 0, r0, cr3, cr15, {1}
    1474:	0b3b0b3a 	bleq	ec4164 <__bss_end+0xec0bec>
    1478:	13490c27 	movtne	r0, #39975	; 0x9c27
    147c:	01120111 	tsteq	r2, r1, lsl r1
    1480:	13010a40 	movwne	r0, #6720	; 0x1a40
    1484:	05140000 	ldreq	r0, [r4, #-0]
    1488:	3a0e0300 	bcc	382090 <__bss_end+0x37eb18>
    148c:	490b3b0b 	stmdbmi	fp, {r0, r1, r3, r8, r9, fp, ip, sp}
    1490:	00060213 	andeq	r0, r6, r3, lsl r2
    1494:	002e1500 	eoreq	r1, lr, r0, lsl #10
    1498:	0e030c3f 	mcreq	12, 0, r0, cr3, cr15, {1}
    149c:	0b3b0b3a 	bleq	ec418c <__bss_end+0xec0c14>
    14a0:	13490c27 	movtne	r0, #39975	; 0x9c27
    14a4:	01120111 	tsteq	r2, r1, lsl r1
    14a8:	00000a40 	andeq	r0, r0, r0, asr #20
    14ac:	3f012e16 	svccc	0x00012e16
    14b0:	3a0e030c 	bcc	3820e8 <__bss_end+0x37eb70>
    14b4:	270b3b0b 	strcs	r3, [fp, -fp, lsl #22]
    14b8:	1113490c 	tstne	r3, ip, lsl #18
    14bc:	40011201 	andmi	r1, r1, r1, lsl #4
    14c0:	00130106 	andseq	r0, r3, r6, lsl #2
    14c4:	012e1700 	teqeq	lr, r0, lsl #14
    14c8:	0e030c3f 	mcreq	12, 0, r0, cr3, cr15, {1}
    14cc:	053b0b3a 	ldreq	r0, [fp, #-2874]!	; 0xb3a
    14d0:	13490c27 	movtne	r0, #39975	; 0x9c27
    14d4:	01120111 	tsteq	r2, r1, lsl r1
    14d8:	13010a40 	movwne	r0, #6720	; 0x1a40
    14dc:	05180000 	ldreq	r0, [r8, #-0]
    14e0:	3a0e0300 	bcc	3820e8 <__bss_end+0x37eb70>
    14e4:	49053b0b 	stmdbmi	r5, {r0, r1, r3, r8, r9, fp, ip, sp}
    14e8:	00060213 	andeq	r0, r6, r3, lsl r2
    14ec:	012e1900 	teqeq	lr, r0, lsl #18
    14f0:	0e030c3f 	mcreq	12, 0, r0, cr3, cr15, {1}
    14f4:	053b0b3a 	ldreq	r0, [fp, #-2874]!	; 0xb3a
    14f8:	13490c27 	movtne	r0, #39975	; 0x9c27
    14fc:	01120111 	tsteq	r2, r1, lsl r1
    1500:	13010640 	movwne	r0, #5696	; 0x1640
    1504:	341a0000 	ldrcc	r0, [sl], #-0
    1508:	3a0e0300 	bcc	382110 <__bss_end+0x37eb98>
    150c:	49053b0b 	stmdbmi	r5, {r0, r1, r3, r8, r9, fp, ip, sp}
    1510:	00060213 	andeq	r0, r6, r3, lsl r2
    1514:	00341b00 	eorseq	r1, r4, r0, lsl #22
    1518:	0b3a0e03 	bleq	e84d2c <__bss_end+0xe817b4>
    151c:	1349053b 	movtne	r0, #38203	; 0x953b
    1520:	00000b1c 	andeq	r0, r0, ip, lsl fp
    1524:	0300341c 	movweq	r3, #1052	; 0x41c
    1528:	3b0b3a0e 	blcc	2cfd68 <__bss_end+0x2cc7f0>
    152c:	0213490b 	andseq	r4, r3, #180224	; 0x2c000
    1530:	0000000a 	andeq	r0, r0, sl

Disassembly of section .debug_line:

00000000 <.debug_line>:
       0:	000000b8 	strheq	r0, [r0], -r8
       4:	00b20002 	adcseq	r0, r2, r2
       8:	01020000 	mrseq	r0, (UNDEF: 2)
       c:	000d0efb 	strdeq	r0, [sp], -fp
      10:	01010101 	tsteq	r1, r1, lsl #2
      14:	01000000 	mrseq	r0, (UNDEF: 0)
      18:	61010000 	mrsvs	r0, (UNDEF: 1)
      1c:	2f686372 	svccs	0x00686372
      20:	2f6d7261 	svccs	0x006d7261
      24:	6863616d 	stmdavs	r3!, {r0, r2, r3, r5, r6, r8, sp, lr}^
      28:	6e75732d 	cdpvs	3, 7, cr7, cr5, cr13, {1}
      2c:	702f6978 	eorvc	r6, pc, r8, ror r9	; <UNPREDICTABLE>
      30:	74732f6d 	ldrbtvc	r2, [r3], #-3949	; 0xf6d
      34:	62646e61 	rsbvs	r6, r4, #1552	; 0x610
      38:	75732f79 	ldrbvc	r2, [r3, #-3961]!	; 0xf79
      3c:	2f726570 	svccs	0x00726570
      40:	75736572 	ldrbvc	r6, [r3, #-1394]!	; 0x572
      44:	2e2f656d 	cfsh64cs	mvdx6, mvdx15, #61
      48:	002e2e2f 	eoreq	r2, lr, pc, lsr #28
      4c:	6c636e69 	stclvs	14, cr6, [r3], #-420	; 0xfffffe5c
      50:	2f656475 	svccs	0x00656475
      54:	756e696c 	strbvc	r6, [lr, #-2412]!	; 0x96c
      58:	6f702f78 	svcvs	0x00702f78
      5c:	00726577 	rsbseq	r6, r2, r7, ror r5
      60:	68637261 	stmdavs	r3!, {r0, r5, r6, r9, ip, sp, lr}^
      64:	6d72612f 	ldfvse	f6, [r2, #-188]!	; 0xffffff44
      68:	63616d2f 	cmnvs	r1, #3008	; 0xbc0
      6c:	75732d68 	ldrbvc	r2, [r3, #-3432]!	; 0xd68
      70:	2f69786e 	svccs	0x0069786e
      74:	732f6d70 	teqvc	pc, #7168	; 0x1c00
      78:	646e6174 	strbtvs	r6, [lr], #-372	; 0x174
      7c:	732f7962 	teqvc	pc, #1605632	; 0x188000
      80:	72657075 	rsbvc	r7, r5, #117	; 0x75
      84:	7365722f 	cmnvc	r5, #-268435454	; 0xf0000002
      88:	00656d75 	rsbeq	r6, r5, r5, ror sp
      8c:	70757300 	rsbsvc	r7, r5, r0, lsl #6
      90:	695f7265 	ldmdbvs	pc, {r0, r2, r5, r6, r9, ip, sp, lr}^	; <UNPREDICTABLE>
      94:	0100682e 	tsteq	r0, lr, lsr #16
      98:	78610000 	stmdavc	r1!, {}^	; <UNPREDICTABLE>
      9c:	65645f70 	strbvs	r5, [r4, #-3952]!	; 0xf70
      a0:	646e6570 	strbtvs	r6, [lr], #-1392	; 0x570
      a4:	0200682e 	andeq	r6, r0, #3014656	; 0x2e0000
      a8:	65720000 	ldrbvs	r0, [r2, #-0]!
      ac:	656d7573 	strbvs	r7, [sp, #-1395]!	; 0x573
      b0:	6165685f 	cmnvs	r5, pc, asr r8
      b4:	00632e64 	rsbeq	r2, r3, r4, ror #28
      b8:	00000003 	andeq	r0, r0, r3
      bc:	0000007b 	andeq	r0, r0, fp, ror r0
      c0:	004c0002 	subeq	r0, ip, r2
      c4:	01020000 	mrseq	r0, (UNDEF: 2)
      c8:	000d0efb 	strdeq	r0, [sp], -fp
      cc:	01010101 	tsteq	r1, r1, lsl #2
      d0:	01000000 	mrseq	r0, (UNDEF: 0)
      d4:	61010000 	mrsvs	r0, (UNDEF: 1)
      d8:	2f686372 	svccs	0x00686372
      dc:	2f6d7261 	svccs	0x006d7261
      e0:	6863616d 	stmdavs	r3!, {r0, r2, r3, r5, r6, r8, sp, lr}^
      e4:	6e75732d 	cdpvs	3, 7, cr7, cr5, cr13, {1}
      e8:	702f6978 	eorvc	r6, pc, r8, ror r9	; <UNPREDICTABLE>
      ec:	74732f6d 	ldrbtvc	r2, [r3], #-3949	; 0xf6d
      f0:	62646e61 	rsbvs	r6, r4, #1552	; 0x610
      f4:	75732f79 	ldrbvc	r2, [r3, #-3961]!	; 0xf79
      f8:	2f726570 	svccs	0x00726570
      fc:	75736572 	ldrbvc	r6, [r3, #-1394]!	; 0x572
     100:	0000656d 	andeq	r6, r0, sp, ror #10
     104:	75736572 	ldrbvc	r6, [r3, #-1394]!	; 0x572
     108:	2e31656d 	cdpcs	5, 3, cr6, cr1, cr13, {3}
     10c:	00010053 	andeq	r0, r1, r3, asr r0
     110:	05000000 	streq	r0, [r0, #-0]
     114:	00003002 	andeq	r3, r0, r2
     118:	00c30300 	sbceq	r0, r3, r0, lsl #6
     11c:	2f2f2f01 	svccs	0x002f2f01
     120:	2f332f2f 	svccs	0x00332f2f
     124:	302f2f2f 	eorcc	r2, pc, pc, lsr #30
     128:	00c0032f 	sbceq	r0, r0, pc, lsr #6
     12c:	2f302f2e 	svccs	0x00302f2e
     130:	312f2f2f 	teqcc	pc, pc, lsr #30
     134:	0202302f 	andeq	r3, r2, #47	; 0x2f
     138:	72010100 	andvc	r0, r1, #0
     13c:	02000000 	andeq	r0, r0, #0
     140:	00004400 	andeq	r4, r0, r0, lsl #8
     144:	fb010200 	blx	4094e <__bss_end+0x3d3d6>
     148:	01000d0e 	tsteq	r0, lr, lsl #26
     14c:	00010101 	andeq	r0, r1, r1, lsl #2
     150:	00010000 	andeq	r0, r1, r0
     154:	72610100 	rsbvc	r0, r1, #0
     158:	612f6863 	teqvs	pc, r3, ror #16
     15c:	6d2f6d72 	stcvs	13, cr6, [pc, #-456]!	; ffffff9c <__bss_end+0xffffca24>
     160:	2d686361 	stclcs	3, cr6, [r8, #-388]!	; 0xfffffe7c
     164:	786e7573 	stmdavc	lr!, {r0, r1, r4, r5, r6, r8, sl, ip, sp, lr}^
     168:	6d702f69 	ldclvs	15, cr2, [r0, #-420]!	; 0xfffffe5c
     16c:	6174732f 	cmnvs	r4, pc, lsr #6
     170:	7962646e 	stmdbvc	r2!, {r1, r2, r3, r5, r6, sl, sp, lr}^
     174:	7075732f 	rsbsvc	r7, r5, pc, lsr #6
     178:	00007265 	andeq	r7, r0, r5, ror #4
     17c:	6d6d6f63 	stclvs	15, cr6, [sp, #-396]!	; 0xfffffe74
     180:	632e6e6f 	teqvs	lr, #1776	; 0x6f0
     184:	00000100 	andeq	r0, r0, r0, lsl #2
     188:	02050000 	andeq	r0, r5, #0
     18c:	0000008c 	andeq	r0, r0, ip, lsl #1
     190:	15012303 	strne	r2, [r1, #-771]	; 0x303
     194:	4a7a034c 	bmi	1e80ecc <__bss_end+0x1e7d954>
     198:	02040200 	andeq	r0, r4, #0
     19c:	04020035 	streq	r0, [r2], #-53	; 0x35
     1a0:	02002d02 	andeq	r2, r0, #128	; 0x80
     1a4:	002f0204 	eoreq	r0, pc, r4, lsl #4
     1a8:	2d020402 	cfstrscs	mvf0, [r2, #-8]
     1ac:	01000402 	tsteq	r0, r2, lsl #8
     1b0:	00001901 	andeq	r1, r0, r1, lsl #18
     1b4:	13000200 	movwne	r0, #512	; 0x200
     1b8:	02000000 	andeq	r0, r0, #0
     1bc:	0d0efb01 	vstreq	d15, [lr, #-4]
     1c0:	01010100 	mrseq	r0, (UNDEF: 17)
     1c4:	00000001 	andeq	r0, r0, r1
     1c8:	01000001 	tsteq	r0, r1
     1cc:	00670000 	rsbeq	r0, r7, r0
     1d0:	00020000 	andeq	r0, r2, r0
     1d4:	00000049 	andeq	r0, r0, r9, asr #32
     1d8:	0efb0102 	cdpeq	1, 15, cr0, cr11, cr2, {0}
     1dc:	0101000d 	tsteq	r1, sp
     1e0:	00000101 	andeq	r0, r0, r1, lsl #2
     1e4:	00000100 	andeq	r0, r0, r0, lsl #2
     1e8:	63726101 	cmnvs	r2, #1073741824	; 0x40000000
     1ec:	72612f68 	rsbvc	r2, r1, #416	; 0x1a0
     1f0:	616d2f6d 	cmnvs	sp, sp, ror #30
     1f4:	732d6863 	teqvc	sp, #6488064	; 0x630000
     1f8:	69786e75 	ldmdbvs	r8!, {r0, r2, r4, r5, r6, r9, sl, fp, sp, lr}^
     1fc:	2f6d702f 	svccs	0x006d702f
     200:	6e617473 	mcrvs	4, 3, r7, cr1, cr3, {3}
     204:	2f796264 	svccs	0x00796264
     208:	65707573 	ldrbvs	r7, [r0, #-1395]!	; 0x573
     20c:	73000072 	movwvc	r0, #114	; 0x72
     210:	72657075 	rsbvc	r7, r5, #117	; 0x75
     214:	6c65645f 	cfstrdvs	mvd6, [r5], #-380	; 0xfffffe84
     218:	532e7961 	teqpl	lr, #1589248	; 0x184000
     21c:	00000100 	andeq	r0, r0, r0, lsl #2
     220:	02050000 	andeq	r0, r5, #0
     224:	000000b4 	strheq	r0, [r0], -r4
     228:	2f010d03 	svccs	0x00010d03
     22c:	2f2f302f 	svccs	0x002f302f
     230:	2f302f2f 	svccs	0x00302f2f
     234:	01000202 	tsteq	r0, r2, lsl #4
     238:	00001901 	andeq	r1, r0, r1, lsl #18
     23c:	13000200 	movwne	r0, #512	; 0x200
     240:	02000000 	andeq	r0, r0, #0
     244:	0d0efb01 	vstreq	d15, [lr, #-4]
     248:	01010100 	mrseq	r0, (UNDEF: 17)
     24c:	00000001 	andeq	r0, r0, r1
     250:	01000001 	tsteq	r0, r1
     254:	00190000 	andseq	r0, r9, r0
     258:	00020000 	andeq	r0, r2, r0
     25c:	00000013 	andeq	r0, r0, r3, lsl r0
     260:	0efb0102 	cdpeq	1, 15, cr0, cr11, cr2, {0}
     264:	0101000d 	tsteq	r1, sp
     268:	00000101 	andeq	r0, r0, r1, lsl #2
     26c:	00000100 	andeq	r0, r0, r0, lsl #2
     270:	19000001 	stmdbne	r0, {r0}
     274:	02000000 	andeq	r0, r0, #0
     278:	00001300 	andeq	r1, r0, r0, lsl #6
     27c:	fb010200 	blx	40a86 <__bss_end+0x3d50e>
     280:	01000d0e 	tsteq	r0, lr, lsl #26
     284:	00010101 	andeq	r0, r1, r1, lsl #2
     288:	00010000 	andeq	r0, r1, r0
     28c:	00000100 	andeq	r0, r0, r0, lsl #2
     290:	00000183 	andeq	r0, r0, r3, lsl #3
     294:	00e90002 	rsceq	r0, r9, r2
     298:	01020000 	mrseq	r0, (UNDEF: 2)
     29c:	000d0efb 	strdeq	r0, [sp], -fp
     2a0:	01010101 	tsteq	r1, r1, lsl #2
     2a4:	01000000 	mrseq	r0, (UNDEF: 0)
     2a8:	61010000 	mrsvs	r0, (UNDEF: 1)
     2ac:	2f686372 	svccs	0x00686372
     2b0:	2f6d7261 	svccs	0x006d7261
     2b4:	6863616d 	stmdavs	r3!, {r0, r2, r3, r5, r6, r8, sp, lr}^
     2b8:	6e75732d 	cdpvs	3, 7, cr7, cr5, cr13, {1}
     2bc:	702f6978 	eorvc	r6, pc, r8, ror r9	; <UNPREDICTABLE>
     2c0:	74732f6d 	ldrbtvc	r2, [r3], #-3949	; 0xf6d
     2c4:	62646e61 	rsbvs	r6, r4, #1552	; 0x610
     2c8:	75732f79 	ldrbvc	r2, [r3, #-3961]!	; 0xf79
     2cc:	2f726570 	svccs	0x00726570
     2d0:	75736572 	ldrbvc	r6, [r3, #-1394]!	; 0x572
     2d4:	6100656d 	tstvs	r0, sp, ror #10
     2d8:	2f686372 	svccs	0x00686372
     2dc:	2f6d7261 	svccs	0x006d7261
     2e0:	6863616d 	stmdavs	r3!, {r0, r2, r3, r5, r6, r8, sp, lr}^
     2e4:	6e75732d 	cdpvs	3, 7, cr7, cr5, cr13, {1}
     2e8:	702f6978 	eorvc	r6, pc, r8, ror r9	; <UNPREDICTABLE>
     2ec:	74732f6d 	ldrbtvc	r2, [r3], #-3949	; 0xf6d
     2f0:	62646e61 	rsbvs	r6, r4, #1552	; 0x610
     2f4:	75732f79 	ldrbvc	r2, [r3, #-3961]!	; 0xf79
     2f8:	2f726570 	svccs	0x00726570
     2fc:	75736572 	ldrbvc	r6, [r3, #-1394]!	; 0x572
     300:	2e2f656d 	cfsh64cs	mvdx6, mvdx15, #61
     304:	2f2e2e2f 	svccs	0x002e2e2f
     308:	2e2f2e2e 	cdpcs	14, 2, cr2, cr15, cr14, {1}
     30c:	6e69002e 	cdpvs	0, 6, cr0, cr9, cr14, {1}
     310:	64756c63 	ldrbtvs	r6, [r5], #-3171	; 0xc63
     314:	696c2f65 	stmdbvs	ip!, {r0, r2, r5, r6, r8, r9, sl, fp, sp}^
     318:	2f78756e 	svccs	0x0078756e
     31c:	65776f70 	ldrbvs	r6, [r7, #-3952]!	; 0xf70
     320:	72000072 	andvc	r0, r0, #114	; 0x72
     324:	6d757365 	ldclvs	3, cr7, [r5, #-404]!	; 0xfffffe6c
     328:	635f3165 	cmpvs	pc, #1073741849	; 0x40000019
     32c:	7261705f 	rsbvc	r7, r1, #95	; 0x5f
     330:	00632e74 	rsbeq	r2, r3, r4, ror lr
     334:	70000001 	andvc	r0, r0, r1
     338:	79745f6d 	ldmdbvc	r4!, {r0, r2, r3, r5, r6, r8, r9, sl, fp, ip, lr}^
     33c:	2e736570 	mrccs	5, 3, r6, cr3, cr0, {3}
     340:	00020068 	andeq	r0, r2, r8, rrx
     344:	6d656d00 	stclvs	13, cr6, [r5, #-0]
     348:	6d63635f 	stclvs	3, cr6, [r3, #-380]!	; 0xfffffe84
     34c:	75732d75 	ldrbvc	r2, [r3, #-3445]!	; 0xd75
     350:	7769386e 	strbvc	r3, [r9, -lr, ror #16]!
     354:	2e317036 	mrccs	0, 1, r7, cr1, cr6, {1}
     358:	00020068 	andeq	r0, r2, r8, rrx
     35c:	6d656d00 	stclvs	13, cr6, [r5, #-0]
     360:	6b6c635f 	blvs	1b190e4 <__bss_end+0x1b15b6c>
     364:	0200682e 	andeq	r6, r0, #3014656	; 0x2e0000
     368:	6d700000 	ldclvs	0, cr0, [r0, #-0]
     36c:	0200682e 	andeq	r6, r0, #3014656	; 0x2e0000
     370:	78610000 	stmdavc	r1!, {}^	; <UNPREDICTABLE>
     374:	65645f70 	strbvs	r5, [r4, #-3952]!	; 0xf70
     378:	646e6570 	strbtvs	r6, [lr], #-1392	; 0x570
     37c:	0300682e 	movweq	r6, #2094	; 0x82e
     380:	00000000 	andeq	r0, r0, r0
     384:	00dc0205 	sbcseq	r0, ip, r5, lsl #4
     388:	2e030000 	cdpcs	0, 0, cr0, cr3, cr0, {0}
     38c:	0c033101 	stfeqs	f3, [r3], {1}
     390:	2e74032e 	cdpcs	3, 7, cr0, cr4, cr14, {1}
     394:	2e09032f 	cdpcs	3, 0, cr0, cr9, cr15, {1}
     398:	4b4b6d4c 	blmi	12db8d0 <__bss_end+0x12d8358>
     39c:	1a034c2f 	bne	d3460 <__bss_end+0xcfee8>
     3a0:	2e6b0366 	cdpcs	3, 6, cr0, cr11, cr6, {3}
     3a4:	4b504b4e 	blmi	14130e4 <__bss_end+0x140fb6c>
     3a8:	0d034b36 	vstreq	d4, [r3, #-216]	; 0xffffff28
     3ac:	03694b66 	cmneq	r9, #104448	; 0x19800
     3b0:	25034a4b 	strcs	r4, [r3, #-2635]	; 0xa4b
     3b4:	67834b66 	strvs	r4, [r3, r6, ror #22]
     3b8:	48684b67 	stmdami	r8!, {r0, r1, r2, r5, r6, r8, r9, fp, lr}^
     3bc:	9e5f0368 	cdpls	3, 5, cr0, cr15, cr8, {3}
     3c0:	c8083603 	stmdagt	r8, {r0, r1, r9, sl, ip, sp}
     3c4:	302e0a03 	eorcc	r0, lr, r3, lsl #20
     3c8:	01040200 	mrseq	r0, R12_usr
     3cc:	661103a0 	ldrvs	r0, [r1], -r0, lsr #7
     3d0:	032e7603 	teqeq	lr, #3145728	; 0x300000
     3d4:	4c352e79 	ldcmi	14, cr2, [r5], #-484	; 0xfffffe1c
     3d8:	322a3232 	eorcc	r3, sl, #536870915	; 0x20000003
     3dc:	660a0386 	strvs	r0, [sl], -r6, lsl #7
     3e0:	034a0a03 	movteq	r0, #43523	; 0xaa03
     3e4:	54032e2c 	strpl	r2, [r3], #-3628	; 0xe2c
     3e8:	2e2c032e 	cdpcs	3, 2, cr0, cr12, cr14, {1}
     3ec:	032e5403 	teqeq	lr, #50331648	; 0x3000000
     3f0:	2f2f2e2c 	svccs	0x002f2e2c
     3f4:	00fc034d 	rscseq	r0, ip, sp, asr #6
     3f8:	660e0366 	strvs	r0, [lr], -r6, ror #6
     3fc:	032b312f 	teqeq	fp, #-1073741813	; 0xc000000b
     400:	4b2e7efb 	blmi	b9fff4 <__bss_end+0xb9ca7c>
     404:	032fbc31 	teqeq	pc, #12544	; 0x3100
     408:	bb034a75 	bllt	d2de4 <__bss_end+0xcf86c>
     40c:	842f667f 	strthi	r6, [pc], #-1663	; 414 <mem_status_clear+0x3c>
     410:	0c023048 	stceq	0, cr3, [r2], {72}	; 0x48
     414:	49010100 	stmdbmi	r1, {r8}
     418:	02000001 	andeq	r0, r0, #1
     41c:	00008300 	andeq	r8, r0, r0, lsl #6
     420:	fb010200 	blx	40c2a <__bss_end+0x3d6b2>
     424:	01000d0e 	tsteq	r0, lr, lsl #26
     428:	00010101 	andeq	r0, r1, r1, lsl #2
     42c:	00010000 	andeq	r0, r1, r0
     430:	72610100 	rsbvc	r0, r1, #0
     434:	612f6863 	teqvs	pc, r3, ror #16
     438:	6d2f6d72 	stcvs	13, cr6, [pc, #-456]!	; 278 <set_pll+0x40>
     43c:	2d686361 	stclcs	3, cr6, [r8, #-388]!	; 0xfffffe7c
     440:	786e7573 	stmdavc	lr!, {r0, r1, r4, r5, r6, r8, sl, ip, sp, lr}^
     444:	6d702f69 	ldclvs	15, cr2, [r0, #-420]!	; 0xfffffe5c
     448:	6174732f 	cmnvs	r4, pc, lsr #6
     44c:	7962646e 	stmdbvc	r2!, {r1, r2, r3, r5, r6, sl, sp, lr}^
     450:	002e2e2f 	eoreq	r2, lr, pc, lsr #28
     454:	6c636e69 	stclvs	14, cr6, [r3], #-420	; 0xfffffe5c
     458:	2f656475 	svccs	0x00656475
     45c:	756e696c 	strbvc	r6, [lr, #-2412]!	; 0x96c
     460:	6f702f78 	svcvs	0x00702f78
     464:	00726577 	rsbseq	r6, r2, r7, ror r5
     468:	5f6d7000 	svcpl	0x006d7000
     46c:	75626564 	strbvc	r6, [r2, #-1380]!	; 0x564
     470:	00632e67 	rsbeq	r2, r3, r7, ror #28
     474:	70000001 	andvc	r0, r0, r1
     478:	65645f6d 	strbvs	r5, [r4, #-3949]!	; 0xf6d
     47c:	2e677562 	cdpcs	5, 6, cr7, cr7, cr2, {3}
     480:	00010068 	andeq	r0, r1, r8, rrx
     484:	5f6d7000 	svcpl	0x006d7000
     488:	65707974 	ldrbvs	r7, [r0, #-2420]!	; 0x974
     48c:	00682e73 	rsbeq	r2, r8, r3, ror lr
     490:	61000001 	tstvs	r0, r1
     494:	645f7078 	ldrbvs	r7, [pc], #-120	; 49c <save_mem_status+0x2c>
     498:	6e657065 	cdpvs	0, 6, cr7, cr5, cr5, {3}
     49c:	00682e64 	rsbeq	r2, r8, r4, ror #28
     4a0:	00000002 	andeq	r0, r0, r2
     4a4:	68020500 	stmdavs	r2, {r8, sl}
     4a8:	03000003 	movweq	r0, #3
     4ac:	0030010b 	eorseq	r0, r0, fp, lsl #2
     4b0:	4b010402 	blmi	414c0 <__bss_end+0x3df48>
     4b4:	361a516a 	ldrcc	r5, [sl], -sl, ror #2
     4b8:	4b133619 	blmi	4cdd24 <__bss_end+0x4ca7ac>
     4bc:	2b314b2d 	blcs	c53178 <__bss_end+0xc4fc00>
     4c0:	13321132 	teqne	r2, #-2147483636	; 0x8000000c
     4c4:	314b2d4b 	cmpcc	fp, fp, asr #26
     4c8:	3211322b 	andscc	r3, r1, #-1342177278	; 0xb0000002
     4cc:	2d2f2d32 	stccs	13, cr2, [pc, #-200]!	; 40c <mem_status_clear+0x34>
     4d0:	0336a067 	teqeq	r6, #103	; 0x67
     4d4:	2f2d2e78 	svccs	0x002d2e78
     4d8:	2d2f2f2f 	stccs	15, cr2, [pc, #-188]!	; 424 <mem_status_clear+0x4c>
     4dc:	672f4b2f 	strvs	r4, [pc, -pc, lsr #22]!
     4e0:	7703672f 	strvc	r6, [r3, -pc, lsr #14]
     4e4:	2e0c032e 	cdpcs	3, 0, cr0, cr12, cr14, {1}
     4e8:	144f2c30 	strbne	r2, [pc], #-3120	; 4f0 <save_mem_status+0x80>
     4ec:	9f2f4a31 	svcls	0x002f4a31
     4f0:	7703364b 	strvc	r3, [r3, -fp, asr #12]
     4f4:	4b2c302e 	blmi	b0c5b4 <__bss_end+0xb0903c>
     4f8:	2f2d2f2f 	svccs	0x002d2f2f
     4fc:	2f672f4b 	svccs	0x00672f4b
     500:	2f312f67 	svccs	0x00312f67
     504:	4c306930 	ldcmi	9, cr6, [r0], #-192	; 0xffffff40
     508:	31676848 	cmncc	r7, r8, asr #16
     50c:	334b4c2b 	movtcc	r4, #48171	; 0xbc2b
     510:	4d4d2f69 	stclmi	15, cr2, [sp, #-420]	; 0xfffffe5c
     514:	686e4d47 	stmdavs	lr!, {r0, r1, r2, r6, r8, sl, fp, lr}^
     518:	2e74032c 	cdpcs	3, 7, cr0, cr4, cr12, {1}
     51c:	034a1003 	movteq	r1, #40963	; 0xa003
     520:	2b312e75 	blcs	c4befc <__bss_end+0xc48984>
     524:	0b034b4c 	bleq	d325c <__bss_end+0xcfce4>
     528:	032f4a82 	teqeq	pc, #532480	; 0x82000
     52c:	73039e0e 	movwvc	r9, #15886	; 0x3e0e
     530:	03364b4a 	teqeq	r6, #75776	; 0x12800
     534:	2c302e77 	ldccs	14, cr2, [r0], #-476	; 0xfffffe24
     538:	2d2f2f4b 	stccs	15, cr2, [pc, #-300]!	; 414 <mem_status_clear+0x3c>
     53c:	672f4b2f 	strvs	r4, [pc, -pc, lsr #22]!
     540:	4633672f 	ldrtmi	r6, [r3], -pc, lsr #14
     544:	4a00cd03 	bmi	33958 <__bss_end+0x303e0>
     548:	1631a114 			; <UNDEFINED> instruction: 0x1631a114
     54c:	31312f67 	teqcc	r1, r7, ror #30
     550:	312f6815 	teqcc	pc, r5, lsl r8	; <UNPREDICTABLE>
     554:	4c4c3034 	mcrrmi	0, 3, r3, ip, cr4
     558:	312f302a 	teqcc	pc, sl, lsr #32
     55c:	0231312c 	eorseq	r3, r1, #11
     560:	01010002 	tsteq	r1, r2
     564:	0000012f 	andeq	r0, r0, pc, lsr #2
     568:	00a90002 	adceq	r0, r9, r2
     56c:	01020000 	mrseq	r0, (UNDEF: 2)
     570:	000d0efb 	strdeq	r0, [sp], -fp
     574:	01010101 	tsteq	r1, r1, lsl #2
     578:	01000000 	mrseq	r0, (UNDEF: 0)
     57c:	61010000 	mrsvs	r0, (UNDEF: 1)
     580:	2f686372 	svccs	0x00686372
     584:	2f6d7261 	svccs	0x006d7261
     588:	6863616d 	stmdavs	r3!, {r0, r2, r3, r5, r6, r8, sp, lr}^
     58c:	6e75732d 	cdpvs	3, 7, cr7, cr5, cr13, {1}
     590:	702f6978 	eorvc	r6, pc, r8, ror r9	; <UNPREDICTABLE>
     594:	74732f6d 	ldrbtvc	r2, [r3], #-3949	; 0xf6d
     598:	62646e61 	rsbvs	r6, r4, #1552	; 0x610
     59c:	2e2e2f79 	mcrcs	15, 1, r2, cr14, cr9, {3}
     5a0:	63726100 	cmnvs	r2, #0
     5a4:	72612f68 	rsbvc	r2, r1, #416	; 0x1a0
     5a8:	616d2f6d 	cmnvs	sp, sp, ror #30
     5ac:	732d6863 	teqvc	sp, #6488064	; 0x630000
     5b0:	69786e75 	ldmdbvs	r8!, {r0, r2, r4, r5, r6, r9, sl, fp, sp, lr}^
     5b4:	2f6d702f 	svccs	0x006d702f
     5b8:	6e617473 	mcrvs	4, 3, r7, cr1, cr3, {3}
     5bc:	2f796264 	svccs	0x00796264
     5c0:	2e2f2e2e 	cdpcs	14, 2, cr2, cr15, cr14, {1}
     5c4:	636e6900 	cmnvs	lr, #0
     5c8:	6564756c 	strbvs	r7, [r4, #-1388]!	; 0x56c
     5cc:	6e696c2f 	cdpvs	12, 6, cr6, cr9, cr15, {1}
     5d0:	702f7875 	eorvc	r7, pc, r5, ror r8	; <UNPREDICTABLE>
     5d4:	7265776f 	rsbvc	r7, r5, #29097984	; 0x1bc0000
     5d8:	656d0000 	strbvs	r0, [sp, #-0]!
     5dc:	69745f6d 	ldmdbvs	r4!, {r0, r2, r3, r5, r6, r8, r9, sl, fp, ip, lr}^
     5e0:	676e696d 	strbvs	r6, [lr, -sp, ror #18]!
     5e4:	0100632e 	tsteq	r0, lr, lsr #6
     5e8:	6d700000 	ldclvs	0, cr0, [r0, #-0]
     5ec:	7079745f 	rsbsvc	r7, r9, pc, asr r4
     5f0:	682e7365 	stmdavs	lr!, {r0, r2, r5, r6, r8, r9, ip, sp, lr}
     5f4:	00000100 	andeq	r0, r0, r0, lsl #2
     5f8:	645f6d70 	ldrbvs	r6, [pc], #-3440	; 600 <save_mem_status_nommu+0x30>
     5fc:	67756265 	ldrbvs	r6, [r5, -r5, ror #4]!
     600:	0200682e 	andeq	r6, r0, #3014656	; 0x2e0000
     604:	78610000 	stmdavc	r1!, {}^	; <UNPREDICTABLE>
     608:	65645f70 	strbvs	r5, [r4, #-3952]!	; 0xf70
     60c:	646e6570 	strbtvs	r6, [lr], #-1392	; 0x570
     610:	0300682e 	movweq	r6, #2094	; 0x82e
     614:	00000000 	andeq	r0, r0, r0
     618:	06e00205 	strbteq	r0, [r0], r5, lsl #4
     61c:	0c030000 	stceq	0, cr0, [r3], {-0}
     620:	09031401 	stmdbeq	r3, {r0, sl, ip}
     624:	31302f66 	teqcc	r0, r6, ror #30
     628:	2f2f4d32 	svccs	0x002f4d32
     62c:	85143131 	ldrhi	r3, [r4, #-305]	; 0x131
     630:	8515314c 	ldrhi	r3, [r5, #-332]	; 0x14c
     634:	30153184 	andscc	r3, r5, r4, lsl #3
     638:	312f1531 	teqcc	pc, r1, lsr r5	; <UNPREDICTABLE>
     63c:	7003312f 	andvc	r3, r3, pc, lsr #2
     640:	4a19032e 	bmi	641300 <__bss_end+0x63dd88>
     644:	2e504bbc 	vmovcs.s8	r4, d16[1]
     648:	82320336 	eorshi	r0, r2, #-671088640	; 0xd8000000
     64c:	4c03302f 	stcmi	0, cr3, [r3], {47}	; 0x2f
     650:	4a55032e 	bmi	1541310 <__bss_end+0x153dd98>
     654:	032e3203 	teqeq	lr, #805306368	; 0x30000000
     658:	4d352e79 	ldcmi	14, cr2, [r5, #-484]!	; 0xfffffe1c
     65c:	7fa3032f 	svcvc	0x00a3032f
     660:	2f4d4e66 	svccs	0x004d4e66
     664:	4a1e032f 	bmi	781328 <__bss_end+0x77ddb0>
     668:	032e3a03 	teqeq	lr, #12288	; 0x3000
     66c:	2d139e2b 	ldccs	14, cr9, [r3, #-172]	; 0xffffff54
     670:	2f2f2f2e 	svccs	0x002f2f2e
     674:	4c4f2d2d 	mcrrmi	13, 2, r2, pc, cr13
     678:	2e20032c 	cdpcs	3, 2, cr0, cr0, cr12, {1}
     67c:	66090314 			; <UNDEFINED> instruction: 0x66090314
     680:	3231302f 	eorscc	r3, r1, #47	; 0x2f
     684:	a431314d 	ldrtge	r3, [r1], #-333	; 0x14d
     688:	312f3031 	teqcc	pc, r1, lsr r0	; <UNPREDICTABLE>
     68c:	3031a44e 	eorscc	sl, r1, lr, asr #8
     690:	0402312f 	streq	r3, [r2], #-303	; 0x12f
     694:	ac010100 	stfges	f0, [r1], {-0}
     698:	02000000 	andeq	r0, r0, #0
     69c:	00007f00 	andeq	r7, r0, r0, lsl #30
     6a0:	fb010200 	blx	40eaa <__bss_end+0x3d932>
     6a4:	01000d0e 	tsteq	r0, lr, lsl #26
     6a8:	00010101 	andeq	r0, r1, r1, lsl #2
     6ac:	00010000 	andeq	r0, r1, r0
     6b0:	72610100 	rsbvc	r0, r1, #0
     6b4:	612f6863 	teqvs	pc, r3, ror #16
     6b8:	6d2f6d72 	stcvs	13, cr6, [pc, #-456]!	; 4f8 <save_mem_status+0x88>
     6bc:	2d686361 	stclcs	3, cr6, [r8, #-388]!	; 0xfffffe7c
     6c0:	786e7573 	stmdavc	lr!, {r0, r1, r4, r5, r6, r8, sl, ip, sp, lr}^
     6c4:	6d702f69 	ldclvs	15, cr2, [r0, #-420]!	; 0xfffffe5c
     6c8:	6174732f 	cmnvs	r4, pc, lsr #6
     6cc:	7962646e 	stmdbvc	r2!, {r1, r2, r3, r5, r6, sl, sp, lr}^
     6d0:	002e2e2f 	eoreq	r2, lr, pc, lsr #28
     6d4:	68637261 	stmdavs	r3!, {r0, r5, r6, r9, ip, sp, lr}^
     6d8:	6d72612f 	ldfvse	f6, [r2, #-188]!	; 0xffffff44
     6dc:	63616d2f 	cmnvs	r1, #3008	; 0xbc0
     6e0:	75732d68 	ldrbvc	r2, [r3, #-3432]!	; 0xd68
     6e4:	2f69786e 	svccs	0x0069786e
     6e8:	732f6d70 	teqvc	pc, #7168	; 0x1c00
     6ec:	646e6174 	strbtvs	r6, [lr], #-372	; 0x174
     6f0:	2e2f7962 	cdpcs	9, 2, cr7, cr15, cr2, {3}
     6f4:	002e2f2e 	eoreq	r2, lr, lr, lsr #30
     6f8:	6d656d00 	stclvs	13, cr6, [r5, #-0]
     6fc:	756d6d5f 	strbvc	r6, [sp, #-3423]!	; 0xd5f
     700:	2e63705f 	mcrcs	0, 3, r7, cr3, cr15, {2}
     704:	00010063 	andeq	r0, r1, r3, rrx
     708:	2e6d7000 	cdpcs	0, 6, cr7, cr13, cr0, {0}
     70c:	00020068 	andeq	r0, r2, r8, rrx
     710:	5f6d7000 	svcpl	0x006d7000
     714:	65707974 	ldrbvs	r7, [r0, #-2420]!	; 0x974
     718:	00682e73 	rsbeq	r2, r8, r3, ror lr
     71c:	00000001 	andeq	r0, r0, r1
     720:	e0020500 	and	r0, r2, r0, lsl #10
     724:	19000008 	stmdbne	r0, {r3}
     728:	4f4d4c14 	svcmi	0x004d4c14
     72c:	4d4d4b4b 	vstrmi	d20, [sp, #-300]	; 0xfffffed4
     730:	4c4c1631 	mcrrmi	6, 3, r1, ip, cr1
     734:	4b2f4b4e 	blmi	bd3474 <__bss_end+0xbcfefc>
     738:	131313bb 	tstne	r3, #-335544318	; 0xec000002
     73c:	2f2f4c32 	svccs	0x002f4c32
     740:	0202312f 	andeq	r3, r2, #-1073741813	; 0xc000000b
     744:	af010100 	svcge	0x00010100
     748:	02000001 	andeq	r0, r0, #1
     74c:	00004900 	andeq	r4, r0, r0, lsl #18
     750:	fb010200 	blx	40f5a <__bss_end+0x3d9e2>
     754:	01000d0e 	tsteq	r0, lr, lsl #26
     758:	00010101 	andeq	r0, r1, r1, lsl #2
     75c:	00010000 	andeq	r0, r1, r0
     760:	72610100 	rsbvc	r0, r1, #0
     764:	612f6863 	teqvs	pc, r3, ror #16
     768:	6d2f6d72 	stcvs	13, cr6, [pc, #-456]!	; 5a8 <show_mem_status+0x50>
     76c:	2d686361 	stclcs	3, cr6, [r8, #-388]!	; 0xfffffe7c
     770:	786e7573 	stmdavc	lr!, {r0, r1, r4, r5, r6, r8, sl, ip, sp, lr}^
     774:	6d702f69 	ldclvs	15, cr2, [r0, #-420]!	; 0xfffffe5c
     778:	6174732f 	cmnvs	r4, pc, lsr #6
     77c:	7962646e 	stmdbvc	r2!, {r1, r2, r3, r5, r6, sl, sp, lr}^
     780:	002e2e2f 	eoreq	r2, lr, pc, lsr #28
     784:	6d656d00 	stclvs	13, cr6, [r5, #-0]
     788:	756d6d5f 	strbvc	r6, [sp, #-3423]!	; 0xd5f
     78c:	5f63705f 	svcpl	0x0063705f
     790:	2e6d7361 	cdpcs	3, 6, cr7, cr13, cr1, {3}
     794:	00010053 	andeq	r0, r1, r3, asr r0
     798:	05000000 	streq	r0, [r0, #-0]
     79c:	00098002 	andeq	r8, r9, r2
     7a0:	010a0300 	mrseq	r0, (UNDEF: 58)
     7a4:	2f332f2f 	svccs	0x00332f2f
     7a8:	332f332f 	teqcc	pc, #-1140850688	; 0xbc000000
     7ac:	302f6b2f 	eorcc	r6, pc, pc, lsr #22
     7b0:	2f4a1303 	svccs	0x004a1303
     7b4:	2f2f2f2f 	svccs	0x002f2f2f
     7b8:	2f2f2f30 	svccs	0x002f2f30
     7bc:	2f2f2f2f 	svccs	0x002f2f2f
     7c0:	2f2f2f2f 	svccs	0x002f2f2f
     7c4:	302f2f2f 	eorcc	r2, pc, pc, lsr #30
     7c8:	2f2f2f30 	svccs	0x002f2f30
     7cc:	302f2f2f 	eorcc	r2, pc, pc, lsr #30
     7d0:	30302f2f 	eorscc	r2, r0, pc, lsr #30
     7d4:	33302f2f 	teqcc	r0, #188	; 0xbc
     7d8:	2f2f2f2f 	svccs	0x002f2f2f
     7dc:	2f2f332f 	svccs	0x002f332f
     7e0:	2f2f2f2f 	svccs	0x002f2f2f
     7e4:	2f2f2f30 	svccs	0x002f2f30
     7e8:	2f2f2f2f 	svccs	0x002f2f2f
     7ec:	2f2f2f2f 	svccs	0x002f2f2f
     7f0:	302f2f2f 	eorcc	r2, pc, pc, lsr #30
     7f4:	2f2f2f30 	svccs	0x002f2f30
     7f8:	302f2f2f 	eorcc	r2, pc, pc, lsr #30
     7fc:	30302f2f 	eorscc	r2, r0, pc, lsr #30
     800:	2f2f2f2f 	svccs	0x002f2f2f
     804:	2f2f2f34 	svccs	0x002f2f34
     808:	2f2f2f2f 	svccs	0x002f2f2f
     80c:	2f2f332f 	svccs	0x002f332f
     810:	2f2f2f2f 	svccs	0x002f2f2f
     814:	2f2f332f 	svccs	0x002f332f
     818:	2f2f2f2f 	svccs	0x002f2f2f
     81c:	2f2f2f33 	svccs	0x002f2f33
     820:	342f2f2f 	strtcc	r2, [pc], #-3887	; 828 <delay_ms>
     824:	2f2f2f2f 	svccs	0x002f2f2f
     828:	2f332f2f 	svccs	0x00332f2f
     82c:	2f2f2f2f 	svccs	0x002f2f2f
     830:	2f332f2f 	svccs	0x00332f2f
     834:	2f2f2f2f 	svccs	0x002f2f2f
     838:	2e0a032f 	cdpcs	3, 0, cr0, cr10, cr15, {1}
     83c:	2f2f2f2f 	svccs	0x002f2f2f
     840:	2f2f342f 	svccs	0x002f342f
     844:	2f2f2f2f 	svccs	0x002f2f2f
     848:	2f2f2f33 	svccs	0x002f2f33
     84c:	032f2f2f 	teqeq	pc, #188	; 0xbc
     850:	302f2e09 	eorcc	r2, pc, r9, lsl #28
     854:	2f2f3030 	svccs	0x002f3030
     858:	30332f2f 	eorscc	r2, r3, pc, lsr #30
     85c:	2f2f2f2f 	svccs	0x002f2f2f
     860:	312f2f2f 	teqcc	pc, pc, lsr #30
     864:	2f2f2f2f 	svccs	0x002f2f2f
     868:	2f2f2f2f 	svccs	0x002f2f2f
     86c:	2f2f2f2f 	svccs	0x002f2f2f
     870:	2f2f2f2f 	svccs	0x002f2f2f
     874:	2f2f2f2f 	svccs	0x002f2f2f
     878:	2f2f2f2f 	svccs	0x002f2f2f
     87c:	2f2f2f2f 	svccs	0x002f2f2f
     880:	2f2f2f2f 	svccs	0x002f2f2f
     884:	2f2f2f2f 	svccs	0x002f2f2f
     888:	302f2f2f 	eorcc	r2, pc, pc, lsr #30
     88c:	2f2f2f2f 	svccs	0x002f2f2f
     890:	2f2f2f2f 	svccs	0x002f2f2f
     894:	2f2f2f2f 	svccs	0x002f2f2f
     898:	302f312f 	eorcc	r3, pc, pc, lsr #2
     89c:	2e0a032f 	cdpcs	3, 0, cr0, cr10, cr15, {1}
     8a0:	c02f2f2f 	eorgt	r2, pc, pc, lsr #30
     8a4:	302f2f30 	eorcc	r2, pc, r0, lsr pc	; <UNPREDICTABLE>
     8a8:	2f2f2f34 	svccs	0x002f2f34
     8ac:	2f2f30f8 	svccs	0x002f30f8
     8b0:	2e0d0330 	mcrcs	3, 0, r0, cr13, cr0, {1}
     8b4:	03302f2f 	teqeq	r0, #188	; 0xbc
     8b8:	2f2f820c 	svccs	0x002f820c
     8bc:	2f2f2f2f 	svccs	0x002f2f2f
     8c0:	2f6d2f50 	svccs	0x006d2f50
     8c4:	2f30302f 	svccs	0x0030302f
     8c8:	302f302f 	eorcc	r3, pc, pc, lsr #32
     8cc:	2e7ca403 	cdpcs	4, 7, cr10, cr12, cr3, {0}
     8d0:	2e390335 	mrccs	3, 1, r0, cr9, cr5, {1}
     8d4:	01e80331 	mvneq	r0, r1, lsr r3
     8d8:	3230302e 	eorscc	r3, r0, #46	; 0x2e
     8dc:	30303030 	eorscc	r3, r0, r0, lsr r0
     8e0:	30303030 	eorscc	r3, r0, r0, lsr r0
     8e4:	30303030 	eorscc	r3, r0, r0, lsr r0
     8e8:	30303030 	eorscc	r3, r0, r0, lsr r0
     8ec:	31303030 	teqcc	r0, r0, lsr r0
     8f0:	30303030 	eorscc	r3, r0, r0, lsr r0
     8f4:	00020232 	andeq	r0, r2, r2, lsr r2
     8f8:	01450101 	cmpeq	r5, r1, lsl #2
     8fc:	00020000 	andeq	r0, r2, r0
     900:	000000a5 	andeq	r0, r0, r5, lsr #1
     904:	0efb0102 	cdpeq	1, 15, cr0, cr11, cr2, {0}
     908:	0101000d 	tsteq	r1, sp
     90c:	00000101 	andeq	r0, r0, r1, lsl #2
     910:	00000100 	andeq	r0, r0, r0, lsl #2
     914:	63726101 	cmnvs	r2, #1073741824	; 0x40000000
     918:	72612f68 	rsbvc	r2, r1, #416	; 0x1a0
     91c:	616d2f6d 	cmnvs	sp, sp, ror #30
     920:	732d6863 	teqvc	sp, #6488064	; 0x630000
     924:	69786e75 	ldmdbvs	r8!, {r0, r2, r4, r5, r6, r9, sl, fp, sp, lr}^
     928:	2f6d702f 	svccs	0x006d702f
     92c:	6e617473 	mcrvs	4, 3, r7, cr1, cr3, {3}
     930:	2f796264 	svccs	0x00796264
     934:	61002e2e 	tstvs	r0, lr, lsr #28
     938:	2f686372 	svccs	0x00686372
     93c:	2f6d7261 	svccs	0x006d7261
     940:	6863616d 	stmdavs	r3!, {r0, r2, r3, r5, r6, r8, sp, lr}^
     944:	6e75732d 	cdpvs	3, 7, cr7, cr5, cr13, {1}
     948:	702f6978 	eorvc	r6, pc, r8, ror r9	; <UNPREDICTABLE>
     94c:	74732f6d 	ldrbtvc	r2, [r3], #-3949	; 0xf6d
     950:	62646e61 	rsbvs	r6, r4, #1552	; 0x610
     954:	2e2e2f79 	mcrcs	15, 1, r2, cr14, cr9, {3}
     958:	69002e2f 	stmdbvs	r0, {r0, r1, r2, r3, r5, r9, sl, fp, sp}
     95c:	756c636e 	strbvc	r6, [ip, #-878]!	; 0x36e
     960:	6c2f6564 	cfstr32vs	mvfx6, [pc], #-400	; 7d8 <delay_us+0x38>
     964:	78756e69 	ldmdavc	r5!, {r0, r3, r5, r6, r9, sl, fp, sp, lr}^
     968:	776f702f 	strbvc	r7, [pc, -pc, lsr #32]!
     96c:	00007265 	andeq	r7, r0, r5, ror #4
     970:	5f6d656d 	svcpl	0x006d656d
     974:	2e757063 	cdpcs	0, 7, cr7, cr5, cr3, {3}
     978:	00010063 	andeq	r0, r1, r3, rrx
     97c:	6d656d00 	stclvs	13, cr6, [r5, #-0]
     980:	7570635f 	ldrbvc	r6, [r0, #-863]!	; 0x35f
     984:	0200682e 	andeq	r6, r0, #3014656	; 0x2e0000
     988:	6d700000 	ldclvs	0, cr0, [r0, #-0]
     98c:	7079745f 	rsbsvc	r7, r9, pc, asr r4
     990:	682e7365 	stmdavs	lr!, {r0, r2, r5, r6, r8, r9, ip, sp, lr}
     994:	00000100 	andeq	r0, r0, r0, lsl #2
     998:	5f707861 	svcpl	0x00707861
     99c:	65706564 	ldrbvs	r6, [r0, #-1380]!	; 0x564
     9a0:	682e646e 	stmdavs	lr!, {r1, r2, r3, r5, r6, sl, sp, lr}
     9a4:	00000300 	andeq	r0, r0, r0, lsl #6
     9a8:	02050000 	andeq	r0, r5, #0
     9ac:	00000ee0 	andeq	r0, r0, r0, ror #29
     9b0:	01018903 	tsteq	r1, r3, lsl #18
     9b4:	f2100316 	vcge.s16	d0, d0, d6
     9b8:	f3f3f8f3 			; <UNDEFINED> instruction: 0xf3f3f8f3
     9bc:	f3f3f6f6 	vqshlu.s64	<illegal reg q15.5>, q11, #51	; 0x33
     9c0:	f6f3f6f3 			; <UNDEFINED> instruction: 0xf6f3f6f3
     9c4:	f3f3f3f6 	vrsra.u64	<illegal reg q15.5>, q11, #13
     9c8:	f3f20b03 	vtbl.8	d16, {d2-d5}, d3
     9cc:	f3f3f3f3 	vrsra.u64	<illegal reg q15.5>, <illegal reg q9.5>, #13
     9d0:	f21403f3 	vcge.s16	q0, q10, <illegal reg q9.5>
     9d4:	f21603f3 	vcge.s16	q0, q11, <illegal reg q9.5>
     9d8:	f3f3faf3 			; <UNDEFINED> instruction: 0xf3f3faf3
     9dc:	1434f9f3 	ldrtne	pc, [r4], #-2547	; 0x9f3	; <UNPREDICTABLE>
     9e0:	f6f20e03 			; <UNDEFINED> instruction: 0xf6f20e03
     9e4:	f32f2ff3 			; <UNDEFINED> instruction: 0xf32f2ff3
     9e8:	2ff32f2f 	svccs	0x00f32f2f
     9ec:	f3f5f432 	vsri.32	d31, d18, #11
     9f0:	f3f3f3f3 	vrsra.u64	<illegal reg q15.5>, <illegal reg q9.5>, #13
     9f4:	03f3faf3 	mvnseq	pc, #995328	; 0xf3000
     9f8:	f8f3f216 			; <UNDEFINED> instruction: 0xf8f3f216
     9fc:	f9f3f3f3 			; <UNDEFINED> instruction: 0xf9f3f3f3
     a00:	14332f2f 	ldrtne	r2, [r3], #-3887	; 0xf2f
     a04:	34312f68 	ldrtcc	r2, [r1], #-3944	; 0xf68
     a08:	4a0b0315 	bmi	2c1664 <__bss_end+0x2be0ec>
     a0c:	2f4b4b67 	svccs	0x004b4b67
     a10:	2f30322f 	svccs	0x0030322f
     a14:	2f2f3030 	svccs	0x002f3030
     a18:	302f302f 	eorcc	r3, pc, pc, lsr #32
     a1c:	032f2f31 	teqeq	pc, #196	; 0xc4
     a20:	03672e0d 	cmneq	r7, #208	; 0xd0
     a24:	344b6612 	strbcc	r6, [fp], #-1554	; 0x612
     a28:	302f2f2f 	eorcc	r2, pc, pc, lsr #30
     a2c:	1332312f 	teqne	r2, #-1073741813	; 0xc000000b
     a30:	1333114b 	teqne	r3, #-1073741806	; 0xc0000012
     a34:	1332114b 	teqne	r2, #-1073741806	; 0xc0000012
     a38:	30153184 	andscc	r3, r5, r4, lsl #3
     a3c:	0202302f 	andeq	r3, r2, #47	; 0x2f
     a40:	07010100 	streq	r0, [r1, -r0, lsl #2]
     a44:	02000002 	andeq	r0, r0, #2
     a48:	00008f00 	andeq	r8, r0, r0, lsl #30
     a4c:	fb010200 	blx	41256 <__bss_end+0x3dcde>
     a50:	01000d0e 	tsteq	r0, lr, lsl #26
     a54:	00010101 	andeq	r0, r1, r1, lsl #2
     a58:	00010000 	andeq	r0, r1, r0
     a5c:	72610100 	rsbvc	r0, r1, #0
     a60:	612f6863 	teqvs	pc, r3, ror #16
     a64:	6d2f6d72 	stcvs	13, cr6, [pc, #-456]!	; 8a4 <set_event_counter+0x1c>
     a68:	2d686361 	stclcs	3, cr6, [r8, #-388]!	; 0xfffffe7c
     a6c:	786e7573 	stmdavc	lr!, {r0, r1, r4, r5, r6, r8, sl, ip, sp, lr}^
     a70:	6d702f69 	ldclvs	15, cr2, [r0, #-420]!	; 0xfffffe5c
     a74:	6174732f 	cmnvs	r4, pc, lsr #6
     a78:	7962646e 	stmdbvc	r2!, {r1, r2, r3, r5, r6, sl, sp, lr}^
     a7c:	002e2e2f 	eoreq	r2, lr, pc, lsr #28
     a80:	6c636e69 	stclvs	14, cr6, [r3], #-420	; 0xfffffe5c
     a84:	2f656475 	svccs	0x00656475
     a88:	756e696c 	strbvc	r6, [lr, #-2412]!	; 0x96c
     a8c:	6f702f78 	svcvs	0x00702f78
     a90:	00726577 	rsbseq	r6, r2, r7, ror r5
     a94:	6d656d00 	stclvs	13, cr6, [r5, #-0]
     a98:	7265735f 	rsbvc	r7, r5, #2080374785	; 0x7c000001
     a9c:	2e6c6169 	powcsez	f6, f4, #1.0
     aa0:	00010063 	andeq	r0, r1, r3, rrx
     aa4:	5f6d7000 	svcpl	0x006d7000
     aa8:	65707974 	ldrbvs	r7, [r0, #-2420]!	; 0x974
     aac:	00682e73 	rsbeq	r2, r8, r3, ror lr
     ab0:	6d000001 	stcvs	0, cr0, [r0, #-4]
     ab4:	635f6d65 	cmpvs	pc, #6464	; 0x1940
     ab8:	2d756d63 	ldclcs	13, cr6, [r5, #-396]!	; 0xfffffe74
     abc:	386e7573 	stmdacc	lr!, {r0, r1, r4, r5, r6, r8, sl, ip, sp, lr}^
     ac0:	70367769 	eorsvc	r7, r6, r9, ror #14
     ac4:	00682e31 	rsbeq	r2, r8, r1, lsr lr
     ac8:	61000001 	tstvs	r0, r1
     acc:	645f7078 	ldrbvs	r7, [pc], #-120	; ad4 <loop3+0xc>
     ad0:	6e657065 	cdpvs	0, 6, cr7, cr5, cr5, {3}
     ad4:	00682e64 	rsbeq	r2, r8, r4, ror #28
     ad8:	00000002 	andeq	r0, r0, r2
     adc:	e4020500 	str	r0, [r2], #-1280	; 0x500
     ae0:	03000016 	movweq	r0, #22
     ae4:	2e0101d9 	mcrcs	1, 0, r0, cr1, cr9, {6}
     ae8:	034f3451 	movteq	r3, #62545	; 0xf451
     aec:	6774080c 	ldrbvs	r0, [r4, -ip, lsl #16]!
     af0:	302f312f 	eorcc	r3, pc, pc, lsr #2
     af4:	03312f67 	teqeq	r1, #412	; 0x19c
     af8:	2d672e64 	stclcs	14, cr2, [r7, #-400]!	; 0xfffffe70
     afc:	034a7503 	movteq	r7, #42243	; 0xa503
     b00:	032d2e0c 	teqeq	sp, #192	; 0xc0
     b04:	2e667ea9 	cdpcs	14, 6, cr7, cr6, cr9, {5}
     b08:	2f2e0b03 	svccs	0x002e0b03
     b0c:	2a4e2a32 	bcs	138b3dc <__bss_end+0x1387e64>
     b10:	a52e1703 	strge	r1, [lr, #-1795]!	; 0x703
     b14:	82140330 	andshi	r0, r4, #-1073741824	; 0xc0000000
     b18:	032e6303 	teqeq	lr, #201326592	; 0xc000000
     b1c:	03302e09 	teqeq	r0, #144	; 0x90
     b20:	67684a12 			; <UNDEFINED> instruction: 0x67684a12
     b24:	03364d2f 	teqeq	r6, #3008	; 0xbc0
     b28:	6c4c2e78 	mcrrvs	14, 7, r2, ip, cr8
     b2c:	6601a703 	strvs	sl, [r1], -r3, lsl #14
     b30:	4b4ca014 	blmi	1328b88 <__bss_end+0x1325610>
     b34:	0191034c 	orrseq	r0, r1, ip, asr #6
     b38:	7ef4032e 	cdpvc	3, 15, cr0, cr4, cr14, {1}
     b3c:	4a2a034a 	bmi	a8186c <__bss_end+0xa7e2f4>
     b40:	4d4b332e 	stclmi	3, cr3, [fp, #-184]	; 0xffffff48
     b44:	4b2f2d67 	blmi	bcc0e8 <__bss_end+0xbc8b70>
     b48:	4a00d003 	bmi	34b5c <__bss_end+0x315e4>
     b4c:	4a7fb103 	bmi	1fecf60 <__bss_end+0x1fe99e8>
     b50:	2c2f2c31 	stccs	12, cr2, [pc], #-196	; a94 <loop1+0xc>
     b54:	2d302f2f 	ldccs	15, cr2, [r0, #-188]!	; 0xffffff44
     b58:	034c312f 	movteq	r3, #49455	; 0xc12f
     b5c:	034a00c6 	movteq	r0, #41158	; 0xa0c6
     b60:	032e7fbe 	teqeq	lr, #760	; 0x2f8
     b64:	2b152e18 	blcs	54c3cc <__bss_end+0x548e54>
     b68:	002d4b31 	eoreq	r4, sp, r1, lsr fp
     b6c:	32010402 	andcc	r0, r1, #33554432	; 0x2000000
     b70:	03666503 	cmneq	r6, #12582912	; 0xc00000
     b74:	6d032e13 	stcvs	14, cr2, [r3, #-76]	; 0xffffffb4
     b78:	1a03312e 	bne	cd038 <__bss_end+0xc9ac0>
     b7c:	5d03502e 	stcpl	0, cr5, [r3, #-184]	; 0xffffff48
     b80:	2f2f9f2e 	svccs	0x002f9f2e
     b84:	16032f2f 	strne	r2, [r3], -pc, lsr #30
     b88:	660b032e 	strvs	r0, [fp], -lr, lsr #6
     b8c:	4a59032f 	bmi	1641850 <__bss_end+0x163e2d8>
     b90:	2f2f2f9f 	svccs	0x002f2f9f
     b94:	6625032f 	strtvs	r0, [r5], -pc, lsr #6
     b98:	4b322a16 	blmi	c8b3f8 <__bss_end+0xc87e80>
     b9c:	2e0b032d 	cdpcs	3, 0, cr0, cr11, cr13, {1}
     ba0:	01040200 	mrseq	r0, R12_usr
     ba4:	034a7903 	movteq	r7, #43267	; 0xa903
     ba8:	2503665b 	strcs	r6, [r3, #-1627]	; 0x65b
     bac:	2e5b032e 	cdpcs	3, 5, cr0, cr11, cr14, {1}
     bb0:	032e2503 	teqeq	lr, #12582912	; 0xc00000
     bb4:	039f4a5b 	orrseq	r4, pc, #372736	; 0x5b000
     bb8:	5e034a24 	vmlapl.f32	s8, s6, s9
     bbc:	4a24034a 	bmi	9018ec <__bss_end+0x8fe374>
     bc0:	0a032a4c 	beq	cb4f8 <__bss_end+0xc7f80>
     bc4:	3184149e 			; <UNDEFINED> instruction: 0x3184149e
     bc8:	2e308414 	mrccs	4, 1, r8, cr0, cr4, {0}
     bcc:	302c3033 	eorcc	r3, ip, r3, lsr r0
     bd0:	4d2f302c 	stcmi	0, cr3, [pc, #-176]!	; b28 <flush_icache+0x20>
     bd4:	4b2f2d67 	blmi	bcc178 <__bss_end+0xbc8c00>
     bd8:	2f2c314b 	svccs	0x002c314b
     bdc:	302f2f2c 	eorcc	r2, pc, ip, lsr #30
     be0:	4c312f2d 	ldcmi	15, cr2, [r1], #-180	; 0xffffff4c
     be4:	034a5e03 	movteq	r5, #44547	; 0xae03
     be8:	26032e26 	strcs	r2, [r3], -r6, lsr #28
     bec:	312b152e 	teqcc	fp, lr, lsr #10
     bf0:	02002d4b 	andeq	r2, r0, #4800	; 0x12c0
     bf4:	03320104 	teqeq	r2, #1
     bf8:	1f036659 	svcne	0x00036659
     bfc:	2e61032e 	cdpcs	3, 6, cr0, cr1, cr14, {1}
     c00:	2e260331 	mcrcs	3, 1, r0, cr6, cr1, {1}
     c04:	2e510350 	mrccs	3, 2, r0, cr1, cr0, {2}
     c08:	2f2f2f9f 	svccs	0x002f2f9f
     c0c:	2e22032f 	cdpcs	3, 2, cr0, cr2, cr15, {1}
     c10:	2f660b03 	svccs	0x00660b03
     c14:	9f4a4d03 	svcls	0x004a4d03
     c18:	2f2f2f2f 	svccs	0x002f2f2f
     c1c:	16663203 	strbtne	r3, [r6], -r3, lsl #4
     c20:	2d4b322a 	sfmcs	f3, 2, [fp, #-168]	; 0xffffff58
     c24:	002e0b03 	eoreq	r0, lr, r3, lsl #22
     c28:	03010402 	movweq	r0, #5122	; 0x1402
     c2c:	4e034a79 	mcrmi	10, 0, r4, cr3, cr9, {3}
     c30:	2e320366 	cdpcs	3, 3, cr0, cr2, cr6, {3}
     c34:	032e4e03 	teqeq	lr, #48	; 0x30
     c38:	4e032e32 	mcrmi	14, 0, r2, cr3, cr2, {1}
     c3c:	31039f4a 	tstcc	r3, sl, asr #30
     c40:	4a51034a 	bmi	1441970 <__bss_end+0x143e3f8>
     c44:	4c4a3103 	stfmie	f3, [sl], {3}
     c48:	000a022a 	andeq	r0, sl, sl, lsr #4
     c4c:	03480101 	movteq	r0, #33025	; 0x8101
     c50:	00020000 	andeq	r0, r2, r0
     c54:	00000114 	andeq	r0, r0, r4, lsl r1
     c58:	0efb0102 	cdpeq	1, 15, cr0, cr11, cr2, {0}
     c5c:	0101000d 	tsteq	r1, sp
     c60:	00000101 	andeq	r0, r0, r1, lsl #2
     c64:	00000100 	andeq	r0, r0, r0, lsl #2
     c68:	63726101 	cmnvs	r2, #1073741824	; 0x40000000
     c6c:	72612f68 	rsbvc	r2, r1, #416	; 0x1a0
     c70:	616d2f6d 	cmnvs	sp, sp, ror #30
     c74:	732d6863 	teqvc	sp, #6488064	; 0x630000
     c78:	69786e75 	ldmdbvs	r8!, {r0, r2, r4, r5, r6, r9, sl, fp, sp, lr}^
     c7c:	2f6d702f 	svccs	0x006d702f
     c80:	6e617473 	mcrvs	4, 3, r7, cr1, cr3, {3}
     c84:	2f796264 	svccs	0x00796264
     c88:	2f002e2e 	svccs	0x00002e2e
     c8c:	656d6f68 	strbvs	r6, [sp, #-3944]!	; 0xf68
     c90:	6d6f742f 	cfstrdvs	mvd7, [pc, #-188]!	; bdc <invalidate_branch_predictor>
     c94:	7362742f 	cmnvc	r2, #788529152	; 0x2f000000
     c98:	6261745f 	rsbvs	r7, r1, #1593835520	; 0x5f000000
     c9c:	2f74656c 	svccs	0x0074656c
     ca0:	6863696c 	stmdavs	r3!, {r2, r3, r5, r6, r8, fp, sp, lr}^
     ca4:	6f2f6565 	svcvs	0x002f6565
     ca8:	732f7475 	teqvc	pc, #1962934272	; 0x75000000
     cac:	69386e75 	ldmdbvs	r8!, {r0, r2, r4, r5, r6, r9, sl, fp, sp, lr}
     cb0:	31703677 	cmncc	r0, r7, ror r6
     cb4:	6e696c2f 	cdpvs	12, 6, cr6, cr9, cr15, {1}
     cb8:	632f7875 	teqvs	pc, #7667712	; 0x750000
     cbc:	6f6d6d6f 	svcvs	0x006d6d6f
     cc0:	75622f6e 	strbvc	r2, [r2, #-3950]!	; 0xf6e
     cc4:	72646c69 	rsbvc	r6, r4, #26880	; 0x6900
     cc8:	2f746f6f 	svccs	0x00746f6f
     ccc:	65747865 	ldrbvs	r7, [r4, #-2149]!	; 0x865
     cd0:	6c616e72 	stclvs	14, cr6, [r1], #-456	; 0xfffffe38
     cd4:	6f6f742d 	svcvs	0x006f742d
     cd8:	6168636c 	cmnvs	r8, ip, ror #6
     cdc:	622f6e69 	eorvs	r6, pc, #1680	; 0x690
     ce0:	2e2f6e69 	cdpcs	14, 2, cr6, cr15, cr9, {3}
     ce4:	696c2f2e 	stmdbvs	ip!, {r1, r2, r3, r5, r8, r9, sl, fp, sp}^
     ce8:	63672f62 	cmnvs	r7, #392	; 0x188
     cec:	72612f63 	rsbvc	r2, r1, #396	; 0x18c
     cf0:	696c2d6d 	stmdbvs	ip!, {r0, r2, r3, r5, r6, r8, sl, fp, sp}^
     cf4:	2d78756e 	cfldr64cs	mvdx7, [r8, #-440]!	; 0xfffffe48
     cf8:	65756e67 	ldrbvs	r6, [r5, #-3687]!	; 0xe67
     cfc:	2f696261 	svccs	0x00696261
     d00:	2e362e34 	mrccs	14, 1, r2, cr6, cr4, {1}
     d04:	6e692f33 	mcrvs	15, 3, r2, cr9, cr3, {1}
     d08:	64756c63 	ldrbtvs	r6, [r5], #-3171	; 0xc63
     d0c:	6e690065 	cdpvs	0, 6, cr0, cr9, cr5, {3}
     d10:	64756c63 	ldrbtvs	r6, [r5], #-3171	; 0xc63
     d14:	696c2f65 	stmdbvs	ip!, {r0, r2, r5, r6, r8, r9, sl, fp, sp}^
     d18:	2f78756e 	svccs	0x0078756e
     d1c:	65776f70 	ldrbvs	r6, [r7, #-3952]!	; 0xf70
     d20:	6d000072 	stcvs	0, cr0, [r0, #-456]	; 0xfffffe38
     d24:	705f6d65 	subsvc	r6, pc, r5, ror #26
     d28:	746e6972 	strbtvc	r6, [lr], #-2418	; 0x972
     d2c:	00632e6b 	rsbeq	r2, r3, fp, ror #28
     d30:	70000001 	andvc	r0, r0, r1
     d34:	79745f6d 	ldmdbvc	r4!, {r0, r2, r3, r5, r6, r8, r9, sl, fp, ip, lr}^
     d38:	2e736570 	mrccs	5, 3, r6, cr3, cr0, {3}
     d3c:	00010068 	andeq	r0, r1, r8, rrx
     d40:	64747300 	ldrbtvs	r7, [r4], #-768	; 0x300
     d44:	2e677261 	cdpcs	2, 6, cr7, cr7, cr1, {3}
     d48:	00020068 	andeq	r0, r2, r8, rrx
     d4c:	70786100 	rsbsvc	r6, r8, r0, lsl #2
     d50:	7065645f 	rsbvc	r6, r5, pc, asr r4
     d54:	2e646e65 	cdpcs	14, 6, cr6, cr4, cr5, {3}
     d58:	00030068 	andeq	r0, r3, r8, rrx
     d5c:	75623c00 	strbvc	r3, [r2, #-3072]!	; 0xc00
     d60:	2d746c69 	ldclcs	12, cr6, [r4, #-420]!	; 0xfffffe5c
     d64:	003e6e69 	eorseq	r6, lr, r9, ror #28
     d68:	00000000 	andeq	r0, r0, r0
     d6c:	28020500 	stmdacs	r2, {r8, sl}
     d70:	0300001c 	movweq	r0, #28
     d74:	340101ce 	strcc	r0, [r1], #-462	; 0x1ce
     d78:	2c882a2c 	vstmiacs	r8, {s4-s47}
     d7c:	7a032fa3 	bvc	ccc10 <__bss_end+0xc9698>
     d80:	522b332e 	eorpl	r3, fp, #-1207959552	; 0xb8000000
     d84:	02040200 	andeq	r0, r4, #0
     d88:	04020031 	streq	r0, [r2], #-49	; 0x31
     d8c:	02008302 	andeq	r8, r0, #134217728	; 0x8000000
     d90:	002d0204 	eoreq	r0, sp, r4, lsl #4
     d94:	4b020402 	blmi	81da4 <__bss_end+0x7e82c>
     d98:	02040200 	andeq	r0, r4, #0
     d9c:	0402002d 	streq	r0, [r2], #-45	; 0x2d
     da0:	02002f02 	andeq	r2, r0, #8
     da4:	032a0204 	teqeq	sl, #1073741824	; 0x40000000
     da8:	17036671 	smlsdxne	r3, r1, r6, r6
     dac:	04020066 	streq	r0, [r2], #-102	; 0x66
     db0:	002e0602 	eoreq	r0, lr, r2, lsl #12
     db4:	06020402 	streq	r0, [r2], -r2, lsl #8
     db8:	04020030 	streq	r0, [r2], #-48	; 0x30
     dbc:	69332c02 	ldmdbvs	r3!, {r1, sl, fp, sp}
     dc0:	8200fe03 	andhi	pc, r0, #48	; 0x30
     dc4:	852b2d32 	strhi	r2, [fp, #-3378]!	; 0xd32
     dc8:	2e78038a 	cdpcs	3, 7, cr0, cr8, cr10, {4}
     dcc:	ed03312f 	stfs	f3, [r3, #-188]	; 0xffffff44
     dd0:	93032e7d 	movwls	r2, #15997	; 0x3e7d
     dd4:	ed032e02 	stc	14, cr2, [r3, #-8]
     dd8:	03302e7d 	teqeq	r0, #2000	; 0x7d0
     ddc:	03820289 	orreq	r0, r2, #-1879048184	; 0x90000008
     de0:	032e7df7 	teqeq	lr, #15808	; 0x3dc0
     de4:	032e0289 	teqeq	lr, #-1879048184	; 0x90000008
     de8:	522e7df7 	eorpl	r7, lr, #15808	; 0x3dc0
     dec:	034cbc46 	movteq	fp, #52294	; 0xcc46
     df0:	032e028e 	teqeq	lr, #-536870904	; 0xe0000008
     df4:	36827ea8 	strcc	r7, [r2], r8, lsr #29
     df8:	2e7a032c 	cdpcs	3, 7, cr0, cr10, cr12, {1}
     dfc:	032f876c 	teqeq	pc, #28311552	; 0x1b00000
     e00:	2b332e7a 	blcs	ccc7f0 <__bss_end+0xcc9278>
     e04:	032e1203 	teqeq	lr, #805306368	; 0x30000000
     e08:	032d2e7a 	teqeq	sp, #1952	; 0x7a0
     e0c:	14032e70 	strne	r2, [r3], #-3696	; 0xe70
     e10:	31474d2e 	cmpcc	r7, lr, lsr #26
     e14:	31633163 	cmncc	r3, r3, ror #2
     e18:	2e090363 	cdpcs	3, 0, cr0, cr9, cr3, {3}
     e1c:	032e7703 	teqeq	lr, #786432	; 0xc0000
     e20:	5d032e0c 	stcpl	14, cr2, [r3, #-48]	; 0xffffffd0
     e24:	66250366 	strtvs	r0, [r5], -r6, ror #6
     e28:	5b032c4c 	blpl	cbf60 <__bss_end+0xc89e8>
     e2c:	2e2a034a 	cdpcs	3, 2, cr0, cr10, cr10, {2}
     e30:	9e390369 	cdpls	3, 3, cr0, cr9, cr9, {3}
     e34:	03660c03 	cmneq	r6, #768	; 0x300
     e38:	0c032e74 	stceq	14, cr2, [r3], {116}	; 0x74
     e3c:	48302d2e 	ldmdami	r0!, {r1, r2, r3, r5, r8, sl, fp, sp}
     e40:	00c10330 	sbceq	r0, r1, r0, lsr r3
     e44:	2e68032e 	cdpcs	3, 6, cr0, cr8, cr14, {1}
     e48:	4c2e5503 	cfstr32mi	mvfx5, [lr], #-12
     e4c:	2e00cb03 	vmlacs.f64	d12, d0, d3
     e50:	2e7fb503 	cdpcs	5, 7, cr11, cr15, cr3, {0}
     e54:	00c6034c 	sbceq	r0, r6, ip, asr #6
     e58:	7fba032e 	svcvc	0x00ba032e
     e5c:	2f69312e 	svccs	0x0069312e
     e60:	2e090329 	cdpcs	3, 0, cr0, cr9, cr9, {1}
     e64:	c103342a 	tstgt	r3, sl, lsr #8
     e68:	01340200 	teqeq	r4, r0, lsl #4
     e6c:	31302c30 	teqcc	r0, r0, lsr ip
     e70:	039e5403 	orrseq	r5, lr, #50331648	; 0x3000000
     e74:	03d67de6 	bicseq	r7, r6, #14720	; 0x3980
     e78:	0366029b 	cmneq	r6, #-1342177271	; 0xb0000009
     e7c:	032e7de5 	teqeq	lr, #14656	; 0x3940
     e80:	0382029c 	orreq	r0, r2, #-1073741815	; 0xc0000009
     e84:	03d67df5 	bicseq	r7, r6, #15680	; 0x3d40
     e88:	2f82028d 	svccs	0x0082028d
     e8c:	032e0b03 	teqeq	lr, #3072	; 0xc00
     e90:	032e7fb9 	teqeq	lr, #740	; 0x2e4
     e94:	032e00c7 	teqeq	lr, #199	; 0xc7
     e98:	03667fb9 	cmneq	r6, #740	; 0x2e4
     e9c:	032e7eae 	teqeq	lr, #2784	; 0xae0
     ea0:	ac03826f 	sfmge	f0, 1, [r3], {111}	; 0x6f
     ea4:	032ff202 	msreq	CPSR_fsxc, #536870912	; 0x20000000
     ea8:	f0032e63 			; <UNDEFINED> instruction: 0xf0032e63
     eac:	9103d67d 	tstls	r3, sp, ror r6
     eb0:	ef036602 	svc	0x00036602
     eb4:	92032e7d 	andls	r2, r3, #2000	; 0x7d0
     eb8:	ff038202 			; <UNDEFINED> instruction: 0xff038202
     ebc:	8d03d67d 	stchi	6, cr13, [r3, #-500]	; 0xfffffe0c
     ec0:	9f508202 	svcls	0x00508202
     ec4:	2f2e0d03 	svccs	0x002e0d03
     ec8:	03825203 	orreq	r5, r2, #805306368	; 0x30000000
     ecc:	03ba7dfb 			; <UNDEFINED> instruction: 0x03ba7dfb
     ed0:	03660286 	cmneq	r6, #1610612744	; 0x60000008
     ed4:	032e7dfa 	teqeq	lr, #16000	; 0x3e80
     ed8:	03820287 	orreq	r0, r2, #1879048200	; 0x70000008
     edc:	03d67e8a 	bicseq	r7, r6, #2208	; 0x8a0
     ee0:	0382028d 	orreq	r0, r2, #-805306360	; 0xd0000008
     ee4:	0c03663b 	stceq	6, cr6, [r3], {59}	; 0x3b
     ee8:	2e740366 	cdpcs	3, 7, cr0, cr4, cr6, {3}
     eec:	2d2e0c03 	stccs	12, cr0, [lr, #-12]!
     ef0:	03304830 	teqeq	r0, #3145728	; 0x300000
     ef4:	032e00c1 	teqeq	lr, #193	; 0xc1
     ef8:	55032e68 	strpl	r2, [r3, #-3688]	; 0xe68
     efc:	cb034c2e 	blgt	d3fbc <__bss_end+0xd0a44>
     f00:	b5032e00 	strlt	r2, [r3, #-3584]	; 0xe00
     f04:	034c2e7f 	movteq	r2, #52863	; 0xce7f
     f08:	032e00c6 	teqeq	lr, #198	; 0xc6
     f0c:	312e7fba 			; <UNDEFINED> instruction: 0x312e7fba
     f10:	03292f69 	teqeq	r9, #420	; 0x1a4
     f14:	342a2e09 	strtcc	r2, [sl], #-3593	; 0xe09
     f18:	0200c103 	andeq	ip, r0, #-1073741824	; 0xc0000000
     f1c:	2c300134 	ldfcss	f0, [r0], #-208	; 0xffffff30
     f20:	54033130 	strpl	r3, [r3], #-304	; 0x130
     f24:	7cf1039e 	ldclvc	3, cr0, [r1], #632	; 0x278
     f28:	039003d6 	orrseq	r0, r0, #1476395011	; 0x58000003
     f2c:	7cf00366 	ldclvc	3, cr0, [r0], #408	; 0x198
     f30:	0391032e 	orrseq	r0, r1, #-1207959552	; 0xb8000000
     f34:	7d800382 	stcvc	3, cr0, [r0, #520]	; 0x208
     f38:	038203d6 	orreq	r0, r2, #1476395011	; 0x58000003
     f3c:	0b032f82 	bleq	ccd4c <__bss_end+0xc97d4>
     f40:	7fb9032e 	svcvc	0x00b9032e
     f44:	00c7032e 	sbceq	r0, r7, lr, lsr #6
     f48:	7fb9032e 	svcvc	0x00b9032e
     f4c:	7db90366 	ldcvc	3, cr0, [r9, #408]!	; 0x198
     f50:	826f032e 	rsbhi	r0, pc, #-1207959552	; 0xb8000000
     f54:	f203a103 	vrhadd.s8	d10, d3, d3
     f58:	2e63032f 	cdpcs	3, 6, cr0, cr3, cr15, {1}
     f5c:	d67cfb03 	ldrbtle	pc, [ip], -r3, lsl #22	; <UNPREDICTABLE>
     f60:	66038603 	strvs	r8, [r3], -r3, lsl #12
     f64:	2e7cfa03 	vaddcs.f32	s31, s24, s6
     f68:	82038703 	andhi	r8, r3, #786432	; 0xc0000
     f6c:	d67d8a03 	ldrbtle	r8, [sp], -r3, lsl #20
     f70:	82038203 	andhi	r8, r3, #805306368	; 0x30000000
     f74:	0d039f50 	stceq	15, cr9, [r3, #-320]	; 0xfffffec0
     f78:	52032f2e 	andpl	r2, r3, #184	; 0xb8
     f7c:	7d860382 	stcvc	3, cr0, [r6, #520]	; 0x208
     f80:	02fb03ba 	rscseq	r0, fp, #-402653182	; 0xe8000002
     f84:	7d850366 	stcvc	3, cr0, [r5, #408]	; 0x198
     f88:	02fc032e 	rscseq	r0, ip, #-1207959552	; 0xb8000000
     f8c:	7d950382 	ldcvc	3, cr0, [r5, #520]	; 0x208
     f90:	038203d6 	orreq	r0, r2, #1476395011	; 0x58000003
     f94:	00060282 	andeq	r0, r6, r2, lsl #5
     f98:	00a90101 	adceq	r0, r9, r1, lsl #2
     f9c:	00020000 	andeq	r0, r2, r0
     fa0:	00000045 	andeq	r0, r0, r5, asr #32
     fa4:	0efb0102 	cdpeq	1, 15, cr0, cr11, cr2, {0}
     fa8:	0101000d 	tsteq	r1, sp
     fac:	00000101 	andeq	r0, r0, r1, lsl #2
     fb0:	00000100 	andeq	r0, r0, r0, lsl #2
     fb4:	63726101 	cmnvs	r2, #1073741824	; 0x40000000
     fb8:	72612f68 	rsbvc	r2, r1, #416	; 0x1a0
     fbc:	616d2f6d 	cmnvs	sp, sp, ror #30
     fc0:	732d6863 	teqvc	sp, #6488064	; 0x630000
     fc4:	69786e75 	ldmdbvs	r8!, {r0, r2, r4, r5, r6, r9, sl, fp, sp, lr}^
     fc8:	2f6d702f 	svccs	0x006d702f
     fcc:	6e617473 	mcrvs	4, 3, r7, cr1, cr3, {3}
     fd0:	2f796264 	svccs	0x00796264
     fd4:	00002e2e 	andeq	r2, r0, lr, lsr #28
     fd8:	5f6d656d 	svcpl	0x006d656d
     fdc:	6c766964 	ldclvs	9, cr6, [r6], #-400	; 0xfffffe70
     fe0:	532e6269 	teqpl	lr, #-1879048186	; 0x90000006
     fe4:	00000100 	andeq	r0, r0, r0, lsl #2
     fe8:	02050000 	andeq	r0, r5, #0
     fec:	00002414 	andeq	r2, r0, r4, lsl r4
     ff0:	2f010e03 	svccs	0x00010e03
     ff4:	2f2f302f 	svccs	0x002f302f
     ff8:	2f302f2f 	svccs	0x00302f2f
     ffc:	032f2f34 	teqeq	pc, #208	; 0xd0
    1000:	2f2e00d5 	svccs	0x002e00d5
    1004:	2f332f2f 	svccs	0x00332f2f
    1008:	2f2f2f2f 	svccs	0x002f2f2f
    100c:	2e02302f 	cdpcs	0, 0, cr3, cr2, cr15, {1}
    1010:	2f302f14 	svccs	0x00302f14
    1014:	2f4c302f 	svccs	0x004c302f
    1018:	2f2f2f34 	svccs	0x002f2f34
    101c:	2f2f2f2f 	svccs	0x002f2f2f
    1020:	2f2f2f2f 	svccs	0x002f2f2f
    1024:	142e0230 	strtne	r0, [lr], #-560	; 0x230
    1028:	2f302f2f 	svccs	0x00302f2f
    102c:	2f2f302f 	svccs	0x002f302f
    1030:	2f4c302f 	svccs	0x004c302f
    1034:	2f332f2f 	svccs	0x00332f2f
    1038:	2f2f2f2f 	svccs	0x002f2f2f
    103c:	2f2f2f33 	svccs	0x002f2f33
    1040:	02022f2f 	andeq	r2, r2, #188	; 0xbc
    1044:	82010100 	andhi	r0, r1, #0
    1048:	02000000 	andeq	r0, r0, #0
    104c:	00005400 	andeq	r5, r0, r0, lsl #8
    1050:	fb010200 	blx	4185a <__bss_end+0x3e2e2>
    1054:	01000d0e 	tsteq	r0, lr, lsl #26
    1058:	00010101 	andeq	r0, r1, r1, lsl #2
    105c:	00010000 	andeq	r0, r1, r0
    1060:	72610100 	rsbvc	r0, r1, #0
    1064:	612f6863 	teqvs	pc, r3, ror #16
    1068:	6d2f6d72 	stcvs	13, cr6, [pc, #-456]!	; ea8 <jump_to_resume0_nommu+0x88>
    106c:	2d686361 	stclcs	3, cr6, [r8, #-388]!	; 0xfffffe7c
    1070:	786e7573 	stmdavc	lr!, {r0, r1, r4, r5, r6, r8, sl, ip, sp, lr}^
    1074:	6d702f69 	ldclvs	15, cr2, [r0, #-420]!	; 0xfffffe5c
    1078:	6174732f 	cmnvs	r4, pc, lsr #6
    107c:	7962646e 	stmdbvc	r2!, {r1, r2, r3, r5, r6, sl, sp, lr}^
    1080:	002e2e2f 	eoreq	r2, lr, pc, lsr #28
    1084:	6d656d00 	stclvs	13, cr6, [r5, #-0]
    1088:	7669645f 			; <UNDEFINED> instruction: 0x7669645f
    108c:	6362696c 	cmnvs	r2, #1769472	; 0x1b0000
    1090:	0100632e 	tsteq	r0, lr, lsr #6
    1094:	6d700000 	ldclvs	0, cr0, [r0, #-0]
    1098:	7079745f 	rsbsvc	r7, r9, pc, asr r4
    109c:	682e7365 	stmdavs	lr!, {r0, r2, r5, r6, r8, r9, ip, sp, lr}
    10a0:	00000100 	andeq	r0, r0, r0, lsl #2
    10a4:	02050000 	andeq	r0, r5, #0
    10a8:	000025f0 	strdeq	r2, [r0], -r0
    10ac:	114b1315 	cmpne	fp, r5, lsl r3
    10b0:	2b311732 	blcs	c46d80 <__bss_end+0xc43808>
    10b4:	01040200 	mrseq	r0, R12_usr
    10b8:	064a0634 			; <UNDEFINED> instruction: 0x064a0634
    10bc:	0b032b31 	bleq	cbd88 <__bss_end+0xc8810>
    10c0:	33302b4a 	teqcc	r0, #75776	; 0x12800
    10c4:	4d30342a 	cfldrsmi	mvf3, [r0, #-168]!	; 0xffffff58
    10c8:	01000402 	tsteq	r0, r2, lsl #8
    10cc:	00012101 	andeq	r2, r1, r1, lsl #2
    10d0:	81000200 	mrshi	r0, R8_usr
    10d4:	02000000 	andeq	r0, r0, #0
    10d8:	0d0efb01 	vstreq	d15, [lr, #-4]
    10dc:	01010100 	mrseq	r0, (UNDEF: 17)
    10e0:	00000001 	andeq	r0, r0, r1
    10e4:	01000001 	tsteq	r0, r1
    10e8:	68637261 	stmdavs	r3!, {r0, r5, r6, r9, ip, sp, lr}^
    10ec:	6d72612f 	ldfvse	f6, [r2, #-188]!	; 0xffffff44
    10f0:	63616d2f 	cmnvs	r1, #3008	; 0xbc0
    10f4:	75732d68 	ldrbvc	r2, [r3, #-3432]!	; 0xd68
    10f8:	2f69786e 	svccs	0x0069786e
    10fc:	732f6d70 	teqvc	pc, #7168	; 0x1c00
    1100:	646e6174 	strbtvs	r6, [lr], #-372	; 0x174
    1104:	2e2f7962 	cdpcs	9, 2, cr7, cr15, cr2, {3}
    1108:	6e69002e 	cdpvs	0, 6, cr0, cr9, cr14, {1}
    110c:	64756c63 	ldrbtvs	r6, [r5], #-3171	; 0xc63
    1110:	696c2f65 	stmdbvs	ip!, {r0, r2, r5, r6, r8, r9, sl, fp, sp}^
    1114:	2f78756e 	svccs	0x0078756e
    1118:	65776f70 	ldrbvs	r6, [r7, #-3952]!	; 0xf70
    111c:	6d000072 	stcvs	0, cr0, [r0, #-456]	; 0xfffffe38
    1120:	695f6d65 	ldmdbvs	pc, {r0, r2, r5, r6, r8, sl, fp, sp, lr}^	; <UNPREDICTABLE>
    1124:	632e746e 	teqvs	lr, #1845493760	; 0x6e000000
    1128:	00000100 	andeq	r0, r0, r0, lsl #2
    112c:	745f6d70 	ldrbvc	r6, [pc], #-3440	; 1134 <__save_processor_state+0x254>
    1130:	73657079 	cmnvc	r5, #121	; 0x79
    1134:	0100682e 	tsteq	r0, lr, lsr #16
    1138:	656d0000 	strbvs	r0, [sp, #-0]!
    113c:	6e695f6d 	cdpvs	15, 6, cr5, cr9, cr13, {3}
    1140:	00682e74 	rsbeq	r2, r8, r4, ror lr
    1144:	61000001 	tstvs	r0, r1
    1148:	645f7078 	ldrbvs	r7, [pc], #-120	; 1150 <__save_processor_state+0x270>
    114c:	6e657065 	cdpvs	0, 6, cr7, cr5, cr5, {3}
    1150:	00682e64 	rsbeq	r2, r8, r4, ror #28
    1154:	00000002 	andeq	r0, r0, r2
    1158:	48020500 	stmdami	r2, {r8, sl}
    115c:	03000026 	movweq	r0, #38	; 0x26
    1160:	2f140122 	svccs	0x00140122
    1164:	032e0a03 	teqeq	lr, #12288	; 0x3000
    1168:	2d312e73 	ldccs	14, cr2, [r1, #-460]!	; 0xfffffe34
    116c:	2e0b032f 	cdpcs	3, 0, cr0, cr11, cr15, {1}
    1170:	2e75032d 	cdpcs	3, 7, cr0, cr5, cr13, {1}
    1174:	0402002f 	streq	r0, [r2], #-47	; 0x2f
    1178:	4a0b0302 	bmi	2c1d88 <__bss_end+0x2be810>
    117c:	02040200 	andeq	r0, r4, #0
    1180:	064a062d 	strbeq	r0, [sl], -sp, lsr #12
    1184:	032e0b03 	teqeq	lr, #3072	; 0xc00
    1188:	0c032e75 	stceq	14, cr2, [r3], {117}	; 0x75
    118c:	02002d2e 	andeq	r2, r0, #2944	; 0xb80
    1190:	002f0204 	eoreq	r0, pc, r4, lsl #4
    1194:	2d020402 	cfstrscs	mvf0, [r2, #-8]
    1198:	4c2c304e 	stcmi	0, cr3, [ip], #-312	; 0xfffffec8
    119c:	034f2f4c 	movteq	r2, #65356	; 0xff4c
    11a0:	2c14820f 	lfmcs	f0, 1, [r4], {15}
    11a4:	02002b33 	andeq	r2, r0, #52224	; 0xcc00
    11a8:	00a20204 	adceq	r0, r2, r4, lsl #4
    11ac:	4b020402 	blmi	821bc <__bss_end+0x7ec44>
    11b0:	02040200 	andeq	r0, r4, #0
    11b4:	0f036c80 	svceq	0x00036c80
    11b8:	304b1682 	subcc	r1, fp, r2, lsl #13
    11bc:	034c2f2b 	movteq	r2, #53035	; 0xcf2b
    11c0:	032f2e7a 	teqeq	pc, #1952	; 0x7a0
    11c4:	03502e0a 	cmpeq	r0, #160	; 0xa0
    11c8:	03c02e7a 	biceq	r2, r0, #1952	; 0x7a0
    11cc:	0b032e76 	bleq	ccbac <__bss_end+0xc9634>
    11d0:	4a0f032e 	bmi	3c1e90 <__bss_end+0x3be918>
    11d4:	2b304b17 	blcs	c13e38 <__bss_end+0xc108c0>
    11d8:	7a034c2f 	bvc	d429c <__bss_end+0xd0d24>
    11dc:	2e0f032e 	cdpcs	3, 0, cr0, cr15, cr14, {1}
    11e0:	032e7203 	teqeq	lr, #805306368	; 0x30000000
    11e4:	03a32e09 			; <UNDEFINED> instruction: 0x03a32e09
    11e8:	09038278 	stmdbeq	r3, {r3, r4, r5, r6, r9, pc}
    11ec:	0004022e 	andeq	r0, r4, lr, lsr #4
    11f0:	00a80101 	adceq	r0, r8, r1, lsl #2
    11f4:	00020000 	andeq	r0, r2, r0
    11f8:	0000005f 	andeq	r0, r0, pc, asr r0
    11fc:	0efb0102 	cdpeq	1, 15, cr0, cr11, cr2, {0}
    1200:	0101000d 	tsteq	r1, sp
    1204:	00000101 	andeq	r0, r0, r1, lsl #2
    1208:	00000100 	andeq	r0, r0, r0, lsl #2
    120c:	63726101 	cmnvs	r2, #1073741824	; 0x40000000
    1210:	72612f68 	rsbvc	r2, r1, #416	; 0x1a0
    1214:	616d2f6d 	cmnvs	sp, sp, ror #30
    1218:	732d6863 	teqvc	sp, #6488064	; 0x630000
    121c:	69786e75 	ldmdbvs	r8!, {r0, r2, r4, r5, r6, r9, sl, fp, sp, lr}^
    1220:	2f6d702f 	svccs	0x006d702f
    1224:	6e617473 	mcrvs	4, 3, r7, cr1, cr3, {3}
    1228:	2f796264 	svccs	0x00796264
    122c:	00002e2e 	andeq	r2, r0, lr, lsr #28
    1230:	5f6d656d 	svcpl	0x006d656d
    1234:	6f697067 	svcvs	0x00697067
    1238:	0100632e 	tsteq	r0, lr, lsr #6
    123c:	6d700000 	ldclvs	0, cr0, [r0, #-0]
    1240:	7079745f 	rsbsvc	r7, r9, pc, asr r4
    1244:	682e7365 	stmdavs	lr!, {r0, r2, r5, r6, r8, r9, ip, sp, lr}
    1248:	00000100 	andeq	r0, r0, r0, lsl #2
    124c:	5f6d656d 	svcpl	0x006d656d
    1250:	6f697067 	svcvs	0x00697067
    1254:	0100682e 	tsteq	r0, lr, lsr #16
    1258:	00000000 	andeq	r0, r0, r0
    125c:	27e40205 	strbcs	r0, [r4, r5, lsl #4]!
    1260:	0f030000 	svceq	0x00030000
    1264:	29331101 	ldmdbcs	r3!, {r0, r8, ip}
    1268:	0402004f 	streq	r0, [r2], #-79	; 0x4f
    126c:	02002f02 	andeq	r2, r0, #8
    1270:	002d0204 	eoreq	r0, sp, r4, lsl #4
    1274:	2f020402 	svccs	0x00020402
    1278:	02040200 	andeq	r0, r4, #0
    127c:	0e03322d 	cdpeq	2, 0, cr3, cr3, cr13, {1}
    1280:	2933114a 	ldmdbcs	r3!, {r1, r3, r6, r8, ip}
    1284:	0402004f 	streq	r0, [r2], #-79	; 0x4f
    1288:	02002f02 	andeq	r2, r0, #8
    128c:	03490204 	movteq	r0, #37380	; 0x9204
    1290:	154e4a0c 	strbne	r4, [lr, #-2572]	; 0xa0c
    1294:	2f2dde83 	svccs	0x002dde83
    1298:	0008022d 	andeq	r0, r8, sp, lsr #4
    129c:	00fc0101 	rscseq	r0, ip, r1, lsl #2
    12a0:	00020000 	andeq	r0, r2, r0
    12a4:	00000081 	andeq	r0, r0, r1, lsl #1
    12a8:	0efb0102 	cdpeq	1, 15, cr0, cr11, cr2, {0}
    12ac:	0101000d 	tsteq	r1, sp
    12b0:	00000101 	andeq	r0, r0, r1, lsl #2
    12b4:	00000100 	andeq	r0, r0, r0, lsl #2
    12b8:	63726101 	cmnvs	r2, #1073741824	; 0x40000000
    12bc:	72612f68 	rsbvc	r2, r1, #416	; 0x1a0
    12c0:	616d2f6d 	cmnvs	sp, sp, ror #30
    12c4:	732d6863 	teqvc	sp, #6488064	; 0x630000
    12c8:	69786e75 	ldmdbvs	r8!, {r0, r2, r4, r5, r6, r9, sl, fp, sp, lr}^
    12cc:	2f6d702f 	svccs	0x006d702f
    12d0:	6e617473 	mcrvs	4, 3, r7, cr1, cr3, {3}
    12d4:	2f796264 	svccs	0x00796264
    12d8:	69002e2e 	stmdbvs	r0, {r1, r2, r3, r5, r9, sl, fp, sp}
    12dc:	756c636e 	strbvc	r6, [ip, #-878]!	; 0x36e
    12e0:	6c2f6564 	cfstr32vs	mvfx6, [pc], #-400	; 1158 <__save_processor_state+0x278>
    12e4:	78756e69 	ldmdavc	r5!, {r0, r3, r5, r6, r9, sl, fp, sp, lr}^
    12e8:	776f702f 	strbvc	r7, [pc, -pc, lsr #32]!
    12ec:	00007265 	andeq	r7, r0, r5, ror #4
    12f0:	5f6d656d 	svcpl	0x006d656d
    12f4:	2e726d74 	mrccs	13, 3, r6, cr2, cr4, {3}
    12f8:	00010063 	andeq	r0, r1, r3, rrx
    12fc:	5f6d7000 	svcpl	0x006d7000
    1300:	65707974 	ldrbvs	r7, [r0, #-2420]!	; 0x974
    1304:	00682e73 	rsbeq	r2, r8, r3, ror lr
    1308:	6d000001 	stcvs	0, cr0, [r0, #-4]
    130c:	745f6d65 	ldrbvc	r6, [pc], #-3429	; 1314 <__restore_processor_state+0x10>
    1310:	682e726d 	stmdavs	lr!, {r0, r2, r3, r5, r6, r9, ip, sp, lr}
    1314:	00000100 	andeq	r0, r0, r0, lsl #2
    1318:	5f707861 	svcpl	0x00707861
    131c:	65706564 	ldrbvs	r6, [r0, #-1380]!	; 0x564
    1320:	682e646e 	stmdavs	lr!, {r1, r2, r3, r5, r6, sl, sp, lr}
    1324:	00000200 	andeq	r0, r0, r0, lsl #4
    1328:	02050000 	andeq	r0, r5, #0
    132c:	00002884 	andeq	r2, r0, r4, lsl #17
    1330:	18011103 	stmdane	r1, {r0, r1, r8, ip}
    1334:	342e7a03 	strtcc	r7, [lr], #-2563	; 0xa03
    1338:	032b312b 	teqeq	fp, #-1073741814	; 0xc000000a
    133c:	7703820c 	strvc	r8, [r3, -ip, lsl #4]
    1340:	4b4b2f2e 	blmi	12cd000 <__bss_end+0x12c9a88>
    1344:	4d4b4b4b 	vstrmi	d20, [fp, #-300]	; 0xfffffed4
    1348:	142e0f03 	strtne	r0, [lr], #-3843	; 0xf03
    134c:	09033064 	stmdbeq	r3, {r2, r5, r6, ip, sp}
    1350:	2e77032e 	cdpcs	3, 7, cr0, cr7, cr14, {1}
    1354:	4b4b4b2f 	blmi	12d4018 <__bss_end+0x12d0aa0>
    1358:	034d4b4b 	movteq	r4, #56139	; 0xdb4b
    135c:	2c162e0f 	ldccs	14, cr2, [r6], {15}
    1360:	2c302c30 	ldccs	12, cr2, [r0], #-192	; 0xffffff40
    1364:	4b2f2951 	blmi	bcb8b0 <__bss_end+0xbc8338>
    1368:	2e0f034d 	cdpcs	3, 0, cr0, cr15, cr13, {2}
    136c:	4b293313 	blmi	a4dfc0 <__bss_end+0xa4aa48>
    1370:	2f2f2c2f 	svccs	0x002f2c2f
    1374:	2e120331 	mrccs	3, 0, r0, cr2, cr1, {1}
    1378:	4d68bb15 	fstmdbxmi	r8!, {d27-d36}	;@ Deprecated
    137c:	12036969 	andne	r6, r3, #1720320	; 0x1a4000
    1380:	69bb142e 	ldmibvs	fp!, {r1, r2, r3, r5, sl, ip}
    1384:	11036769 	tstne	r3, r9, ror #14
    1388:	296b142e 	stmdbcs	fp!, {r1, r2, r3, r5, sl, ip}^
    138c:	75033532 	strvc	r3, [r3, #-1330]	; 0x532
    1390:	30312f2e 	eorscc	r2, r1, lr, lsr #30
    1394:	672f2f2d 	strvs	r2, [pc, -sp, lsr #30]!
    1398:	00020269 	andeq	r0, r2, r9, ror #4
    139c:	00af0101 	adceq	r0, pc, r1, lsl #2
    13a0:	00020000 	andeq	r0, r2, r0
    13a4:	00000087 	andeq	r0, r0, r7, lsl #1
    13a8:	0efb0102 	cdpeq	1, 15, cr0, cr11, cr2, {0}
    13ac:	0101000d 	tsteq	r1, sp
    13b0:	00000101 	andeq	r0, r0, r1, lsl #2
    13b4:	00000100 	andeq	r0, r0, r0, lsl #2
    13b8:	63726101 	cmnvs	r2, #1073741824	; 0x40000000
    13bc:	72612f68 	rsbvc	r2, r1, #416	; 0x1a0
    13c0:	616d2f6d 	cmnvs	sp, sp, ror #30
    13c4:	732d6863 	teqvc	sp, #6488064	; 0x630000
    13c8:	69786e75 	ldmdbvs	r8!, {r0, r2, r4, r5, r6, r9, sl, fp, sp, lr}^
    13cc:	2f6d702f 	svccs	0x006d702f
    13d0:	6e617473 	mcrvs	4, 3, r7, cr1, cr3, {3}
    13d4:	2f796264 	svccs	0x00796264
    13d8:	69002e2e 	stmdbvs	r0, {r1, r2, r3, r5, r9, sl, fp, sp}
    13dc:	756c636e 	strbvc	r6, [ip, #-878]!	; 0x36e
    13e0:	6c2f6564 	cfstr32vs	mvfx6, [pc], #-400	; 1258 <__save_processor_state+0x378>
    13e4:	78756e69 	ldmdavc	r5!, {r0, r3, r5, r6, r9, sl, fp, sp, lr}^
    13e8:	776f702f 	strbvc	r7, [pc, -pc, lsr #32]!
    13ec:	00007265 	andeq	r7, r0, r5, ror #4
    13f0:	5f6d656d 	svcpl	0x006d656d
    13f4:	74736d74 	ldrbtvc	r6, [r3], #-3444	; 0xd74
    13f8:	632e706d 	teqvs	lr, #109	; 0x6d
    13fc:	00000100 	andeq	r0, r0, r0, lsl #2
    1400:	745f6d70 	ldrbvc	r6, [pc], #-3440	; 1408 <__restore_processor_state+0x104>
    1404:	73657079 	cmnvc	r5, #121	; 0x79
    1408:	0100682e 	tsteq	r0, lr, lsr #16
    140c:	656d0000 	strbvs	r0, [sp, #-0]!
    1410:	6d745f6d 	ldclvs	15, cr5, [r4, #-436]!	; 0xfffffe4c
    1414:	706d7473 	rsbvc	r7, sp, r3, ror r4
    1418:	0100682e 	tsteq	r0, lr, lsr #16
    141c:	78610000 	stmdavc	r1!, {}^	; <UNPREDICTABLE>
    1420:	65645f70 	strbvs	r5, [r4, #-3952]!	; 0xf70
    1424:	646e6570 	strbtvs	r6, [lr], #-1392	; 0x570
    1428:	0200682e 	andeq	r6, r0, #3014656	; 0x2e0000
    142c:	00000000 	andeq	r0, r0, r0
    1430:	2a6c0205 	bcs	1b01c4c <__bss_end+0x1afe6d4>
    1434:	11030000 	mrsne	r0, (UNDEF: 3)
    1438:	312b1501 	teqcc	fp, r1, lsl #10
    143c:	2a512b4d 	bcs	144c178 <__bss_end+0x1448c00>
    1440:	0f034d2f 	svceq	0x00034d2f
    1444:	3064142e 	rsbcc	r1, r4, lr, lsr #8
    1448:	4d2f2a32 	vstmdbmi	pc!, {s4-s53}
    144c:	01000202 	tsteq	r0, r2, lsl #4
    1450:	00011d01 	andeq	r1, r1, r1, lsl #26
    1454:	7b000200 	blvc	1c5c <utoa+0x34>
    1458:	02000000 	andeq	r0, r0, #0
    145c:	0d0efb01 	vstreq	d15, [lr, #-4]
    1460:	01010100 	mrseq	r0, (UNDEF: 17)
    1464:	00000001 	andeq	r0, r0, r1
    1468:	01000001 	tsteq	r0, r1
    146c:	68637261 	stmdavs	r3!, {r0, r5, r6, r9, ip, sp, lr}^
    1470:	6d72612f 	ldfvse	f6, [r2, #-188]!	; 0xffffff44
    1474:	63616d2f 	cmnvs	r1, #3008	; 0xbc0
    1478:	75732d68 	ldrbvc	r2, [r3, #-3432]!	; 0xd68
    147c:	2f69786e 	svccs	0x0069786e
    1480:	732f6d70 	teqvc	pc, #7168	; 0x1c00
    1484:	646e6174 	strbtvs	r6, [lr], #-372	; 0x174
    1488:	2e2f7962 	cdpcs	9, 2, cr7, cr15, cr2, {3}
    148c:	6e69002e 	cdpvs	0, 6, cr0, cr9, cr14, {1}
    1490:	64756c63 	ldrbtvs	r6, [r5], #-3171	; 0xc63
    1494:	696c2f65 	stmdbvs	ip!, {r0, r2, r5, r6, r8, r9, sl, fp, sp}^
    1498:	2f78756e 	svccs	0x0078756e
    149c:	65776f70 	ldrbvs	r6, [r7, #-3952]!	; 0xf70
    14a0:	6d000072 	stcvs	0, cr0, [r0, #-456]	; 0xfffffe38
    14a4:	685f6d65 	ldmdavs	pc, {r0, r2, r5, r6, r8, sl, fp, sp, lr}^	; <UNPREDICTABLE>
    14a8:	69707377 	ldmdbvs	r0!, {r0, r1, r2, r4, r5, r6, r8, r9, ip, sp, lr}^
    14ac:	636f6c6e 	cmnvs	pc, #28160	; 0x6e00
    14b0:	00632e6b 	rsbeq	r2, r3, fp, ror #28
    14b4:	70000001 	andvc	r0, r0, r1
    14b8:	79745f6d 	ldmdbvc	r4!, {r0, r2, r3, r5, r6, r8, r9, sl, fp, ip, lr}^
    14bc:	2e736570 	mrccs	5, 3, r6, cr3, cr0, {3}
    14c0:	00010068 	andeq	r0, r1, r8, rrx
    14c4:	70786100 	rsbsvc	r6, r8, r0, lsl #2
    14c8:	7065645f 	rsbvc	r6, r5, pc, asr r4
    14cc:	2e646e65 	cdpcs	14, 6, cr6, cr4, cr5, {3}
    14d0:	00020068 	andeq	r0, r2, r8, rrx
    14d4:	05000000 	streq	r0, [r0, #-0]
    14d8:	002ac402 	eoreq	ip, sl, r2, lsl #8
    14dc:	00c70300 	sbceq	r0, r7, r0, lsl #6
    14e0:	302c1501 	eorcc	r1, ip, r1, lsl #10
    14e4:	4b2a4e33 	blmi	a94db8 <__bss_end+0xa91840>
    14e8:	2e0e0369 	cdpcs	3, 0, cr0, cr14, cr9, {3}
    14ec:	2e7fb503 	cdpcs	5, 7, cr11, cr15, cr3, {0}
    14f0:	4a00d303 	bmi	36104 <__bss_end+0x32b8c>
    14f4:	31473147 	cmpcc	r7, r7, asr #2
    14f8:	0c039b69 	stceq	11, cr9, [r3], {105}	; 0x69
    14fc:	7fbf0366 	svcvc	0x00bf0366
    1500:	2e3b034a 	cdpcs	3, 3, cr0, cr11, cr10, {2}
    1504:	032f4f4b 	teqeq	pc, #300	; 0x12c
    1508:	0314660e 	tsteq	r4, #14680064	; 0xe00000
    150c:	032e7fae 	teqeq	lr, #696	; 0x2b8
    1510:	032e00d2 	teqeq	lr, #210	; 0xd2
    1514:	03667fae 	cmneq	r6, #696	; 0x2b8
    1518:	032e00d2 	teqeq	lr, #210	; 0xd2
    151c:	032e7fae 	teqeq	lr, #696	; 0x2b8
    1520:	032e00d2 	teqeq	lr, #210	; 0xd2
    1524:	032e7fae 	teqeq	lr, #696	; 0x2b8
    1528:	032e00d8 	teqeq	lr, #216	; 0xd8
    152c:	fc034a0e 	stc2	10, cr4, [r3], {14}
    1530:	8c03017e 	stfhis	f0, [r3], {126}	; 0x7e
    1534:	312b4a01 	teqcc	fp, r1, lsl #20
    1538:	9b693163 	blls	1a4dacc <__bss_end+0x1a4a554>
    153c:	03660c03 	cmneq	r6, #768	; 0x300
    1540:	034a7f86 	movteq	r7, #44934	; 0xaf86
    1544:	4f2e00f5 	svcmi	0x002e00f5
    1548:	4a0e032f 	bmi	38220c <__bss_end+0x37ec94>
    154c:	7ef50314 	mrcvc	3, 7, r0, cr5, cr4, {0}
    1550:	018b032e 	orreq	r0, fp, lr, lsr #6
    1554:	7ef5032e 	cdpvc	3, 15, cr0, cr5, cr14, {1}
    1558:	018b0366 	orreq	r0, fp, r6, ror #6
    155c:	7ef5032e 	cdpvc	3, 15, cr0, cr5, cr14, {1}
    1560:	018b032e 	orreq	r0, fp, lr, lsr #6
    1564:	7ef5032e 	cdpvc	3, 15, cr0, cr5, cr14, {1}
    1568:	0191032e 	orrseq	r0, r1, lr, lsr #6
    156c:	0004022e 	andeq	r0, r4, lr, lsr #4
    1570:	018e0101 	orreq	r0, lr, r1, lsl #2
    1574:	00020000 	andeq	r0, r2, r0
    1578:	00000099 	muleq	r0, r9, r0
    157c:	0efb0102 	cdpeq	1, 15, cr0, cr11, cr2, {0}
    1580:	0101000d 	tsteq	r1, sp
    1584:	00000101 	andeq	r0, r0, r1, lsl #2
    1588:	00000100 	andeq	r0, r0, r0, lsl #2
    158c:	63726101 	cmnvs	r2, #1073741824	; 0x40000000
    1590:	72612f68 	rsbvc	r2, r1, #416	; 0x1a0
    1594:	616d2f6d 	cmnvs	sp, sp, ror #30
    1598:	732d6863 	teqvc	sp, #6488064	; 0x630000
    159c:	69786e75 	ldmdbvs	r8!, {r0, r2, r4, r5, r6, r9, sl, fp, sp, lr}^
    15a0:	2f6d702f 	svccs	0x006d702f
    15a4:	6e617473 	mcrvs	4, 3, r7, cr1, cr3, {3}
    15a8:	2f796264 	svccs	0x00796264
    15ac:	69002e2e 	stmdbvs	r0, {r1, r2, r3, r5, r9, sl, fp, sp}
    15b0:	756c636e 	strbvc	r6, [ip, #-878]!	; 0x36e
    15b4:	6c2f6564 	cfstr32vs	mvfx6, [pc], #-400	; 142c <__restore_processor_state+0x128>
    15b8:	78756e69 	ldmdavc	r5!, {r0, r3, r5, r6, r9, sl, fp, sp, lr}^
    15bc:	776f702f 	strbvc	r7, [pc, -pc, lsr #32]!
    15c0:	00007265 	andeq	r7, r0, r5, ror #4
    15c4:	5f6d656d 	svcpl	0x006d656d
    15c8:	2e6b6c63 	cdpcs	12, 6, cr6, cr11, cr3, {3}
    15cc:	00010063 	andeq	r0, r1, r3, rrx
    15d0:	5f6d7000 	svcpl	0x006d7000
    15d4:	65707974 	ldrbvs	r7, [r0, #-2420]!	; 0x974
    15d8:	00682e73 	rsbeq	r2, r8, r3, ror lr
    15dc:	6d000001 	stcvs	0, cr0, [r0, #-4]
    15e0:	635f6d65 	cmpvs	pc, #6464	; 0x1940
    15e4:	2d756d63 	ldclcs	13, cr6, [r5, #-396]!	; 0xfffffe74
    15e8:	386e7573 	stmdacc	lr!, {r0, r1, r4, r5, r6, r8, sl, ip, sp, lr}^
    15ec:	70367769 	eorsvc	r7, r6, r9, ror #14
    15f0:	00682e31 	rsbeq	r2, r8, r1, lsr lr
    15f4:	6d000001 	stcvs	0, cr0, [r0, #-4]
    15f8:	635f6d65 	cmpvs	pc, #6464	; 0x1940
    15fc:	682e6b6c 	stmdavs	lr!, {r2, r3, r5, r6, r8, r9, fp, sp, lr}
    1600:	00000100 	andeq	r0, r0, r0, lsl #2
    1604:	5f707861 	svcpl	0x00707861
    1608:	65706564 	ldrbvs	r6, [r0, #-1380]!	; 0x564
    160c:	682e646e 	stmdavs	lr!, {r1, r2, r3, r5, r6, sl, sp, lr}
    1610:	00000200 	andeq	r0, r0, r0, lsl #4
    1614:	02050000 	andeq	r0, r5, #0
    1618:	00002c3c 	andeq	r2, r0, ip, lsr ip
    161c:	13011503 	movwne	r1, #5379	; 0x1503
    1620:	3048682f 	subcc	r6, r8, pc, lsr #16
    1624:	0332302c 	teqeq	r2, #44	; 0x2c
    1628:	4b144a11 	blmi	513e74 <__bss_end+0x5108fc>
    162c:	134a2403 	movtne	r2, #41987	; 0xa403
    1630:	2b4d2f2d 	blcs	134d2ec <__bss_end+0x1349d74>
    1634:	2e780352 	mrccs	3, 3, r0, cr8, cr2, {2}
    1638:	4d4b2f31 	stclmi	15, cr2, [fp, #-196]	; 0xffffff3c
    163c:	142e1203 	strtne	r1, [lr], #-515	; 0x203
    1640:	2e760352 	mrccs	3, 3, r0, cr6, cr2, {2}
    1644:	2e0d0330 	mcrcs	3, 0, r0, cr13, cr0, {1}
    1648:	362e7303 	strtcc	r7, [lr], -r3, lsl #6
    164c:	034d4b2f 	movteq	r4, #56111	; 0xdb2f
    1650:	4e2f2e0f 	cdpmi	14, 2, cr2, cr15, cr15, {0}
    1654:	7603346a 	strvc	r3, [r3], -sl, ror #8
    1658:	4b2f312e 	blmi	bcdb18 <__bss_end+0xbca5a0>
    165c:	2f308332 	svccs	0x00308332
    1660:	03324b2d 	teqeq	r2, #46080	; 0xb400
    1664:	15034a6c 	strne	r4, [r3, #-2668]	; 0xa6c
    1668:	4a0e032e 	bmi	382328 <__bss_end+0x37edb0>
    166c:	2d302d13 	ldccs	13, cr2, [r0, #-76]!	; 0xffffffb4
    1670:	2f296b31 	svccs	0x00296b31
    1674:	2f2f2d2f 	svccs	0x002f2d2f
    1678:	6610034d 	ldrvs	r0, [r0], -sp, asr #6
    167c:	034b8113 	movteq	r8, #45331	; 0xb113
    1680:	74032e10 	strvc	r2, [r3], #-3600	; 0xe10
    1684:	4c312b2e 	ldcmi	11, cr2, [r1], #-184	; 0xffffff48
    1688:	034f4b6a 	movteq	r4, #64362	; 0xfb6a
    168c:	81134a0f 	tsthi	r3, pc, lsl #20
    1690:	0e032f2e 	cdpeq	15, 0, cr2, cr3, cr14, {1}
    1694:	2e73032e 	cdpcs	3, 7, cr0, cr3, cr14, {1}
    1698:	0330332f 	teqeq	r0, #-1140850688	; 0xbc000000
    169c:	332f2e78 	teqcc	pc, #1920	; 0x780
    16a0:	0e033330 	mcreq	3, 0, r3, cr3, cr0, {1}
    16a4:	2c31014a 	ldfcss	f0, [r1], #-296	; 0xfffffed8
    16a8:	2e2603a0 	cdpcs	3, 2, cr0, cr6, cr0, {5}
    16ac:	032e5d03 	teqeq	lr, #192	; 0xc0
    16b0:	4b4b4a0c 	blmi	12d3ee8 <__bss_end+0x12d0970>
    16b4:	4b4b4b4b 	blmi	12d43e8 <__bss_end+0x12d0e70>
    16b8:	4b4b4b4b 	blmi	12d43ec <__bss_end+0x12d0e74>
    16bc:	2f2d504b 	svccs	0x002d504b
    16c0:	3083302f 	addcc	r3, r3, pc, lsr #32
    16c4:	132e0f03 	teqne	lr, #12
    16c8:	2d4b2f2d 	stclcs	15, cr2, [fp, #-180]	; 0xffffff4c
    16cc:	034a1e03 	movteq	r1, #44547	; 0xae03
    16d0:	4d2f2e63 	stcmi	14, cr2, [pc, #-396]!	; 154c <__restore_processor_state+0x248>
    16d4:	4b4b4b4b 	blmi	12d4408 <__bss_end+0x12d0e90>
    16d8:	4b4b4b4b 	blmi	12d440c <__bss_end+0x12d0e94>
    16dc:	034b4b4b 	movteq	r4, #47947	; 0xbb4b
    16e0:	0f034a0e 	svceq	0x00034a0e
    16e4:	78031a2e 	stmdavc	r3, {r1, r2, r3, r5, r9, fp, ip}
    16e8:	2a4e362e 	bcs	138efa8 <__bss_end+0x138ba30>
    16ec:	2e0f0332 	mcrcs	3, 0, r0, cr15, cr2, {1}
    16f0:	32667603 	rsbcc	r7, r6, #3145728	; 0x300000
    16f4:	2f2f2c2d 	svccs	0x002f2c2d
    16f8:	34322a4b 	ldrtcc	r2, [r2], #-2635	; 0xa4b
    16fc:	022e7a03 	eoreq	r7, lr, #12288	; 0x3000
    1700:	01010004 	tsteq	r1, r4

Disassembly of section .debug_str:

00000000 <.debug_str>:
       0:	7365525f 	cmnvc	r5, #-268435451	; 0xf0000005
       4:	5f656d75 	svcpl	0x00656d75
       8:	656c6966 	strbvs	r6, [ip, #-2406]!	; 0x966
       c:	6165685f 	cmnvs	r5, pc, asr r8
      10:	43560064 	cmpmi	r6, #100	; 0x64
      14:	44415f43 	strbmi	r5, [r1], #-3907	; 0xf43
      18:	49425f43 	stmdbmi	r2, {r0, r1, r6, r8, r9, sl, fp, ip, lr}^
      1c:	44560054 	ldrbmi	r0, [r6], #-84	; 0x54
      20:	50435f44 	subpl	r5, r3, r4, asr #30
      24:	425f4155 	subsmi	r4, pc, #1073741845	; 0x40000015
      28:	56005449 	strpl	r5, [r0], -r9, asr #8
      2c:	4d5f4343 	ldclmi	3, cr4, [pc, #-268]	; ffffff28 <__bss_end+0xffffc9b0>
      30:	495f5841 	ldmdbmi	pc, {r0, r6, fp, ip, lr}^	; <UNPREDICTABLE>
      34:	5845444e 	stmdapl	r5, {r1, r2, r3, r6, sl, lr}^
      38:	43435600 	movtmi	r5, #13824	; 0x3600
      3c:	4152445f 	cmpmi	r2, pc, asr r4
      40:	49425f4d 	stmdbmi	r2, {r0, r2, r3, r6, r8, r9, sl, fp, ip, lr}^
      44:	4e470054 	mcrmi	0, 2, r0, cr7, cr4, {2}
      48:	20432055 	subcs	r2, r3, r5, asr r0
      4c:	2e362e34 	mrccs	14, 1, r2, cr6, cr4, {1}
      50:	30322033 	eorscc	r2, r2, r3, lsr r0
      54:	32303231 	eorscc	r3, r0, #268435459	; 0x10000003
      58:	28203130 	stmdacs	r0!, {r4, r5, r8, ip, sp}
      5c:	72657270 	rsbvc	r7, r5, #7
      60:	61656c65 	cmnvs	r5, r5, ror #24
      64:	00296573 	eoreq	r6, r9, r3, ror r5
      68:	5f434356 	svcpl	0x00434356
      6c:	425f4c50 	subsmi	r4, pc, #20480	; 0x5000
      70:	56005449 	strpl	r5, [r0], -r9, asr #8
      74:	475f4444 	ldrbmi	r4, [pc, -r4, asr #8]
      78:	425f5550 	subsmi	r5, pc, #335544320	; 0x14000000
      7c:	75005449 	strvc	r5, [r0, #-1097]	; 0x449
      80:	6769736e 	strbvs	r7, [r9, -lr, ror #6]!
      84:	2064656e 	rsbcs	r6, r4, lr, ror #10
      88:	72616863 	rsbvc	r6, r1, #6488064	; 0x630000
      8c:	4f476500 	svcmi	0x00476500
      90:	73765f4e 	cmnvc	r6, #312	; 0x138
      94:	4456006e 	ldrbmi	r0, [r6], #-110	; 0x6e
      98:	50435f44 	subpl	r5, r3, r4, asr #30
      9c:	425f4255 	subsmi	r4, pc, #1342177285	; 0x50000005
      a0:	73005449 	movwvc	r5, #1097	; 0x449
      a4:	74726f68 	ldrbtvc	r6, [r2], #-3944	; 0xf68
      a8:	736e7520 	cmnvc	lr, #134217728	; 0x8000000
      ac:	656e6769 	strbvs	r6, [lr, #-1897]!	; 0x769
      b0:	6e692064 	cdpvs	0, 6, cr2, cr9, cr4, {3}
      b4:	65520074 	ldrbvs	r0, [r2, #-116]	; 0x74
      b8:	656d7573 	strbvs	r7, [sp, #-1395]!	; 0x573
      bc:	6e73765f 	mrcvs	6, 3, r7, cr3, cr15, {2}
      c0:	6f682f00 	svcvs	0x00682f00
      c4:	742f656d 	strtvc	r6, [pc], #-1389	; cc <loop2+0xc>
      c8:	742f6d6f 	strtvc	r6, [pc], #-3439	; d0 <loop2+0x10>
      cc:	745f7362 	ldrbvc	r7, [pc], #-866	; d4 <loop2+0x14>
      d0:	656c6261 	strbvs	r6, [ip, #-609]!	; 0x261
      d4:	696c2f74 	stmdbvs	ip!, {r2, r4, r5, r6, r8, r9, sl, fp, sp}^
      d8:	65656863 	strbvs	r6, [r5, #-2147]!	; 0x863
      dc:	6e696c2f 	cdpvs	12, 6, cr6, cr9, cr15, {1}
      e0:	332d7875 	teqcc	sp, #7667712	; 0x750000
      e4:	6300342e 	movwvs	r3, #1070	; 0x42e
      e8:	6b636568 	blvs	18d9690 <__bss_end+0x18d6118>
      ec:	6d75735f 	ldclvs	3, cr7, [r5, #-380]!	; 0xfffffe84
      f0:	62757000 	rsbsvs	r7, r5, #0
      f4:	6165685f 	cmnvs	r5, pc, asr r8
      f8:	69735f64 	ldmdbvs	r3!, {r2, r5, r6, r8, r9, sl, fp, ip, lr}^
      fc:	7200657a 	andvc	r6, r0, #511705088	; 0x1e800000
     100:	6d757365 	ldclvs	3, cr7, [r5, #-404]!	; 0xfffffe6c
     104:	65685f65 	strbvs	r5, [r8, #-3941]!	; 0xf65
     108:	6a006461 	bvs	19294 <__bss_end+0x15d1c>
     10c:	5f706d75 	svcpl	0x00706d75
     110:	74736e69 	ldrbtvc	r6, [r3], #-3689	; 0xe69
     114:	74637572 	strbtvc	r7, [r3], #-1394	; 0x572
     118:	006e6f69 	rsbeq	r6, lr, r9, ror #30
     11c:	5f444456 	svcpl	0x00444456
     120:	53555043 	cmppl	r5, #67	; 0x43
     124:	5449425f 	strbpl	r4, [r9], #-607	; 0x25f
     128:	43435600 	movtmi	r5, #13824	; 0x3600
     12c:	5f4d505f 	svcpl	0x004d505f
     130:	00544942 	subseq	r4, r4, r2, asr #18
     134:	5f444456 	svcpl	0x00444456
     138:	5f555056 	svcpl	0x00555056
     13c:	00544942 	subseq	r4, r4, r2, asr #18
     140:	676e6f6c 	strbvs	r6, [lr, -ip, ror #30]!
     144:	6e6f6c20 	cdpvs	12, 6, cr6, cr15, cr0, {1}
     148:	6e752067 	cdpvs	0, 7, cr2, cr5, cr7, {3}
     14c:	6e676973 	mcrvs	9, 3, r6, cr7, cr3, {3}
     150:	69206465 	stmdbvs	r0!, {r0, r2, r5, r6, sl, sp, lr}
     154:	5600746e 	strpl	r7, [r0], -lr, ror #8
     158:	445f4444 	ldrbmi	r4, [pc], #-1092	; 160 <resume1_c_part+0x84>
     15c:	504d4152 	subpl	r4, sp, r2, asr r1
     160:	425f4c4c 	subsmi	r4, pc, #19456	; 0x4c00
     164:	56005449 	strpl	r5, [r0], -r9, asr #8
     168:	435f4343 	cmpmi	pc, #201326593	; 0xc000001
     16c:	44445650 	strbmi	r5, [r4], #-1616	; 0x650
     170:	5449425f 	strbpl	r4, [r9], #-607	; 0x25f
     174:	6c696600 	stclvs	6, cr6, [r9], #-0
     178:	65685f65 	strbvs	r5, [r8, #-3941]!	; 0xf65
     17c:	765f6461 	ldrbvc	r6, [pc], -r1, ror #8
     180:	56006e73 			; <UNDEFINED> instruction: 0x56006e73
     184:	4c5f4343 	mrrcmi	3, 4, r4, pc, cr3	; <UNPREDICTABLE>
     188:	4e494f44 	cdpmi	15, 4, cr4, cr9, cr4, {2}
     18c:	5449425f 	strbpl	r4, [r9], #-607	; 0x25f
     190:	6e6f6c00 	cdpvs	12, 6, cr6, cr15, cr0, {0}
     194:	6f6c2067 	svcvs	0x006c2067
     198:	6920676e 	stmdbvs	r0!, {r1, r2, r3, r5, r6, r8, r9, sl, sp, lr}
     19c:	5600746e 	strpl	r7, [r0], -lr, ror #8
     1a0:	535f4444 	cmppl	pc, #1140850688	; 0x44000000
     1a4:	425f5359 	subsmi	r5, pc, #1677721601	; 0x64000001
     1a8:	56005449 	strpl	r5, [r0], -r9, asr #8
     1ac:	495f4343 	ldmdbmi	pc, {r0, r1, r6, r8, r9, lr}^	; <UNPREDICTABLE>
     1b0:	49425f4f 	stmdbmi	r2, {r0, r1, r2, r3, r6, r8, r9, sl, fp, ip, lr}^
     1b4:	68730054 	ldmdavs	r3!, {r2, r4, r6}^
     1b8:	2074726f 	rsbscs	r7, r4, pc, ror #4
     1bc:	00746e69 	rsbseq	r6, r4, r9, ror #28
     1c0:	75736572 	ldrbvc	r6, [r3, #-1394]!	; 0x572
     1c4:	665f656d 	ldrbvs	r6, [pc], -sp, ror #10
     1c8:	5f656c69 	svcpl	0x00656c69
     1cc:	64616568 	strbtvs	r6, [r1], #-1384	; 0x568
     1d0:	6100745f 	tstvs	r0, pc, asr r4
     1d4:	2f686372 	svccs	0x00686372
     1d8:	2f6d7261 	svccs	0x006d7261
     1dc:	6863616d 	stmdavs	r3!, {r0, r2, r3, r5, r6, r8, sp, lr}^
     1e0:	6e75732d 	cdpvs	3, 7, cr7, cr5, cr13, {1}
     1e4:	702f6978 	eorvc	r6, pc, r8, ror r9	; <UNPREDICTABLE>
     1e8:	74732f6d 	ldrbtvc	r2, [r3], #-3949	; 0xf6d
     1ec:	62646e61 	rsbvs	r6, r4, #1552	; 0x610
     1f0:	75732f79 	ldrbvc	r2, [r3, #-3961]!	; 0xf79
     1f4:	2f726570 	svccs	0x00726570
     1f8:	75736572 	ldrbvc	r6, [r3, #-1394]!	; 0x572
     1fc:	722f656d 	eorvc	r6, pc, #457179136	; 0x1b400000
     200:	6d757365 	ldclvs	3, cr7, [r5, #-404]!	; 0xfffffe6c
     204:	65685f65 	strbvs	r5, [r8, #-3941]!	; 0xf65
     208:	632e6461 	teqvs	lr, #1627389952	; 0x61000000
     20c:	62757000 	rsbsvs	r7, r5, #0
     210:	6165685f 	cmnvs	r5, pc, asr r8
     214:	73765f64 	cmnvc	r6, #400	; 0x190
     218:	616d006e 	cmnvs	sp, lr, rrx
     21c:	00636967 	rsbeq	r6, r3, r7, ror #18
     220:	676e656c 	strbvs	r6, [lr, -ip, ror #10]!
     224:	70006874 	andvc	r6, r0, r4, ror r8
     228:	6674616c 	ldrbtvs	r6, [r4], -ip, ror #2
     22c:	006d726f 	rsbeq	r7, sp, pc, ror #4
     230:	5f434356 	svcpl	0x00434356
     234:	5f4c4c50 	svcpl	0x004c4c50
     238:	00544942 	subseq	r4, r4, r2, asr #18
     23c:	68637261 	stmdavs	r3!, {r0, r5, r6, r9, ip, sp, lr}^
     240:	6d72612f 	ldfvse	f6, [r2, #-188]!	; 0xffffff44
     244:	63616d2f 	cmnvs	r1, #3008	; 0xbc0
     248:	75732d68 	ldrbvc	r2, [r3, #-3432]!	; 0xd68
     24c:	2f69786e 	svccs	0x0069786e
     250:	732f6d70 	teqvc	pc, #7168	; 0x1c00
     254:	646e6174 	strbtvs	r6, [lr], #-372	; 0x174
     258:	732f7962 	teqvc	pc, #1605632	; 0x188000
     25c:	72657075 	rsbvc	r7, r5, #117	; 0x75
     260:	6d6f632f 	stclvs	3, cr6, [pc, #-188]!	; 1ac <resume1_c_part+0xd0>
     264:	2e6e6f6d 	cdpcs	15, 6, cr6, cr14, cr13, {3}
     268:	6d740063 	ldclvs	0, cr0, [r4, #-396]!	; 0xfffffe74
     26c:	73645f70 	cmnvc	r4, #448	; 0x1c0
     270:	6d740074 	ldclvs	0, cr0, [r4, #-464]!	; 0xfffffe30
     274:	72735f70 	rsbsvc	r5, r3, #448	; 0x1c0
     278:	656d0063 	strbvs	r0, [sp, #-99]!	; 0x63
     27c:	656d5f6d 	strbvs	r5, [sp, #-3949]!	; 0xf6d
     280:	7970636d 	ldmdbvc	r0!, {r0, r2, r3, r5, r6, r8, r9, sp, lr}^
     284:	63726100 	cmnvs	r2, #0
     288:	72612f68 	rsbvc	r2, r1, #416	; 0x1a0
     28c:	616d2f6d 	cmnvs	sp, sp, ror #30
     290:	732d6863 	teqvc	sp, #6488064	; 0x630000
     294:	69786e75 	ldmdbvs	r8!, {r0, r2, r4, r5, r6, r9, sl, fp, sp, lr}^
     298:	2f6d702f 	svccs	0x006d702f
     29c:	6e617473 	mcrvs	4, 3, r7, cr1, cr3, {3}
     2a0:	2f796264 	svccs	0x00796264
     2a4:	65707573 	ldrbvs	r7, [r0, #-1395]!	; 0x573
     2a8:	75732f72 	ldrbvc	r2, [r3, #-3954]!	; 0xf72
     2ac:	5f726570 	svcpl	0x00726570
     2b0:	2e697774 	mcrcs	7, 3, r7, cr9, cr4, {3}
     2b4:	72610063 	rsbvc	r0, r1, #99	; 0x63
     2b8:	612f6863 	teqvs	pc, r3, ror #16
     2bc:	6d2f6d72 	stcvs	13, cr6, [pc, #-456]!	; fc <resume1_c_part+0x20>
     2c0:	2d686361 	stclcs	3, cr6, [r8, #-388]!	; 0xfffffe7c
     2c4:	786e7573 	stmdavc	lr!, {r0, r1, r4, r5, r6, r8, sl, ip, sp, lr}^
     2c8:	6d702f69 	ldclvs	15, cr2, [r0, #-420]!	; 0xfffffe5c
     2cc:	6174732f 	cmnvs	r4, pc, lsr #6
     2d0:	7962646e 	stmdbvc	r2!, {r1, r2, r3, r5, r6, sl, sp, lr}^
     2d4:	7075732f 	rsbsvc	r7, r5, pc, lsr #6
     2d8:	732f7265 	teqvc	pc, #1342177286	; 0x50000006
     2dc:	72657075 	rsbvc	r7, r5, #117	; 0x75
     2e0:	6f6c635f 	svcvs	0x006c635f
     2e4:	632e6b63 	teqvs	lr, #101376	; 0x18c00
     2e8:	63726100 	cmnvs	r2, #0
     2ec:	72612f68 	rsbvc	r2, r1, #416	; 0x1a0
     2f0:	616d2f6d 	cmnvs	sp, sp, ror #30
     2f4:	732d6863 	teqvc	sp, #6488064	; 0x630000
     2f8:	69786e75 	ldmdbvs	r8!, {r0, r2, r4, r5, r6, r9, sl, fp, sp, lr}^
     2fc:	2f6d702f 	svccs	0x006d702f
     300:	6e617473 	mcrvs	4, 3, r7, cr1, cr3, {3}
     304:	2f796264 	svccs	0x00796264
     308:	65707573 	ldrbvs	r7, [r0, #-1395]!	; 0x573
     30c:	75732f72 	ldrbvc	r2, [r3, #-3954]!	; 0xf72
     310:	5f726570 	svcpl	0x00726570
     314:	65776f70 	ldrbvs	r6, [r7, #-3952]!	; 0xf70
     318:	00632e72 	rsbeq	r2, r3, r2, ror lr
     31c:	68637261 	stmdavs	r3!, {r0, r5, r6, r9, ip, sp, lr}^
     320:	6d72612f 	ldfvse	f6, [r2, #-188]!	; 0xffffff44
     324:	63616d2f 	cmnvs	r1, #3008	; 0xbc0
     328:	75732d68 	ldrbvc	r2, [r3, #-3432]!	; 0xd68
     32c:	2f69786e 	svccs	0x0069786e
     330:	732f6d70 	teqvc	pc, #7168	; 0x1c00
     334:	646e6174 	strbtvs	r6, [lr], #-372	; 0x174
     338:	732f7962 	teqvc	pc, #1605632	; 0x188000
     33c:	72657075 	rsbvc	r7, r5, #117	; 0x75
     340:	7075732f 	rsbsvc	r7, r5, pc, lsr #6
     344:	635f7265 	cmpvs	pc, #1342177286	; 0x50000006
     348:	2e737570 	mrccs	5, 3, r7, cr3, cr0, {3}
     34c:	5f5f0063 	svcpl	0x005f0063
     350:	554d4343 	strbpl	r4, [sp, #-835]	; 0x343
     354:	4248415f 	submi	r4, r8, #-1073741801	; 0xc0000017
     358:	41525f31 	cmpmi	r2, r1, lsr pc
     35c:	5f4f4954 	svcpl	0x004f4954
     360:	30474552 	subcc	r4, r7, r2, asr r5
     364:	00343530 	eorseq	r3, r4, r0, lsr r5
     368:	65736572 	ldrbvs	r6, [r3, #-1394]!	; 0x572
     36c:	64657672 	strbtvs	r7, [r5], #-1650	; 0x672
     370:	31383032 	teqcc	r8, r2, lsr r0
     374:	73657200 	cmnvc	r5, #0
     378:	65767265 	ldrbvs	r7, [r6, #-613]!	; 0x265
     37c:	38303264 	ldmdacc	r0!, {r2, r5, r6, r9, ip, sp}
     380:	70630032 	rsbvc	r0, r3, r2, lsr r0
     384:	725f3175 	subsvc	r3, pc, #1073741853	; 0x4000001d
     388:	74657365 	strbtvc	r7, [r5], #-869	; 0x365
     38c:	62656400 	rsbvs	r6, r5, #0
     390:	6d5f6775 	ldclvs	7, cr6, [pc, #-468]	; 1c4 <resume1_c_part+0xe8>
     394:	006b7361 	rsbeq	r7, fp, r1, ror #6
     398:	65736572 	ldrbvs	r6, [r3, #-1394]!	; 0x572
     39c:	64657672 	strbtvs	r7, [r5], #-1650	; 0x672
     3a0:	00313331 	eorseq	r3, r1, r1, lsr r3
     3a4:	65736572 	ldrbvs	r6, [r3, #-1394]!	; 0x572
     3a8:	64657672 	strbtvs	r7, [r5], #-1650	; 0x672
     3ac:	00323331 	eorseq	r3, r2, r1, lsr r3
     3b0:	65736572 	ldrbvs	r6, [r3, #-1394]!	; 0x572
     3b4:	64657672 	strbtvs	r7, [r5], #-1650	; 0x672
     3b8:	00333331 	eorseq	r3, r3, r1, lsr r3
     3bc:	61767764 	cmnvs	r6, r4, ror #14
     3c0:	6c50006c 	mrrcvs	0, 6, r0, r0, cr12	; <UNPREDICTABLE>
     3c4:	6469566c 	strbtvs	r5, [r9], #-1644	; 0x66c
     3c8:	42306f65 	eorsmi	r6, r0, #404	; 0x194
     3cc:	00736169 	rsbseq	r6, r3, r9, ror #2
     3d0:	54726943 	ldrbtpl	r6, [r2], #-2371	; 0x943
     3d4:	61730078 	cmnvs	r3, r8, ror r0
     3d8:	5f646576 	svcpl	0x00646576
     3dc:	746e7572 	strbtvc	r7, [lr], #-1394	; 0x572
     3e0:	5f656d69 	svcpl	0x00656d69
     3e4:	746e6f63 	strbtvc	r6, [lr], #-3939	; 0xf63
     3e8:	5f747865 	svcpl	0x00747865
     3ec:	00637673 	rsbeq	r7, r3, r3, ror r6
     3f0:	3064634c 	rsbcc	r6, r4, ip, asr #6
     3f4:	00306843 	eorseq	r6, r0, r3, asr #16
     3f8:	3064634c 	rsbcc	r6, r4, ip, asr #6
     3fc:	00316843 	eorseq	r6, r1, r3, asr #16
     400:	65736572 	ldrbvs	r6, [r3, #-1394]!	; 0x572
     404:	64657672 	strbtvs	r7, [r5], #-1650	; 0x672
     408:	00323139 	eorseq	r3, r2, r9, lsr r1
     40c:	5f697861 	svcpl	0x00697861
     410:	00766964 	rsbseq	r6, r6, r4, ror #18
     414:	366c6c50 			; <UNDEFINED> instruction: 0x366c6c50
     418:	006c7443 	rsbeq	r7, ip, r3, asr #8
     41c:	65736572 	ldrbvs	r6, [r3, #-1394]!	; 0x572
     420:	64657672 	strbtvs	r7, [r5], #-1650	; 0x672
     424:	00323431 	eorseq	r3, r2, r1, lsr r4
     428:	65736572 	ldrbvs	r6, [r3, #-1394]!	; 0x572
     42c:	64657672 	strbtvs	r7, [r5], #-1650	; 0x672
     430:	00333431 	eorseq	r3, r3, r1, lsr r4
     434:	65766173 	ldrbvs	r6, [r6, #-371]!	; 0x173
     438:	6d6d5f64 	stclvs	15, cr5, [sp, #-400]!	; 0xfffffe70
     43c:	74735f75 	ldrbtvc	r5, [r3], #-3957	; 0xf75
     440:	00657461 	rsbeq	r7, r5, r1, ror #8
     444:	30733249 	rsbscc	r3, r3, r9, asr #4
     448:	73324900 	teqvc	r2, #0
     44c:	32490031 	subcc	r0, r9, #49	; 0x31
     450:	50003273 	andpl	r3, r0, r3, ror r2
     454:	30316c6c 	eorscc	r6, r1, ip, ror #24
     458:	006c7443 	rsbeq	r7, ip, r3, asr #8
     45c:	346c6c50 	strbtcc	r6, [ip], #-3152	; 0xc50
     460:	006c7443 	rsbeq	r7, ip, r3, asr #8
     464:	535f4d50 	cmppl	pc, #5120	; 0x1400
     468:	444e4154 	strbmi	r4, [lr], #-340	; 0x154
     46c:	455f5942 	ldrbmi	r5, [pc, #-2370]	; fffffb32 <__bss_end+0xffffc5ba>
     470:	4c42414e 	stfmie	f4, [r2], {78}	; 0x4e
     474:	544a5f45 	strbpl	r5, [sl], #-3909	; 0xf45
     478:	5f004741 	svcpl	0x00004741
     47c:	6d63635f 	stclvs	3, cr6, [r3, #-380]!	; 0xfffffe84
     480:	79735f75 	ldmdbvc	r3!, {r0, r2, r4, r5, r6, r8, r9, sl, fp, ip, lr}^
     484:	6b6c6373 	blvs	1b19258 <__bss_end+0x1b15ce0>
     488:	7461725f 	strbtvc	r7, [r1], #-607	; 0x25f
     48c:	725f6f69 	subsvc	r6, pc, #420	; 0x1a4
     490:	30306765 	eorscc	r6, r0, r5, ror #14
     494:	745f3035 	ldrbvc	r3, [pc], #-53	; 49c <save_mem_status+0x2c>
     498:	6c6c5000 	stclvs	0, cr5, [ip], #-0
     49c:	69647541 	stmdbvs	r4!, {r0, r6, r8, sl, ip, sp, lr}^
     4a0:	6169426f 	cmnvs	r9, pc, ror #4
     4a4:	70630073 	rsbvc	r0, r3, r3, ror r0
     4a8:	725f3375 	subsvc	r3, pc, #-738197503	; 0xd4000001
     4ac:	74657365 	strbtvc	r7, [r5], #-869	; 0x365
     4b0:	6c6c5000 	stclvs	0, cr5, [ip], #-0
     4b4:	5f31435f 	svcpl	0x0031435f
     4b8:	73616942 	cmnvc	r1, #1081344	; 0x108000
     4bc:	73657200 	cmnvc	r5, #0
     4c0:	65767265 	ldrbvs	r7, [r6, #-613]!	; 0x265
     4c4:	33353164 	teqcc	r5, #25
     4c8:	73657200 	cmnvc	r5, #0
     4cc:	65767265 	ldrbvs	r7, [r6, #-613]!	; 0x265
     4d0:	34353164 	ldrtcc	r3, [r5], #-356	; 0x164
     4d4:	625f5f00 	subsvs	r5, pc, #0
     4d8:	655f7373 	ldrbvs	r7, [pc, #-883]	; 16d <resume1_c_part+0x91>
     4dc:	7200646e 	andvc	r6, r0, #1845493760	; 0x6e000000
     4e0:	72657365 	rsbvc	r7, r5, #-1811939327	; 0x94000001
     4e4:	31646576 	smccc	18006	; 0x4656
     4e8:	00313133 	eorseq	r3, r1, r3, lsr r1
     4ec:	486c6c50 	stmdami	ip!, {r4, r6, sl, fp, sp, lr}^
     4f0:	42636973 	rsbmi	r6, r3, #1884160	; 0x1cc000
     4f4:	00736169 	rsbseq	r6, r3, r9, ror #2
     4f8:	436d6454 	cmnmi	sp, #1409286144	; 0x54000000
     4fc:	50006b6c 	andpl	r6, r0, ip, ror #22
     500:	54316c6c 	ldrtpl	r6, [r1], #-3180	; 0xc6c
     504:	4d006e75 	stcmi	14, cr6, [r0, #-468]	; 0xfffffe2c
     508:	30737542 	rsbscc	r7, r3, r2, asr #10
     50c:	5f4d5000 	svcpl	0x004d5000
     510:	4e415453 	mcrmi	4, 2, r5, cr1, cr3, {2}
     514:	5f594244 	svcpl	0x00594244
     518:	4e495250 	mcrmi	2, 2, r5, cr9, cr0, {2}
     51c:	43435f54 	movtmi	r5, #16212	; 0x3f54
     520:	54535f55 	ldrbpl	r5, [r3], #-3925	; 0xf55
     524:	53555441 	cmppl	r5, #1090519040	; 0x41000000
     528:	5f4d5000 	svcpl	0x004d5000
     52c:	4e415453 	mcrmi	4, 2, r5, cr1, cr3, {2}
     530:	5f594244 	svcpl	0x00594244
     534:	4e495250 	mcrmi	2, 2, r5, cr9, cr0, {2}
     538:	4f505f54 	svcmi	0x00505f54
     53c:	50005452 	andpl	r5, r0, r2, asr r4
     540:	54535f4d 	ldrbpl	r5, [r3], #-3917	; 0xf4d
     544:	42444e41 	submi	r4, r4, #1040	; 0x410
     548:	52505f59 	subspl	r5, r0, #356	; 0x164
     54c:	5f544e49 	svcpl	0x00544e49
     550:	55534552 	ldrbpl	r4, [r3, #-1362]	; 0x552
     554:	495f454d 	ldmdbmi	pc, {r0, r2, r3, r6, r8, sl, lr}^	; <UNPREDICTABLE>
     558:	54535f4f 	ldrbpl	r5, [r3], #-3919	; 0xf4f
     55c:	53555441 	cmppl	r5, #1090519040	; 0x41000000
     560:	73657200 	cmnvc	r5, #0
     564:	65767265 	ldrbvs	r7, [r6, #-613]!	; 0x265
     568:	34303264 	ldrtcc	r3, [r0], #-612	; 0x264
     56c:	61460033 	cmpvs	r6, r3, lsr r0
     570:	726f7463 	rsbvc	r7, pc, #1660944384	; 0x63000000
     574:	6146004b 	cmpvs	r6, fp, asr #32
     578:	726f7463 	rsbvc	r7, pc, #1660944384	; 0x63000000
     57c:	6146004d 	cmpvs	r6, sp, asr #32
     580:	726f7463 	rsbvc	r7, pc, #1660944384	; 0x63000000
     584:	7041004e 	subvc	r0, r1, lr, asr #32
     588:	69443262 	stmdbvs	r4, {r1, r5, r6, r9, ip, sp}^
     58c:	61460076 	hvcvs	24582	; 0x6006
     590:	726f7463 	rsbvc	r7, pc, #1660944384	; 0x63000000
     594:	65720050 	ldrbvs	r0, [r2, #-80]!	; 0x50
     598:	76726573 			; <UNDEFINED> instruction: 0x76726573
     59c:	30326465 	eorscc	r6, r2, r5, ror #8
     5a0:	65720032 	ldrbvs	r0, [r2, #-50]!	; 0x32
     5a4:	76726573 			; <UNDEFINED> instruction: 0x76726573
     5a8:	30326465 	eorscc	r6, r2, r5, ror #8
     5ac:	65720033 	ldrbvs	r0, [r2, #-51]!	; 0x33
     5b0:	76726573 			; <UNDEFINED> instruction: 0x76726573
     5b4:	30326465 	eorscc	r6, r2, r5, ror #8
     5b8:	65720034 	ldrbvs	r0, [r2, #-52]!	; 0x34
     5bc:	76726573 			; <UNDEFINED> instruction: 0x76726573
     5c0:	30326465 	eorscc	r6, r2, r5, ror #8
     5c4:	6e690035 	mcrvs	0, 3, r0, cr9, cr5, {1}
     5c8:	00786564 	rsbseq	r6, r8, r4, ror #10
     5cc:	65736572 	ldrbvs	r6, [r3, #-1394]!	; 0x572
     5d0:	64657672 	strbtvs	r7, [r5], #-1650	; 0x672
     5d4:	00383032 	eorseq	r3, r8, r2, lsr r0
     5d8:	476c6c50 			; <UNDEFINED> instruction: 0x476c6c50
     5dc:	69427570 	stmdbvs	r2, {r4, r5, r6, r8, sl, ip, sp, lr}^
     5e0:	73007361 	movwvc	r7, #865	; 0x361
     5e4:	65707375 	ldrbvs	r7, [r0, #-885]!	; 0x375
     5e8:	645f646e 	ldrbvs	r6, [pc], #-1134	; 5f0 <save_mem_status_nommu+0x20>
     5ec:	79616c65 	stmdbvc	r1!, {r0, r2, r5, r6, sl, fp, sp, lr}^
     5f0:	00736d5f 	rsbseq	r6, r3, pc, asr sp
     5f4:	6c433143 	stfvse	f3, [r3], {67}	; 0x43
     5f8:	6372536b 	cmnvs	r2, #-1409286143	; 0xac000001
     5fc:	75704700 	ldrbvc	r4, [r0, #-1792]!	; 0x700
     600:	006d654d 	rsbeq	r6, sp, sp, asr #10
     604:	5f6b6c63 	svcpl	0x006b6c63
     608:	00766964 	rsbseq	r6, r6, r4, ror #18
     60c:	4d766944 	ldclmi	9, cr6, [r6, #-272]!	; 0xfffffef0
     610:	76694400 	strbtvc	r4, [r9], -r0, lsl #8
     614:	7041004e 	subvc	r0, r1, lr, asr #32
     618:	65523262 	ldrbvs	r3, [r2, #-610]	; 0x262
     61c:	00746573 	rsbseq	r6, r4, r3, ror r5
     620:	5f626861 	svcpl	0x00626861
     624:	5f627061 	svcpl	0x00627061
     628:	00766964 	rsbseq	r6, r6, r4, ror #18
     62c:	535f4d50 	cmppl	pc, #5120	; 0x1400
     630:	444e4154 	strbmi	r4, [lr], #-340	; 0x154
     634:	505f5942 	subspl	r5, pc, r2, asr #18
     638:	544e4952 	strbpl	r4, [lr], #-2386	; 0x952
     63c:	5f4f495f 	svcpl	0x004f495f
     640:	54415453 	strbpl	r5, [r1], #-1107	; 0x453
     644:	72005355 	andvc	r5, r0, #1409286145	; 0x54000001
     648:	72657365 	rsbvc	r7, r5, #-1811939327	; 0x94000001
     64c:	31646576 	smccc	18006	; 0x4656
     650:	72003137 	andvc	r3, r0, #-1073741811	; 0xc000000d
     654:	72657365 	rsbvc	r7, r5, #-1811939327	; 0x94000001
     658:	31646576 	smccc	18006	; 0x4656
     65c:	72003237 	andvc	r3, r0, #1879048195	; 0x70000003
     660:	72657365 	rsbvc	r7, r5, #-1811939327	; 0x94000001
     664:	31646576 	smccc	18006	; 0x4656
     668:	50003337 	andpl	r3, r0, r7, lsr r3
     66c:	6f4c6c6c 	svcvs	0x004c6c6c
     670:	70006b63 	andvc	r6, r0, r3, ror #22
     674:	5f316c6c 	svcpl	0x00316c6c
     678:	006e7574 	rsbeq	r7, lr, r4, ror r5
     67c:	43757047 	cmnmi	r5, #71	; 0x47
     680:	0065726f 	rsbeq	r7, r5, pc, ror #4
     684:	43757043 	cmnmi	r5, #67	; 0x43
     688:	72536b6c 	subsvc	r6, r3, #110592	; 0x1b000
     68c:	726e0063 	rsbvc	r0, lr, #99	; 0x63
     690:	5f007272 	svcpl	0x00007272
     694:	7373625f 	cmnvc	r3, #-268435451	; 0xf0000005
     698:	6174735f 	cmnvs	r4, pc, asr r3
     69c:	64007472 	strvs	r7, [r0], #-1138	; 0x472
     6a0:	00726361 	rsbseq	r6, r2, r1, ror #6
     6a4:	446c6c50 	strbtmi	r6, [ip], #-3152	; 0xc50
     6a8:	69427264 	stmdbvs	r2, {r2, r5, r6, r9, ip, sp, lr}^
     6ac:	52007361 	andpl	r7, r0, #-2080374783	; 0x84000001
     6b0:	72657365 	rsbvc	r7, r5, #-1811939327	; 0x94000001
     6b4:	32646576 	rsbcc	r6, r4, #494927872	; 0x1d800000
     6b8:	00313230 	eorseq	r3, r1, r0, lsr r2
     6bc:	65736572 	ldrbvs	r6, [r3, #-1394]!	; 0x572
     6c0:	64657672 	strbtvs	r7, [r5], #-1650	; 0x672
     6c4:	00313831 	eorseq	r3, r1, r1, lsr r8
     6c8:	65736572 	ldrbvs	r6, [r3, #-1394]!	; 0x572
     6cc:	64657672 	strbtvs	r7, [r5], #-1650	; 0x672
     6d0:	00323831 	eorseq	r3, r2, r1, lsr r8
     6d4:	68637261 	stmdavs	r3!, {r0, r5, r6, r9, ip, sp, lr}^
     6d8:	6d72612f 	ldfvse	f6, [r2, #-188]!	; 0xffffff44
     6dc:	63616d2f 	cmnvs	r1, #3008	; 0xbc0
     6e0:	75732d68 	ldrbvc	r2, [r3, #-3432]!	; 0xd68
     6e4:	2f69786e 	svccs	0x0069786e
     6e8:	732f6d70 	teqvc	pc, #7168	; 0x1c00
     6ec:	646e6174 	strbtvs	r6, [lr], #-372	; 0x174
     6f0:	732f7962 	teqvc	pc, #1605632	; 0x188000
     6f4:	72657075 	rsbvc	r7, r5, #117	; 0x75
     6f8:	7365722f 	cmnvc	r5, #-268435454	; 0xf0000002
     6fc:	2f656d75 	svccs	0x00656d75
     700:	75736572 	ldrbvc	r6, [r3, #-1394]!	; 0x572
     704:	5f31656d 	svcpl	0x0031656d
     708:	61705f63 	cmnvs	r0, r3, ror #30
     70c:	632e7472 	teqvs	lr, #1912602624	; 0x72000000
     710:	62684100 	rsbvs	r4, r8, #0
     714:	65746147 	ldrbvs	r6, [r4, #-327]!	; 0x147
     718:	4d500031 	ldclmi	0, cr0, [r0, #-196]	; 0xffffff3c
     71c:	4154535f 	cmpmi	r4, pc, asr r3
     720:	5942444e 	stmdbpl	r2, {r1, r2, r3, r6, sl, lr}^
     724:	4952505f 	ldmdbmi	r2, {r0, r1, r2, r3, r4, r6, ip, lr}^
     728:	475f544e 	ldrbmi	r5, [pc, -lr, asr #8]
     72c:	53554254 	cmppl	r5, #1073741829	; 0x40000005
     730:	4745525f 	smlsldmi	r5, r5, pc, r2	; <UNPREDICTABLE>
     734:	5f4d5000 	svcpl	0x004d5000
     738:	4e415453 	mcrmi	4, 2, r5, cr1, cr3, {2}
     73c:	5f594244 	svcpl	0x00594244
     740:	4e495250 	mcrmi	2, 2, r5, cr9, cr0, {2}
     744:	54535f54 	ldrbpl	r5, [r3], #-3924	; 0xf54
     748:	42444e41 	submi	r4, r4, #1040	; 0x410
     74c:	6f4c0059 	svcvs	0x004c0059
     750:	69746b63 	ldmdbvs	r4!, {r0, r1, r5, r6, r8, r9, fp, sp, lr}^
     754:	5000656d 	andpl	r6, r0, sp, ror #10
     758:	43316c6c 	teqmi	r1, #27648	; 0x6c00
     75c:	72006c74 	andvc	r6, r0, #29696	; 0x7400
     760:	72657365 	rsbvc	r7, r5, #-1811939327	; 0x94000001
     764:	31646576 	smccc	18006	; 0x4656
     768:	50003232 	andpl	r3, r0, r2, lsr r2
     76c:	31436c6c 	cmpcc	r3, ip, ror #24
     770:	006c7443 	rsbeq	r7, ip, r3, asr #8
     774:	65736572 	ldrbvs	r6, [r3, #-1394]!	; 0x572
     778:	64657672 	strbtvs	r7, [r5], #-1650	; 0x672
     77c:	00313931 	eorseq	r3, r1, r1, lsr r9
     780:	386c6c50 	stmdacc	ip!, {r4, r6, sl, fp, sp, lr}^
     784:	006c7443 	rsbeq	r7, ip, r3, asr #8
     788:	43435f5f 	movtmi	r5, #16223	; 0x3f5f
     78c:	505f554d 	subspl	r5, pc, sp, asr #10
     790:	4f4c4c4c 	svcmi	0x004c4c4c
     794:	525f4b43 	subspl	r4, pc, #68608	; 0x10c00
     798:	32304745 	eorscc	r4, r0, #18087936	; 0x1140000
     79c:	72003030 	andvc	r3, r0, #48	; 0x30
     7a0:	72657365 	rsbvc	r7, r5, #-1811939327	; 0x94000001
     7a4:	31646576 	smccc	18006	; 0x4656
     7a8:	63640032 	cmnvs	r4, #50	; 0x32
     7ac:	00326364 	eorseq	r6, r2, r4, ror #6
     7b0:	65736572 	ldrbvs	r6, [r3, #-1394]!	; 0x572
     7b4:	64657672 	strbtvs	r7, [r5], #-1650	; 0x672
     7b8:	72003431 	andvc	r3, r0, #822083584	; 0x31000000
     7bc:	72657365 	rsbvc	r7, r5, #-1811939327	; 0x94000001
     7c0:	31646576 	smccc	18006	; 0x4656
     7c4:	65720035 	ldrbvs	r0, [r2, #-53]!	; 0x35
     7c8:	76726573 			; <UNDEFINED> instruction: 0x76726573
     7cc:	36316465 	ldrtcc	r6, [r1], -r5, ror #8
     7d0:	73657200 	cmnvc	r5, #0
     7d4:	65767265 	ldrbvs	r7, [r6, #-613]!	; 0x265
     7d8:	00373164 	eorseq	r3, r7, r4, ror #2
     7dc:	65736572 	ldrbvs	r6, [r3, #-1394]!	; 0x572
     7e0:	64657672 	strbtvs	r7, [r5], #-1650	; 0x672
     7e4:	63003831 	movwvs	r3, #2097	; 0x831
     7e8:	6d5f6b6c 	vldrvs	d22, [pc, #-432]	; 640 <save_mem_status_nommu+0x70>
     7ec:	00637369 	rsbeq	r7, r3, r9, ror #6
     7f0:	31626841 	cmncc	r2, r1, asr #16
     7f4:	44657250 	strbtmi	r7, [r5], #-592	; 0x250
     7f8:	64007669 	strvs	r7, [r0], #-1641	; 0x669
     7fc:	33636463 	cmncc	r3, #1660944384	; 0x63000000
     800:	62747400 	rsbsvs	r7, r4, #0
     804:	5f007263 	svcpl	0x00007263
     808:	3233755f 	eorscc	r7, r3, #398458880	; 0x17c00000
     80c:	49584100 	ldmdbmi	r8, {r8, lr}^
     810:	6b6c4331 	blvs	1b114dc <__bss_end+0x1b0df64>
     814:	00766944 	rsbseq	r6, r6, r4, asr #18
     818:	75736572 	ldrbvc	r6, [r3, #-1394]!	; 0x572
     81c:	5f31656d 	svcpl	0x0031656d
     820:	61705f63 	cmnvs	r0, r3, ror #30
     824:	50007472 	andpl	r7, r0, r2, ror r4
     828:	42786c6c 	rsbsmi	r6, r8, #27648	; 0x6c00
     82c:	00736169 	rsbseq	r6, r3, r9, ror #2
     830:	73746962 	cmnvc	r4, #1605632	; 0x188000
     834:	73657200 	cmnvc	r5, #0
     838:	65767265 	ldrbvs	r7, [r6, #-613]!	; 0x265
     83c:	00313264 	eorseq	r3, r1, r4, ror #4
     840:	65736572 	ldrbvs	r6, [r3, #-1394]!	; 0x572
     844:	64657672 	strbtvs	r7, [r5], #-1650	; 0x672
     848:	50003232 	andpl	r3, r0, r2, lsr r2
     84c:	65566c6c 	ldrbvs	r6, [r6, #-3180]	; 0xc6c
     850:	73616942 	cmnvc	r1, #1081344	; 0x108000
     854:	6c6c7000 	stclvs	0, cr7, [ip], #-0
     858:	6361665f 	cmnvs	r1, #99614720	; 0x5f00000
     85c:	5f726f74 	svcpl	0x00726f74
     860:	65720074 	ldrbvs	r0, [r2, #-116]!	; 0x74
     864:	76726573 			; <UNDEFINED> instruction: 0x76726573
     868:	31316465 	teqcc	r1, r5, ror #8
     86c:	6d644800 	stclvs	8, cr4, [r4, #-0]
     870:	6b6c4369 	blvs	1b1161c <__bss_end+0x1b0e0a4>
     874:	73657200 	cmnvc	r5, #0
     878:	5f656d75 	svcpl	0x00656d75
     87c:	6e696f70 	mcrvs	15, 3, r6, cr9, cr0, {3}
     880:	00726574 	rsbseq	r6, r2, r4, ror r5
     884:	31626841 	cmncc	r2, r1, asr #16
     888:	00766944 	rsbseq	r6, r6, r4, asr #18
     88c:	65736572 	ldrbvs	r6, [r3, #-1394]!	; 0x572
     890:	64657672 	strbtvs	r7, [r5], #-1650	; 0x672
     894:	50003931 	andpl	r3, r0, r1, lsr r9
     898:	69566c6c 	ldmdbvs	r6, {r2, r3, r5, r6, sl, fp, sp, lr}^
     89c:	306f6564 	rsbcc	r6, pc, r4, ror #10
     8a0:	30676552 	rsbcc	r6, r7, r2, asr r5
     8a4:	74746150 	ldrbtvc	r6, [r4], #-336	; 0x150
     8a8:	006e7265 	rsbeq	r7, lr, r5, ror #4
     8ac:	336c6c50 	cmncc	ip, #20480	; 0x5000
     8b0:	006c7443 	rsbeq	r7, ip, r3, asr #8
     8b4:	43737953 	cmnmi	r3, #1359872	; 0x14c000
     8b8:	69446b6c 	stmdbvs	r4, {r2, r3, r5, r6, r8, r9, fp, sp, lr}^
     8bc:	5f5f0076 	svcpl	0x005f0076
     8c0:	756d6363 	strbvc	r6, [sp, #-867]!	; 0x363
     8c4:	6270615f 	rsbsvs	r6, r0, #-1073741801	; 0xc0000017
     8c8:	61725f32 	cmnvs	r2, r2, lsr pc
     8cc:	5f6f6974 	svcpl	0x006f6974
     8d0:	30676572 	rsbcc	r6, r7, r2, ror r5
     8d4:	5f383530 	svcpl	0x00383530
     8d8:	70470074 	subvc	r0, r7, r4, ror r0
     8dc:	64794875 	ldrbtvs	r4, [r9], #-2165	; 0x875
     8e0:	75706300 	ldrbvc	r6, [r0, #-768]!	; 0x300
     8e4:	0064695f 	rsbeq	r6, r4, pc, asr r9
     8e8:	52626841 	rsbpl	r6, r2, #4259840	; 0x410000
     8ec:	74657365 	strbtvc	r7, [r5], #-869	; 0x365
     8f0:	68410030 	stmdavs	r1, {r4, r5}^
     8f4:	73655262 	cmnvc	r5, #536870918	; 0x20000006
     8f8:	00317465 	eorseq	r7, r1, r5, ror #8
     8fc:	52626841 	rsbpl	r6, r2, #4259840	; 0x410000
     900:	74657365 	strbtvc	r7, [r5], #-869	; 0x365
     904:	65720032 	ldrbvs	r0, [r2, #-50]!	; 0x32
     908:	76726573 			; <UNDEFINED> instruction: 0x76726573
     90c:	30326465 	eorscc	r6, r2, r5, ror #8
     910:	00363136 	eorseq	r3, r6, r6, lsr r1
     914:	32757063 	rsbscc	r7, r5, #99	; 0x63
     918:	7365725f 	cmnvc	r5, #-268435451	; 0xf0000005
     91c:	53007465 	movwpl	r7, #1125	; 0x465
     920:	66696470 			; <UNDEFINED> instruction: 0x66696470
     924:	006b6c43 	rsbeq	r6, fp, r3, asr #24
     928:	32627041 	rsbcc	r7, r2, #65	; 0x41
     92c:	65746147 	ldrbvs	r6, [r4, #-327]!	; 0x147
     930:	6c6c5000 	stclvs	0, cr5, [ip], #-0
     934:	69647541 	stmdbvs	r4!, {r0, r6, r8, sl, ip, sp, lr}^
     938:	6765526f 	strbvs	r5, [r5, -pc, ror #4]!
     93c:	74615031 	strbtvc	r5, [r1], #-49	; 0x31
     940:	6e726574 	mrcvs	5, 3, r6, cr2, cr4, {3}
     944:	6c6c5000 	stclvs	0, cr5, [ip], #-0
     948:	636f4c31 	cmnvs	pc, #12544	; 0x3100
     94c:	6572006b 	ldrbvs	r0, [r2, #-107]!	; 0x6b
     950:	76726573 			; <UNDEFINED> instruction: 0x76726573
     954:	30326465 	eorscc	r6, r2, r5, ror #8
     958:	61003137 	tstvs	r0, r7, lsr r1
     95c:	655f7078 	ldrbvs	r7, [pc, #-120]	; 8ec <save_mmu_state+0xc>
     960:	746e6576 	strbtvc	r6, [lr], #-1398	; 0x576
     964:	73657200 	cmnvc	r5, #0
     968:	65767265 	ldrbvs	r7, [r6, #-613]!	; 0x265
     96c:	32343164 	eorscc	r3, r4, #25
     970:	72440031 	subvc	r0, r4, #49	; 0x31
     974:	61476d61 	cmpvs	r7, r1, ror #26
     978:	41006574 	tstmi	r0, r4, ror r5
     97c:	43316268 	teqmi	r1, #-2147483642	; 0x80000006
     980:	72536b6c 	subsvc	r6, r3, #110592	; 0x1b000
     984:	6c500063 	mrrcvs	0, 6, r0, r0, cr3	; <UNPREDICTABLE>
     988:	5431436c 	ldrtpl	r4, [r1], #-876	; 0x36c
     98c:	50006e75 	andpl	r6, r0, r5, ror lr
     990:	65446c6c 	strbvs	r6, [r4, #-3180]	; 0xc6c
     994:	73616942 	cmnvc	r1, #1081344	; 0x108000
     998:	62704100 	rsbsvs	r4, r0, #0
     99c:	76694431 			; <UNDEFINED> instruction: 0x76694431
     9a0:	75624d00 	strbvc	r4, [r2, #-3328]!	; 0xd00
     9a4:	73655273 	cmnvc	r5, #805306375	; 0x30000007
     9a8:	65527465 	ldrbvs	r7, [r2, #-1125]	; 0x465
     9ac:	6c500067 	mrrcvs	0, 6, r0, r0, cr7	; <UNPREDICTABLE>
     9b0:	6475416c 	ldrbtvs	r4, [r5], #-364	; 0x16c
     9b4:	65526f69 	ldrbvs	r6, [r2, #-3945]	; 0xf69
     9b8:	61503067 	cmpvs	r0, r7, rrx
     9bc:	72657474 	rsbvc	r7, r5, #1946157056	; 0x74000000
     9c0:	6c50006e 	mrrcvs	0, 6, r0, r0, cr14	; <UNPREDICTABLE>
     9c4:	6469566c 	strbtvs	r5, [r9], #-1644	; 0x66c
     9c8:	42316f65 	eorsmi	r6, r1, #404	; 0x194
     9cc:	00736169 	rsbseq	r6, r3, r9, ror #2
     9d0:	65736572 	ldrbvs	r6, [r3, #-1394]!	; 0x572
     9d4:	64657672 	strbtvs	r7, [r5], #-1650	; 0x672
     9d8:	72003135 	andvc	r3, r0, #1073741837	; 0x4000000d
     9dc:	72657365 	rsbvc	r7, r5, #-1811939327	; 0x94000001
     9e0:	32646576 	rsbcc	r6, r4, #494927872	; 0x1d800000
     9e4:	00323330 	eorseq	r3, r2, r0, lsr r3
     9e8:	356c6c50 	strbcc	r6, [ip, #-3152]!	; 0xc50
     9ec:	006c7443 	rsbeq	r7, ip, r3, asr #8
     9f0:	5f6b6c63 	svcpl	0x006b6c63
     9f4:	5f766964 	svcpl	0x00766964
     9f8:	4c500074 	mrrcmi	0, 7, r0, r0, cr4	; <UNPREDICTABLE>
     9fc:	006e454c 	rsbeq	r4, lr, ip, asr #10
     a00:	63635f5f 	cmnvs	r3, #380	; 0x17c
     a04:	705f756d 	subsvc	r7, pc, sp, ror #10
     a08:	5f316c6c 	svcpl	0x00316c6c
     a0c:	30676572 	rsbcc	r6, r7, r2, ror r5
     a10:	5f303030 	svcpl	0x00303030
     a14:	68410074 	stmdavs	r1, {r2, r4, r5, r6}^
     a18:	66433262 	strbvs	r3, [r3], -r2, ror #4
     a1c:	694d0067 	stmdbvs	sp, {r0, r1, r2, r5, r6}^
     a20:	73436970 	movtvc	r6, #14704	; 0x3970
     a24:	65730069 	ldrbvs	r0, [r3, #-105]!	; 0x69
     a28:	6c705f74 	ldclvs	15, cr5, [r0], #-464	; 0xfffffe30
     a2c:	7041006c 	subvc	r0, r1, ip, rrx
     a30:	65523162 	ldrbvs	r3, [r2, #-354]	; 0x162
     a34:	00746573 	rsbseq	r6, r4, r3, ror r5
     a38:	65736572 	ldrbvs	r6, [r3, #-1394]!	; 0x572
     a3c:	64657672 	strbtvs	r7, [r5], #-1650	; 0x672
     a40:	65720030 	ldrbvs	r0, [r2, #-48]!	; 0x30
     a44:	76726573 			; <UNDEFINED> instruction: 0x76726573
     a48:	00316465 	eorseq	r6, r1, r5, ror #8
     a4c:	65736572 	ldrbvs	r6, [r3, #-1394]!	; 0x572
     a50:	64657672 	strbtvs	r7, [r5], #-1650	; 0x672
     a54:	65720032 	ldrbvs	r0, [r2, #-50]!	; 0x32
     a58:	76726573 			; <UNDEFINED> instruction: 0x76726573
     a5c:	00336465 	eorseq	r6, r3, r5, ror #8
     a60:	65736572 	ldrbvs	r6, [r3, #-1394]!	; 0x572
     a64:	64657672 	strbtvs	r7, [r5], #-1650	; 0x672
     a68:	65720034 	ldrbvs	r0, [r2, #-52]!	; 0x34
     a6c:	76726573 			; <UNDEFINED> instruction: 0x76726573
     a70:	00356465 	eorseq	r6, r5, r5, ror #8
     a74:	65736572 	ldrbvs	r6, [r3, #-1394]!	; 0x572
     a78:	64657672 	strbtvs	r7, [r5], #-1650	; 0x672
     a7c:	65720036 	ldrbvs	r0, [r2, #-54]!	; 0x36
     a80:	76726573 			; <UNDEFINED> instruction: 0x76726573
     a84:	00376465 	eorseq	r6, r7, r5, ror #8
     a88:	65736572 	ldrbvs	r6, [r3, #-1394]!	; 0x572
     a8c:	64657672 	strbtvs	r7, [r5], #-1650	; 0x672
     a90:	61630039 	cmnvs	r3, r9, lsr r0
     a94:	4d007263 	sfmmi	f7, 4, [r0, #-396]	; 0xfffffe74
     a98:	44697069 	strbtmi	r7, [r9], #-105	; 0x69
     a9c:	65526973 	ldrbvs	r6, [r2, #-2419]	; 0x973
     aa0:	4d003067 	stcmi	0, cr3, [r0, #-412]	; 0xfffffe64
     aa4:	44697069 	strbtmi	r7, [r9], #-105	; 0x69
     aa8:	65526973 	ldrbvs	r6, [r2, #-2419]	; 0x973
     aac:	70003167 	andvc	r3, r0, r7, ror #2
     ab0:	725f7277 	subsvc	r7, pc, #1879048199	; 0x70000007
     ab4:	43006765 	movwmi	r6, #1893	; 0x765
     ab8:	00306973 	eorseq	r6, r0, r3, ror r9
     abc:	5f61766d 	svcpl	0x0061766d
     ac0:	72646461 	rsbvc	r6, r4, #1627389952	; 0x61000000
     ac4:	5f4d5000 	svcpl	0x004d5000
     ac8:	4e415453 	mcrmi	4, 2, r5, cr1, cr3, {2}
     acc:	5f594244 	svcpl	0x00594244
     ad0:	4e495250 	mcrmi	2, 2, r5, cr9, cr0, {2}
     ad4:	43435f54 	movtmi	r5, #16212	; 0x3f54
     ad8:	30303449 	eorscc	r3, r0, r9, asr #8
     adc:	4745525f 	smlsldmi	r5, r5, pc, r2	; <UNPREDICTABLE>
     ae0:	755f5f00 	ldrbvc	r5, [pc, #-3840]	; fffffbe8 <__bss_end+0xffffc670>
     ae4:	74740038 	ldrbtvc	r0, [r4], #-56	; 0x38
     ae8:	72305f62 	eorsvc	r5, r0, #392	; 0x188
     aec:	69705300 	ldmdbvs	r0!, {r8, r9, ip, lr}^
     af0:	70530030 	subsvc	r0, r3, r0, lsr r0
     af4:	41003169 	tstmi	r0, r9, ror #2
     af8:	61476268 	cmpvs	r7, r8, ror #4
     afc:	00306574 	eorseq	r6, r0, r4, ror r5
     b00:	65736572 	ldrbvs	r6, [r3, #-1394]!	; 0x572
     b04:	64657672 	strbtvs	r7, [r5], #-1650	; 0x672
     b08:	43003137 	movwmi	r3, #311	; 0x137
     b0c:	6552756d 	ldrbvs	r7, [r2, #-1389]	; 0x56d
     b10:	5f5f0067 	svcpl	0x005f0067
     b14:	756d6363 	strbvc	r6, [sp, #-867]!	; 0x363
     b18:	6c6c705f 	stclvs	0, cr7, [ip], #-380	; 0xfffffe84
     b1c:	6b636f6c 	blvs	18dc8d4 <__bss_end+0x18d935c>
     b20:	6765725f 			; <UNDEFINED> instruction: 0x6765725f
     b24:	30303230 	eorscc	r3, r0, r0, lsr r2
     b28:	5000745f 	andpl	r7, r0, pc, asr r4
     b2c:	65506c6c 	ldrbvs	r6, [r0, #-3180]	; 0xc6c
     b30:	68706972 	ldmdavs	r0!, {r1, r4, r5, r6, r8, fp, sp, lr}^
     b34:	73616942 	cmnvc	r1, #1081344	; 0x108000
     b38:	5f4d5000 	svcpl	0x004d5000
     b3c:	4e415453 	mcrmi	4, 2, r5, cr1, cr3, {2}
     b40:	5f594244 	svcpl	0x00594244
     b44:	54534554 	ldrbpl	r4, [r3], #-1364	; 0x554
     b48:	6d644800 	stclvs	8, cr4, [r4, #-0]
     b4c:	6f6c5369 	svcvs	0x006c5369
     b50:	6b6c4377 	blvs	1b11934 <__bss_end+0x1b0e3bc>
     b54:	6c6c5000 	stclvs	0, cr5, [ip], #-0
     b58:	50726444 	rsbspl	r6, r2, r4, asr #8
     b5c:	65747461 	ldrbvs	r7, [r4, #-1121]!	; 0x461
     b60:	74006e72 	strvc	r6, [r0], #-3698	; 0xe72
     b64:	7450706d 	ldrbvc	r7, [r0], #-109	; 0x6d
     b68:	656d0072 	strbvs	r0, [sp, #-114]!	; 0x72
     b6c:	61705f6d 	cmnvs	r0, sp, ror #30
     b70:	695f6172 	ldmdbvs	pc, {r1, r4, r5, r6, r8, sp, lr}^	; <UNPREDICTABLE>
     b74:	006f666e 	rsbeq	r6, pc, lr, ror #12
     b78:	63635f5f 	cmnvs	r3, #380	; 0x17c
     b7c:	725f756d 	subsvc	r7, pc, #457179136	; 0x1b400000
     b80:	6c5f6765 	mrrcvs	7, 6, r6, pc, cr5	; <UNPREDICTABLE>
     b84:	5f747369 	svcpl	0x00747369
     b88:	6c630074 	stclvs	0, cr0, [r3], #-464	; 0xfffffe30
     b8c:	696d5f6b 	stmdbvs	sp!, {r0, r1, r3, r5, r6, r8, r9, sl, fp, ip, lr}^
     b90:	745f6373 	ldrbvc	r6, [pc], #-883	; b98 <disable_l2cache+0x14>
     b94:	73797300 	cmnvc	r9, #0
     b98:	6576655f 	ldrbvs	r6, [r6, #-1375]!	; 0x55f
     b9c:	7000746e 	andvc	r7, r0, lr, ror #8
     ba0:	5f366c6c 	svcpl	0x00366c6c
     ba4:	73616962 	cmnvc	r1, #1605632	; 0x188000
     ba8:	6c6c5000 	stclvs	0, cr5, [ip], #-0
     bac:	43316556 	teqmi	r1, #360710144	; 0x15800000
     bb0:	50006c74 	andpl	r6, r0, r4, ror ip
     bb4:	64446c6c 	strbvs	r6, [r4], #-3180	; 0xc6c
     bb8:	67655272 			; <UNDEFINED> instruction: 0x67655272
     bbc:	74615031 	strbtvc	r5, [r1], #-49	; 0x31
     bc0:	6e726574 	mrcvs	5, 3, r6, cr2, cr4, {3}
     bc4:	61724400 	cmnvs	r2, r0, lsl #8
     bc8:	6766436d 	strbvs	r4, [r6, -sp, ror #6]!
     bcc:	635f5f00 	cmpvs	pc, #0
     bd0:	5f756d63 	svcpl	0x00756d63
     bd4:	31626861 	cmncc	r2, r1, ror #16
     bd8:	7461725f 	strbtvc	r7, [r1], #-607	; 0x25f
     bdc:	725f6f69 	subsvc	r6, pc, #420	; 0x1a4
     be0:	30306765 	eorscc	r6, r0, r5, ror #14
     be4:	745f3435 	ldrbvc	r3, [pc], #-1077	; bec <invalidate_branch_predictor+0x10>
     be8:	6c6c7000 	stclvs	0, cr7, [ip], #-0
     bec:	69625f31 	stmdbvs	r2!, {r0, r4, r5, r8, r9, sl, fp, ip, lr}^
     bf0:	74007361 	strvc	r7, [r0], #-865	; 0x361
     bf4:	315f6274 	cmpcc	pc, r4, ror r2	; <UNPREDICTABLE>
     bf8:	4d500072 	ldclmi	0, cr0, [r0, #-456]	; 0xfffffe38
     bfc:	4154535f 	cmpmi	r4, pc, asr r3
     c00:	5942444e 	stmdbpl	r2, {r1, r2, r3, r6, sl, lr}^
     c04:	4952505f 	ldmdbmi	r2, {r0, r1, r2, r3, r4, r6, ip, lr}^
     c08:	435f544e 	cmpmi	pc, #1308622848	; 0x4e000000
     c0c:	45484341 	strbmi	r4, [r8, #-833]	; 0x341
     c10:	424c545f 	submi	r5, ip, #1593835520	; 0x5f000000
     c14:	53494d5f 	movtpl	r4, #40287	; 0x9d5f
     c18:	65720053 	ldrbvs	r0, [r2, #-83]!	; 0x53
     c1c:	76726573 			; <UNDEFINED> instruction: 0x76726573
     c20:	31316465 	teqcc	r1, r5, ror #8
     c24:	6c500031 	mrrcvs	0, 3, r0, r0, cr1	; <UNPREDICTABLE>
     c28:	6174536c 	cmnvs	r4, ip, ror #6
     c2c:	53656c62 	cmnpl	r5, #25088	; 0x6200
     c30:	75746174 	ldrbvc	r6, [r4, #-372]!	; 0x174
     c34:	6c500073 	mrrcvs	0, 7, r0, r0, cr3	; <UNPREDICTABLE>
     c38:	6469566c 	strbtvs	r5, [r9], #-1644	; 0x66c
     c3c:	52306f65 	eorspl	r6, r0, #404	; 0x194
     c40:	50316765 	eorspl	r6, r1, r5, ror #14
     c44:	65747461 	ldrbvs	r7, [r4, #-1121]!	; 0x461
     c48:	4c006e72 	stcmi	14, cr6, [r0], {114}	; 0x72
     c4c:	546b636f 	strbtpl	r6, [fp], #-879	; 0x36f
     c50:	00656d69 	rsbeq	r6, r5, r9, ror #26
     c54:	446c6c50 	strbtmi	r6, [ip], #-3152	; 0xc50
     c58:	66437264 	strbvs	r7, [r3], -r4, ror #4
     c5c:	65720067 	ldrbvs	r0, [r2, #-103]!	; 0x67
     c60:	76726573 			; <UNDEFINED> instruction: 0x76726573
     c64:	30326465 	eorscc	r6, r2, r5, ror #8
     c68:	65720031 	ldrbvs	r0, [r2, #-49]!	; 0x31
     c6c:	76726573 			; <UNDEFINED> instruction: 0x76726573
     c70:	41006465 	tstmi	r0, r5, ror #8
     c74:	6c434958 	mcrrvs	9, 5, r4, r3, cr8
     c78:	7669446b 	strbtvc	r4, [r9], -fp, ror #8
     c7c:	62704100 	rsbsvs	r4, r0, #0
     c80:	74614731 	strbtvc	r4, [r1], #-1841	; 0x731
     c84:	65720065 	ldrbvs	r0, [r2, #-101]!	; 0x65
     c88:	76726573 			; <UNDEFINED> instruction: 0x76726573
     c8c:	31396465 	teqcc	r9, r5, ror #8
     c90:	73657200 	cmnvc	r5, #0
     c94:	65767265 	ldrbvs	r7, [r6, #-613]!	; 0x265
     c98:	00323964 	eorseq	r3, r2, r4, ror #18
     c9c:	65736572 	ldrbvs	r6, [r3, #-1394]!	; 0x572
     ca0:	64657672 	strbtvs	r7, [r5], #-1650	; 0x672
     ca4:	72003339 	andvc	r3, r0, #-469762048	; 0xe4000000
     ca8:	72657365 	rsbvc	r7, r5, #-1811939327	; 0x94000001
     cac:	31646576 	smccc	18006	; 0x4656
     cb0:	00313437 	eorseq	r3, r1, r7, lsr r4
     cb4:	72737363 	rsbsvc	r7, r3, #-1946157055	; 0x8c000001
     cb8:	5f4d5000 	svcpl	0x004d5000
     cbc:	4e415453 	mcrmi	4, 2, r5, cr1, cr3, {2}
     cc0:	5f594244 	svcpl	0x00594244
     cc4:	4e495250 	mcrmi	2, 2, r5, cr9, cr0, {2}
     cc8:	50435f54 	subpl	r5, r3, r4, asr pc
     ccc:	495f5355 	ldmdbmi	pc, {r0, r2, r4, r6, r8, r9, ip, lr}^	; <UNPREDICTABLE>
     cd0:	54535f4f 	ldrbpl	r5, [r3], #-3919	; 0xf4f
     cd4:	53555441 	cmppl	r5, #1090519040	; 0x41000000
     cd8:	73657200 	cmnvc	r5, #0
     cdc:	65767265 	ldrbvs	r7, [r6, #-613]!	; 0x265
     ce0:	31323164 	teqcc	r2, r4, ror #2
     ce4:	6c6c5000 	stclvs	0, cr5, [ip], #-0
     ce8:	6c744332 	ldclvs	3, cr4, [r4], #-200	; 0xffffff38
     cec:	435f5f00 	cmpmi	pc, #0
     cf0:	5f554d43 	svcpl	0x00554d43
     cf4:	5f474552 	svcpl	0x00474552
     cf8:	5453494c 	ldrbpl	r4, [r3], #-2380	; 0x94c
     cfc:	5f4d5000 	svcpl	0x004d5000
     d00:	4e415453 	mcrmi	4, 2, r5, cr1, cr3, {2}
     d04:	5f594244 	svcpl	0x00594244
     d08:	4e495250 	mcrmi	2, 2, r5, cr9, cr0, {2}
     d0c:	45525f54 	ldrbmi	r5, [r2, #-3924]	; 0xf54
     d10:	454d5553 	strbmi	r5, [sp, #-1363]	; 0x553
     d14:	6c6c5000 	stclvs	0, cr5, [ip], #-0
     d18:	70433143 	subvc	r3, r3, r3, asr #2
     d1c:	69427875 	stmdbvs	r2, {r0, r2, r4, r5, r6, fp, ip, sp, lr}^
     d20:	4e007361 	cdpmi	3, 0, cr7, cr0, cr1, {3}
     d24:	30646e61 	rsbcc	r6, r4, r1, ror #28
     d28:	5f4d5000 	svcpl	0x004d5000
     d2c:	4e415453 	mcrmi	4, 2, r5, cr1, cr3, {2}
     d30:	5f594244 	svcpl	0x00594244
     d34:	4e495250 	mcrmi	2, 2, r5, cr9, cr0, {2}
     d38:	57505f54 			; <UNDEFINED> instruction: 0x57505f54
     d3c:	54535f52 	ldrbpl	r5, [r3], #-3922	; 0xf52
     d40:	53555441 	cmppl	r5, #1090519040	; 0x41000000
     d44:	5f776100 	svcpl	0x00776100
     d48:	5f6d656d 	svcpl	0x006d656d
     d4c:	61726170 	cmnvs	r2, r0, ror r1
     d50:	72727000 	rsbsvc	r7, r2, #0
     d54:	63430072 	movtvs	r0, #12402	; 0x3072
     d58:	30303469 	eorscc	r3, r0, r9, ror #8
     d5c:	006b6c43 	rsbeq	r6, fp, r3, asr #24
     d60:	396c6c50 	stmdbcc	ip!, {r4, r6, sl, fp, sp, lr}^
     d64:	006c7443 	rsbeq	r7, ip, r3, asr #8
     d68:	625f7073 	subsvs	r7, pc, #115	; 0x73
     d6c:	756b6361 	strbvc	r6, [fp, #-865]!	; 0x361
     d70:	65720070 	ldrbvs	r0, [r2, #-112]!	; 0x70
     d74:	65735f67 	ldrbvs	r5, [r3, #-3943]!	; 0xf67
     d78:	6f69006c 	svcvs	0x0069006c
     d7c:	696e695f 	stmdbvs	lr!, {r0, r1, r2, r3, r4, r6, r8, fp, sp, lr}^
     d80:	69685f74 	stmdbvs	r8!, {r2, r4, r5, r6, r8, r9, sl, fp, ip, lr}^
     d84:	6c006867 	stcvs	8, cr6, [r0], {103}	; 0x67
     d88:	5f706f6f 	svcpl	0x00706f6f
     d8c:	67616c66 	strbvs	r6, [r1, -r6, ror #24]!
     d90:	61747300 	cmnvs	r4, r0, lsl #6
     d94:	5f737574 	svcpl	0x00737574
     d98:	00676572 	rsbeq	r6, r7, r2, ror r5
     d9c:	74617473 	strbtvc	r7, [r1], #-1139	; 0x473
     da0:	725f7375 	subsvc	r7, pc, #-738197503	; 0xd4000001
     da4:	745f6765 	ldrbvc	r6, [pc], #-1893	; dac <enable_mmu+0x18>
     da8:	7300706d 	movwvc	r7, #109	; 0x6d
     dac:	5f657661 	svcpl	0x00657661
     db0:	5f6d656d 	svcpl	0x006d656d
     db4:	74617473 	strbtvc	r7, [r1], #-1139	; 0x473
     db8:	6e5f7375 	mrcvs	3, 2, r7, cr15, cr5, {3}
     dbc:	756d6d6f 	strbvc	r6, [sp, #-3439]!	; 0xd6f
     dc0:	5f6f6900 	svcpl	0x006f6900
     dc4:	68676968 	stmdavs	r7!, {r3, r5, r6, r8, fp, sp, lr}^
     dc8:	74616400 	strbtvc	r6, [r1], #-1024	; 0x400
     dcc:	64725f61 	ldrbtvs	r5, [r2], #-3937	; 0xf61
     dd0:	6d656d00 	stclvs	13, cr6, [r5, #-0]
     dd4:	6174735f 	cmnvs	r4, pc, asr r3
     dd8:	5f737574 	svcpl	0x00737574
     ddc:	74696e69 	strbtvc	r6, [r9], #-3689	; 0xe69
     de0:	6d6f6e5f 	stclvs	14, cr6, [pc, #-380]!	; c6c <mem_preload_tlb+0x1c>
     de4:	7300756d 	movwvc	r7, #1389	; 0x56d
     de8:	5f657661 	svcpl	0x00657661
     dec:	5f6d656d 	svcpl	0x006d656d
     df0:	67616c66 	strbvs	r6, [r1, -r6, ror #24]!
     df4:	6d656d00 	stclvs	13, cr6, [r5, #-0]
     df8:	6174735f 	cmnvs	r4, pc, asr r3
     dfc:	5f737574 	svcpl	0x00737574
     e00:	61656c63 	cmnvs	r5, r3, ror #24
     e04:	72700072 	rsbsvc	r0, r0, #114	; 0x72
     e08:	5f746e69 	svcpl	0x00746e69
     e0c:	67616c66 	strbvs	r6, [r1, -r6, ror #24]!
     e10:	63726100 	cmnvs	r2, #0
     e14:	72612f68 	rsbvc	r2, r1, #416	; 0x1a0
     e18:	616d2f6d 	cmnvs	sp, sp, ror #30
     e1c:	732d6863 	teqvc	sp, #6488064	; 0x630000
     e20:	69786e75 	ldmdbvs	r8!, {r0, r2, r4, r5, r6, r9, sl, fp, sp, lr}^
     e24:	2f6d702f 	svccs	0x006d702f
     e28:	6e617473 	mcrvs	4, 3, r7, cr1, cr3, {3}
     e2c:	2f796264 	svccs	0x00796264
     e30:	702f2e2e 	eorvc	r2, pc, lr, lsr #28
     e34:	65645f6d 	strbvs	r5, [r4, #-3949]!	; 0xf6d
     e38:	2e677562 	cdpcs	5, 6, cr7, cr7, cr2, {3}
     e3c:	6f690063 	svcvs	0x00690063
     e40:	696e695f 	stmdbvs	lr!, {r0, r1, r2, r3, r4, r6, r8, fp, sp, lr}^
     e44:	656d0074 	strbvs	r0, [sp, #-116]!	; 0x74
     e48:	74735f6d 	ldrbtvc	r5, [r3], #-3949	; 0xf6d
     e4c:	73757461 	cmnvc	r5, #1627389952	; 0x61000000
     e50:	696e695f 	stmdbvs	lr!, {r0, r1, r2, r3, r4, r6, r8, fp, sp, lr}^
     e54:	65670074 	strbvs	r0, [r7, #-116]!	; 0x74
     e58:	656d5f74 	strbvs	r5, [sp, #-3956]!	; 0xf74
     e5c:	74735f6d 	ldrbtvc	r5, [r3], #-3949	; 0xf6d
     e60:	73757461 	cmnvc	r5, #1627389952	; 0x61000000
     e64:	5f6f6900 	svcpl	0x006f6900
     e68:	74696e69 	strbtvc	r6, [r9], #-3689	; 0xe69
     e6c:	776f6c5f 			; <UNDEFINED> instruction: 0x776f6c5f
     e70:	74616400 	strbtvc	r6, [r1], #-1024	; 0x400
     e74:	72775f61 	rsbsvc	r5, r7, #388	; 0x184
     e78:	6f687300 	svcvs	0x00687300
     e7c:	656d5f77 	strbvs	r5, [sp, #-3959]!	; 0xf77
     e80:	74735f6d 	ldrbtvc	r5, [r3], #-3949	; 0xf6d
     e84:	73757461 	cmnvc	r5, #1627389952	; 0x61000000
     e88:	74616400 	strbtvc	r6, [r1], #-1024	; 0x400
     e8c:	74730061 	ldrbtvc	r0, [r3], #-97	; 0x61
     e90:	73757461 	cmnvc	r5, #1627389952	; 0x61000000
     e94:	6765725f 			; <UNDEFINED> instruction: 0x6765725f
     e98:	5f61705f 	svcpl	0x0061705f
     e9c:	00706d74 	rsbseq	r6, r0, r4, ror sp
     ea0:	61656c63 	cmnvs	r5, r3, ror #24
     ea4:	656d5f72 	strbvs	r5, [sp, #-3954]!	; 0xf72
     ea8:	6c665f6d 	stclvs	15, cr5, [r6], #-436	; 0xfffffe4c
     eac:	6d006761 	stcvs	7, cr6, [r0, #-388]	; 0xfffffe7c
     eb0:	735f6d65 	cmpvc	pc, #6464	; 0x1940
     eb4:	75746174 	ldrbvc	r6, [r4, #-372]!	; 0x174
     eb8:	78655f73 	stmdavc	r5!, {r0, r1, r4, r5, r6, r8, r9, sl, fp, ip, lr}^
     ebc:	73007469 	movwvc	r7, #1129	; 0x469
     ec0:	75746174 	ldrbvc	r6, [r4, #-372]!	; 0x174
     ec4:	65725f73 	ldrbvs	r5, [r2, #-3955]!	; 0xf73
     ec8:	61705f67 	cmnvs	r0, r7, ror #30
     ecc:	725f5f00 	subsvc	r5, pc, #0
     ed0:	6f69705f 	svcvs	0x0069705f
     ed4:	6461705f 	strbtvs	r7, [r1], #-95	; 0x5f
     ed8:	6c6f685f 	stclvs	8, cr6, [pc], #-380	; d64 <disable_mmu+0x8>
     edc:	75620064 	strbvc	r0, [r2, #-100]!	; 0x64
     ee0:	775f7973 			; <UNDEFINED> instruction: 0x775f7973
     ee4:	69746961 	ldmdbvs	r4!, {r0, r5, r6, r8, fp, sp, lr}^
     ee8:	7300676e 	movwvc	r6, #1902	; 0x76e
     eec:	5f657661 	svcpl	0x00657661
     ef0:	5f6d656d 	svcpl	0x006d656d
     ef4:	74617473 	strbtvc	r7, [r1], #-1139	; 0x473
     ef8:	5f007375 	svcpl	0x00007375
     efc:	705f725f 	subsvc	r7, pc, pc, asr r2	; <UNPREDICTABLE>
     f00:	5f6d6372 	svcpl	0x006d6372
     f04:	5f6f6970 	svcpl	0x006f6970
     f08:	5f646170 	svcpl	0x00646170
     f0c:	646c6f68 	strbtvs	r6, [ip], #-3944	; 0xf68
     f10:	5f727700 	svcpl	0x00727700
     f14:	736c7570 	cmnvc	ip, #469762048	; 0x1c000000
     f18:	6f630065 	svcvs	0x00630065
     f1c:	65746e75 	ldrbvs	r6, [r4, #-3701]!	; 0xe75
     f20:	6e655f72 	mcrvs	15, 3, r5, cr5, cr2, {3}
     f24:	656c6261 	strbvs	r6, [ip, #-609]!	; 0x261
     f28:	72617400 	rsbvc	r7, r1, #0
     f2c:	00746567 	rsbseq	r6, r4, r7, ror #10
     f30:	6e616863 	cdpvs	8, 6, cr6, cr1, cr3, {3}
     f34:	725f6567 	subsvc	r6, pc, #432013312	; 0x19c00000
     f38:	69746e75 	ldmdbvs	r4!, {r0, r2, r4, r5, r6, r9, sl, fp, sp, lr}^
     f3c:	655f656d 	ldrbvs	r6, [pc, #-1389]	; 9d7 <invalidate_dcache+0x17>
     f40:	7200766e 	andvc	r7, r0, #115343360	; 0x6e00000
     f44:	6f747365 	svcvs	0x00747365
     f48:	705f6572 	subsvc	r6, pc, r2, ror r5	; <UNPREDICTABLE>
     f4c:	63667265 	cmnvs	r6, #1342177286	; 0x50000006
     f50:	746e756f 	strbtvc	r7, [lr], #-1391	; 0x56f
     f54:	64007265 	strvs	r7, [r0], #-613	; 0x265
     f58:	79616c65 	stmdbvc	r1!, {r0, r2, r5, r6, sl, fp, sp, lr}^
     f5c:	0073755f 	rsbseq	r7, r3, pc, asr r5
     f60:	7265766f 	rsbvc	r7, r5, #116391936	; 0x6f00000
     f64:	64616568 	strbtvs	r6, [r1], #-1384	; 0x568
     f68:	74656700 	strbtvc	r6, [r5], #-1792	; 0x700
     f6c:	6576655f 	ldrbvs	r6, [r6, #-1375]!	; 0x55f
     f70:	635f746e 	cmpvs	pc, #1845493760	; 0x6e000000
     f74:	746e756f 	strbtvc	r7, [lr], #-1391	; 0x56f
     f78:	65007265 	strvs	r7, [r0, #-613]	; 0x265
     f7c:	6c62616e 	stfvse	f6, [r2], #-440	; 0xfffffe48
     f80:	69645f65 	stmdbvs	r4!, {r0, r2, r5, r6, r8, r9, sl, fp, ip, lr}^
     f84:	65646976 	strbvs	r6, [r4, #-2422]!	; 0x976
     f88:	65720072 	ldrbvs	r0, [r2, #-114]!	; 0x72
     f8c:	5f746573 	svcpl	0x00746573
     f90:	6e756f63 	cdpvs	15, 7, cr6, cr5, cr3, {3}
     f94:	00726574 	rsbseq	r6, r2, r4, ror r5
     f98:	65746e63 	ldrbvs	r6, [r4, #-3683]!	; 0xe63
     f9c:	61620072 	smcvs	8194	; 0x2002
     fa0:	70756b63 	rsbsvc	r6, r5, r3, ror #22
     fa4:	7265705f 	rsbvc	r7, r5, #95	; 0x5f
     fa8:	6f635f66 	svcvs	0x00635f66
     fac:	65746e75 	ldrbvs	r6, [r4, #-3701]!	; 0xe75
     fb0:	6e655f72 	mcrvs	15, 3, r5, cr5, cr2, {3}
     fb4:	656c6261 	strbvs	r6, [ip, #-609]!	; 0x261
     fb8:	6765725f 			; <UNDEFINED> instruction: 0x6765725f
     fbc:	435f4900 	cmpmi	pc, #0
     fc0:	45484341 	strbmi	r4, [r8, #-833]	; 0x341
     fc4:	53494d5f 	movtpl	r4, #40287	; 0x9d5f
     fc8:	73750053 	cmnvc	r5, #83	; 0x53
     fcc:	746e635f 	strbtvc	r6, [lr], #-863	; 0x35f
     fd0:	5f6f6400 	svcpl	0x006f6400
     fd4:	65736572 	ldrbvs	r6, [r3, #-1394]!	; 0x572
     fd8:	5f440074 	svcpl	0x00440074
     fdc:	5f424c54 	svcpl	0x00424c54
     fe0:	5353494d 	cmppl	r3, #1261568	; 0x134000
     fe4:	63616200 	cmnvs	r1, #0
     fe8:	5f70756b 	svcpl	0x0070756b
     fec:	66726570 			; <UNDEFINED> instruction: 0x66726570
     ff0:	6e756f63 	cdpvs	15, 7, cr6, cr5, cr3, {3}
     ff4:	00726574 	rsbseq	r6, r2, r4, ror r5
     ff8:	33735f5f 	cmncc	r3, #380	; 0x17c
     ffc:	76650032 			; <UNDEFINED> instruction: 0x76650032
    1000:	5f746e65 	svcpl	0x00746e65
    1004:	00746e63 	rsbseq	r6, r4, r3, ror #28
    1008:	6b636162 	blvs	18d9598 <__bss_end+0x18d6020>
    100c:	705f7075 	subsvc	r7, pc, r5, ror r0	; <UNPREDICTABLE>
    1010:	5f667265 	svcpl	0x00667265
    1014:	6e756f63 	cdpvs	15, 7, cr6, cr5, cr3, {3}
    1018:	5f726574 	svcpl	0x00726574
    101c:	6c727463 	cfldrdvs	mvd7, [r2], #-396	; 0xfffffe74
    1020:	6765725f 			; <UNDEFINED> instruction: 0x6765725f
    1024:	70797400 	rsbsvc	r7, r9, r0, lsl #8
    1028:	72610065 	rsbvc	r0, r1, #101	; 0x65
    102c:	612f6863 	teqvs	pc, r3, ror #16
    1030:	6d2f6d72 	stcvs	13, cr6, [pc, #-456]!	; e70 <jump_to_resume0_nommu+0x50>
    1034:	2d686361 	stclcs	3, cr6, [r8, #-388]!	; 0xfffffe7c
    1038:	786e7573 	stmdavc	lr!, {r0, r1, r4, r5, r6, r8, sl, ip, sp, lr}^
    103c:	6d702f69 	ldclvs	15, cr2, [r0, #-420]!	; 0xfffffe5c
    1040:	6174732f 	cmnvs	r4, pc, lsr #6
    1044:	7962646e 	stmdbvc	r2!, {r1, r2, r3, r5, r6, sl, sp, lr}^
    1048:	2f2e2e2f 	svccs	0x002e2e2f
    104c:	5f6d656d 	svcpl	0x006d656d
    1050:	696d6974 	stmdbvs	sp!, {r2, r4, r5, r6, r8, fp, sp, lr}^
    1054:	632e676e 	teqvs	lr, #28835840	; 0x1b80000
    1058:	435f4400 	cmpmi	pc, #0
    105c:	45484341 	strbmi	r4, [r8, #-833]	; 0x341
    1060:	53494d5f 	movtpl	r4, #40287	; 0x9d5f
    1064:	65670053 	strbvs	r0, [r7, #-83]!	; 0x53
    1068:	79635f74 	stmdbvc	r3!, {r2, r4, r5, r6, r8, r9, sl, fp, ip, lr}^
    106c:	63656c63 	cmnvs	r5, #25344	; 0x6300
    1070:	746e756f 	strbtvc	r7, [lr], #-1391	; 0x56f
    1074:	696e6900 	stmdbvs	lr!, {r8, fp, sp, lr}^
    1078:	65705f74 	ldrbvs	r5, [r0, #-3956]!	; 0xf74
    107c:	6f636672 	svcvs	0x00636672
    1080:	65746e75 	ldrbvs	r6, [r4, #-3701]!	; 0xe75
    1084:	73007372 	movwvc	r7, #882	; 0x372
    1088:	655f7465 	ldrbvs	r7, [pc, #-1125]	; c2b <enable_program_flow_prediction+0x1b>
    108c:	746e6576 	strbtvc	r6, [lr], #-1398	; 0x576
    1090:	756f635f 	strbvc	r6, [pc, #-863]!	; d39 <mem_preload_tlb+0xe9>
    1094:	7265746e 	rsbvc	r7, r5, #1845493760	; 0x6e000000
    1098:	696e6900 	stmdbvs	lr!, {r8, fp, sp, lr}^
    109c:	76655f74 	uqsub16vc	r5, r5, r4
    10a0:	5f746e65 	svcpl	0x00746e65
    10a4:	6e756f63 	cdpvs	15, 7, cr6, cr5, cr3, {3}
    10a8:	00726574 	rsbseq	r6, r2, r4, ror r5
    10ac:	6e756f63 	cdpvs	15, 7, cr6, cr5, cr3, {3}
    10b0:	5f726574 	svcpl	0x00726574
    10b4:	65707974 	ldrbvs	r7, [r0, #-2420]!	; 0x974
    10b8:	6d00655f 	cfstr32vs	mvfx6, [r0, #-380]	; 0xfffffe84
    10bc:	68637461 	stmdavs	r3!, {r0, r5, r6, sl, ip, sp, lr}^
    10c0:	6576655f 	ldrbvs	r6, [r6, #-1375]!	; 0x55f
    10c4:	635f746e 	cmpvs	pc, #1845493760	; 0x6e000000
    10c8:	746e756f 	strbtvc	r7, [lr], #-1391	; 0x56f
    10cc:	49007265 	stmdbmi	r0, {r0, r2, r5, r6, r9, ip, sp, lr}
    10d0:	424c545f 	submi	r5, ip, #1593835520	; 0x5f000000
    10d4:	53494d5f 	movtpl	r4, #40287	; 0x9d5f
    10d8:	72610053 	rsbvc	r0, r1, #83	; 0x53
    10dc:	612f6863 	teqvs	pc, r3, ror #16
    10e0:	6d2f6d72 	stcvs	13, cr6, [pc, #-456]!	; f20 <__save_processor_state+0x40>
    10e4:	2d686361 	stclcs	3, cr6, [r8, #-388]!	; 0xfffffe7c
    10e8:	786e7573 	stmdavc	lr!, {r0, r1, r4, r5, r6, r8, sl, ip, sp, lr}^
    10ec:	6d702f69 	ldclvs	15, cr2, [r0, #-420]!	; 0xfffffe5c
    10f0:	6174732f 	cmnvs	r4, pc, lsr #6
    10f4:	7962646e 	stmdbvc	r2!, {r1, r2, r3, r5, r6, sl, sp, lr}^
    10f8:	2f2e2e2f 	svccs	0x002e2e2f
    10fc:	5f6d656d 	svcpl	0x006d656d
    1100:	5f756d6d 	svcpl	0x00756d6d
    1104:	632e6370 	teqvs	lr, #-1073741823	; 0xc0000001
    1108:	73657200 	cmnvc	r5, #0
    110c:	65726f74 	ldrbvs	r6, [r2, #-3956]!	; 0xf74
    1110:	756d6d5f 	strbvc	r6, [sp, #-3423]!	; 0xd5f
    1114:	6174735f 	cmnvs	r4, pc, asr r3
    1118:	73006574 	movwvc	r6, #1396	; 0x574
    111c:	5f657661 	svcpl	0x00657661
    1120:	5f756d6d 	svcpl	0x00756d6d
    1124:	74617473 	strbtvc	r7, [r1], #-1139	; 0x473
    1128:	6f700065 	svcvs	0x00700065
    112c:	64697074 	strbtvs	r7, [r9], #-116	; 0x74
    1130:	665f6900 	ldrbvs	r6, [pc], -r0, lsl #18
    1134:	73007261 	movwvc	r7, #609	; 0x261
    1138:	67666363 	strbvs	r6, [r6, -r3, ror #6]!
    113c:	65690072 	strbvs	r0, [r9, #-114]!	; 0x72
    1140:	64007263 	strvs	r7, [r0], #-611	; 0x263
    1144:	7273665f 	rsbsvc	r6, r3, #99614720	; 0x5f00000
    1148:	76617300 	strbtvc	r7, [r1], -r0, lsl #6
    114c:	735f6465 	cmpvc	pc, #1694498816	; 0x65000000
    1150:	5f727370 	svcpl	0x00727370
    1154:	00746261 	rsbseq	r6, r4, r1, ror #4
    1158:	74777275 	ldrbtvc	r7, [r7], #-629	; 0x275
    115c:	00646970 	rsbeq	r6, r4, r0, ror r9
    1160:	65766173 	ldrbvs	r6, [r6, #-371]!	; 0x173
    1164:	70735f64 	rsbsvc	r5, r3, r4, ror #30
    1168:	6d5f7273 	lfmvs	f7, 2, [pc, #-460]	; fa4 <__save_processor_state+0xc4>
    116c:	73006e6f 	movwvc	r6, #3695	; 0xe6f
    1170:	67626463 	strbvs	r6, [r2, -r3, ror #8]!
    1174:	6c626e65 	stclvs	14, cr6, [r2], #-404	; 0xfffffe6c
    1178:	61730072 	cmnvs	r3, r2, ror r0
    117c:	5f646576 	svcpl	0x00646576
    1180:	746e6f63 	strbtvc	r6, [lr], #-3939	; 0xf63
    1184:	5f747865 	svcpl	0x00747865
    1188:	5f333172 	svcpl	0x00333172
    118c:	00716966 	rsbseq	r6, r1, r6, ror #18
    1190:	65766173 	ldrbvs	r6, [r6, #-371]!	; 0x173
    1194:	6f635f64 	svcvs	0x00635f64
    1198:	7865746e 	stmdavc	r5!, {r1, r2, r3, r5, r6, sl, ip, sp, lr}^
    119c:	31725f74 	cmncc	r2, r4, ror pc
    11a0:	72695f33 	rsbvc	r5, r9, #204	; 0xcc
    11a4:	65720071 	ldrbvs	r0, [r2, #-113]!	; 0x71
    11a8:	726f7473 	rsbvc	r7, pc, #1929379840	; 0x73000000
    11ac:	72705f65 	rsbsvc	r5, r0, #404	; 0x194
    11b0:	7365636f 	cmnvc	r5, #-1140850687	; 0xbc000001
    11b4:	5f726f73 	svcpl	0x00726f73
    11b8:	72627474 	rsbvc	r7, r2, #1946157056	; 0x74000000
    11bc:	61730030 	cmnvs	r3, r0, lsr r0
    11c0:	5f646576 	svcpl	0x00646576
    11c4:	72737073 	rsbsvc	r7, r3, #115	; 0x73
    11c8:	6376735f 	cmnvs	r6, #2080374785	; 0x7c000001
    11cc:	73696400 	cmnvc	r9, #0
    11d0:	656c6261 	strbvs	r6, [ip, #-609]!	; 0x261
    11d4:	6361635f 	cmnvs	r1, #2080374785	; 0x7c000001
    11d8:	695f6568 	ldmdbvs	pc, {r3, r5, r6, r8, sl, sp, lr}^	; <UNPREDICTABLE>
    11dc:	6c61766e 	stclvs	6, cr7, [r1], #-440	; 0xfffffe48
    11e0:	74616469 	strbtvc	r6, [r1], #-1129	; 0x469
    11e4:	5f5f0065 	svcpl	0x005f0065
    11e8:	74736572 	ldrbtvc	r6, [r3], #-1394	; 0x572
    11ec:	5f65726f 	svcpl	0x0065726f
    11f0:	636f7270 	cmnvs	pc, #7
    11f4:	6f737365 	svcvs	0x00737365
    11f8:	74735f72 	ldrbtvc	r5, [r3], #-3954	; 0xf72
    11fc:	00657461 	rsbeq	r7, r5, r1, ror #8
    1200:	72736569 	rsbsvc	r6, r3, #440401920	; 0x1a400000
    1204:	76617300 	strbtvc	r7, [r1], -r0, lsl #6
    1208:	735f6465 	cmpvc	pc, #1694498816	; 0x65000000
    120c:	5f727370 	svcpl	0x00727370
    1210:	00716966 	rsbseq	r6, r1, r6, ror #18
    1214:	72736370 	rsbsvc	r6, r3, #-1073741823	; 0xc0000001
    1218:	78746300 	ldmdavc	r4!, {r8, r9, sp, lr}^
    121c:	61730074 	cmnvs	r3, r4, ror r0
    1220:	5f646576 	svcpl	0x00646576
    1224:	72737073 	rsbsvc	r7, r3, #115	; 0x73
    1228:	7172695f 	cmnvc	r2, pc, asr r9
    122c:	615f6400 	cmpvs	pc, r0, lsl #8
    1230:	00727366 	rsbseq	r7, r2, r6, ror #6
    1234:	65766173 	ldrbvs	r6, [r6, #-371]!	; 0x173
    1238:	6f635f64 	svcvs	0x00635f64
    123c:	7865746e 	stmdavc	r5!, {r1, r2, r3, r5, r6, sl, ip, sp, lr}^
    1240:	65730074 	ldrbvs	r0, [r3, #-116]!	; 0x74
    1244:	6f635f74 	svcvs	0x00635f74
    1248:	5f6f7270 	svcpl	0x006f7270
    124c:	61666564 	cmnvs	r6, r4, ror #10
    1250:	00746c75 	rsbseq	r6, r4, r5, ror ip
    1254:	736e6f6e 	cmnvc	lr, #440	; 0x1b8
    1258:	63636163 	cmnvs	r3, #-1073741800	; 0xc0000018
    125c:	726c7274 	rsbvc	r7, ip, #1073741831	; 0x40000007
    1260:	63656300 	cmnvs	r5, #0
    1264:	65730072 	ldrbvs	r0, [r3, #-114]!	; 0x72
    1268:	74745f74 	ldrbtvc	r5, [r4], #-3956	; 0xf74
    126c:	00307262 	eorseq	r7, r0, r2, ror #4
    1270:	746f7275 	strbtvc	r7, [pc], #-629	; 1278 <__save_processor_state+0x398>
    1274:	00646970 	rsbeq	r6, r4, r0, ror r9
    1278:	68637261 	stmdavs	r3!, {r0, r5, r6, r9, ip, sp, lr}^
    127c:	6d72612f 	ldfvse	f6, [r2, #-188]!	; 0xffffff44
    1280:	63616d2f 	cmnvs	r1, #3008	; 0xbc0
    1284:	75732d68 	ldrbvc	r2, [r3, #-3432]!	; 0xd68
    1288:	2f69786e 	svccs	0x0069786e
    128c:	732f6d70 	teqvc	pc, #7168	; 0x1c00
    1290:	646e6174 	strbtvs	r6, [lr], #-372	; 0x174
    1294:	2e2f7962 	cdpcs	9, 2, cr7, cr15, cr2, {3}
    1298:	656d2f2e 	strbvs	r2, [sp, #-3886]!	; 0xf2e
    129c:	70635f6d 	rsbvc	r5, r3, sp, ror #30
    12a0:	00632e75 	rsbeq	r2, r3, r5, ror lr
    12a4:	61735f5f 	cmnvs	r3, pc, asr pc
    12a8:	705f6576 	subsvc	r6, pc, r6, ror r5	; <UNPREDICTABLE>
    12ac:	65636f72 	strbvs	r6, [r3, #-3954]!	; 0xf72
    12b0:	726f7373 	rsbvc	r7, pc, #-872415231	; 0xcc000001
    12b4:	6174735f 	cmnvs	r4, pc, asr r3
    12b8:	73006574 	movwvc	r6, #1396	; 0x574
    12bc:	64657661 	strbtvs	r7, [r5], #-1633	; 0x661
    12c0:	7370735f 	cmnvc	r0, #2080374785	; 0x7c000001
    12c4:	6e755f72 	mrcvs	15, 3, r5, cr5, cr2, {3}
    12c8:	63660064 	cmnvs	r6, #100	; 0x64
    12cc:	73006573 	movwvc	r6, #1395	; 0x573
    12d0:	64657661 	strbtvs	r7, [r5], #-1633	; 0x661
    12d4:	6e6f635f 	mcrvs	3, 3, r6, cr15, cr15, {2}
    12d8:	74786574 	ldrbtvc	r6, [r8], #-1396	; 0x574
    12dc:	3331725f 	teqcc	r1, #-268435451	; 0xf0000005
    12e0:	646e755f 	strbtvs	r7, [lr], #-1375	; 0x55f
    12e4:	76617300 	strbtvc	r7, [r1], -r0, lsl #6
    12e8:	635f6465 	cmpvs	pc, #1694498816	; 0x65000000
    12ec:	65746e6f 	ldrbvs	r6, [r4, #-3695]!	; 0xe6f
    12f0:	725f7478 	subsvc	r7, pc, #2013265920	; 0x78000000
    12f4:	735f3231 	cmpvc	pc, #268435459	; 0x10000003
    12f8:	73006376 	movwvc	r6, #886	; 0x376
    12fc:	64657661 	strbtvs	r7, [r5], #-1633	; 0x661
    1300:	7370635f 	cmnvc	r0, #2080374785	; 0x7c000001
    1304:	76735f72 	uhsub16vc	r5, r3, r2
    1308:	666f0063 	strbtvs	r0, [pc], -r3, rrx
    130c:	70007273 	andvc	r7, r0, r3, ror r2
    1310:	6e6f636d 	cdpvs	3, 6, cr6, cr15, cr13, {3}
    1314:	6c6f7274 	sfmvs	f7, 2, [pc], #-464	; 114c <__save_processor_state+0x26c>
    1318:	65630072 	strbvs	r0, [r3, #-114]!	; 0x72
    131c:	64007273 	strvs	r7, [r0], #-627	; 0x273
    1320:	75616665 	strbvc	r6, [r1, #-1637]!	; 0x665
    1324:	635f746c 	cmpvs	pc, #1811939328	; 0x6c000000
    1328:	6f72706f 	svcvs	0x0072706f
    132c:	6c61765f 	stclvs	6, cr7, [r1], #-380	; 0xfffffe84
    1330:	69006575 	stmdbvs	r0, {r0, r2, r4, r5, r6, r8, sl, sp, lr}
    1334:	7273665f 	rsbsvc	r6, r3, #99614720	; 0x5f00000
    1338:	665f6400 	ldrbvs	r6, [pc], -r0, lsl #8
    133c:	6d007261 	sfmvs	f7, 4, [r0, #-388]	; 0xfffffe7c
    1340:	72616276 	rsbvc	r6, r1, #1610612743	; 0x60000007
    1344:	636d7000 	cmnvs	sp, #0
    1348:	746e756f 	strbtvc	r7, [lr], #-1391	; 0x56f
    134c:	5f690072 	svcpl	0x00690072
    1350:	72736661 	rsbsvc	r6, r3, #101711872	; 0x6100000
    1354:	76617300 	strbtvc	r7, [r1], -r0, lsl #6
    1358:	635f6465 	cmpvs	pc, #1694498816	; 0x65000000
    135c:	65746e6f 	ldrbvs	r6, [r4, #-3695]!	; 0xe6f
    1360:	725f7478 	subsvc	r7, pc, #2013265920	; 0x78000000
    1364:	615f3331 	cmpvs	pc, r1, lsr r3	; <UNPREDICTABLE>
    1368:	73007462 	movwvc	r7, #1122	; 0x462
    136c:	64657661 	strbtvs	r7, [r5], #-1633	; 0x661
    1370:	706d655f 	rsbvc	r6, sp, pc, asr r5
    1374:	635f7974 	cmpvs	pc, #1900544	; 0x1d0000
    1378:	65746e6f 	ldrbvs	r6, [r4, #-3695]!	; 0xe6f
    137c:	735f7478 	cmpvc	pc, #2013265920	; 0x78000000
    1380:	73006376 	movwvc	r6, #886	; 0x376
    1384:	64657661 	strbtvs	r7, [r5], #-1633	; 0x661
    1388:	6e6f635f 	mcrvs	3, 3, r6, cr15, cr15, {2}
    138c:	74786574 	ldrbtvc	r6, [r8], #-1396	; 0x574
    1390:	3331725f 	teqcc	r1, #-268435451	; 0xf0000005
    1394:	7379735f 	cmnvc	r9, #2080374785	; 0x7c000001
    1398:	76617300 	strbtvc	r7, [r1], -r0, lsl #6
    139c:	635f6465 	cmpvs	pc, #1694498816	; 0x65000000
    13a0:	65746e6f 	ldrbvs	r6, [r4, #-3695]!	; 0xe6f
    13a4:	725f7478 	subsvc	r7, pc, #2013265920	; 0x78000000
    13a8:	6d5f3331 	ldclvs	3, cr3, [pc, #-196]	; 12ec <__save_processor_state+0x40c>
    13ac:	73006e6f 	movwvc	r6, #3695	; 0xe6f
    13b0:	735f7465 	cmpvc	pc, #1694498816	; 0x65000000
    13b4:	61697265 	cmnvs	r9, r5, ror #4
    13b8:	6c635f6c 	stclvs	15, cr5, [r3], #-432	; 0xfffffe50
    13bc:	6175006b 	cmnvs	r5, fp, rrx
    13c0:	675f7472 			; <UNDEFINED> instruction: 0x675f7472
    13c4:	5f6f6970 	svcpl	0x006f6970
    13c8:	666e6f63 	strbtvs	r6, [lr], -r3, ror #30
    13cc:	765f6769 	ldrbvc	r6, [pc], -r9, ror #14
    13d0:	73006c61 	movwvc	r6, #3169	; 0xc61
    13d4:	735f7465 	cmpvc	pc, #1694498816	; 0x65000000
    13d8:	61697265 	cmnvs	r9, r5, ror #4
    13dc:	70675f6c 	rsbvc	r5, r7, ip, ror #30
    13e0:	73006f69 	movwvc	r6, #3945	; 0xf69
    13e4:	61697265 	cmnvs	r9, r5, ror #4
    13e8:	65675f6c 	strbvs	r5, [r7, #-3948]!	; 0xf6c
    13ec:	73007374 	movwvc	r7, #884	; 0x374
    13f0:	61697265 	cmnvs	r9, r5, ror #4
    13f4:	6e695f6c 	cdpvs	15, 6, cr5, cr9, cr12, {3}
    13f8:	62007469 	andvs	r7, r0, #1761607680	; 0x69000000
    13fc:	756b6361 	strbvc	r6, [fp, #-865]!	; 0x361
    1400:	70675f70 	rsbvc	r5, r7, r0, ror pc
    1404:	755f6f69 	ldrbvc	r6, [pc, #-3945]	; 4a3 <save_mem_status+0x33>
    1408:	00747261 	rsbseq	r7, r4, r1, ror #4
    140c:	69726573 	ldmdbvs	r2!, {r0, r1, r4, r5, r6, r8, sl, sp, lr}^
    1410:	675f6c61 	ldrbvs	r6, [pc, -r1, ror #24]
    1414:	635f7465 	cmpvs	pc, #1694498816	; 0x65000000
    1418:	00726168 	rsbseq	r6, r2, r8, ror #2
    141c:	69726573 	ldmdbvs	r2!, {r0, r1, r4, r5, r6, r8, sl, sp, lr}^
    1420:	695f6c61 	ldmdbvs	pc, {r0, r5, r6, sl, fp, sp, lr}^	; <UNPREDICTABLE>
    1424:	5f74696e 	svcpl	0x0074696e
    1428:	6d6d6f6e 	stclvs	15, cr6, [sp, #-440]!	; 0xfffffe48
    142c:	72730075 	rsbsvc	r0, r3, #117	; 0x75
    1430:	72665f63 	rsbvc	r5, r6, #396	; 0x18c
    1434:	73007165 	movwvc	r7, #357	; 0x165
    1438:	61697265 	cmnvs	r9, r5, ror #4
    143c:	75705f6c 	ldrbvc	r5, [r0, #-3948]!	; 0xf6c
    1440:	6e5f7374 	mrcvs	3, 2, r7, cr15, cr4, {3}
    1444:	756d6d6f 	strbvc	r6, [sp, #-3439]!	; 0xd6f
    1448:	72657300 	rsbvc	r7, r5, #0
    144c:	5f6c6169 	svcpl	0x006c6169
    1450:	5f747570 	svcpl	0x00747570
    1454:	72616863 	rsbvc	r6, r1, #6488064	; 0x630000
    1458:	6d6f6e5f 	stclvs	14, cr6, [pc, #-380]!	; 12e4 <__save_processor_state+0x404>
    145c:	7500756d 	strvc	r7, [r0, #-1389]	; 0x56d
    1460:	5f747261 	svcpl	0x00747261
    1464:	6f697067 	svcvs	0x00697067
    1468:	73616d5f 	cmnvc	r1, #6080	; 0x17c0
    146c:	6573006b 	ldrbvs	r0, [r3, #-107]!	; 0x6b
    1470:	6c616972 	stclvs	9, cr6, [r1], #-456	; 0xfffffe38
    1474:	7475705f 	ldrbtvc	r7, [r5], #-95	; 0x5f
    1478:	6168635f 	cmnvs	r8, pc, asr r3
    147c:	32700072 	rsbscc	r0, r0, #114	; 0x72
    1480:	006b6c63 	rsbeq	r6, fp, r3, ror #24
    1484:	6b636162 	blvs	18d9a14 <__bss_end+0x18d649c>
    1488:	705f7075 	subsvc	r7, pc, r5, ror r0	; <UNPREDICTABLE>
    148c:	5f74726f 	svcpl	0x0074726f
    1490:	73006469 	movwvc	r6, #1129	; 0x469
    1494:	61697265 	cmnvs	r9, r5, ror #4
    1498:	6e695f6c 	cdpvs	15, 6, cr5, cr9, cr12, {3}
    149c:	64657469 	strbtvs	r7, [r5], #-1129	; 0x469
    14a0:	616c665f 	cmnvs	ip, pc, asr r6
    14a4:	63630067 	cmnvs	r3, #103	; 0x67
    14a8:	65725f75 	ldrbvs	r5, [r2, #-3957]!	; 0xf75
    14ac:	65730067 	ldrbvs	r0, [r3, #-103]!	; 0x67
    14b0:	6c616972 	stclvs	9, cr6, [r1], #-456	; 0xfffffe38
    14b4:	696e695f 	stmdbvs	lr!, {r0, r1, r2, r3, r4, r6, r8, fp, sp, lr}^
    14b8:	616d5f74 	smcvs	54772	; 0xd5f4
    14bc:	6567616e 	strbvs	r6, [r7, #-366]!	; 0x16e
    14c0:	6d6d0072 	stclvs	0, cr0, [sp, #-456]!	; 0xfffffe38
    14c4:	6c665f75 	stclvs	15, cr5, [r6], #-468	; 0xfffffe2c
    14c8:	73006761 	movwvc	r6, #1889	; 0x761
    14cc:	61697265 	cmnvs	r9, r5, ror #4
    14d0:	78655f6c 	stmdavc	r5!, {r2, r3, r5, r6, r8, r9, sl, fp, ip, lr}^
    14d4:	6d5f7469 	cfldrdvs	mvd7, [pc, #-420]	; 1338 <__restore_processor_state+0x34>
    14d8:	67616e61 	strbvs	r6, [r1, -r1, ror #28]!
    14dc:	73007265 	movwvc	r7, #613	; 0x265
    14e0:	61697265 	cmnvs	r9, r5, ror #4
    14e4:	65675f6c 	strbvs	r5, [r7, #-3948]!	; 0xf6c
    14e8:	6e5f7374 	mrcvs	3, 2, r7, cr15, cr4, {3}
    14ec:	756d6d6f 	strbvc	r6, [sp, #-3439]!	; 0xd6f
    14f0:	63616200 	cmnvs	r1, #0
    14f4:	5f70756b 	svcpl	0x0070756b
    14f8:	5f756363 	svcpl	0x00756363
    14fc:	74726175 	ldrbtvc	r6, [r2], #-373	; 0x175
    1500:	7365725f 	cmnvc	r5, #-268435451	; 0xf0000005
    1504:	73007465 	movwvc	r7, #1125	; 0x465
    1508:	61697265 	cmnvs	r9, r5, ror #4
    150c:	75705f6c 	ldrbvc	r5, [r0, #-3948]!	; 0xf6c
    1510:	61007374 	tstvs	r0, r4, ror r3
    1514:	2f686372 	svccs	0x00686372
    1518:	2f6d7261 	svccs	0x006d7261
    151c:	6863616d 	stmdavs	r3!, {r0, r2, r3, r5, r6, r8, sp, lr}^
    1520:	6e75732d 	cdpvs	3, 7, cr7, cr5, cr13, {1}
    1524:	702f6978 	eorvc	r6, pc, r8, ror r9	; <UNPREDICTABLE>
    1528:	74732f6d 	ldrbtvc	r2, [r3], #-3949	; 0xf6d
    152c:	62646e61 	rsbvs	r6, r4, #1552	; 0x610
    1530:	2e2e2f79 	mcrcs	15, 1, r2, cr14, cr9, {3}
    1534:	6d656d2f 	stclvs	13, cr6, [r5, #-188]!	; 0xffffff44
    1538:	7265735f 	rsbvc	r7, r5, #2080374785	; 0x7c000001
    153c:	2e6c6169 	powcsez	f6, f4, #1.0
    1540:	70610063 	rsbvc	r0, r1, r3, rrx
    1544:	725f3262 	subsvc	r3, pc, #536870918	; 0x20000006
    1548:	73006765 	movwvc	r6, #1893	; 0x765
    154c:	61697265 	cmnvs	r9, r5, ror #4
    1550:	65675f6c 	strbvs	r5, [r7, #-3948]!	; 0xf6c
    1554:	68635f74 	stmdavs	r3!, {r2, r4, r5, r6, r8, r9, sl, fp, ip, lr}^
    1558:	6e5f7261 	cdpvs	2, 5, cr7, cr15, cr1, {3}
    155c:	756d6d6f 	strbvc	r6, [sp, #-3439]!	; 0xd6f
    1560:	726f7000 	rsbvc	r7, pc, #0
    1564:	65730074 	ldrbvs	r0, [r3, #-116]!	; 0x74
    1568:	6c616972 	stclvs	9, cr6, [r1], #-456	; 0xfffffe38
    156c:	6978655f 	ldmdbvs	r8!, {r0, r1, r2, r3, r4, r6, r8, sl, sp, lr}^
    1570:	61620074 	smcvs	8196	; 0x2004
    1574:	70756b63 	rsbsvc	r6, r5, r3, ror #22
    1578:	7563635f 	strbvc	r6, [r3, #-863]!	; 0x35f
    157c:	7261755f 	rsbvc	r7, r1, #398458880	; 0x17c00000
    1580:	74750074 	ldrbtvc	r0, [r5], #-116	; 0x74
    1584:	7300616f 	movwvc	r6, #367	; 0x16f
    1588:	5f657a69 	svcpl	0x00657a69
    158c:	73700074 	cmnvc	r0, #116	; 0x74
    1590:	66006372 			; <UNDEFINED> instruction: 0x66006372
    1594:	616d726f 	cmnvs	sp, pc, ror #4
    1598:	69660074 	stmdbvs	r6!, {r2, r4, r5, r6}^
    159c:	635f6c6c 	cmpvs	pc, #27648	; 0x6c00
    15a0:	5f5f0068 	svcpl	0x005f0068
    15a4:	6c5f6176 	ldfvse	f6, [pc], {118}	; 0x76
    15a8:	00747369 	rsbseq	r7, r4, r9, ror #6
    15ac:	75626564 	strbvc	r6, [r2, #-1380]!	; 0x564
    15b0:	72656767 	rsbvc	r6, r5, #27000832	; 0x19c0000
    15b4:	6675625f 			; <UNDEFINED> instruction: 0x6675625f
    15b8:	00726566 	rsbseq	r6, r2, r6, ror #10
    15bc:	6167656e 	cmnvs	r7, lr, ror #10
    15c0:	65766974 	ldrbvs	r6, [r6, #-2420]!	; 0x974
    15c4:	69727000 	ldmdbvs	r2!, {ip, sp, lr}^
    15c8:	006b746e 	rsbeq	r7, fp, lr, ror #8
    15cc:	616f7469 	cmnvs	pc, r9, ror #8
    15d0:	63726100 	cmnvs	r2, #0
    15d4:	72612f68 	rsbvc	r2, r1, #416	; 0x1a0
    15d8:	616d2f6d 	cmnvs	sp, sp, ror #30
    15dc:	732d6863 	teqvc	sp, #6488064	; 0x630000
    15e0:	69786e75 	ldmdbvs	r8!, {r0, r2, r4, r5, r6, r9, sl, fp, sp, lr}^
    15e4:	2f6d702f 	svccs	0x006d702f
    15e8:	6e617473 	mcrvs	4, 3, r7, cr1, cr3, {3}
    15ec:	2f796264 	svccs	0x00796264
    15f0:	6d2f2e2e 	stcvs	14, cr2, [pc, #-184]!	; 1540 <__restore_processor_state+0x23c>
    15f4:	705f6d65 	subsvc	r6, pc, r5, ror #26
    15f8:	746e6972 	strbtvc	r6, [lr], #-2418	; 0x972
    15fc:	00632e6b 	rsbeq	r2, r3, fp, ror #28
    1600:	63617473 	cmnvs	r1, #1929379840	; 0x73000000
    1604:	7261006b 	rsbvc	r0, r1, #107	; 0x6b
    1608:	72007367 	andvc	r7, r0, #-1677721599	; 0x9c000001
    160c:	78696461 	stmdavc	r9!, {r0, r5, r6, sl, sp, lr}^
    1610:	615f5f00 	cmpvs	pc, r0, lsl #30
    1614:	74730070 	ldrbtvc	r0, [r3], #-112	; 0x70
    1618:	6e656c72 	mcrvs	12, 3, r6, cr5, cr2, {3}
    161c:	67696400 	strbvs	r6, [r9, -r0, lsl #8]!
    1620:	735f7469 	cmpvc	pc, #1761607680	; 0x69000000
    1624:	6e697274 	mcrvs	2, 3, r7, cr9, cr4, {3}
    1628:	74730067 	ldrbtvc	r0, [r3], #-103	; 0x67
    162c:	79706372 	ldmdbvc	r0!, {r1, r4, r5, r6, r8, r9, sp, lr}^
    1630:	65647000 	strbvs	r7, [r4, #-0]!
    1634:	70007473 	andvc	r7, r0, r3, ror r4
    1638:	746e6972 	strbtvc	r6, [lr], #-2418	; 0x972
    163c:	696c615f 	stmdbvs	ip!, {r0, r1, r2, r3, r4, r6, r8, sp, lr}^
    1640:	70006e67 	andvc	r6, r0, r7, ror #28
    1644:	746e6972 	strbtvc	r6, [lr], #-2418	; 0x972
    1648:	6f6e5f6b 	svcvs	0x006e5f6b
    164c:	00756d6d 	rsbseq	r6, r5, sp, ror #26
    1650:	6e675f5f 	mcrvs	15, 3, r5, cr7, cr15, {2}
    1654:	765f6375 			; <UNDEFINED> instruction: 0x765f6375
    1658:	696c5f61 	stmdbvs	ip!, {r0, r5, r6, r8, r9, sl, fp, ip, lr}^
    165c:	73007473 	movwvc	r7, #1139	; 0x473
    1660:	636e7274 	cmnvs	lr, #1073741831	; 0x40000007
    1664:	74007461 	strvc	r7, [r0], #-1121	; 0x461
    1668:	7551706d 	ldrbvc	r7, [r1, #-109]	; 0x6d
    166c:	6400746f 	strvs	r7, [r0], #-1135	; 0x46f
    1670:	73697669 	cmnvc	r9, #110100480	; 0x6900000
    1674:	00726f69 	rsbseq	r6, r2, r9, ror #30
    1678:	656d5f5f 	strbvs	r5, [sp, #-3935]!	; 0xf5f
    167c:	69645f6d 	stmdbvs	r4!, {r0, r2, r3, r5, r6, r8, r9, sl, fp, ip, lr}^
    1680:	64003076 	strvs	r3, [r0], #-118	; 0x76
    1684:	64697669 	strbtvs	r7, [r9], #-1641	; 0x669
    1688:	00646e65 	rsbeq	r6, r4, r5, ror #28
    168c:	5f776172 	svcpl	0x00776172
    1690:	5f62696c 	svcpl	0x0062696c
    1694:	76696475 			; <UNDEFINED> instruction: 0x76696475
    1698:	706d7400 	rsbvc	r7, sp, r0, lsl #8
    169c:	00766944 	rsbseq	r6, r6, r4, asr #18
    16a0:	68637261 	stmdavs	r3!, {r0, r5, r6, r9, ip, sp, lr}^
    16a4:	6d72612f 	ldfvse	f6, [r2, #-188]!	; 0xffffff44
    16a8:	63616d2f 	cmnvs	r1, #3008	; 0xbc0
    16ac:	75732d68 	ldrbvc	r2, [r3, #-3432]!	; 0xd68
    16b0:	2f69786e 	svccs	0x0069786e
    16b4:	732f6d70 	teqvc	pc, #7168	; 0x1c00
    16b8:	646e6174 	strbtvs	r6, [lr], #-372	; 0x174
    16bc:	2e2f7962 	cdpcs	9, 2, cr7, cr15, cr2, {3}
    16c0:	656d2f2e 	strbvs	r2, [sp, #-3886]!	; 0xf2e
    16c4:	69645f6d 	stmdbvs	r4!, {r0, r2, r3, r5, r6, r8, r9, sl, fp, ip, lr}^
    16c8:	62696c76 	rsbvs	r6, r9, #30208	; 0x7600
    16cc:	00632e63 	rsbeq	r2, r3, r3, ror #28
    16d0:	66696873 			; <UNDEFINED> instruction: 0x66696873
    16d4:	65720074 	ldrbvs	r0, [r2, #-116]!	; 0x74
    16d8:	746c7573 	strbtvc	r7, [ip], #-1395	; 0x573
    16dc:	6d656d00 	stclvs	13, cr6, [r5, #-0]
    16e0:	746e695f 	strbtvc	r6, [lr], #-2399	; 0x95f
    16e4:	6978655f 	ldmdbvs	r8!, {r0, r1, r2, r3, r4, r6, r8, sl, sp, lr}^
    16e8:	72610074 	rsbvc	r0, r1, #116	; 0x74
    16ec:	612f6863 	teqvs	pc, r3, ror #16
    16f0:	6d2f6d72 	stcvs	13, cr6, [pc, #-456]!	; 1530 <__restore_processor_state+0x22c>
    16f4:	2d686361 	stclcs	3, cr6, [r8, #-388]!	; 0xfffffe7c
    16f8:	786e7573 	stmdavc	lr!, {r0, r1, r4, r5, r6, r8, sl, ip, sp, lr}^
    16fc:	6d702f69 	ldclvs	15, cr2, [r0, #-420]!	; 0xfffffe5c
    1700:	6174732f 	cmnvs	r4, pc, lsr #6
    1704:	7962646e 	stmdbvc	r2!, {r1, r2, r3, r5, r6, sl, sp, lr}^
    1708:	2f2e2e2f 	svccs	0x002e2e2f
    170c:	5f6d656d 	svcpl	0x006d656d
    1710:	2e746e69 	cdpcs	14, 7, cr6, cr4, cr9, {3}
    1714:	4e490063 	cdpmi	0, 4, cr0, cr9, cr3, {3}
    1718:	4f535f54 	svcmi	0x00535f54
    171c:	45435255 	strbmi	r5, [r3, #-597]	; 0x255
    1720:	4253555f 	subsmi	r5, r3, #398458880	; 0x17c00000
    1724:	49434845 	stmdbmi	r3, {r0, r2, r6, fp, lr}^
    1728:	4e490030 	mcrmi	0, 2, r0, cr9, cr0, {1}
    172c:	4f535f54 	svcmi	0x00535f54
    1730:	45435255 	strbmi	r5, [r3, #-597]	; 0x255
    1734:	4253555f 	subsmi	r5, r3, #398458880	; 0x17c00000
    1738:	49434845 	stmdbmi	r3, {r0, r2, r6, fp, lr}^
    173c:	4e490031 	mcrmi	0, 2, r0, cr9, cr1, {1}
    1740:	4f535f54 	svcmi	0x00535f54
    1744:	45435255 	strbmi	r5, [r3, #-597]	; 0x255
    1748:	4253555f 	subsmi	r5, r3, #398458880	; 0x17c00000
    174c:	49434845 	stmdbmi	r3, {r0, r2, r6, fp, lr}^
    1750:	4e490032 	mcrmi	0, 2, r0, cr9, cr2, {1}
    1754:	4f535f54 	svcmi	0x00535f54
    1758:	45435255 	strbmi	r5, [r3, #-597]	; 0x255
    175c:	554f545f 	strbpl	r5, [pc, #-1119]	; 1305 <__restore_processor_state+0x1>
    1760:	4e504843 	cdpmi	8, 5, cr4, cr0, cr3, {2}
    1764:	656d004c 	strbvs	r0, [sp, #-76]!	; 0x4c
    1768:	6e695f6d 	cdpvs	15, 6, cr5, cr9, cr13, {3}
    176c:	6e695f74 	mcrvs	15, 3, r5, cr9, cr4, {3}
    1770:	6d007469 	cfstrsvs	mvf7, [r0, #-420]	; 0xfffffe5c
    1774:	655f6d65 	ldrbvs	r6, [pc, #-3429]	; a17 <inv_loop2+0x3>
    1778:	6c62616e 	stfvse	f6, [r2], #-440	; 0xfffffe48
    177c:	6e695f65 	cdpvs	15, 6, cr5, cr9, cr5, {3}
    1780:	6e690074 	mcrvs	0, 3, r0, cr9, cr4, {3}
    1784:	72726574 	rsbsvc	r6, r2, #486539264	; 0x1d000000
    1788:	5f747075 	svcpl	0x00747075
    178c:	72756f73 	rsbsvc	r6, r5, #460	; 0x1cc
    1790:	655f6563 	ldrbvs	r6, [pc, #-1379]	; 1235 <__save_processor_state+0x355>
    1794:	544e4900 	strbpl	r4, [lr], #-2304	; 0x900
    1798:	554f535f 	strbpl	r5, [pc, #-863]	; 1441 <__restore_processor_state+0x13d>
    179c:	5f454352 	svcpl	0x00454352
    17a0:	4f495047 	svcmi	0x00495047
    17a4:	4e490041 	cdpmi	0, 4, cr0, cr9, cr1, {2}
    17a8:	4f535f54 	svcmi	0x00535f54
    17ac:	45435255 	strbmi	r5, [r3, #-597]	; 0x255
    17b0:	4950475f 	ldmdbmi	r0, {r0, r1, r2, r3, r4, r6, r8, r9, sl, lr}^
    17b4:	4900424f 	stmdbmi	r0, {r0, r1, r2, r3, r6, r9, lr}
    17b8:	535f544e 	cmppl	pc, #1308622848	; 0x4e000000
    17bc:	4352554f 	cmpmi	r2, #331350016	; 0x13c00000
    17c0:	50475f45 	subpl	r5, r7, r5, asr #30
    17c4:	00434f49 	subeq	r4, r3, r9, asr #30
    17c8:	5f544e49 	svcpl	0x00544e49
    17cc:	52554f53 	subspl	r4, r5, #332	; 0x14c
    17d0:	475f4543 	ldrbmi	r4, [pc, -r3, asr #10]
    17d4:	444f4950 	strbmi	r4, [pc], #-2384	; 17dc <set_serial_clk+0x50>
    17d8:	544e4900 	strbpl	r4, [lr], #-2304	; 0x900
    17dc:	554f535f 	strbpl	r5, [pc, #-863]	; 1485 <__restore_processor_state+0x181>
    17e0:	5f454352 	svcpl	0x00454352
    17e4:	4f495047 	svcmi	0x00495047
    17e8:	4e490045 	cdpmi	0, 4, cr0, cr9, cr5, {2}
    17ec:	4f535f54 	svcmi	0x00535f54
    17f0:	45435255 	strbmi	r5, [r3, #-597]	; 0x255
    17f4:	4950475f 	ldmdbmi	r0, {r0, r1, r2, r3, r4, r6, r8, r9, sl, lr}^
    17f8:	4900464f 	stmdbmi	r0, {r0, r1, r2, r3, r6, r9, sl, lr}
    17fc:	535f544e 	cmppl	pc, #1308622848	; 0x4e000000
    1800:	4352554f 	cmpmi	r2, #331350016	; 0x13c00000
    1804:	50475f45 	subpl	r5, r7, r5, asr #30
    1808:	00474f49 	subeq	r4, r7, r9, asr #30
    180c:	5f544e49 	svcpl	0x00544e49
    1810:	52554f53 	subspl	r4, r5, #332	; 0x14c
    1814:	475f4543 	ldrbmi	r4, [pc, -r3, asr #10]
    1818:	484f4950 	stmdami	pc, {r4, r6, r8, fp, lr}^	; <UNPREDICTABLE>
    181c:	544e4900 	strbpl	r4, [lr], #-2304	; 0x900
    1820:	554f535f 	strbpl	r5, [pc, #-863]	; 14c9 <__restore_processor_state+0x1c5>
    1824:	5f454352 	svcpl	0x00454352
    1828:	4f495047 	svcmi	0x00495047
    182c:	4e490049 	cdpmi	0, 4, cr0, cr9, cr9, {2}
    1830:	4f535f54 	svcmi	0x00535f54
    1834:	45435255 	strbmi	r5, [r3, #-597]	; 0x255
    1838:	4950475f 	ldmdbmi	r0, {r0, r1, r2, r3, r4, r6, r8, r9, sl, lr}^
    183c:	49004a4f 	stmdbmi	r0, {r0, r1, r2, r3, r6, r9, fp, lr}
    1840:	535f544e 	cmppl	pc, #1308622848	; 0x4e000000
    1844:	4352554f 	cmpmi	r2, #331350016	; 0x13c00000
    1848:	53555f45 	cmppl	r5, #276	; 0x114
    184c:	47544f42 	ldrbmi	r4, [r4, -r2, asr #30]
    1850:	63694700 	cmnvs	r9, #0
    1854:	73694443 	cmnvc	r9, #1124073472	; 0x43000000
    1858:	4e490063 	cdpmi	0, 4, cr0, cr9, cr3, {3}
    185c:	4f535f54 	svcmi	0x00535f54
    1860:	45435255 	strbmi	r5, [r3, #-597]	; 0x255
    1864:	41524c5f 	cmpmi	r2, pc, asr ip
    1868:	49004344 	stmdbmi	r0, {r2, r6, r8, r9, lr}
    186c:	535f544e 	cmppl	pc, #1308622848	; 0x4e000000
    1870:	4352554f 	cmpmi	r2, #331350016	; 0x13c00000
    1874:	53555f45 	cmppl	r5, #276	; 0x114
    1878:	43484f42 	movtmi	r4, #36674	; 0x8f42
    187c:	49003049 	stmdbmi	r0, {r0, r3, r6, ip, sp}
    1880:	535f544e 	cmppl	pc, #1308622848	; 0x4e000000
    1884:	4352554f 	cmpmi	r2, #331350016	; 0x13c00000
    1888:	53555f45 	cmppl	r5, #276	; 0x114
    188c:	43484f42 	movtmi	r4, #36674	; 0x8f42
    1890:	49003149 	stmdbmi	r0, {r0, r3, r6, r8, ip, sp}
    1894:	535f544e 	cmppl	pc, #1308622848	; 0x4e000000
    1898:	4352554f 	cmpmi	r2, #331350016	; 0x13c00000
    189c:	53555f45 	cmppl	r5, #276	; 0x114
    18a0:	43484f42 	movtmi	r4, #36674	; 0x8f42
    18a4:	49003249 	stmdbmi	r0, {r0, r3, r6, r9, ip, sp}
    18a8:	535f544e 	cmppl	pc, #1308622848	; 0x4e000000
    18ac:	4352554f 	cmpmi	r2, #331350016	; 0x13c00000
    18b0:	58455f45 	stmdapl	r5, {r0, r2, r6, r8, r9, sl, fp, ip, lr}^
    18b4:	494d4e54 	stmdbmi	sp, {r2, r4, r6, r9, sl, fp, lr}^
    18b8:	616e6500 	cmnvs	lr, r0, lsl #10
    18bc:	5f656c62 	svcpl	0x00656c62
    18c0:	00746962 	rsbseq	r6, r4, r2, ror #18
    18c4:	53706d74 	cmnpl	r0, #7424	; 0x1d00
    18c8:	49006372 	stmdbmi	r0, {r1, r4, r5, r6, r8, r9, sp, lr}
    18cc:	535f544e 	cmppl	pc, #1308622848	; 0x4e000000
    18d0:	4352554f 	cmpmi	r2, #331350016	; 0x13c00000
    18d4:	49545f45 	ldmdbmi	r4, {r0, r2, r6, r8, r9, sl, fp, ip, lr}^
    18d8:	3052454d 	subscc	r4, r2, sp, asr #10
    18dc:	544e4900 	strbpl	r4, [lr], #-2304	; 0x900
    18e0:	554f535f 	strbpl	r5, [pc, #-863]	; 1589 <__restore_processor_state+0x285>
    18e4:	5f454352 	svcpl	0x00454352
    18e8:	454d4954 	strbmi	r4, [sp, #-2388]	; 0x954
    18ec:	47003152 	smlsdmi	r0, r2, r1, r3
    18f0:	44446369 	strbmi	r6, [r4], #-873	; 0x369
    18f4:	00637369 	rsbeq	r7, r3, r9, ror #6
    18f8:	5f6d656d 	svcpl	0x006d656d
    18fc:	72657571 	rsbvc	r7, r5, #473956352	; 0x1c400000
    1900:	6e695f79 	mcrvs	15, 3, r5, cr9, cr9, {3}
    1904:	4e490074 	mcrmi	0, 2, r0, cr9, cr4, {3}
    1908:	4f535f54 	svcmi	0x00535f54
    190c:	45435255 	strbmi	r5, [r3, #-597]	; 0x255
    1910:	3052495f 	subscc	r4, r2, pc, asr r9
    1914:	544e4900 	strbpl	r4, [lr], #-2304	; 0x900
    1918:	554f535f 	strbpl	r5, [pc, #-863]	; 15c1 <__restore_processor_state+0x2bd>
    191c:	5f454352 	svcpl	0x00454352
    1920:	00315249 	eorseq	r5, r1, r9, asr #4
    1924:	5f544e49 	svcpl	0x00544e49
    1928:	52554f53 	subspl	r4, r5, #332	; 0x14c
    192c:	4d5f4543 	cfldr64mi	mvdx4, [pc, #-268]	; 1828 <set_serial_clk+0x9c>
    1930:	425f4753 	subsmi	r4, pc, #21757952	; 0x14c0000
    1934:	7400584f 	strvc	r5, [r0], #-2127	; 0x84f
    1938:	7247706d 	subvc	r7, r7, #109	; 0x6d
    193c:	4e490070 	mcrmi	0, 2, r0, cr9, cr0, {3}
    1940:	4f535f54 	svcmi	0x00535f54
    1944:	45435255 	strbmi	r5, [r3, #-597]	; 0x255
    1948:	414c415f 	cmpmi	ip, pc, asr r1
    194c:	6d004d52 	stcvs	13, cr4, [r0, #-328]	; 0xfffffeb8
    1950:	675f6d65 	ldrbvs	r6, [pc, -r5, ror #26]
    1954:	5f6f6970 	svcpl	0x006f6970
    1958:	74736572 	ldrbtvc	r6, [r3], #-1394	; 0x572
    195c:	0065726f 	rsbeq	r7, r5, pc, ror #4
    1960:	69706770 	ldmdbvs	r0!, {r4, r5, r6, r8, r9, sl, sp, lr}^
    1964:	74735f6f 	ldrbtvc	r5, [r3], #-3951	; 0xf6f
    1968:	00657461 	rsbeq	r7, r5, r1, ror #8
    196c:	666e6f63 	strbtvs	r6, [lr], -r3, ror #30
    1970:	675f6769 	ldrbvs	r6, [pc, -r9, ror #14]
    1974:	5f6f6970 	svcpl	0x006f6970
    1978:	006b6c63 	rsbeq	r6, fp, r3, ror #24
    197c:	6f697067 	svcvs	0x00697067
    1980:	6b6c635f 	blvs	1b1a704 <__bss_end+0x1b1718c>
    1984:	696e695f 	stmdbvs	lr!, {r0, r1, r2, r3, r4, r6, r8, fp, sp, lr}^
    1988:	00646574 	rsbeq	r6, r4, r4, ror r5
    198c:	6f697067 	svcvs	0x00697067
    1990:	6765725f 			; <UNDEFINED> instruction: 0x6765725f
    1994:	6361625f 	cmnvs	r1, #-268435451	; 0xf0000005
    1998:	7261006b 	rsbvc	r0, r1, #107	; 0x6b
    199c:	612f6863 	teqvs	pc, r3, ror #16
    19a0:	6d2f6d72 	stcvs	13, cr6, [pc, #-456]!	; 17e0 <set_serial_clk+0x54>
    19a4:	2d686361 	stclcs	3, cr6, [r8, #-388]!	; 0xfffffe7c
    19a8:	786e7573 	stmdavc	lr!, {r0, r1, r4, r5, r6, r8, sl, ip, sp, lr}^
    19ac:	6d702f69 	ldclvs	15, cr2, [r0, #-420]!	; 0xfffffe5c
    19b0:	6174732f 	cmnvs	r4, pc, lsr #6
    19b4:	7962646e 	stmdbvc	r2!, {r1, r2, r3, r5, r6, sl, sp, lr}^
    19b8:	2f2e2e2f 	svccs	0x002e2e2f
    19bc:	5f6d656d 	svcpl	0x006d656d
    19c0:	6f697067 	svcvs	0x00697067
    19c4:	6d00632e 	stcvs	3, cr6, [r0, #-184]	; 0xffffff48
    19c8:	675f6d65 	ldrbvs	r6, [pc, -r5, ror #26]
    19cc:	5f6f6970 	svcpl	0x006f6970
    19d0:	65766173 	ldrbvs	r6, [r6, #-371]!	; 0x173
    19d4:	69706700 	ldmdbvs	r0!, {r8, r9, sl, sp, lr}^
    19d8:	70615f6f 	rsbvc	r5, r1, pc, ror #30
    19dc:	675f3062 	ldrbvs	r3, [pc, -r2, rrx]
    19e0:	6e697461 	cdpvs	4, 6, cr7, cr9, cr1, {3}
    19e4:	65725f67 	ldrbvs	r5, [r2, #-3943]!	; 0xf67
    19e8:	44570067 	ldrbmi	r0, [r7], #-103	; 0x67
    19ec:	5f31676f 	svcpl	0x0031676f
    19f0:	5f717249 	svcpl	0x00717249
    19f4:	00617453 	rsbeq	r7, r1, r3, asr r4
    19f8:	31737641 	cmncc	r3, r1, asr #12
    19fc:	00746e43 	rsbseq	r6, r4, r3, asr #28
    1a00:	43746e49 	cmnmi	r4, #1168	; 0x490
    1a04:	54006c74 	strpl	r6, [r0], #-3188	; 0xc74
    1a08:	4930726d 	ldmdbmi	r0!, {r0, r2, r3, r5, r6, r9, ip, sp, lr}
    1a0c:	6156746e 	cmpvs	r6, lr, ror #8
    1a10:	4457006c 	ldrbmi	r0, [r7], #-108	; 0x6c
    1a14:	5f31676f 	svcpl	0x0031676f
    1a18:	6c727443 	cfldrdvs	mvd7, [r2], #-268	; 0xfffffef4
    1a1c:	6765525f 			; <UNDEFINED> instruction: 0x6765525f
    1a20:	6d656d00 	stclvs	13, cr6, [r5, #-0]
    1a24:	726d745f 	rsbvc	r7, sp, #1593835520	; 0x5f000000
    1a28:	7465735f 	strbtvc	r7, [r5], #-863	; 0x35f
    1a2c:	726d5400 	rsbvc	r5, sp, #0
    1a30:	6c744331 	ldclvs	3, cr4, [r4], #-196	; 0xffffff3c
    1a34:	726d5400 	rsbvc	r5, sp, #0
    1a38:	746e4330 	strbtvc	r4, [lr], #-816	; 0x330
    1a3c:	006c6156 	rsbeq	r6, ip, r6, asr r1
    1a40:	35726d54 	ldrbcc	r6, [r2, #-3412]!	; 0xd54
    1a44:	006c7443 	rsbeq	r7, ip, r3, asr #8
    1a48:	32726d54 	rsbscc	r6, r2, #5376	; 0x1500
    1a4c:	56746e49 	ldrbtpl	r6, [r4], -r9, asr #28
    1a50:	5f006c61 	svcpl	0x00006c61
    1a54:	6d656d5f 	stclvs	13, cr6, [r5, #-380]!	; 0xfffffe84
    1a58:	726d745f 	rsbvc	r7, sp, #1593835520	; 0x5f000000
    1a5c:	6765725f 			; <UNDEFINED> instruction: 0x6765725f
    1a60:	5400745f 	strpl	r7, [r0], #-1119	; 0x45f
    1a64:	4332726d 	teqmi	r2, #-805306362	; 0xd0000006
    1a68:	6156746e 	cmpvs	r6, lr, ror #8
    1a6c:	6157006c 	cmpvs	r7, ip, rrx
    1a70:	44686374 	strbtmi	r6, [r8], #-884	; 0x374
    1a74:	5f31676f 	svcpl	0x0031676f
    1a78:	5f717249 	svcpl	0x00717249
    1a7c:	425f6e45 	subsmi	r6, pc, #1104	; 0x450
    1a80:	6d006b61 	vstrvs	d6, [r0, #-388]	; 0xfffffe7c
    1a84:	745f6d65 	ldrbvc	r6, [pc], #-3429	; 1a8c <serial_init+0x2c>
    1a88:	655f726d 	ldrbvs	r7, [pc, #-621]	; 1823 <set_serial_clk+0x97>
    1a8c:	00746978 	rsbseq	r6, r4, r8, ror r9
    1a90:	68637261 	stmdavs	r3!, {r0, r5, r6, r9, ip, sp, lr}^
    1a94:	6d72612f 	ldfvse	f6, [r2, #-188]!	; 0xffffff44
    1a98:	63616d2f 	cmnvs	r1, #3008	; 0xbc0
    1a9c:	75732d68 	ldrbvc	r2, [r3, #-3432]!	; 0xd68
    1aa0:	2f69786e 	svccs	0x0069786e
    1aa4:	732f6d70 	teqvc	pc, #7168	; 0x1c00
    1aa8:	646e6174 	strbtvs	r6, [lr], #-372	; 0x174
    1aac:	2e2f7962 	cdpcs	9, 2, cr7, cr15, cr2, {3}
    1ab0:	656d2f2e 	strbvs	r2, [sp, #-3886]!	; 0xf2e
    1ab4:	6d745f6d 	ldclvs	15, cr5, [r4, #-436]!	; 0xfffffe4c
    1ab8:	00632e72 	rsbeq	r2, r3, r2, ror lr
    1abc:	34726d54 	ldrbtcc	r6, [r2], #-3412	; 0xd54
    1ac0:	56746e49 	ldrbtpl	r6, [r4], -r9, asr #28
    1ac4:	54006c61 	strpl	r6, [r0], #-3169	; 0xc61
    1ac8:	4334726d 	teqmi	r4, #-805306362	; 0xd0000006
    1acc:	6156746e 	cmpvs	r6, lr, ror #8
    1ad0:	6157006c 	cmpvs	r7, ip, rrx
    1ad4:	44686374 	strbtmi	r6, [r8], #-884	; 0x374
    1ad8:	5f31676f 	svcpl	0x0031676f
    1adc:	666e6f43 	strbtvs	r6, [lr], -r3, asr #30
    1ae0:	525f6769 	subspl	r6, pc, #27525120	; 0x1a40000
    1ae4:	425f6765 	subsmi	r6, pc, #26476544	; 0x1940000
    1ae8:	72006b61 	andvc	r6, r0, #99328	; 0x18400
    1aec:	72657365 	rsbvc	r7, r5, #-1811939327	; 0x94000001
    1af0:	38646576 	stmdacc	r4!, {r1, r2, r4, r5, r6, r8, sl, sp, lr}^
    1af4:	726d5400 	rsbvc	r5, sp, #0
    1af8:	6c744332 	ldclvs	3, cr4, [r4], #-200	; 0xffffff38
    1afc:	6f445700 	svcvs	0x00445700
    1b00:	4d5f3167 	ldfmie	f3, [pc, #-412]	; 196c <serial_puts_nommu+0x70>
    1b04:	5f65646f 	svcpl	0x0065646f
    1b08:	00676552 	rsbeq	r6, r7, r2, asr r5
    1b0c:	63746157 	cmnvs	r4, #-1073741803	; 0xc0000015
    1b10:	676f4468 	strbvs	r4, [pc, -r8, ror #8]!
    1b14:	6f4d5f31 	svcvs	0x004d5f31
    1b18:	65525f64 	ldrbvs	r5, [r2, #-3940]	; 0xf64
    1b1c:	61425f67 	cmpvs	r2, r7, ror #30
    1b20:	656d006b 	strbvs	r0, [sp, #-107]!	; 0x6b
    1b24:	6d745f6d 	ldclvs	15, cr5, [r4, #-436]!	; 0xfffffe4c
    1b28:	6e655f72 	mcrvs	15, 3, r5, cr5, cr2, {3}
    1b2c:	656c6261 	strbvs	r6, [ip, #-609]!	; 0x261
    1b30:	7461775f 	strbtvc	r7, [r1], #-1887	; 0x75f
    1b34:	6f646863 	svcvs	0x00646863
    1b38:	656d0067 	strbvs	r0, [sp, #-103]!	; 0x67
    1b3c:	6d745f6d 	ldclvs	15, cr5, [r4, #-436]!	; 0xfffffe4c
    1b40:	6e695f72 	mcrvs	15, 3, r5, cr9, cr2, {3}
    1b44:	57007469 	strpl	r7, [r0, -r9, ror #8]
    1b48:	31676f44 	cmncc	r7, r4, asr #30
    1b4c:	7172495f 	cmnvc	r2, pc, asr r9
    1b50:	006e455f 	rsbeq	r4, lr, pc, asr r5
    1b54:	6f636573 	svcvs	0x00636573
    1b58:	6d00646e 	cfstrsvs	mvf6, [r0, #-440]	; 0xfffffe48
    1b5c:	745f6d65 	ldrbvc	r6, [pc], #-3429	; 1b64 <serial_puts+0x78>
    1b60:	725f726d 	subsvc	r7, pc, #-805306362	; 0xd0000006
    1b64:	6f747365 	svcvs	0x00747365
    1b68:	5f006572 	svcpl	0x00006572
    1b6c:	4d454d5f 	stclmi	13, cr4, [r5, #-380]	; 0xfffffe84
    1b70:	524d545f 	subpl	r5, sp, #1593835520	; 0x5f000000
    1b74:	4745525f 	smlsldmi	r5, r5, pc, r2	; <UNPREDICTABLE>
    1b78:	6d656d00 	stclvs	13, cr6, [r5, #-0]
    1b7c:	726d745f 	rsbvc	r7, sp, #1593835520	; 0x5f000000
    1b80:	7369645f 	cmnvc	r9, #1593835520	; 0x5f000000
    1b84:	656c6261 	strbvs	r6, [ip, #-609]!	; 0x261
    1b88:	7461775f 	strbtvc	r7, [r1], #-1887	; 0x75f
    1b8c:	6f646863 	svcvs	0x00646863
    1b90:	6d540067 	ldclvs	0, cr0, [r4, #-412]	; 0xfffffe64
    1b94:	6e493572 	mcrvs	5, 2, r3, cr9, cr2, {3}
    1b98:	6c615674 	stclvs	6, cr5, [r1], #-464	; 0xfffffe30
    1b9c:	726d5400 	rsbvc	r5, sp, #0
    1ba0:	746e4931 	strbtvc	r4, [lr], #-2353	; 0x931
    1ba4:	006c6156 	rsbeq	r6, ip, r6, asr r1
    1ba8:	726d7470 	rsbvc	r7, sp, #1879048192	; 0x70000000
    1bac:	6174735f 	cmnvs	r4, pc, asr r3
    1bb0:	41006574 	tstmi	r0, r4, ror r5
    1bb4:	69447376 	stmdbvs	r4, {r1, r2, r4, r5, r6, r8, r9, ip, sp, lr}^
    1bb8:	6d540076 	ldclvs	0, cr0, [r4, #-472]	; 0xfffffe28
    1bbc:	74433372 	strbvc	r3, [r3], #-882	; 0x372
    1bc0:	7641006c 	strbvc	r0, [r1], -ip, rrx
    1bc4:	6c744373 	ldclvs	3, cr4, [r4], #-460	; 0xfffffe34
    1bc8:	746e4900 	strbtvc	r4, [lr], #-2304	; 0x900
    1bcc:	00617453 	rsbeq	r7, r1, r3, asr r4
    1bd0:	31726d54 	cmncc	r2, r4, asr sp
    1bd4:	56746e43 	ldrbtpl	r6, [r4], -r3, asr #28
    1bd8:	54006c61 	strpl	r6, [r0], #-3169	; 0xc61
    1bdc:	4933726d 	ldmdbmi	r3!, {r0, r2, r3, r5, r6, r9, ip, sp, lr}
    1be0:	6156746e 	cmpvs	r6, lr, ror #8
    1be4:	4457006c 	ldrbmi	r0, [r7], #-108	; 0x6c
    1be8:	5f31676f 	svcpl	0x0031676f
    1bec:	5f676643 	svcpl	0x00676643
    1bf0:	00676552 	rsbeq	r6, r7, r2, asr r5
    1bf4:	30737641 	rsbscc	r7, r3, r1, asr #12
    1bf8:	00746e43 	rsbseq	r6, r4, r3, asr #28
    1bfc:	35726d54 	ldrbcc	r6, [r2, #-3412]!	; 0xd54
    1c00:	56746e43 	ldrbtpl	r6, [r4], -r3, asr #28
    1c04:	54006c61 	strpl	r6, [r0], #-3169	; 0xc61
    1c08:	6552726d 	ldrbvs	r7, [r2, #-621]	; 0x26d
    1c0c:	6d540067 	ldclvs	0, cr0, [r4, #-412]	; 0xfffffe64
    1c10:	74433072 	strbvc	r3, [r3], #-114	; 0x72
    1c14:	6d54006c 	ldclvs	0, cr0, [r4, #-432]	; 0xfffffe50
    1c18:	74433472 	strbvc	r3, [r3], #-1138	; 0x472
    1c1c:	656d006c 	strbvs	r0, [sp, #-108]!	; 0x6c
    1c20:	6d745f6d 	ldclvs	15, cr5, [r4, #-436]!	; 0xfffffe4c
    1c24:	61735f72 	cmnvs	r3, r2, ror pc
    1c28:	43006576 	movwmi	r6, #1398	; 0x576
    1c2c:	7473756c 	ldrbtvc	r7, [r3], #-1388	; 0x56c
    1c30:	43307265 	teqmi	r0, #1342177286	; 0x50000006
    1c34:	526c7274 	rsbpl	r7, ip, #1073741831	; 0x40000007
    1c38:	00316765 	eorseq	r6, r1, r5, ror #14
    1c3c:	5f6d656d 	svcpl	0x006d656d
    1c40:	74736d74 	ldrbtvc	r6, [r3], #-3444	; 0xd74
    1c44:	735f706d 	cmpvc	pc, #109	; 0x6d
    1c48:	00657661 	rsbeq	r7, r5, r1, ror #12
    1c4c:	5f6d656d 	svcpl	0x006d656d
    1c50:	74736d74 	ldrbtvc	r6, [r3], #-3444	; 0xd74
    1c54:	725f706d 	subsvc	r7, pc, #109	; 0x6d
    1c58:	6f747365 	svcvs	0x00747365
    1c5c:	54006572 	strpl	r6, [r0], #-1394	; 0x572
    1c60:	6d74736d 	ldclvs	3, cr7, [r4, #-436]!	; 0xfffffe4c
    1c64:	67655270 			; <UNDEFINED> instruction: 0x67655270
    1c68:	6d5f5f00 	ldclvs	15, cr5, [pc, #-0]	; 1c70 <utoa+0x48>
    1c6c:	745f6d65 	ldrbvc	r6, [pc], #-3429	; 1c74 <utoa+0x4c>
    1c70:	6d74736d 	ldclvs	3, cr7, [r4, #-436]!	; 0xfffffe4c
    1c74:	65725f70 	ldrbvs	r5, [r2, #-3952]!	; 0xf70
    1c78:	00745f67 	rsbseq	r5, r4, r7, ror #30
    1c7c:	68637261 	stmdavs	r3!, {r0, r5, r6, r9, ip, sp, lr}^
    1c80:	6d72612f 	ldfvse	f6, [r2, #-188]!	; 0xffffff44
    1c84:	63616d2f 	cmnvs	r1, #3008	; 0xbc0
    1c88:	75732d68 	ldrbvc	r2, [r3, #-3432]!	; 0xd68
    1c8c:	2f69786e 	svccs	0x0069786e
    1c90:	732f6d70 	teqvc	pc, #7168	; 0x1c00
    1c94:	646e6174 	strbtvs	r6, [lr], #-372	; 0x174
    1c98:	2e2f7962 	cdpcs	9, 2, cr7, cr15, cr2, {3}
    1c9c:	656d2f2e 	strbvs	r2, [sp, #-3886]!	; 0xf2e
    1ca0:	6d745f6d 	ldclvs	15, cr5, [r4, #-436]!	; 0xfffffe4c
    1ca4:	706d7473 	rsbvc	r7, sp, r3, ror r4
    1ca8:	7000632e 	andvc	r6, r0, lr, lsr #6
    1cac:	74736d74 	ldrbtvc	r6, [r3], #-3444	; 0xd74
    1cb0:	735f706d 	cmpvc	pc, #109	; 0x6d
    1cb4:	65746174 	ldrbvs	r6, [r4, #-372]!	; 0x174
    1cb8:	4d5f5f00 	ldclmi	15, cr5, [pc, #-0]	; 1cc0 <utoa+0x98>
    1cbc:	545f4d45 	ldrbpl	r4, [pc], #-3397	; 1cc4 <utoa+0x9c>
    1cc0:	4d54534d 	ldclmi	3, cr5, [r4, #-308]	; 0xfffffecc
    1cc4:	45525f50 	ldrbmi	r5, [r2, #-3920]	; 0xf50
    1cc8:	70630047 	rsbvc	r0, r3, r7, asr #32
    1ccc:	625f7273 	subsvs	r7, pc, #805306375	; 0x30000007
    1cd0:	756b6361 	strbvc	r6, [fp, #-865]!	; 0x361
    1cd4:	77680070 			; <UNDEFINED> instruction: 0x77680070
    1cd8:	6e697073 	mcrvs	0, 3, r7, cr9, cr3, {3}
    1cdc:	6b636f6c 	blvs	18dda94 <__bss_end+0x18da51c>
    1ce0:	696e695f 	stmdbvs	lr!, {r0, r1, r2, r3, r4, r6, r8, fp, sp, lr}^
    1ce4:	72610074 	rsbvc	r0, r1, #116	; 0x74
    1ce8:	612f6863 	teqvs	pc, r3, ror #16
    1cec:	6d2f6d72 	stcvs	13, cr6, [pc, #-456]!	; 1b2c <serial_puts+0x40>
    1cf0:	2d686361 	stclcs	3, cr6, [r8, #-388]!	; 0xfffffe7c
    1cf4:	786e7573 	stmdavc	lr!, {r0, r1, r4, r5, r6, r8, sl, ip, sp, lr}^
    1cf8:	6d702f69 	ldclvs	15, cr2, [r0, #-420]!	; 0xfffffe5c
    1cfc:	6174732f 	cmnvs	r4, pc, lsr #6
    1d00:	7962646e 	stmdbvc	r2!, {r1, r2, r3, r5, r6, sl, sp, lr}^
    1d04:	2f2e2e2f 	svccs	0x002e2e2f
    1d08:	5f6d656d 	svcpl	0x006d656d
    1d0c:	70737768 	rsbsvc	r7, r3, r8, ror #14
    1d10:	6f6c6e69 	svcvs	0x006c6e69
    1d14:	632e6b63 	teqvs	lr, #101376	; 0x18c00
    1d18:	73776800 	cmnvc	r7, #0
    1d1c:	5f6e6970 	svcpl	0x006e6970
    1d20:	6b636f6c 	blvs	18ddad8 <__bss_end+0x18da560>
    1d24:	6d69745f 	cfstrdvs	mvd7, [r9, #-380]!	; 0xfffffe84
    1d28:	74756f65 	ldrbtvc	r6, [r5], #-3941	; 0xf65
    1d2c:	6d6f6e5f 	stclvs	14, cr6, [pc, #-380]!	; 1bb8 <serial_gets+0x1c>
    1d30:	6800756d 	stmdavs	r0, {r0, r2, r3, r5, r6, r8, sl, ip, sp, lr}
    1d34:	69707377 	ldmdbvs	r0!, {r0, r1, r2, r4, r5, r6, r8, r9, ip, sp, lr}^
    1d38:	6e755f6e 	cdpvs	15, 7, cr5, cr5, cr14, {3}
    1d3c:	6b636f6c 	blvs	18ddaf4 <__bss_end+0x18da57c>
    1d40:	6d656d00 	stclvs	13, cr6, [r5, #-0]
    1d44:	636f6c5f 	cmnvs	pc, #24320	; 0x5f00
    1d48:	695f6c61 	ldmdbvs	pc, {r0, r5, r6, sl, fp, sp, lr}^	; <UNPREDICTABLE>
    1d4c:	725f7172 	subsvc	r7, pc, #-2147483620	; 0x8000001c
    1d50:	6f747365 	svcvs	0x00747365
    1d54:	65006572 	strvs	r6, [r0, #-1394]	; 0x572
    1d58:	72697078 	rsbvc	r7, r9, #120	; 0x78
    1d5c:	6c660065 	stclvs	0, cr0, [r6], #-404	; 0xfffffe6c
    1d60:	00736761 	rsbseq	r6, r3, r1, ror #14
    1d64:	70737768 	rsbsvc	r7, r3, r8, ror #14
    1d68:	6c5f6e69 	mrrcvs	14, 6, r6, pc, cr9	; <UNPREDICTABLE>
    1d6c:	5f6b636f 	svcpl	0x006b636f
    1d70:	656d6974 	strbvs	r6, [sp, #-2420]!	; 0x974
    1d74:	0074756f 	rsbseq	r7, r4, pc, ror #10
    1d78:	5f6d656d 	svcpl	0x006d656d
    1d7c:	61636f6c 	cmnvs	r3, ip, ror #30
    1d80:	72695f6c 	rsbvc	r5, r9, #432	; 0x1b0
    1d84:	61735f71 	cmnvs	r3, r1, ror pc
    1d88:	68006576 	stmdavs	r0, {r1, r2, r4, r5, r6, r8, sl, sp, lr}
    1d8c:	69707377 	ldmdbvs	r0!, {r0, r1, r2, r4, r5, r6, r8, r9, ip, sp, lr}^
    1d90:	6e755f6e 	cdpvs	15, 7, cr5, cr5, cr14, {3}
    1d94:	6b636f6c 	blvs	18ddb4c <__bss_end+0x18da5d4>
    1d98:	6d6f6e5f 	stclvs	14, cr6, [pc, #-380]!	; 1c24 <serial_gets+0x88>
    1d9c:	6800756d 	stmdavs	r0, {r0, r2, r3, r5, r6, r8, sl, ip, sp, lr}
    1da0:	00646977 	rsbeq	r6, r4, r7, ror r9
    1da4:	5f6d656d 	svcpl	0x006d656d
    1da8:	5f6b6c63 	svcpl	0x006b6c63
    1dac:	5f746567 	svcpl	0x00746567
    1db0:	6373696d 	cmnvs	r3, #1785856	; 0x1b4000
    1db4:	63726100 	cmnvs	r2, #0
    1db8:	72612f68 	rsbvc	r2, r1, #416	; 0x1a0
    1dbc:	616d2f6d 	cmnvs	sp, sp, ror #30
    1dc0:	732d6863 	teqvc	sp, #6488064	; 0x630000
    1dc4:	69786e75 	ldmdbvs	r8!, {r0, r2, r4, r5, r6, r9, sl, fp, sp, lr}^
    1dc8:	2f6d702f 	svccs	0x006d702f
    1dcc:	6e617473 	mcrvs	4, 3, r7, cr1, cr3, {3}
    1dd0:	2f796264 	svccs	0x00796264
    1dd4:	6d2f2e2e 	stcvs	14, cr2, [pc, #-184]!	; 1d24 <print_align+0x40>
    1dd8:	635f6d65 	cmpvs	pc, #6464	; 0x1940
    1ddc:	632e6b6c 	teqvs	lr, #110592	; 0x1b000
    1de0:	6d656d00 	stclvs	13, cr6, [r5, #-0]
    1de4:	6b6c635f 	blvs	1b1ab68 <__bss_end+0x1b175f0>
    1de8:	696e695f 	stmdbvs	lr!, {r0, r1, r2, r3, r4, r6, r8, fp, sp, lr}^
    1dec:	656d0074 	strbvs	r0, [sp, #-116]!	; 0x74
    1df0:	6c635f6d 	stclvs	15, cr5, [r3], #-436	; 0xfffffe4c
    1df4:	65735f6b 	ldrbvs	r5, [r3, #-3947]!	; 0xf6b
    1df8:	696d5f74 	stmdbvs	sp!, {r2, r4, r5, r6, r8, r9, sl, fp, ip, lr}^
    1dfc:	43006373 	movwmi	r6, #883	; 0x373
    1e00:	6552756d 	ldrbvs	r7, [r2, #-1389]	; 0x56d
    1e04:	6c505f67 	mrrcvs	15, 6, r5, r0, cr7
    1e08:	7443316c 	strbvc	r3, [r3], #-364	; 0x16c
    1e0c:	6d745f6c 	ldclvs	15, cr5, [r4, #-432]!	; 0xfffffe50
    1e10:	656d0070 	strbvs	r0, [sp, #-112]!	; 0x70
    1e14:	6c635f6d 	stclvs	15, cr5, [r3], #-436	; 0xfffffe4c
    1e18:	65735f6b 	ldrbvs	r5, [r3, #-3947]!	; 0xf6b
    1e1c:	6c705f74 	ldclvs	15, cr5, [r0], #-464	; 0xfffffe30
    1e20:	61665f6c 	cmnvs	r6, ip, ror #30
    1e24:	726f7463 	rsbvc	r7, pc, #1660944384	; 0x63000000
    1e28:	6d656d00 	stclvs	13, cr6, [r5, #-0]
    1e2c:	6b6c635f 	blvs	1b1abb0 <__bss_end+0x1b17638>
    1e30:	7465675f 	strbtvc	r6, [r5], #-1887	; 0x75f
    1e34:	7570635f 	ldrbvc	r6, [r0, #-863]!	; 0x35f
    1e38:	6572665f 	ldrbvs	r6, [r2, #-1631]!	; 0x65f
    1e3c:	656d0071 	strbvs	r0, [sp, #-113]!	; 0x71
    1e40:	6c635f6d 	stclvs	15, cr5, [r3], #-436	; 0xfffffe4c
    1e44:	65675f6b 	strbvs	r5, [r7, #-3947]!	; 0xf6b
    1e48:	76696474 			; <UNDEFINED> instruction: 0x76696474
    1e4c:	75636300 	strbvc	r6, [r3, #-768]!	; 0x300
    1e50:	6765725f 			; <UNDEFINED> instruction: 0x6765725f
    1e54:	6361625f 	cmnvs	r1, #-268435451	; 0xf0000005
    1e58:	656d006b 	strbvs	r0, [sp, #-107]!	; 0x6b
    1e5c:	6c635f6d 	stclvs	15, cr5, [r3], #-436	; 0xfffffe4c
    1e60:	65675f6b 	strbvs	r5, [r7, #-3947]!	; 0xf6b
    1e64:	6c705f74 	ldclvs	15, cr5, [r0], #-464	; 0xfffffe30
    1e68:	61665f6c 	cmnvs	r6, ip, ror #30
    1e6c:	726f7463 	rsbvc	r7, pc, #1660944384	; 0x63000000
    1e70:	67657200 	strbvs	r7, [r5, -r0, lsl #4]!
    1e74:	6c61765f 	stclvs	6, cr7, [r1], #-380	; 0xfffffe84
    1e78:	6d656d00 	stclvs	13, cr6, [r5, #-0]
    1e7c:	6b6c635f 	blvs	1b1ac00 <__bss_end+0x1b17688>
    1e80:	7661735f 			; <UNDEFINED> instruction: 0x7661735f
    1e84:	656d0065 	strbvs	r0, [sp, #-101]!	; 0x65
    1e88:	6c635f6d 	stclvs	15, cr5, [r3], #-436	; 0xfffffe4c
    1e8c:	65735f6b 	ldrbvs	r5, [r3, #-3947]!	; 0xf6b
    1e90:	76696474 			; <UNDEFINED> instruction: 0x76696474
    1e94:	6d656d00 	stclvs	13, cr6, [r5, #-0]
    1e98:	7465675f 	strbtvc	r6, [r5], #-1887	; 0x75f
    1e9c:	0061625f 	rsbeq	r6, r1, pc, asr r2
    1ea0:	6b6c6370 	blvs	1b1ac68 <__bss_end+0x1b176f0>
    1ea4:	6174735f 	cmnvs	r4, pc, asr r3
    1ea8:	6d006574 	cfstr32vs	mvfx6, [r0, #-464]	; 0xfffffe30
    1eac:	635f6d65 	cmpvs	pc, #6464	; 0x1940
    1eb0:	725f6b6c 	subsvc	r6, pc, #110592	; 0x1b000
    1eb4:	6f747365 	svcvs	0x00747365
    1eb8:	43006572 	movwmi	r6, #1394	; 0x572
    1ebc:	6552756d 	ldrbvs	r7, [r2, #-1389]	; 0x56d
    1ec0:	79535f67 	ldmdbvc	r3, {r0, r1, r2, r5, r6, r8, r9, sl, fp, ip, lr}^
    1ec4:	6b6c4373 	blvs	1b12c98 <__bss_end+0x1b0f720>
    1ec8:	5f766944 	svcpl	0x00766944
    1ecc:	00706d74 	rsbseq	r6, r0, r4, ror sp

Disassembly of section .comment:

00000000 <.comment>:
   0:	3a434347 	bcc	10d0d24 <__bss_end+0x10cd7ac>
   4:	72632820 	rsbvc	r2, r3, #2097152	; 0x200000
   8:	7473736f 	ldrbtvc	r7, [r3], #-879	; 0x36f
   c:	2d6c6f6f 	stclcs	15, cr6, [ip, #-444]!	; 0xfffffe44
  10:	6c20474e 	stcvs	7, cr4, [r0], #-312	; 0xfffffec8
  14:	72616e69 	rsbvc	r6, r1, #1680	; 0x690
  18:	2e312d6f 	cdpcs	13, 3, cr2, cr1, cr15, {3}
  1c:	312e3331 	teqcc	lr, r1, lsr r3
  20:	3130322d 	teqcc	r0, sp, lsr #4
  24:	32302e32 	eorscc	r2, r0, #800	; 0x320
  28:	3130322d 	teqcc	r0, sp, lsr #4
  2c:	32323032 	eorscc	r3, r2, #50	; 0x32
  30:	202d2032 	eorcs	r2, sp, r2, lsr r0
  34:	616e694c 	cmnvs	lr, ip, asr #18
  38:	47206f72 			; <UNDEFINED> instruction: 0x47206f72
  3c:	32204343 	eorcc	r4, r0, #201326593	; 0xc000001
  40:	2e323130 	mrccs	1, 1, r3, cr2, cr0, {1}
  44:	20293230 	eorcs	r3, r9, r0, lsr r2
  48:	2e362e34 	mrccs	14, 1, r2, cr6, cr4, {1}
  4c:	30322033 	eorscc	r2, r2, r3, lsr r0
  50:	32303231 	eorscc	r3, r0, #268435459	; 0x10000003
  54:	28203130 	stmdacs	r0!, {r4, r5, r8, ip, sp}
  58:	72657270 	rsbvc	r7, r5, #7
  5c:	61656c65 	cmnvs	r5, r5, ror #24
  60:	00296573 	eoreq	r6, r9, r3, ror r5

Disassembly of section .ARM.attributes:

00000000 <.ARM.attributes>:
   0:	00003041 	andeq	r3, r0, r1, asr #32
   4:	61656100 	cmnvs	r5, r0, lsl #2
   8:	01006962 	tsteq	r0, r2, ror #18
   c:	00000026 	andeq	r0, r0, r6, lsr #32
  10:	412d3705 	teqmi	sp, r5, lsl #14
  14:	070a0600 	streq	r0, [sl, -r0, lsl #12]
  18:	09010841 	stmdbeq	r1, {r0, r6, fp}
  1c:	12040a02 	andne	r0, r4, #8192	; 0x2000
  20:	15011404 	strne	r1, [r1, #-1028]	; 0x404
  24:	18031701 	stmdane	r3, {r0, r8, r9, sl, ip}
  28:	1b021a01 	blne	86834 <__bss_end+0x832bc>
  2c:	2c021e03 	stccs	14, cr1, [r2], {3}
  30:	Address 0x00000030 is out of bounds.


Disassembly of section .debug_aranges:

00000000 <.debug_aranges>:
   0:	0000001c 	andeq	r0, r0, ip, lsl r0
   4:	01b40002 			; <UNDEFINED> instruction: 0x01b40002
   8:	00040000 	andeq	r0, r4, r0
   c:	00000000 	andeq	r0, r0, r0
  10:	00000030 	andeq	r0, r0, r0, lsr r0
  14:	0000005c 	andeq	r0, r0, ip, asr r0
	...
  20:	0000001c 	andeq	r0, r0, ip, lsl r0
  24:	02360002 	eorseq	r0, r6, #2
  28:	00040000 	andeq	r0, r4, r0
  2c:	00000000 	andeq	r0, r0, r0
  30:	0000008c 	andeq	r0, r0, ip, lsl #1
  34:	00000028 	andeq	r0, r0, r8, lsr #32
	...
  40:	0000001c 	andeq	r0, r0, ip, lsl r0
  44:	03720002 	cmneq	r2, #2
  48:	00040000 	andeq	r0, r4, r0
  4c:	00000000 	andeq	r0, r0, r0
  50:	000000b4 	strheq	r0, [r0], -r4
  54:	00000028 	andeq	r0, r0, r8, lsr #32
	...
  60:	0000001c 	andeq	r0, r0, ip, lsl r0
  64:	05350002 	ldreq	r0, [r5, #-2]!
  68:	00040000 	andeq	r0, r4, r0
  6c:	00000000 	andeq	r0, r0, r0
  70:	000000dc 	ldrdeq	r0, [r0], -ip
  74:	0000028c 	andeq	r0, r0, ip, lsl #5
	...
  80:	0000001c 	andeq	r0, r0, ip, lsl r0
  84:	15c90002 	strbne	r0, [r9, #2]
  88:	00040000 	andeq	r0, r4, r0
  8c:	00000000 	andeq	r0, r0, r0
  90:	00000368 	andeq	r0, r0, r8, ror #6
  94:	00000378 	andeq	r0, r0, r8, ror r3
	...
  a0:	0000001c 	andeq	r0, r0, ip, lsl r0
  a4:	19aa0002 	stmibne	sl!, {r1}
  a8:	00040000 	andeq	r0, r4, r0
  ac:	00000000 	andeq	r0, r0, r0
  b0:	000006e0 	andeq	r0, r0, r0, ror #13
  b4:	00000200 	andeq	r0, r0, r0, lsl #4
	...
  c0:	0000001c 	andeq	r0, r0, ip, lsl r0
  c4:	1ea40002 	cdpne	0, 10, cr0, cr4, cr2, {0}
  c8:	00040000 	andeq	r0, r4, r0
  cc:	00000000 	andeq	r0, r0, r0
  d0:	000008e0 	andeq	r0, r0, r0, ror #17
  d4:	000000a0 	andeq	r0, r0, r0, lsr #1
	...
  e0:	0000001c 	andeq	r0, r0, ip, lsl r0
  e4:	1ff30002 	svcne	0x00f30002
  e8:	00040000 	andeq	r0, r4, r0
  ec:	00000000 	andeq	r0, r0, r0
  f0:	00000980 	andeq	r0, r0, r0, lsl #19
  f4:	0000054c 	andeq	r0, r0, ip, asr #10
	...
 100:	0000001c 	andeq	r0, r0, ip, lsl r0
 104:	20720002 	rsbscs	r0, r2, r2
 108:	00040000 	andeq	r0, r4, r0
 10c:	00000000 	andeq	r0, r0, r0
 110:	00000ee0 	andeq	r0, r0, r0, ror #29
 114:	00000804 	andeq	r0, r0, r4, lsl #16
	...
 120:	0000001c 	andeq	r0, r0, ip, lsl r0
 124:	26060002 	strcs	r0, [r6], -r2
 128:	00040000 	andeq	r0, r4, r0
 12c:	00000000 	andeq	r0, r0, r0
 130:	000016e4 	andeq	r1, r0, r4, ror #13
 134:	00000544 	andeq	r0, r0, r4, asr #10
	...
 140:	0000001c 	andeq	r0, r0, ip, lsl r0
 144:	37c30002 	strbcc	r0, [r3, r2]
 148:	00040000 	andeq	r0, r4, r0
 14c:	00000000 	andeq	r0, r0, r0
 150:	00001c28 	andeq	r1, r0, r8, lsr #24
 154:	000007ec 	andeq	r0, r0, ip, ror #15
	...
 160:	0000001c 	andeq	r0, r0, ip, lsl r0
 164:	40070002 	andmi	r0, r7, r2
 168:	00040000 	andeq	r0, r4, r0
 16c:	00000000 	andeq	r0, r0, r0
 170:	00002414 	andeq	r2, r0, r4, lsl r4
 174:	000001dc 	ldrdeq	r0, [r0], -ip
	...
 180:	0000001c 	andeq	r0, r0, ip, lsl r0
 184:	40820002 	addmi	r0, r2, r2
 188:	00040000 	andeq	r0, r4, r0
 18c:	00000000 	andeq	r0, r0, r0
 190:	000025f0 	strdeq	r2, [r0], -r0
 194:	00000058 	andeq	r0, r0, r8, asr r0
	...
 1a0:	0000001c 	andeq	r0, r0, ip, lsl r0
 1a4:	417c0002 	cmnmi	ip, r2
 1a8:	00040000 	andeq	r0, r4, r0
 1ac:	00000000 	andeq	r0, r0, r0
 1b0:	00002648 	andeq	r2, r0, r8, asr #12
 1b4:	0000019c 	muleq	r0, ip, r1
	...
 1c0:	0000001c 	andeq	r0, r0, ip, lsl r0
 1c4:	444d0002 	strbmi	r0, [sp], #-2
 1c8:	00040000 	andeq	r0, r4, r0
 1cc:	00000000 	andeq	r0, r0, r0
 1d0:	000027e4 	andeq	r2, r0, r4, ror #15
 1d4:	000000a0 	andeq	r0, r0, r0, lsr #1
	...
 1e0:	0000001c 	andeq	r0, r0, ip, lsl r0
 1e4:	45b70002 	ldrmi	r0, [r7, #2]!
 1e8:	00040000 	andeq	r0, r4, r0
 1ec:	00000000 	andeq	r0, r0, r0
 1f0:	00002884 	andeq	r2, r0, r4, lsl #17
 1f4:	000001e8 	andeq	r0, r0, r8, ror #3
	...
 200:	0000001c 	andeq	r0, r0, ip, lsl r0
 204:	4a430002 	bmi	10c0214 <__bss_end+0x10bcc9c>
 208:	00040000 	andeq	r0, r4, r0
 20c:	00000000 	andeq	r0, r0, r0
 210:	00002a6c 	andeq	r2, r0, ip, ror #20
 214:	00000058 	andeq	r0, r0, r8, asr r0
	...
 220:	0000001c 	andeq	r0, r0, ip, lsl r0
 224:	4bfd0002 	blmi	fff40234 <__bss_end+0xfff3ccbc>
 228:	00040000 	andeq	r0, r4, r0
 22c:	00000000 	andeq	r0, r0, r0
 230:	00002ac4 	andeq	r2, r0, r4, asr #21
 234:	00000178 	andeq	r0, r0, r8, ror r1
	...
 240:	0000001c 	andeq	r0, r0, ip, lsl r0
 244:	4f000002 	svcmi	0x00000002
 248:	00040000 	andeq	r0, r4, r0
 24c:	00000000 	andeq	r0, r0, r0
 250:	00002c3c 	andeq	r2, r0, ip, lsr ip
 254:	000003a4 	andeq	r0, r0, r4, lsr #7
	...

Disassembly of section .debug_loc:

00000000 <.debug_loc>:
       0:	00000000 	andeq	r0, r0, r0
       4:	00000014 	andeq	r0, r0, r4, lsl r0
       8:	00500001 	subseq	r0, r0, r1
	...
      14:	14000000 	strne	r0, [r0], #-0
      18:	01000000 	mrseq	r0, (UNDEF: 0)
      1c:	00005100 	andeq	r5, r0, r0, lsl #2
	...
      28:	00040000 	andeq	r0, r4, r0
      2c:	00010000 	andeq	r0, r1, r0
      30:	00000452 	andeq	r0, r0, r2, asr r4
      34:	00000800 	andeq	r0, r0, r0, lsl #16
      38:	72000300 	andvc	r0, r0, #0
      3c:	00089f7d 	andeq	r9, r8, sp, ror pc
      40:	00140000 	andseq	r0, r4, r0
      44:	00010000 	andeq	r0, r1, r0
      48:	00000052 	andeq	r0, r0, r2, asr r0
      4c:	00000000 	andeq	r0, r0, r0
      50:	00000800 	andeq	r0, r0, r0, lsl #16
      54:	00001400 	andeq	r1, r0, r0, lsl #8
      58:	51000100 	mrspl	r0, (UNDEF: 16)
	...
      68:	00000004 	andeq	r0, r0, r4
      6c:	007d0002 	rsbseq	r0, sp, r2
      70:	00000004 	andeq	r0, r0, r4
      74:	0000015c 	andeq	r0, r0, ip, asr r1
      78:	107d0002 	rsbsne	r0, sp, r2
	...
      84:	0000015c 	andeq	r0, r0, ip, asr r1
      88:	00000160 	andeq	r0, r0, r0, ror #2
      8c:	007d0002 	rsbseq	r0, sp, r2
      90:	00000160 	andeq	r0, r0, r0, ror #2
      94:	0000028c 	andeq	r0, r0, ip, lsl #5
      98:	107d0002 	rsbsne	r0, sp, r2
	...
      a4:	00000198 	muleq	r0, r8, r1
      a8:	0000019b 	muleq	r0, fp, r1
      ac:	9b500001 	blls	14000b8 <__bss_end+0x13fcb40>
      b0:	18000001 	stmdane	r0, {r0}
      b4:	01000002 	tsteq	r0, r2
      b8:	02485400 	subeq	r5, r8, #0
      bc:	028c0000 	addeq	r0, ip, #0
      c0:	00010000 	andeq	r0, r1, r0
      c4:	00000054 	andeq	r0, r0, r4, asr r0
      c8:	00000000 	andeq	r0, r0, r0
      cc:	00015c00 	andeq	r5, r1, r0, lsl #24
      d0:	00016400 	andeq	r6, r1, r0, lsl #8
      d4:	30000200 	andcc	r0, r0, r0, lsl #4
      d8:	0001649f 	muleq	r1, pc, r4	; <UNPREDICTABLE>
      dc:	00016800 	andeq	r6, r1, r0, lsl #16
      e0:	70000500 	andvc	r0, r0, r0, lsl #10
      e4:	9f1a3300 	svcls	0x001a3300
      e8:	00000168 	andeq	r0, r0, r8, ror #2
      ec:	0000018c 	andeq	r0, r0, ip, lsl #3
      f0:	8c500001 	mrrchi	0, 0, r0, r0, cr1	; <UNPREDICTABLE>
      f4:	93000001 	movwls	r0, #1
      f8:	02000001 	andeq	r0, r0, #1
      fc:	187c7300 	ldmdane	ip!, {r8, r9, ip, sp, lr}^
     100:	48000002 	stmdami	r0, {r1}
     104:	01000002 	tsteq	r0, r2
     108:	00005000 	andeq	r5, r0, r0
	...
     114:	00040000 	andeq	r0, r4, r0
     118:	00020000 	andeq	r0, r2, r0
     11c:	0004007d 	andeq	r0, r4, sp, ror r0
     120:	00200000 	eoreq	r0, r0, r0
     124:	00020000 	andeq	r0, r2, r0
     128:	0000087d 	andeq	r0, r0, sp, ror r8
     12c:	00000000 	andeq	r0, r0, r0
     130:	00700000 	rsbseq	r0, r0, r0
     134:	00740000 	rsbseq	r0, r4, r0
     138:	00020000 	andeq	r0, r2, r0
     13c:	0074007d 	rsbseq	r0, r4, sp, ror r0
     140:	01040000 	mrseq	r0, (UNDEF: 4)
     144:	00020000 	andeq	r0, r2, r0
     148:	0000087d 	andeq	r0, r0, sp, ror r8
     14c:	00000000 	andeq	r0, r0, r0
     150:	00700000 	rsbseq	r0, r0, r0
     154:	00a00000 	adceq	r0, r0, r0
     158:	00020000 	andeq	r0, r2, r0
     15c:	00009f31 	andeq	r9, r0, r1, lsr pc
     160:	00000000 	andeq	r0, r0, r0
     164:	01080000 	mrseq	r0, (UNDEF: 8)
     168:	010c0000 	mrseq	r0, (UNDEF: 12)
     16c:	00020000 	andeq	r0, r2, r0
     170:	010c007d 	tsteq	ip, sp, ror r0
     174:	01100000 	tsteq	r0, r0
     178:	00020000 	andeq	r0, r2, r0
     17c:	0110087d 	tsteq	r0, sp, ror r8
     180:	019c0000 	orrseq	r0, ip, r0
     184:	00020000 	andeq	r0, r2, r0
     188:	0000107d 	andeq	r1, r0, sp, ror r0
     18c:	00000000 	andeq	r0, r0, r0
     190:	01080000 	mrseq	r0, (UNDEF: 8)
     194:	011c0000 	tsteq	ip, r0
     198:	00010000 	andeq	r0, r1, r0
     19c:	00011c50 	andeq	r1, r1, r0, asr ip
     1a0:	00019c00 	andeq	r9, r1, r0, lsl #24
     1a4:	91000200 	mrsls	r0, R8_usr
     1a8:	0000006c 	andeq	r0, r0, ip, rrx
     1ac:	00000000 	andeq	r0, r0, r0
     1b0:	00019c00 	andeq	r9, r1, r0, lsl #24
     1b4:	0001a000 	andeq	sl, r1, r0
     1b8:	7d000200 	sfmvc	f0, 4, [r0, #-0]
     1bc:	0001a000 	andeq	sl, r1, r0
     1c0:	0001f000 	andeq	pc, r1, r0
     1c4:	7d000200 	sfmvc	f0, 4, [r0, #-0]
     1c8:	00000008 	andeq	r0, r0, r8
     1cc:	00000000 	andeq	r0, r0, r0
     1d0:	00019c00 	andeq	r9, r1, r0, lsl #24
     1d4:	0001e400 	andeq	lr, r1, r0, lsl #8
     1d8:	30000200 	andcc	r0, r0, r0, lsl #4
     1dc:	0001e49f 	muleq	r1, pc, r4	; <UNPREDICTABLE>
     1e0:	0001f000 	andeq	pc, r1, r0
     1e4:	03000c00 	movweq	r0, #3072	; 0xc00
     1e8:	000031a0 	andeq	r3, r0, r0, lsr #3
     1ec:	24480194 	strbcs	r0, [r8], #-404	; 0x194
     1f0:	009f2548 	addseq	r2, pc, r8, asr #10
     1f4:	00000000 	andeq	r0, r0, r0
     1f8:	f0000000 			; <UNDEFINED> instruction: 0xf0000000
     1fc:	f4000001 	vst4.8	{d0-d3}, [r0], r1
     200:	02000001 	andeq	r0, r0, #1
     204:	f4007d00 			; <UNDEFINED> instruction: 0xf4007d00
     208:	68000001 	stmdavs	r0, {r0}
     20c:	02000002 	andeq	r0, r0, #2
     210:	00107d00 	andseq	r7, r0, r0, lsl #26
     214:	00000000 	andeq	r0, r0, r0
     218:	f0000000 			; <UNDEFINED> instruction: 0xf0000000
     21c:	00000001 	andeq	r0, r0, r1
     220:	02000002 	andeq	r0, r0, #2
     224:	349f3100 	ldrcc	r3, [pc], #256	; 22c <resume1_c_part+0x150>
     228:	40000002 	andmi	r0, r0, r2
     22c:	01000002 	tsteq	r0, r2
     230:	00005400 	andeq	r5, r0, r0, lsl #8
     234:	00000000 	andeq	r0, r0, r0
     238:	01f00000 	mvnseq	r0, r0
     23c:	02000000 	andeq	r0, r0, #0
     240:	00020000 	andeq	r0, r2, r0
     244:	02209f30 	eoreq	r9, r0, #192	; 0xc0
     248:	02330000 	eorseq	r0, r3, #0
     24c:	000c0000 	andeq	r0, ip, r0
     250:	0031a003 	eorseq	sl, r1, r3
     254:	48019400 	stmdami	r1, {sl, ip, pc}
     258:	9f254824 	svcls	0x00254824
	...
     264:	00000268 	andeq	r0, r0, r8, ror #4
     268:	0000026c 	andeq	r0, r0, ip, ror #4
     26c:	007d0002 	rsbseq	r0, sp, r2
     270:	0000026c 	andeq	r0, r0, ip, ror #4
     274:	00000270 	andeq	r0, r0, r0, ror r2
     278:	0c7d0002 	ldcleq	0, cr0, [sp], #-8
     27c:	00000270 	andeq	r0, r0, r0, ror r2
     280:	000002fc 	strdeq	r0, [r0], -ip
     284:	187d0002 	ldmdane	sp!, {r1}^
	...
     290:	00000268 	andeq	r0, r0, r8, ror #4
     294:	0000027c 	andeq	r0, r0, ip, ror r2
     298:	7c500001 	mrrcvc	0, 0, r0, r0, cr1	; <UNPREDICTABLE>
     29c:	fc000002 	stc2	0, cr0, [r0], {2}
     2a0:	02000002 	andeq	r0, r0, #2
     2a4:	00649100 	rsbeq	r9, r4, r0, lsl #2
     2a8:	00000000 	andeq	r0, r0, r0
     2ac:	44000000 	strmi	r0, [r0], #-0
     2b0:	48000003 	stmdami	r0, {r0, r1}
     2b4:	02000003 	andeq	r0, r0, #3
     2b8:	48007d00 	stmdami	r0, {r8, sl, fp, ip, sp, lr}
     2bc:	78000003 	stmdavc	r0, {r0, r1}
     2c0:	02000003 	andeq	r0, r0, #3
     2c4:	00107d00 	andseq	r7, r0, r0, lsl #26
     2c8:	00000000 	andeq	r0, r0, r0
     2cc:	44000000 	strmi	r0, [r0], #-0
     2d0:	5c000003 	stcpl	0, cr0, [r0], {3}
     2d4:	01000003 	tsteq	r0, r3
     2d8:	00005000 	andeq	r5, r0, r0
     2dc:	00000000 	andeq	r0, r0, r0
     2e0:	03600000 	cmneq	r0, #0
     2e4:	03700000 	cmneq	r0, #0
     2e8:	00010000 	andeq	r0, r1, r0
     2ec:	00037056 	andeq	r7, r3, r6, asr r0
     2f0:	00037800 	andeq	r7, r3, r0, lsl #16
     2f4:	55000100 	strpl	r0, [r0, #-256]	; 0x100
	...
     304:	00000008 	andeq	r0, r0, r8
     308:	00500001 	subseq	r0, r0, r1
	...
     314:	0c000000 	stceq	0, cr0, [r0], {-0}
     318:	02000000 	andeq	r0, r0, #0
     31c:	0c9f3100 	ldfeqs	f3, [pc], {0}
     320:	14000000 	strne	r0, [r0], #-0
     324:	01000000 	mrseq	r0, (UNDEF: 0)
     328:	00145000 	andseq	r5, r4, r0
     32c:	00180000 	andseq	r0, r8, r0
     330:	00050000 	andeq	r0, r5, r0
     334:	21400070 	hvccs	0
     338:	0000189f 	muleq	r0, pc, r8	; <UNPREDICTABLE>
     33c:	00001c00 	andeq	r1, r0, r0, lsl #24
     340:	50000100 	andpl	r0, r0, r0, lsl #2
     344:	0000001c 	andeq	r0, r0, ip, lsl r0
     348:	00000034 	andeq	r0, r0, r4, lsr r0
     34c:	049e0006 	ldreq	r0, [lr], #6
     350:	8000000f 	andhi	r0, r0, pc
	...
     35c:	0000007c 	andeq	r0, r0, ip, ror r0
     360:	00000080 	andeq	r0, r0, r0, lsl #1
     364:	9f300002 	svcls	0x00300002
     368:	00000080 	andeq	r0, r0, r0, lsl #1
     36c:	00000084 	andeq	r0, r0, r4, lsl #1
     370:	00730005 	rsbseq	r0, r3, r5
     374:	849f2134 	ldrhi	r2, [pc], #308	; 37c <busy_waiting+0x14>
     378:	8c000000 	stchi	0, cr0, [r0], {-0}
     37c:	01000000 	mrseq	r0, (UNDEF: 0)
     380:	00005300 	andeq	r5, r0, r0, lsl #6
     384:	00000000 	andeq	r0, r0, r0
     388:	008c0000 	addeq	r0, ip, r0
     38c:	00900000 	addseq	r0, r0, r0
     390:	00020000 	andeq	r0, r2, r0
     394:	0090007d 	addseq	r0, r0, sp, ror r0
     398:	00c00000 	sbceq	r0, r0, r0
     39c:	00020000 	andeq	r0, r2, r0
     3a0:	0000087d 	andeq	r0, r0, sp, ror r8
     3a4:	00000000 	andeq	r0, r0, r0
     3a8:	008c0000 	addeq	r0, ip, r0
     3ac:	00940000 	addseq	r0, r4, r0
     3b0:	00020000 	andeq	r0, r2, r0
     3b4:	00009f30 	andeq	r9, r0, r0, lsr pc
     3b8:	00000000 	andeq	r0, r0, r0
     3bc:	008c0000 	addeq	r0, ip, r0
     3c0:	00980000 	addseq	r0, r8, r0
     3c4:	00020000 	andeq	r0, r2, r0
     3c8:	00009f30 	andeq	r9, r0, r0, lsr pc
     3cc:	00000000 	andeq	r0, r0, r0
     3d0:	00940000 	addseq	r0, r4, r0
     3d4:	00a40000 	adceq	r0, r4, r0
     3d8:	00010000 	andeq	r0, r1, r0
     3dc:	00000052 	andeq	r0, r0, r2, asr r0
     3e0:	00000000 	andeq	r0, r0, r0
     3e4:	00009800 	andeq	r9, r0, r0, lsl #16
     3e8:	0000a800 	andeq	sl, r0, r0, lsl #16
     3ec:	53000100 	movwpl	r0, #256	; 0x100
	...
     3f8:	000000c0 	andeq	r0, r0, r0, asr #1
     3fc:	000000c4 	andeq	r0, r0, r4, asr #1
     400:	007d0002 	rsbseq	r0, sp, r2
     404:	000000c4 	andeq	r0, r0, r4, asr #1
     408:	00000148 	andeq	r0, r0, r8, asr #2
     40c:	107d0002 	rsbsne	r0, sp, r2
	...
     418:	000000c0 	andeq	r0, r0, r0, asr #1
     41c:	000000d0 	ldrdeq	r0, [r0], -r0	; <UNPREDICTABLE>
     420:	d0500001 	subsle	r0, r0, r1
     424:	d8000000 	stmdale	r0, {}	; <UNPREDICTABLE>
     428:	01000000 	mrseq	r0, (UNDEF: 0)
     42c:	00e45500 	rsceq	r5, r4, r0, lsl #10
     430:	00f80000 	rscseq	r0, r8, r0
     434:	00010000 	andeq	r0, r1, r0
     438:	00000055 	andeq	r0, r0, r5, asr r0
     43c:	00000000 	andeq	r0, r0, r0
     440:	0000c000 	andeq	ip, r0, r0
     444:	0000d800 	andeq	sp, r0, r0, lsl #16
     448:	30000200 	andcc	r0, r0, r0, lsl #4
     44c:	0000e49f 	muleq	r0, pc, r4	; <UNPREDICTABLE>
     450:	0000ec00 	andeq	lr, r0, r0, lsl #24
     454:	30000200 	andcc	r0, r0, r0, lsl #4
     458:	0000ec9f 	muleq	r0, pc, ip	; <UNPREDICTABLE>
     45c:	0000f800 	andeq	pc, r0, r0, lsl #16
     460:	70000600 	andvc	r0, r0, r0, lsl #12
     464:	1e007501 	cfsh32ne	mvfx7, mvfx0, #1
     468:	0000009f 	muleq	r0, pc, r0	; <UNPREDICTABLE>
     46c:	00000000 	andeq	r0, r0, r0
     470:	0000c000 	andeq	ip, r0, r0
     474:	0000d800 	andeq	sp, r0, r0, lsl #16
     478:	30000200 	andcc	r0, r0, r0, lsl #4
     47c:	0000e49f 	muleq	r0, pc, r4	; <UNPREDICTABLE>
     480:	0000f000 	andeq	pc, r0, r0
     484:	30000200 	andcc	r0, r0, r0, lsl #4
     488:	00012c9f 	muleq	r1, pc, ip	; <UNPREDICTABLE>
     48c:	00013000 	andeq	r3, r1, r0
     490:	53000100 	movwpl	r0, #256	; 0x100
     494:	00000134 	andeq	r0, r0, r4, lsr r1
     498:	00000138 	andeq	r0, r0, r8, lsr r1
     49c:	00530001 	subseq	r0, r3, r1
     4a0:	00000000 	andeq	r0, r0, r0
     4a4:	c0000000 	andgt	r0, r0, r0
     4a8:	d8000000 	stmdale	r0, {}	; <UNPREDICTABLE>
     4ac:	02000000 	andeq	r0, r0, #0
     4b0:	e49f3000 	ldr	r3, [pc], #0	; 4b8 <save_mem_status+0x48>
     4b4:	00000000 	andeq	r0, r0, r0
     4b8:	02000001 	andeq	r0, r0, #1
     4bc:	009f3000 	addseq	r3, pc, r0
     4c0:	48000001 	stmdami	r0, {r0}
     4c4:	01000001 	tsteq	r0, r1
     4c8:	00005500 	andeq	r5, r0, r0, lsl #10
     4cc:	00000000 	andeq	r0, r0, r0
     4d0:	00c00000 	sbceq	r0, r0, r0
     4d4:	00d80000 	sbcseq	r0, r8, r0
     4d8:	00020000 	andeq	r0, r2, r0
     4dc:	00e49f30 	rsceq	r9, r4, r0, lsr pc
     4e0:	01040000 	mrseq	r0, (UNDEF: 4)
     4e4:	00020000 	andeq	r0, r2, r0
     4e8:	01049f30 	tsteq	r4, r0, lsr pc
     4ec:	01080000 	mrseq	r0, (UNDEF: 8)
     4f0:	00010000 	andeq	r0, r1, r0
     4f4:	00000052 	andeq	r0, r0, r2, asr r0
     4f8:	00000000 	andeq	r0, r0, r0
     4fc:	00011000 	andeq	r1, r1, r0
     500:	00013000 	andeq	r3, r1, r0
     504:	30000200 	andcc	r0, r0, r0, lsl #4
     508:	0000009f 	muleq	r0, pc, r0	; <UNPREDICTABLE>
     50c:	00000000 	andeq	r0, r0, r0
     510:	00011000 	andeq	r1, r1, r0
     514:	00013000 	andeq	r3, r1, r0
     518:	31000200 	mrscc	r0, R8_usr
     51c:	0000009f 	muleq	r0, pc, r0	; <UNPREDICTABLE>
     520:	00000000 	andeq	r0, r0, r0
     524:	00011000 	andeq	r1, r1, r0
     528:	00011800 	andeq	r1, r1, r0, lsl #16
     52c:	47000200 	strmi	r0, [r0, -r0, lsl #4]
     530:	0001189f 	muleq	r1, pc, r8	; <UNPREDICTABLE>
     534:	00013000 	andeq	r3, r1, r0
     538:	9e000600 	cfmadd32ls	mvax0, mvfx0, mvfx0, mvfx0
     53c:	00000f04 	andeq	r0, r0, r4, lsl #30
     540:	00000080 	andeq	r0, r0, r0, lsl #1
     544:	00000000 	andeq	r0, r0, r0
     548:	00013400 	andeq	r3, r1, r0, lsl #8
     54c:	00013800 	andeq	r3, r1, r0, lsl #16
     550:	53000100 	movwpl	r0, #256	; 0x100
	...
     55c:	00000148 	andeq	r0, r0, r8, asr #2
     560:	00000150 	andeq	r0, r0, r0, asr r1
     564:	007d0002 	rsbseq	r0, sp, r2
     568:	00000150 	andeq	r0, r0, r0, asr r1
     56c:	0000017c 	andeq	r0, r0, ip, ror r1
     570:	087d0002 	ldmdaeq	sp!, {r1}^
	...
     57c:	00000148 	andeq	r0, r0, r8, asr #2
     580:	00000158 	andeq	r0, r0, r8, asr r1
     584:	58500001 	ldmdapl	r0, {r0}^
     588:	60000001 	andvs	r0, r0, r1
     58c:	01000001 	tsteq	r0, r1
     590:	01605400 	cmneq	r0, r0, lsl #8
     594:	01640000 	cmneq	r4, r0
     598:	00030000 	andeq	r0, r3, r0
     59c:	649f0a74 	ldrvs	r0, [pc], #2676	; 5a4 <show_mem_status+0x4c>
     5a0:	7c000001 	stcvc	0, cr0, [r0], {1}
     5a4:	01000001 	tsteq	r0, r1
     5a8:	00005400 	andeq	r5, r0, r0, lsl #8
     5ac:	00000000 	andeq	r0, r0, r0
     5b0:	017c0000 	cmneq	ip, r0
     5b4:	01840000 	orreq	r0, r4, r0
     5b8:	00010000 	andeq	r0, r1, r0
     5bc:	00000050 	andeq	r0, r0, r0, asr r0
     5c0:	00000000 	andeq	r0, r0, r0
     5c4:	00017c00 	andeq	r7, r1, r0, lsl #24
     5c8:	00018800 	andeq	r8, r1, r0, lsl #16
     5cc:	31000200 	mrscc	r0, R8_usr
     5d0:	0001889f 	muleq	r1, pc, r8	; <UNPREDICTABLE>
     5d4:	00019000 	andeq	r9, r1, r0
     5d8:	50000100 	andpl	r0, r0, r0, lsl #2
     5dc:	00000190 	muleq	r0, r0, r1
     5e0:	00000194 	muleq	r0, r4, r1
     5e4:	00700005 	rsbseq	r0, r0, r5
     5e8:	949f2140 	ldrls	r2, [pc], #320	; 5f0 <save_mem_status_nommu+0x20>
     5ec:	98000001 	stmdals	r0, {r0}
     5f0:	01000001 	tsteq	r0, r1
     5f4:	01985000 	orrseq	r5, r8, r0
     5f8:	01a80000 			; <UNDEFINED> instruction: 0x01a80000
     5fc:	00060000 	andeq	r0, r6, r0
     600:	000f049e 	muleq	pc, lr, r4	; <UNPREDICTABLE>
     604:	00008000 	andeq	r8, r0, r0
     608:	00000000 	andeq	r0, r0, r0
     60c:	01a80000 			; <UNDEFINED> instruction: 0x01a80000
     610:	01b80000 			; <UNDEFINED> instruction: 0x01b80000
     614:	00020000 	andeq	r0, r2, r0
     618:	00009f30 	andeq	r9, r0, r0, lsr pc
     61c:	00000000 	andeq	r0, r0, r0
     620:	01d40000 	bicseq	r0, r4, r0
     624:	01d80000 	bicseq	r0, r8, r0
     628:	00010000 	andeq	r0, r1, r0
     62c:	0001d850 	andeq	sp, r1, r0, asr r8
     630:	00020000 	andeq	r0, r2, r0
     634:	70000300 	andvc	r0, r0, r0, lsl #6
     638:	00009f02 	andeq	r9, r0, r2, lsl #30
     63c:	00000000 	andeq	r0, r0, r0
     640:	01d40000 	bicseq	r0, r4, r0
     644:	01e80000 	mvneq	r0, r0
     648:	00020000 	andeq	r0, r2, r0
     64c:	01e89f30 	mvneq	r9, r0, lsr pc
     650:	02000000 	andeq	r0, r0, #0
     654:	00010000 	andeq	r0, r1, r0
     658:	00000053 	andeq	r0, r0, r3, asr r0
     65c:	00000000 	andeq	r0, r0, r0
     660:	0001d400 	andeq	sp, r1, r0, lsl #8
     664:	0001f000 	andeq	pc, r1, r0
     668:	30000200 	andcc	r0, r0, r0, lsl #4
     66c:	0001f09f 	muleq	r1, pc, r0	; <UNPREDICTABLE>
     670:	00020000 	andeq	r0, r2, r0
     674:	50000100 	andpl	r0, r0, r0, lsl #2
	...
     680:	00000714 	andeq	r0, r0, r4, lsl r7
     684:	00000718 	andeq	r0, r0, r8, lsl r7
     688:	00720006 	rsbseq	r0, r2, r6
     68c:	9f1afc09 	svcls	0x001afc09
     690:	00000718 	andeq	r0, r0, r8, lsl r7
     694:	00000720 	andeq	r0, r0, r0, lsr #14
     698:	00520001 	subseq	r0, r2, r1
     69c:	00000000 	andeq	r0, r0, r0
     6a0:	f4000000 	vst4.8	{d0-d3}, [r0], r0
     6a4:	f8000007 			; <UNDEFINED> instruction: 0xf8000007
     6a8:	02000007 	andeq	r0, r0, #7
     6ac:	f89f3000 			; <UNDEFINED> instruction: 0xf89f3000
     6b0:	04000007 	streq	r0, [r0], #-7
     6b4:	01000008 	tsteq	r0, r8
     6b8:	00005300 	andeq	r5, r0, r0, lsl #6
	...
     6c4:	00040000 	andeq	r0, r4, r0
     6c8:	00020000 	andeq	r0, r2, r0
     6cc:	0004007d 	andeq	r0, r4, sp, ror r0
     6d0:	00a80000 	adceq	r0, r8, r0
     6d4:	00020000 	andeq	r0, r2, r0
     6d8:	0000107d 	andeq	r1, r0, sp, ror r0
	...
     6e4:	000f0000 	andeq	r0, pc, r0
     6e8:	00010000 	andeq	r0, r1, r0
     6ec:	00000f50 	andeq	r0, r0, r0, asr pc
     6f0:	0000a800 	andeq	sl, r0, r0, lsl #16
     6f4:	54000100 	strpl	r0, [r0], #-256	; 0x100
	...
     704:	0000000f 	andeq	r0, r0, pc
     708:	0f510001 	svceq	0x00510001
     70c:	a8000000 	stmdage	r0, {}	; <UNPREDICTABLE>
     710:	01000000 	mrseq	r0, (UNDEF: 0)
     714:	00005500 	andeq	r5, r0, r0, lsl #10
	...
     720:	00480000 	subeq	r0, r8, r0
     724:	00020000 	andeq	r0, r2, r0
     728:	00489f30 	subeq	r9, r8, r0, lsr pc
     72c:	007c0000 	rsbseq	r0, ip, r0
     730:	00010000 	andeq	r0, r1, r0
     734:	00007c53 	andeq	r7, r0, r3, asr ip
     738:	00009c00 	andeq	r9, r0, r0, lsl #24
     73c:	30000200 	andcc	r0, r0, r0, lsl #4
     740:	0000a09f 	muleq	r0, pc, r0	; <UNPREDICTABLE>
     744:	0000a800 	andeq	sl, r0, r0, lsl #16
     748:	9e000600 	cfmadd32ls	mvax0, mvfx0, mvfx0, mvfx0
     74c:	c208b404 	andgt	fp, r8, #67108864	; 0x4000000
     750:	000000f1 	strdeq	r0, [r0], -r1
	...
     75c:	00004800 	andeq	r4, r0, r0, lsl #16
     760:	30000200 	andcc	r0, r0, r0, lsl #4
     764:	00007c9f 	muleq	r0, pc, ip	; <UNPREDICTABLE>
     768:	0000a800 	andeq	sl, r0, r0, lsl #16
     76c:	30000200 	andcc	r0, r0, r0, lsl #4
     770:	0000009f 	muleq	r0, pc, r0	; <UNPREDICTABLE>
	...
     77c:	00004800 	andeq	r4, r0, r0, lsl #16
     780:	30000200 	andcc	r0, r0, r0, lsl #4
     784:	0000489f 	muleq	r0, pc, r8	; <UNPREDICTABLE>
     788:	00006c00 	andeq	r6, r0, r0, lsl #24
     78c:	52000100 	andpl	r0, r0, #0
     790:	0000007c 	andeq	r0, r0, ip, ror r0
     794:	000000a8 	andeq	r0, r0, r8, lsr #1
     798:	9f300002 	svcls	0x00300002
	...
     7a4:	000000a8 	andeq	r0, r0, r8, lsr #1
     7a8:	000000ac 	andeq	r0, r0, ip, lsr #1
     7ac:	007d0002 	rsbseq	r0, sp, r2
     7b0:	000000ac 	andeq	r0, r0, ip, lsr #1
     7b4:	00000154 	andeq	r0, r0, r4, asr r1
     7b8:	107d0002 	rsbsne	r0, sp, r2
	...
     7c4:	000000a8 	andeq	r0, r0, r8, lsr #1
     7c8:	000000b3 	strheq	r0, [r0], -r3
     7cc:	b3500001 	cmplt	r0, #1
     7d0:	e8000000 	stmda	r0, {}	; <UNPREDICTABLE>
     7d4:	01000000 	mrseq	r0, (UNDEF: 0)
     7d8:	00005400 	andeq	r5, r0, r0, lsl #8
     7dc:	00000000 	andeq	r0, r0, r0
     7e0:	00a80000 	adceq	r0, r8, r0
     7e4:	00cc0000 	sbceq	r0, ip, r0
     7e8:	00020000 	andeq	r0, r2, r0
     7ec:	00cc9f30 	sbceq	r9, ip, r0, lsr pc
     7f0:	00df0000 	sbcseq	r0, pc, r0
     7f4:	00010000 	andeq	r0, r1, r0
     7f8:	00000050 	andeq	r0, r0, r0, asr r0
     7fc:	00000000 	andeq	r0, r0, r0
     800:	0000a800 	andeq	sl, r0, r0, lsl #16
     804:	0000fc00 	andeq	pc, r0, r0, lsl #24
     808:	30000200 	andcc	r0, r0, r0, lsl #4
     80c:	0000fc9f 	muleq	r0, pc, ip	; <UNPREDICTABLE>
     810:	00012300 	andeq	r2, r1, r0, lsl #6
     814:	50000100 	andpl	r0, r0, r0, lsl #2
     818:	00000123 	andeq	r0, r0, r3, lsr #2
     81c:	00000154 	andeq	r0, r0, r4, asr r1
     820:	00550001 	subseq	r0, r5, r1
     824:	00000000 	andeq	r0, r0, r0
     828:	a8000000 	stmdage	r0, {}	; <UNPREDICTABLE>
     82c:	08000000 	stmdaeq	r0, {}	; <UNPREDICTABLE>
     830:	02000001 	andeq	r0, r0, #1
     834:	089f3000 	ldmeq	pc, {ip, sp}	; <UNPREDICTABLE>
     838:	2c000001 	stccs	0, cr0, [r0], {1}
     83c:	06000001 	streq	r0, [r0], -r1
     840:	02d80c00 	sbcseq	r0, r8, #0
     844:	2c9f01c2 	ldfcss	f0, [pc], {194}	; 0xc2
     848:	54000001 	strpl	r0, [r0], #-1
     84c:	06000001 	streq	r0, [r0], -r1
     850:	006c0c00 	rsbeq	r0, ip, r0, lsl #24
     854:	009f01c2 	addseq	r0, pc, r2, asr #3
     858:	00000000 	andeq	r0, r0, r0
     85c:	a8000000 	stmdage	r0, {}	; <UNPREDICTABLE>
     860:	b4000000 	strlt	r0, [r0], #-0
     864:	02000000 	andeq	r0, r0, #0
     868:	b49f3000 	ldrlt	r3, [pc], #0	; 870 <init_event_counter+0x14>
     86c:	c8000000 	stmdagt	r0, {}	; <UNPREDICTABLE>
     870:	01000000 	mrseq	r0, (UNDEF: 0)
     874:	00005000 	andeq	r5, r0, r0
     878:	00000000 	andeq	r0, r0, r0
     87c:	00b80000 	adcseq	r0, r8, r0
     880:	00d80000 	sbcseq	r0, r8, r0
     884:	00010000 	andeq	r0, r1, r0
     888:	00000053 	andeq	r0, r0, r3, asr r0
     88c:	00000000 	andeq	r0, r0, r0
     890:	00019400 	andeq	r9, r1, r0, lsl #8
     894:	00019800 	andeq	r9, r1, r0, lsl #16
     898:	7d000200 	sfmvc	f0, 4, [r0, #-0]
     89c:	00019800 	andeq	r9, r1, r0, lsl #16
     8a0:	00021800 	andeq	r1, r2, r0, lsl #16
     8a4:	7d000200 	sfmvc	f0, 4, [r0, #-0]
     8a8:	00000010 	andeq	r0, r0, r0, lsl r0
     8ac:	00000000 	andeq	r0, r0, r0
     8b0:	00019400 	andeq	r9, r1, r0, lsl #8
     8b4:	0001a000 	andeq	sl, r1, r0
     8b8:	50000100 	andpl	r0, r0, r0, lsl #2
     8bc:	000001a0 	andeq	r0, r0, r0, lsr #3
     8c0:	000001a3 	andeq	r0, r0, r3, lsr #3
     8c4:	00510001 	subseq	r0, r1, r1
     8c8:	00000000 	andeq	r0, r0, r0
     8cc:	94000000 	strls	r0, [r0], #-0
     8d0:	c0000001 	andgt	r0, r0, r1
     8d4:	02000001 	andeq	r0, r0, #1
     8d8:	c09f3000 	addsgt	r3, pc, r0
     8dc:	e8000001 	stmda	r0, {r0}
     8e0:	05000001 	streq	r0, [r0, #-1]
     8e4:	44007300 	strmi	r7, [r0], #-768	; 0x300
     8e8:	00009f25 	andeq	r9, r0, r5, lsr #30
     8ec:	00000000 	andeq	r0, r0, r0
     8f0:	01940000 	orrseq	r0, r4, r0
     8f4:	01c80000 	biceq	r0, r8, r0
     8f8:	00020000 	andeq	r0, r2, r0
     8fc:	01c89f30 	biceq	r9, r8, r0, lsr pc
     900:	01e00000 	mvneq	r0, r0
     904:	00010000 	andeq	r0, r1, r0
     908:	00000050 	andeq	r0, r0, r0, asr r0
     90c:	00000000 	andeq	r0, r0, r0
     910:	00019400 	andeq	r9, r1, r0, lsl #8
     914:	0001ac00 	andeq	sl, r1, r0, lsl #24
     918:	30000200 	andcc	r0, r0, r0, lsl #4
     91c:	0001ac9f 	muleq	r1, pc, ip	; <UNPREDICTABLE>
     920:	0001b400 	andeq	fp, r1, r0, lsl #8
     924:	50000100 	andpl	r0, r0, r0, lsl #2
     928:	000001b4 			; <UNDEFINED> instruction: 0x000001b4
     92c:	000001c8 	andeq	r0, r0, r8, asr #3
     930:	80700005 	rsbshi	r0, r0, r5
     934:	009f47e0 	addseq	r4, pc, r0, ror #15
     938:	00000000 	andeq	r0, r0, r0
     93c:	18000000 	stmdane	r0, {}	; <UNPREDICTABLE>
     940:	20000002 	andcs	r0, r0, r2
     944:	02000002 	andeq	r0, r0, #2
     948:	20007d00 	andcs	r7, r0, r0, lsl #26
     94c:	c8000002 	stmdagt	r0, {r1}
     950:	02000002 	andeq	r0, r0, #2
     954:	00047d00 	andeq	r7, r4, r0, lsl #26
     958:	00000000 	andeq	r0, r0, r0
     95c:	18000000 	stmdane	r0, {}	; <UNPREDICTABLE>
     960:	2c000002 	stccs	0, cr0, [r0], {2}
     964:	01000002 	tsteq	r0, r2
     968:	02305000 	eorseq	r5, r0, #0
     96c:	02440000 	subeq	r0, r4, #0
     970:	00010000 	andeq	r0, r1, r0
     974:	00024450 	andeq	r4, r2, r0, asr r4
     978:	00024c00 	andeq	r4, r2, r0, lsl #24
     97c:	70000300 	andvc	r0, r0, r0, lsl #6
     980:	00009f01 	andeq	r9, r0, r1, lsl #30
     984:	00000000 	andeq	r0, r0, r0
     988:	02580000 	subseq	r0, r8, #0
     98c:	028c0000 	addeq	r0, ip, #0
     990:	00010000 	andeq	r0, r1, r0
     994:	0000005c 	andeq	r0, r0, ip, asr r0
     998:	00000000 	andeq	r0, r0, r0
     99c:	0002c800 	andeq	ip, r2, r0, lsl #16
     9a0:	0002d000 	andeq	sp, r2, r0
     9a4:	7d000200 	sfmvc	f0, 4, [r0, #-0]
     9a8:	0002d000 	andeq	sp, r2, r0
     9ac:	00035400 	andeq	r5, r3, r0, lsl #8
     9b0:	7d000200 	sfmvc	f0, 4, [r0, #-0]
     9b4:	00000004 	andeq	r0, r0, r4
     9b8:	00000000 	andeq	r0, r0, r0
     9bc:	0002c800 	andeq	ip, r2, r0, lsl #16
     9c0:	0002dc00 	andeq	sp, r2, r0, lsl #24
     9c4:	50000100 	andpl	r0, r0, r0, lsl #2
	...
     9d0:	000002c8 	andeq	r0, r0, r8, asr #5
     9d4:	000002e0 	andeq	r0, r0, r0, ror #5
     9d8:	9f300002 	svcls	0x00300002
     9dc:	000002e8 	andeq	r0, r0, r8, ror #5
     9e0:	00000300 	andeq	r0, r0, r0, lsl #6
     9e4:	9f300002 	svcls	0x00300002
     9e8:	00000344 	andeq	r0, r0, r4, asr #6
     9ec:	00000354 	andeq	r0, r0, r4, asr r3
     9f0:	00540001 	subseq	r0, r4, r1
     9f4:	00000000 	andeq	r0, r0, r0
     9f8:	c8000000 	stmdagt	r0, {}	; <UNPREDICTABLE>
     9fc:	e0000002 	and	r0, r0, r2
     a00:	02000002 	andeq	r0, r0, #2
     a04:	e89f3000 	ldm	pc, {ip, sp}	; <UNPREDICTABLE>
     a08:	00000002 	andeq	r0, r0, r2
     a0c:	02000003 	andeq	r0, r0, #3
     a10:	009f3000 	addseq	r3, pc, r0
     a14:	00000000 	andeq	r0, r0, r0
     a18:	08000000 	stmdaeq	r0, {}	; <UNPREDICTABLE>
     a1c:	0c000003 	stceq	0, cr0, [r0], {3}
     a20:	01000003 	tsteq	r0, r3
     a24:	030c5300 	movweq	r5, #49920	; 0xc300
     a28:	03100000 	tsteq	r0, #0
     a2c:	00030000 	andeq	r0, r3, r0
     a30:	109f0173 	addsne	r0, pc, r3, ror r1	; <UNPREDICTABLE>
     a34:	24000003 	strcs	r0, [r0], #-3
     a38:	01000003 	tsteq	r0, r3
     a3c:	00005300 	andeq	r5, r0, r0, lsl #6
     a40:	00000000 	andeq	r0, r0, r0
     a44:	037c0000 	cmneq	ip, #0
     a48:	03800000 	orreq	r0, r0, #0
     a4c:	00020000 	andeq	r0, r2, r0
     a50:	0380007d 	orreq	r0, r0, #125	; 0x7d
     a54:	04080000 	streq	r0, [r8], #-0
     a58:	00020000 	andeq	r0, r2, r0
     a5c:	0000107d 	andeq	r1, r0, sp, ror r0
     a60:	00000000 	andeq	r0, r0, r0
     a64:	037c0000 	cmneq	ip, #0
     a68:	03940000 	orrseq	r0, r4, #0
     a6c:	00010000 	andeq	r0, r1, r0
     a70:	00039450 	andeq	r9, r3, r0, asr r4
     a74:	00039b00 	andeq	r9, r3, r0, lsl #22
     a78:	51000100 	mrspl	r0, (UNDEF: 16)
	...
     a84:	0000037c 	andeq	r0, r0, ip, ror r3
     a88:	000003a4 	andeq	r0, r0, r4, lsr #7
     a8c:	9f300002 	svcls	0x00300002
     a90:	000003a4 	andeq	r0, r0, r4, lsr #7
     a94:	000003ac 	andeq	r0, r0, ip, lsr #7
     a98:	ac500001 	mrrcge	0, 0, r0, r0, cr1	; <UNPREDICTABLE>
     a9c:	c0000003 	andgt	r0, r0, r3
     aa0:	05000003 	streq	r0, [r0, #-3]
     aa4:	e0807000 	add	r7, r0, r0
     aa8:	00009f47 	andeq	r9, r0, r7, asr #30
     aac:	00000000 	andeq	r0, r0, r0
     ab0:	037c0000 	cmneq	ip, #0
     ab4:	03b80000 			; <UNDEFINED> instruction: 0x03b80000
     ab8:	00020000 	andeq	r0, r2, r0
     abc:	03b89f30 			; <UNDEFINED> instruction: 0x03b89f30
     ac0:	03d80000 	bicseq	r0, r8, #0
     ac4:	00050000 	andeq	r0, r5, r0
     ac8:	25440073 	strbcs	r0, [r4, #-115]	; 0x73
     acc:	0000009f 	muleq	r0, pc, r0	; <UNPREDICTABLE>
     ad0:	00000000 	andeq	r0, r0, r0
     ad4:	00037c00 	andeq	r7, r3, r0, lsl #24
     ad8:	0003c000 	andeq	ip, r3, r0
     adc:	30000200 	andcc	r0, r0, r0, lsl #4
     ae0:	0003c09f 	muleq	r3, pc, r0	; <UNPREDICTABLE>
     ae4:	0003d000 	andeq	sp, r3, r0
     ae8:	50000100 	andpl	r0, r0, r0, lsl #2
	...
     af4:	00000408 	andeq	r0, r0, r8, lsl #8
     af8:	00000410 	andeq	r0, r0, r0, lsl r4
     afc:	007d0002 	rsbseq	r0, sp, r2
     b00:	00000410 	andeq	r0, r0, r0, lsl r4
     b04:	000004b8 			; <UNDEFINED> instruction: 0x000004b8
     b08:	047d0002 	ldrbteq	r0, [sp], #-2
	...
     b14:	00000408 	andeq	r0, r0, r8, lsl #8
     b18:	0000041c 	andeq	r0, r0, ip, lsl r4
     b1c:	20500001 	subscs	r0, r0, r1
     b20:	34000004 	strcc	r0, [r0], #-4
     b24:	01000004 	tsteq	r0, r4
     b28:	04345000 	ldrteq	r5, [r4], #-0
     b2c:	043c0000 	ldrteq	r0, [ip], #-0
     b30:	00030000 	andeq	r0, r3, r0
     b34:	009f0170 	addseq	r0, pc, r0, ror r1	; <UNPREDICTABLE>
     b38:	00000000 	andeq	r0, r0, r0
     b3c:	48000000 	stmdami	r0, {}	; <UNPREDICTABLE>
     b40:	7c000004 	stcvc	0, cr0, [r0], {4}
     b44:	01000004 	tsteq	r0, r4
     b48:	00005c00 	andeq	r5, r0, r0, lsl #24
     b4c:	00000000 	andeq	r0, r0, r0
     b50:	04b80000 	ldrteq	r0, [r8], #0
     b54:	04c00000 	strbeq	r0, [r0], #0
     b58:	00020000 	andeq	r0, r2, r0
     b5c:	04c0007d 	strbeq	r0, [r0], #125	; 0x7d
     b60:	05440000 	strbeq	r0, [r4, #-0]
     b64:	00020000 	andeq	r0, r2, r0
     b68:	0000047d 	andeq	r0, r0, sp, ror r4
     b6c:	00000000 	andeq	r0, r0, r0
     b70:	04b80000 	ldrteq	r0, [r8], #0
     b74:	04cc0000 	strbeq	r0, [ip], #0
     b78:	00010000 	andeq	r0, r1, r0
     b7c:	00000050 	andeq	r0, r0, r0, asr r0
     b80:	00000000 	andeq	r0, r0, r0
     b84:	0004b800 	andeq	fp, r4, r0, lsl #16
     b88:	0004d000 	andeq	sp, r4, r0
     b8c:	30000200 	andcc	r0, r0, r0, lsl #4
     b90:	0004d89f 	muleq	r4, pc, r8	; <UNPREDICTABLE>
     b94:	0004f000 	andeq	pc, r4, r0
     b98:	30000200 	andcc	r0, r0, r0, lsl #4
     b9c:	0005349f 	muleq	r5, pc, r4	; <UNPREDICTABLE>
     ba0:	00054400 	andeq	r4, r5, r0, lsl #8
     ba4:	54000100 	strpl	r0, [r0], #-256	; 0x100
	...
     bb0:	000004b8 			; <UNDEFINED> instruction: 0x000004b8
     bb4:	000004d0 	ldrdeq	r0, [r0], -r0	; <UNPREDICTABLE>
     bb8:	9f300002 	svcls	0x00300002
     bbc:	000004d8 	ldrdeq	r0, [r0], -r8
     bc0:	000004f0 	strdeq	r0, [r0], -r0	; <UNPREDICTABLE>
     bc4:	9f300002 	svcls	0x00300002
	...
     bd0:	000004f8 	strdeq	r0, [r0], -r8
     bd4:	000004fc 	strdeq	r0, [r0], -ip
     bd8:	fc530001 	mrrc2	0, 0, r0, r3, cr1
     bdc:	00000004 	andeq	r0, r0, r4
     be0:	03000005 	movweq	r0, #5
     be4:	9f017300 	svcls	0x00017300
     be8:	00000500 	andeq	r0, r0, r0, lsl #10
     bec:	00000514 	andeq	r0, r0, r4, lsl r5
     bf0:	00530001 	subseq	r0, r3, r1
	...
     bfc:	04000000 	streq	r0, [r0], #-0
     c00:	02000000 	andeq	r0, r0, #0
     c04:	04007d00 	streq	r7, [r0], #-3328	; 0xd00
     c08:	1c000000 	stcne	0, cr0, [r0], {-0}
     c0c:	02000000 	andeq	r0, r0, #0
     c10:	1c1c7d00 	ldcne	13, cr7, [ip], {-0}
     c14:	bc000000 	stclt	0, cr0, [r0], {-0}
     c18:	03000000 	movweq	r0, #0
     c1c:	00c87d00 	sbceq	r7, r8, r0, lsl #26
	...
     c2c:	0000002c 	andeq	r0, r0, ip, lsr #32
     c30:	2c500001 	mrrccs	0, 0, r0, r0, cr1	; <UNPREDICTABLE>
     c34:	4c000000 	stcmi	0, cr0, [r0], {-0}
     c38:	01000000 	mrseq	r0, (UNDEF: 0)
     c3c:	004c5400 	subeq	r5, ip, r0, lsl #8
     c40:	00500000 	subseq	r0, r0, r0
     c44:	00010000 	andeq	r0, r1, r0
     c48:	00007850 	andeq	r7, r0, r0, asr r8
     c4c:	0000ac00 	andeq	sl, r0, r0, lsl #24
     c50:	50000100 	andpl	r0, r0, r0, lsl #2
	...
     c60:	0000002c 	andeq	r0, r0, ip, lsr #32
     c64:	2c510001 	mrrccs	0, 0, r0, r1, cr1
     c68:	bc000000 	stclt	0, cr0, [r0], {-0}
     c6c:	01000000 	mrseq	r0, (UNDEF: 0)
     c70:	00005700 	andeq	r5, r0, r0, lsl #14
	...
     c7c:	002c0000 	eoreq	r0, ip, r0
     c80:	00010000 	andeq	r0, r1, r0
     c84:	00002c52 	andeq	r2, r0, r2, asr ip
     c88:	0000bc00 	andeq	fp, r0, r0, lsl #24
     c8c:	55000100 	strpl	r0, [r0, #-256]	; 0x100
	...
     c98:	0000004c 	andeq	r0, r0, ip, asr #32
     c9c:	00000050 	andeq	r0, r0, r0, asr r0
     ca0:	80530001 	subshi	r0, r3, r1
     ca4:	84000000 	strhi	r0, [r0], #-0
     ca8:	01000000 	mrseq	r0, (UNDEF: 0)
     cac:	00845300 	addeq	r5, r4, r0, lsl #6
     cb0:	00900000 	addseq	r0, r0, r0
     cb4:	00010000 	andeq	r0, r1, r0
     cb8:	00000058 	andeq	r0, r0, r8, asr r0
     cbc:	00000000 	andeq	r0, r0, r0
     cc0:	00008400 	andeq	r8, r0, r0, lsl #8
     cc4:	00009000 	andeq	r9, r0, r0
     cc8:	30000200 	andcc	r0, r0, r0, lsl #4
     ccc:	0000009f 	muleq	r0, pc, r0	; <UNPREDICTABLE>
     cd0:	00000000 	andeq	r0, r0, r0
     cd4:	0000bc00 	andeq	fp, r0, r0, lsl #24
     cd8:	0000c000 	andeq	ip, r0, r0
     cdc:	7d000200 	sfmvc	f0, 4, [r0, #-0]
     ce0:	0000c000 	andeq	ip, r0, r0
     ce4:	0000d800 	andeq	sp, r0, r0, lsl #16
     ce8:	7d000200 	sfmvc	f0, 4, [r0, #-0]
     cec:	0000d810 	andeq	sp, r0, r0, lsl r8
     cf0:	00016400 	andeq	r6, r1, r0, lsl #8
     cf4:	7d000200 	sfmvc	f0, 4, [r0, #-0]
     cf8:	00000028 	andeq	r0, r0, r8, lsr #32
     cfc:	00000000 	andeq	r0, r0, r0
     d00:	0000bc00 	andeq	fp, r0, r0, lsl #24
     d04:	0000e000 	andeq	lr, r0, r0
     d08:	50000100 	andpl	r0, r0, r0, lsl #2
     d0c:	000000e0 	andeq	r0, r0, r0, ror #1
     d10:	00000114 	andeq	r0, r0, r4, lsl r1
     d14:	00550001 	subseq	r0, r5, r1
     d18:	00000000 	andeq	r0, r0, r0
     d1c:	bc000000 	stclt	0, cr0, [r0], {-0}
     d20:	e0000000 	and	r0, r0, r0
     d24:	01000000 	mrseq	r0, (UNDEF: 0)
     d28:	00e05100 	rsceq	r5, r0, r0, lsl #2
     d2c:	01640000 	cmneq	r4, r0
     d30:	00010000 	andeq	r0, r1, r0
     d34:	00000057 	andeq	r0, r0, r7, asr r0
     d38:	00000000 	andeq	r0, r0, r0
     d3c:	0000bc00 	andeq	fp, r0, r0, lsl #24
     d40:	0000e000 	andeq	lr, r0, r0
     d44:	52000100 	andpl	r0, r0, #0
     d48:	000000e0 	andeq	r0, r0, r0, ror #1
     d4c:	00000164 	andeq	r0, r0, r4, ror #2
     d50:	00560001 	subseq	r0, r6, r1
	...
     d5c:	30000001 	andcc	r0, r0, r1
     d60:	01000001 	tsteq	r0, r1
     d64:	01305000 	teqeq	r0, r0
     d68:	01480000 	mrseq	r0, (UNDEF: 72)
     d6c:	00010000 	andeq	r0, r1, r0
     d70:	00014851 	andeq	r4, r1, r1, asr r8
     d74:	00014c00 	andeq	r4, r1, r0, lsl #24
     d78:	71000300 	mrsvc	r0, LR_irq
     d7c:	014c9f7f 	hvceq	51711	; 0xc9ff
     d80:	01540000 	cmpeq	r4, r0
     d84:	00010000 	andeq	r0, r1, r0
     d88:	00000051 	andeq	r0, r0, r1, asr r0
     d8c:	00000000 	andeq	r0, r0, r0
     d90:	00010000 	andeq	r0, r1, r0
     d94:	00012c00 	andeq	r2, r1, r0, lsl #24
     d98:	7c000300 	stcvc	3, cr0, [r0], {-0}
     d9c:	012c9f70 	teqeq	ip, r0, ror pc
     da0:	01300000 	teqeq	r0, r0
     da4:	00030000 	andeq	r0, r3, r0
     da8:	009f5491 	umullseq	r5, pc, r1, r4	; <UNPREDICTABLE>
	...
     db4:	14000001 	strne	r0, [r0], #-1
     db8:	01000001 	tsteq	r0, r1
     dbc:	01145500 	tsteq	r4, r0, lsl #10
     dc0:	01180000 	tsteq	r8, r0
     dc4:	00010000 	andeq	r0, r1, r0
     dc8:	00011853 	andeq	r1, r1, r3, asr r8
     dcc:	00012000 	andeq	r2, r1, r0
     dd0:	55000100 	strpl	r0, [r0, #-256]	; 0x100
     dd4:	00000120 	andeq	r0, r0, r0, lsr #2
     dd8:	00000128 	andeq	r0, r0, r8, lsr #2
     ddc:	28530001 	ldmdacs	r3, {r0}^
     de0:	30000001 	andcc	r0, r0, r1
     de4:	01000001 	tsteq	r0, r1
     de8:	01305500 	teqeq	r0, r0, lsl #10
     dec:	01340000 	teqeq	r4, r0
     df0:	00010000 	andeq	r0, r1, r0
     df4:	00013453 	andeq	r3, r1, r3, asr r4
     df8:	00014400 	andeq	r4, r1, r0, lsl #8
     dfc:	55000100 	strpl	r0, [r0, #-256]	; 0x100
     e00:	00000144 	andeq	r0, r0, r4, asr #2
     e04:	00000154 	andeq	r0, r0, r4, asr r1
     e08:	00530001 	subseq	r0, r3, r1
	...
     e14:	14000001 	strne	r0, [r0], #-1
     e18:	01000001 	tsteq	r0, r1
     e1c:	00005500 	andeq	r5, r0, r0, lsl #10
     e20:	00000000 	andeq	r0, r0, r0
     e24:	01640000 	cmneq	r4, r0
     e28:	01680000 	cmneq	r8, r0
     e2c:	00020000 	andeq	r0, r2, r0
     e30:	0168007d 	smceq	32781	; 0x800d
     e34:	017c0000 	cmneq	ip, r0
     e38:	00020000 	andeq	r0, r2, r0
     e3c:	017c147d 	cmneq	ip, sp, ror r4
     e40:	024c0000 	subeq	r0, ip, #0
     e44:	00030000 	andeq	r0, r3, r0
     e48:	0000c07d 	andeq	ip, r0, sp, ror r0
     e4c:	00000000 	andeq	r0, r0, r0
     e50:	64000000 	strvs	r0, [r0], #-0
     e54:	84000001 	strhi	r0, [r0], #-1
     e58:	01000001 	tsteq	r0, r1
     e5c:	01845000 	orreq	r5, r4, r0
     e60:	01d80000 	bicseq	r0, r8, r0
     e64:	00010000 	andeq	r0, r1, r0
     e68:	0001d85c 	andeq	sp, r1, ip, asr r8
     e6c:	0001e800 	andeq	lr, r1, r0, lsl #16
     e70:	52000100 	andpl	r0, r0, #0
     e74:	000001e8 	andeq	r0, r0, r8, ror #3
     e78:	000001fc 	strdeq	r0, [r0], -ip
     e7c:	005c0001 	subseq	r0, ip, r1
     e80:	00000000 	andeq	r0, r0, r0
     e84:	64000000 	strvs	r0, [r0], #-0
     e88:	84000001 	strhi	r0, [r0], #-1
     e8c:	01000001 	tsteq	r0, r1
     e90:	01845100 	orreq	r5, r4, r0, lsl #2
     e94:	024c0000 	subeq	r0, ip, #0
     e98:	00010000 	andeq	r0, r1, r0
     e9c:	00000056 	andeq	r0, r0, r6, asr r0
     ea0:	00000000 	andeq	r0, r0, r0
     ea4:	00016400 	andeq	r6, r1, r0, lsl #8
     ea8:	0001a000 	andeq	sl, r1, r0
     eac:	30000200 	andcc	r0, r0, r0, lsl #4
     eb0:	0001a09f 	muleq	r1, pc, r0	; <UNPREDICTABLE>
     eb4:	0001b000 	andeq	fp, r1, r0
     eb8:	31000200 	mrscc	r0, R8_usr
     ebc:	0001b09f 	muleq	r1, pc, r0	; <UNPREDICTABLE>
     ec0:	00020400 	andeq	r0, r2, r0, lsl #8
     ec4:	57000100 	strpl	r0, [r0, -r0, lsl #2]
	...
     ed0:	000001b0 			; <UNDEFINED> instruction: 0x000001b0
     ed4:	000001c0 	andeq	r0, r0, r0, asr #3
     ed8:	9f300002 	svcls	0x00300002
     edc:	000001c0 	andeq	r0, r0, r0, asr #3
     ee0:	000001c4 	andeq	r0, r0, r4, asr #3
     ee4:	d8540001 	ldmdale	r4, {r0}^
     ee8:	08000001 	stmdaeq	r0, {r0}
     eec:	01000002 	tsteq	r0, r2
     ef0:	02085400 	andeq	r5, r8, #0
     ef4:	02300000 	eorseq	r0, r0, #0
     ef8:	00010000 	andeq	r0, r1, r0
     efc:	00000053 	andeq	r0, r0, r3, asr r0
     f00:	00000000 	andeq	r0, r0, r0
     f04:	0001fc00 	andeq	pc, r1, r0, lsl #24
     f08:	00020800 	andeq	r0, r2, r0, lsl #16
     f0c:	30000200 	andcc	r0, r0, r0, lsl #4
     f10:	0002089f 	muleq	r2, pc, r8	; <UNPREDICTABLE>
     f14:	00021400 	andeq	r1, r2, r0, lsl #8
     f18:	57000100 	strpl	r0, [r0, -r0, lsl #2]
	...
     f24:	0000024c 	andeq	r0, r0, ip, asr #4
     f28:	00000250 	andeq	r0, r0, r0, asr r2
     f2c:	007d0002 	rsbseq	r0, sp, r2
     f30:	00000250 	andeq	r0, r0, r0, asr r2
     f34:	00000254 	andeq	r0, r0, r4, asr r2
     f38:	107d0002 	rsbsne	r0, sp, r2
     f3c:	00000254 	andeq	r0, r0, r4, asr r2
     f40:	00000258 	andeq	r0, r0, r8, asr r2
     f44:	307d0002 	rsbscc	r0, sp, r2
     f48:	00000258 	andeq	r0, r0, r8, asr r2
     f4c:	0000051c 	andeq	r0, r0, ip, lsl r5
     f50:	c87d0003 	ldmdagt	sp!, {r0, r1}^
	...
     f5c:	00024c00 	andeq	r4, r2, r0, lsl #24
     f60:	00026400 	andeq	r6, r2, r0, lsl #8
     f64:	91000200 	mrsls	r0, R8_usr
     f68:	00026470 	andeq	r6, r2, r0, ror r4
     f6c:	00028800 	andeq	r8, r2, r0, lsl #16
     f70:	91000200 	mrsls	r0, R8_usr
     f74:	00028848 	andeq	r8, r2, r8, asr #16
     f78:	0002a400 	andeq	sl, r2, r0, lsl #8
     f7c:	54000100 	strpl	r0, [r0], #-256	; 0x100
     f80:	000002a4 	andeq	r0, r0, r4, lsr #5
     f84:	000002bc 			; <UNDEFINED> instruction: 0x000002bc
     f88:	01740003 	cmneq	r4, r3
     f8c:	0002c49f 	muleq	r2, pc, r4	; <UNPREDICTABLE>
     f90:	00051c00 	andeq	r1, r5, r0, lsl #24
     f94:	54000100 	strpl	r0, [r0], #-256	; 0x100
	...
     fa0:	0000024c 	andeq	r0, r0, ip, asr #4
     fa4:	00000288 	andeq	r0, r0, r8, lsl #5
     fa8:	70030006 	andvc	r0, r3, r6
     fac:	9f000032 	svcls	0x00000032
     fb0:	00000288 	andeq	r0, r0, r8, lsl #5
     fb4:	00000298 	muleq	r0, r8, r2
     fb8:	38550001 	ldmdacc	r5, {r0}^
     fbc:	50000003 	andpl	r0, r0, r3
     fc0:	01000003 	tsteq	r0, r3
     fc4:	03bc5500 			; <UNDEFINED> instruction: 0x03bc5500
     fc8:	03c00000 	biceq	r0, r0, #0
     fcc:	00010000 	andeq	r0, r1, r0
     fd0:	00040c55 	andeq	r0, r4, r5, asr ip
     fd4:	00041000 	andeq	r1, r4, r0
     fd8:	55000100 	strpl	r0, [r0, #-256]	; 0x100
     fdc:	0000047c 	andeq	r0, r0, ip, ror r4
     fe0:	00000480 	andeq	r0, r0, r0, lsl #9
     fe4:	9c550001 	mrrcls	0, 0, r0, r5, cr1
     fe8:	a8000004 	stmdage	r0, {r2}
     fec:	03000004 	movweq	r0, #4
     ff0:	9f017500 	svcls	0x00017500
     ff4:	000004a8 	andeq	r0, r0, r8, lsr #9
     ff8:	000004ac 	andeq	r0, r0, ip, lsr #9
     ffc:	14550001 	ldrbne	r0, [r5], #-1
    1000:	1c000005 	stcne	0, cr0, [r0], {5}
    1004:	01000005 	tsteq	r0, r5
    1008:	00005500 	andeq	r5, r0, r0, lsl #10
    100c:	00000000 	andeq	r0, r0, r0
    1010:	03d40000 	bicseq	r0, r4, #0
    1014:	04100000 	ldreq	r0, [r0], #-0
    1018:	00040000 	andeq	r0, r4, r0
    101c:	067fa491 			; <UNDEFINED> instruction: 0x067fa491
	...
    1028:	000002c0 	andeq	r0, r0, r0, asr #5
    102c:	0000032c 	andeq	r0, r0, ip, lsr #6
    1030:	50570001 	subspl	r0, r7, r1
    1034:	1c000003 	stcne	0, cr0, [r0], {3}
    1038:	01000005 	tsteq	r0, r5
    103c:	00005700 	andeq	r5, r0, r0, lsl #14
    1040:	00000000 	andeq	r0, r0, r0
    1044:	024c0000 	subeq	r0, ip, #0
    1048:	02880000 	addeq	r0, r8, #0
    104c:	00020000 	andeq	r0, r2, r0
    1050:	038c9f30 	orreq	r9, ip, #192	; 0xc0
    1054:	03a40000 			; <UNDEFINED> instruction: 0x03a40000
    1058:	00010000 	andeq	r0, r1, r0
    105c:	0003a45a 	andeq	sl, r3, sl, asr r4
    1060:	0003c000 	andeq	ip, r3, r0
    1064:	50000100 	andpl	r0, r0, r0, lsl #2
    1068:	0000044c 	andeq	r0, r0, ip, asr #8
    106c:	00000464 	andeq	r0, r0, r4, ror #8
    1070:	645a0001 	ldrbvs	r0, [sl], #-1
    1074:	80000004 	andhi	r0, r0, r4
    1078:	01000004 	tsteq	r0, r4
    107c:	04e45000 	strbteq	r5, [r4], #0
    1080:	04fc0000 	ldrbteq	r0, [ip], #0
    1084:	00010000 	andeq	r0, r1, r0
    1088:	0004fc5a 	andeq	pc, r4, sl, asr ip	; <UNPREDICTABLE>
    108c:	00051c00 	andeq	r1, r5, r0, lsl #24
    1090:	50000100 	andpl	r0, r0, r0, lsl #2
	...
    109c:	0000036c 	andeq	r0, r0, ip, ror #6
    10a0:	000003c0 	andeq	r0, r0, r0, asr #7
    10a4:	00560001 	subseq	r0, r6, r1
    10a8:	00000000 	andeq	r0, r0, r0
    10ac:	6c000000 	stcvs	0, cr0, [r0], {-0}
    10b0:	7c000003 	stcvc	0, cr0, [r0], {3}
    10b4:	01000003 	tsteq	r0, r3
    10b8:	037c5600 	cmneq	ip, #0
    10bc:	03800000 	orreq	r0, r0, #0
    10c0:	00010000 	andeq	r0, r1, r0
    10c4:	0003805a 	andeq	r8, r3, sl, asr r0
    10c8:	00038c00 	andeq	r8, r3, r0, lsl #24
    10cc:	7a000300 	bvc	1cd4 <utoa+0xac>
    10d0:	00009f7f 	andeq	r9, r0, pc, ror pc
    10d4:	00000000 	andeq	r0, r0, r0
    10d8:	03a40000 			; <UNDEFINED> instruction: 0x03a40000
    10dc:	03a80000 			; <UNDEFINED> instruction: 0x03a80000
    10e0:	00010000 	andeq	r0, r1, r0
    10e4:	00000056 	andeq	r0, r0, r6, asr r0
    10e8:	00000000 	andeq	r0, r0, r0
    10ec:	0003a400 	andeq	sl, r3, r0, lsl #8
    10f0:	0003a800 	andeq	sl, r3, r0, lsl #16
    10f4:	55000100 	strpl	r0, [r0, #-256]	; 0x100
    10f8:	000003a8 	andeq	r0, r0, r8, lsr #7
    10fc:	000003c0 	andeq	r0, r0, r0, asr #7
    1100:	00510001 	subseq	r0, r1, r1
    1104:	00000000 	andeq	r0, r0, r0
    1108:	a4000000 	strge	r0, [r0], #-0
    110c:	bc000003 	stclt	0, cr0, [r0], {3}
    1110:	01000003 	tsteq	r0, r3
    1114:	00005500 	andeq	r5, r0, r0, lsl #10
    1118:	00000000 	andeq	r0, r0, r0
    111c:	03d40000 	bicseq	r0, r4, #0
    1120:	03d80000 	bicseq	r0, r8, #0
    1124:	00040000 	andeq	r0, r4, r0
    1128:	067fa491 			; <UNDEFINED> instruction: 0x067fa491
	...
    1134:	000003d4 	ldrdeq	r0, [r0], -r4
    1138:	000003d8 	ldrdeq	r0, [r0], -r8
    113c:	d8550001 	ldmdale	r5, {r0}^
    1140:	10000003 	andne	r0, r0, r3
    1144:	01000004 	tsteq	r0, r4
    1148:	00005100 	andeq	r5, r0, r0, lsl #2
    114c:	00000000 	andeq	r0, r0, r0
    1150:	03d40000 	bicseq	r0, r4, #0
    1154:	040c0000 	streq	r0, [ip], #-0
    1158:	00010000 	andeq	r0, r1, r0
    115c:	00000055 	andeq	r0, r0, r5, asr r0
    1160:	00000000 	andeq	r0, r0, r0
    1164:	0003e800 	andeq	lr, r3, r0, lsl #16
    1168:	0003f800 	andeq	pc, r3, r0, lsl #16
    116c:	91000400 	tstls	r0, r0, lsl #8
    1170:	f8067fa4 			; <UNDEFINED> instruction: 0xf8067fa4
    1174:	fc000003 	stc2	0, cr0, [r0], {3}
    1178:	01000003 	tsteq	r0, r3
    117c:	03fc5300 	mvnseq	r5, #0
    1180:	04080000 	streq	r0, [r8], #-0
    1184:	00030000 	andeq	r0, r3, r0
    1188:	009f7f73 	addseq	r7, pc, r3, ror pc	; <UNPREDICTABLE>
    118c:	00000000 	andeq	r0, r0, r0
    1190:	2c000000 	stccs	0, cr0, [r0], {-0}
    1194:	80000004 	andhi	r0, r0, r4
    1198:	01000004 	tsteq	r0, r4
    119c:	00005600 	andeq	r5, r0, r0, lsl #12
    11a0:	00000000 	andeq	r0, r0, r0
    11a4:	042c0000 	strteq	r0, [ip], #-0
    11a8:	043c0000 	ldrteq	r0, [ip], #-0
    11ac:	00010000 	andeq	r0, r1, r0
    11b0:	00043c56 	andeq	r3, r4, r6, asr ip
    11b4:	00044000 	andeq	r4, r4, r0
    11b8:	5a000100 	bpl	15c0 <__restore_processor_state+0x2bc>
    11bc:	00000440 	andeq	r0, r0, r0, asr #8
    11c0:	0000044c 	andeq	r0, r0, ip, asr #8
    11c4:	7f7a0003 	svcvc	0x007a0003
    11c8:	0000009f 	muleq	r0, pc, r0	; <UNPREDICTABLE>
    11cc:	00000000 	andeq	r0, r0, r0
    11d0:	00046400 	andeq	r6, r4, r0, lsl #8
    11d4:	00046800 	andeq	r6, r4, r0, lsl #16
    11d8:	56000100 	strpl	r0, [r0], -r0, lsl #2
	...
    11e4:	00000464 	andeq	r0, r0, r4, ror #8
    11e8:	00000468 	andeq	r0, r0, r8, ror #8
    11ec:	68550001 	ldmdavs	r5, {r0}^
    11f0:	80000004 	andhi	r0, r0, r4
    11f4:	01000004 	tsteq	r0, r4
    11f8:	00005100 	andeq	r5, r0, r0, lsl #2
    11fc:	00000000 	andeq	r0, r0, r0
    1200:	04640000 	strbteq	r0, [r4], #-0
    1204:	047c0000 	ldrbteq	r0, [ip], #-0
    1208:	00010000 	andeq	r0, r1, r0
    120c:	00000055 	andeq	r0, r0, r5, asr r0
    1210:	00000000 	andeq	r0, r0, r0
    1214:	0004c400 	andeq	ip, r4, r0, lsl #8
    1218:	0004d400 	andeq	sp, r4, r0, lsl #8
    121c:	56000100 	strpl	r0, [r0], -r0, lsl #2
    1220:	000004d4 	ldrdeq	r0, [r0], -r4
    1224:	000004d8 	ldrdeq	r0, [r0], -r8
    1228:	d85a0001 	ldmdale	sl, {r0}^
    122c:	e4000004 	str	r0, [r0], #-4
    1230:	03000004 	movweq	r0, #4
    1234:	9f7f7a00 	svcls	0x007f7a00
	...
    1240:	000004fc 	strdeq	r0, [r0], -ip
    1244:	00000500 	andeq	r0, r0, r0, lsl #10
    1248:	00560001 	subseq	r0, r6, r1
    124c:	00000000 	andeq	r0, r0, r0
    1250:	fc000000 	stc2	0, cr0, [r0], {-0}
    1254:	00000004 	andeq	r0, r0, r4
    1258:	01000005 	tsteq	r0, r5
    125c:	05005500 	streq	r5, [r0, #-1280]	; 0x500
    1260:	051c0000 	ldreq	r0, [ip, #-0]
    1264:	00010000 	andeq	r0, r1, r0
    1268:	00000051 	andeq	r0, r0, r1, asr r0
    126c:	00000000 	andeq	r0, r0, r0
    1270:	0004fc00 	andeq	pc, r4, r0, lsl #24
    1274:	00051400 	andeq	r1, r5, r0, lsl #8
    1278:	55000100 	strpl	r0, [r0, #-256]	; 0x100
	...
    1284:	0000051c 	andeq	r0, r0, ip, lsl r5
    1288:	00000520 	andeq	r0, r0, r0, lsr #10
    128c:	007d0002 	rsbseq	r0, sp, r2
    1290:	00000520 	andeq	r0, r0, r0, lsr #10
    1294:	00000524 	andeq	r0, r0, r4, lsr #10
    1298:	107d0002 	rsbsne	r0, sp, r2
    129c:	00000524 	andeq	r0, r0, r4, lsr #10
    12a0:	00000528 	andeq	r0, r0, r8, lsr #10
    12a4:	307d0002 	rsbscc	r0, sp, r2
    12a8:	00000528 	andeq	r0, r0, r8, lsr #10
    12ac:	000007ec 	andeq	r0, r0, ip, ror #15
    12b0:	c87d0003 	ldmdagt	sp!, {r0, r1}^
	...
    12bc:	00051c00 	andeq	r1, r5, r0, lsl #24
    12c0:	00053400 	andeq	r3, r5, r0, lsl #8
    12c4:	91000200 	mrsls	r0, R8_usr
    12c8:	00053470 	andeq	r3, r5, r0, ror r4
    12cc:	00055800 	andeq	r5, r5, r0, lsl #16
    12d0:	91000200 	mrsls	r0, R8_usr
    12d4:	00055848 	andeq	r5, r5, r8, asr #16
    12d8:	00057400 	andeq	r7, r5, r0, lsl #8
    12dc:	54000100 	strpl	r0, [r0], #-256	; 0x100
    12e0:	00000574 	andeq	r0, r0, r4, ror r5
    12e4:	0000058c 	andeq	r0, r0, ip, lsl #11
    12e8:	01740003 	cmneq	r4, r3
    12ec:	0005949f 	muleq	r5, pc, r4	; <UNPREDICTABLE>
    12f0:	0007ec00 	andeq	lr, r7, r0, lsl #24
    12f4:	54000100 	strpl	r0, [r0], #-256	; 0x100
	...
    1300:	0000051c 	andeq	r0, r0, ip, lsl r5
    1304:	00000558 	andeq	r0, r0, r8, asr r5
    1308:	70030006 	andvc	r0, r3, r6
    130c:	9f000032 	svcls	0x00000032
    1310:	00000558 	andeq	r0, r0, r8, asr r5
    1314:	00000568 	andeq	r0, r0, r8, ror #10
    1318:	08550001 	ldmdaeq	r5, {r0}^
    131c:	20000006 	andcs	r0, r0, r6
    1320:	01000006 	tsteq	r0, r6
    1324:	068c5500 	streq	r5, [ip], r0, lsl #10
    1328:	06900000 	ldreq	r0, [r0], r0
    132c:	00010000 	andeq	r0, r1, r0
    1330:	0006dc55 	andeq	sp, r6, r5, asr ip
    1334:	0006e000 	andeq	lr, r6, r0
    1338:	55000100 	strpl	r0, [r0, #-256]	; 0x100
    133c:	0000074c 	andeq	r0, r0, ip, asr #14
    1340:	00000750 	andeq	r0, r0, r0, asr r7
    1344:	6c550001 	mrrcvs	0, 0, r0, r5, cr1
    1348:	78000007 	stmdavc	r0, {r0, r1, r2}
    134c:	03000007 	movweq	r0, #7
    1350:	9f017500 	svcls	0x00017500
    1354:	00000778 	andeq	r0, r0, r8, ror r7
    1358:	0000077c 	andeq	r0, r0, ip, ror r7
    135c:	e4550001 	ldrb	r0, [r5], #-1
    1360:	ec000007 	stc	0, cr0, [r0], {7}
    1364:	01000007 	tsteq	r0, r7
    1368:	00005500 	andeq	r5, r0, r0, lsl #10
    136c:	00000000 	andeq	r0, r0, r0
    1370:	06a40000 	strteq	r0, [r4], r0
    1374:	06e00000 	strbteq	r0, [r0], r0
    1378:	00040000 	andeq	r0, r4, r0
    137c:	067fa491 			; <UNDEFINED> instruction: 0x067fa491
	...
    1388:	00000590 	muleq	r0, r0, r5
    138c:	000005fc 	strdeq	r0, [r0], -ip
    1390:	20570001 	subscs	r0, r7, r1
    1394:	ec000006 	stc	0, cr0, [r0], {6}
    1398:	01000007 	tsteq	r0, r7
    139c:	00005700 	andeq	r5, r0, r0, lsl #14
    13a0:	00000000 	andeq	r0, r0, r0
    13a4:	051c0000 	ldreq	r0, [ip, #-0]
    13a8:	05580000 	ldrbeq	r0, [r8, #-0]
    13ac:	00020000 	andeq	r0, r2, r0
    13b0:	065c9f30 	uasxeq	r9, ip, r0
    13b4:	06740000 	ldrbteq	r0, [r4], -r0
    13b8:	00010000 	andeq	r0, r1, r0
    13bc:	0006745a 	andeq	r7, r6, sl, asr r4
    13c0:	00069000 	andeq	r9, r6, r0
    13c4:	50000100 	andpl	r0, r0, r0, lsl #2
    13c8:	0000071c 	andeq	r0, r0, ip, lsl r7
    13cc:	00000734 	andeq	r0, r0, r4, lsr r7
    13d0:	345a0001 	ldrbcc	r0, [sl], #-1
    13d4:	50000007 	andpl	r0, r0, r7
    13d8:	01000007 	tsteq	r0, r7
    13dc:	07b45000 	ldreq	r5, [r4, r0]!
    13e0:	07cc0000 	strbeq	r0, [ip, r0]
    13e4:	00010000 	andeq	r0, r1, r0
    13e8:	0007cc5a 	andeq	ip, r7, sl, asr ip
    13ec:	0007ec00 	andeq	lr, r7, r0, lsl #24
    13f0:	50000100 	andpl	r0, r0, r0, lsl #2
	...
    13fc:	0000063c 	andeq	r0, r0, ip, lsr r6
    1400:	00000690 	muleq	r0, r0, r6
    1404:	00560001 	subseq	r0, r6, r1
    1408:	00000000 	andeq	r0, r0, r0
    140c:	3c000000 	stccc	0, cr0, [r0], {-0}
    1410:	4c000006 	stcmi	0, cr0, [r0], {6}
    1414:	01000006 	tsteq	r0, r6
    1418:	064c5600 	strbeq	r5, [ip], -r0, lsl #12
    141c:	06500000 	ldrbeq	r0, [r0], -r0
    1420:	00010000 	andeq	r0, r1, r0
    1424:	0006505a 	andeq	r5, r6, sl, asr r0
    1428:	00065c00 	andeq	r5, r6, r0, lsl #24
    142c:	7a000300 	bvc	2034 <printk+0x1c0>
    1430:	00009f7f 	andeq	r9, r0, pc, ror pc
    1434:	00000000 	andeq	r0, r0, r0
    1438:	06740000 	ldrbteq	r0, [r4], -r0
    143c:	06780000 	ldrbteq	r0, [r8], -r0
    1440:	00010000 	andeq	r0, r1, r0
    1444:	00000056 	andeq	r0, r0, r6, asr r0
    1448:	00000000 	andeq	r0, r0, r0
    144c:	00067400 	andeq	r7, r6, r0, lsl #8
    1450:	00067800 	andeq	r7, r6, r0, lsl #16
    1454:	55000100 	strpl	r0, [r0, #-256]	; 0x100
    1458:	00000678 	andeq	r0, r0, r8, ror r6
    145c:	00000690 	muleq	r0, r0, r6
    1460:	00510001 	subseq	r0, r1, r1
    1464:	00000000 	andeq	r0, r0, r0
    1468:	74000000 	strvc	r0, [r0], #-0
    146c:	8c000006 	stchi	0, cr0, [r0], {6}
    1470:	01000006 	tsteq	r0, r6
    1474:	00005500 	andeq	r5, r0, r0, lsl #10
    1478:	00000000 	andeq	r0, r0, r0
    147c:	06a40000 	strteq	r0, [r4], r0
    1480:	06a80000 	strteq	r0, [r8], r0
    1484:	00040000 	andeq	r0, r4, r0
    1488:	067fa491 			; <UNDEFINED> instruction: 0x067fa491
	...
    1494:	000006a4 	andeq	r0, r0, r4, lsr #13
    1498:	000006a8 	andeq	r0, r0, r8, lsr #13
    149c:	a8550001 	ldmdage	r5, {r0}^
    14a0:	e0000006 	and	r0, r0, r6
    14a4:	01000006 	tsteq	r0, r6
    14a8:	00005100 	andeq	r5, r0, r0, lsl #2
    14ac:	00000000 	andeq	r0, r0, r0
    14b0:	06a40000 	strteq	r0, [r4], r0
    14b4:	06dc0000 	ldrbeq	r0, [ip], r0
    14b8:	00010000 	andeq	r0, r1, r0
    14bc:	00000055 	andeq	r0, r0, r5, asr r0
    14c0:	00000000 	andeq	r0, r0, r0
    14c4:	0006b800 	andeq	fp, r6, r0, lsl #16
    14c8:	0006c800 	andeq	ip, r6, r0, lsl #16
    14cc:	91000400 	tstls	r0, r0, lsl #8
    14d0:	c8067fa4 	stmdagt	r6, {r2, r5, r7, r8, r9, sl, fp, ip, sp, lr}
    14d4:	cc000006 	stcgt	0, cr0, [r0], {6}
    14d8:	01000006 	tsteq	r0, r6
    14dc:	06cc5300 	strbeq	r5, [ip], r0, lsl #6
    14e0:	06d80000 	ldrbeq	r0, [r8], r0
    14e4:	00030000 	andeq	r0, r3, r0
    14e8:	009f7f73 	addseq	r7, pc, r3, ror pc	; <UNPREDICTABLE>
    14ec:	00000000 	andeq	r0, r0, r0
    14f0:	fc000000 	stc2	0, cr0, [r0], {-0}
    14f4:	50000006 	andpl	r0, r0, r6
    14f8:	01000007 	tsteq	r0, r7
    14fc:	00005600 	andeq	r5, r0, r0, lsl #12
    1500:	00000000 	andeq	r0, r0, r0
    1504:	06fc0000 	ldrbteq	r0, [ip], r0
    1508:	070c0000 	streq	r0, [ip, -r0]
    150c:	00010000 	andeq	r0, r1, r0
    1510:	00070c56 	andeq	r0, r7, r6, asr ip
    1514:	00071000 	andeq	r1, r7, r0
    1518:	5a000100 	bpl	1920 <serial_puts_nommu+0x24>
    151c:	00000710 	andeq	r0, r0, r0, lsl r7
    1520:	0000071c 	andeq	r0, r0, ip, lsl r7
    1524:	7f7a0003 	svcvc	0x007a0003
    1528:	0000009f 	muleq	r0, pc, r0	; <UNPREDICTABLE>
    152c:	00000000 	andeq	r0, r0, r0
    1530:	00073400 	andeq	r3, r7, r0, lsl #8
    1534:	00073800 	andeq	r3, r7, r0, lsl #16
    1538:	56000100 	strpl	r0, [r0], -r0, lsl #2
	...
    1544:	00000734 	andeq	r0, r0, r4, lsr r7
    1548:	00000738 	andeq	r0, r0, r8, lsr r7
    154c:	38550001 	ldmdacc	r5, {r0}^
    1550:	50000007 	andpl	r0, r0, r7
    1554:	01000007 	tsteq	r0, r7
    1558:	00005100 	andeq	r5, r0, r0, lsl #2
    155c:	00000000 	andeq	r0, r0, r0
    1560:	07340000 	ldreq	r0, [r4, -r0]!
    1564:	074c0000 	strbeq	r0, [ip, -r0]
    1568:	00010000 	andeq	r0, r1, r0
    156c:	00000055 	andeq	r0, r0, r5, asr r0
    1570:	00000000 	andeq	r0, r0, r0
    1574:	00079400 	andeq	r9, r7, r0, lsl #8
    1578:	0007a400 	andeq	sl, r7, r0, lsl #8
    157c:	56000100 	strpl	r0, [r0], -r0, lsl #2
    1580:	000007a4 	andeq	r0, r0, r4, lsr #15
    1584:	000007a8 	andeq	r0, r0, r8, lsr #15
    1588:	a85a0001 	ldmdage	sl, {r0}^
    158c:	b4000007 	strlt	r0, [r0], #-7
    1590:	03000007 	movweq	r0, #7
    1594:	9f7f7a00 	svcls	0x007f7a00
	...
    15a0:	000007cc 	andeq	r0, r0, ip, asr #15
    15a4:	000007d0 	ldrdeq	r0, [r0], -r0	; <UNPREDICTABLE>
    15a8:	00560001 	subseq	r0, r6, r1
    15ac:	00000000 	andeq	r0, r0, r0
    15b0:	cc000000 	stcgt	0, cr0, [r0], {-0}
    15b4:	d0000007 	andle	r0, r0, r7
    15b8:	01000007 	tsteq	r0, r7
    15bc:	07d05500 	ldrbeq	r5, [r0, r0, lsl #10]
    15c0:	07ec0000 	strbeq	r0, [ip, r0]!
    15c4:	00010000 	andeq	r0, r1, r0
    15c8:	00000051 	andeq	r0, r0, r1, asr r0
    15cc:	00000000 	andeq	r0, r0, r0
    15d0:	0007cc00 	andeq	ip, r7, r0, lsl #24
    15d4:	0007e400 	andeq	lr, r7, r0, lsl #8
    15d8:	55000100 	strpl	r0, [r0, #-256]	; 0x100
	...
    15e4:	0000000c 	andeq	r0, r0, ip
    15e8:	00000054 	andeq	r0, r0, r4, asr r0
    15ec:	00500001 	subseq	r0, r0, r1
    15f0:	00000000 	andeq	r0, r0, r0
    15f4:	0c000000 	stceq	0, cr0, [r0], {-0}
    15f8:	10000000 	andne	r0, r0, r0
    15fc:	01000000 	mrseq	r0, (UNDEF: 0)
    1600:	00005100 	andeq	r5, r0, r0, lsl #2
    1604:	00000000 	andeq	r0, r0, r0
    1608:	000c0000 	andeq	r0, ip, r0
    160c:	00200000 	eoreq	r0, r0, r0
    1610:	00010000 	andeq	r0, r1, r0
    1614:	00002051 	andeq	r2, r0, r1, asr r0
    1618:	00002400 	andeq	r2, r0, r0, lsl #8
    161c:	71000500 	tstvc	r0, r0, lsl #10
    1620:	9f243100 	svcls	0x00243100
    1624:	00000024 	andeq	r0, r0, r4, lsr #32
    1628:	00000028 	andeq	r0, r0, r8, lsr #32
    162c:	30510001 	subscc	r0, r1, r1
    1630:	58000000 	stmdapl	r0, {}	; <UNPREDICTABLE>
    1634:	01000000 	mrseq	r0, (UNDEF: 0)
    1638:	00005100 	andeq	r5, r0, r0, lsl #2
    163c:	00000000 	andeq	r0, r0, r0
    1640:	000c0000 	andeq	r0, ip, r0
    1644:	00300000 	eorseq	r0, r0, r0
    1648:	00020000 	andeq	r0, r2, r0
    164c:	00309f30 	eorseq	r9, r0, r0, lsr pc
    1650:	00400000 	subeq	r0, r0, r0
    1654:	00010000 	andeq	r0, r1, r0
    1658:	00004452 	andeq	r4, r0, r2, asr r4
    165c:	00005000 	andeq	r5, r0, r0
    1660:	52000100 	andpl	r0, r0, #0
	...
    166c:	0000000c 	andeq	r0, r0, ip
    1670:	00000020 	andeq	r0, r0, r0, lsr #32
    1674:	9f300002 	svcls	0x00300002
    1678:	00000028 	andeq	r0, r0, r8, lsr #32
    167c:	0000002c 	andeq	r0, r0, ip, lsr #32
    1680:	30530001 	subscc	r0, r3, r1
    1684:	48000000 	stmdami	r0, {}	; <UNPREDICTABLE>
    1688:	01000000 	mrseq	r0, (UNDEF: 0)
    168c:	00005300 	andeq	r5, r0, r0, lsl #6
	...
    1698:	00100000 	andseq	r0, r0, r0
    169c:	00020000 	andeq	r0, r2, r0
    16a0:	0010007d 	andseq	r0, r0, sp, ror r0
    16a4:	00900000 	addseq	r0, r0, r0
    16a8:	00020000 	andeq	r0, r2, r0
    16ac:	0000087d 	andeq	r0, r0, sp, ror r8
	...
    16b8:	00300000 	eorseq	r0, r0, r0
    16bc:	00020000 	andeq	r0, r2, r0
    16c0:	006c9f30 	rsbeq	r9, ip, r0, lsr pc
    16c4:	007f0000 	rsbseq	r0, pc, r0
    16c8:	00010000 	andeq	r0, r1, r0
    16cc:	00000051 	andeq	r0, r0, r1, asr r0
    16d0:	00000000 	andeq	r0, r0, r0
    16d4:	00009000 	andeq	r9, r0, r0
    16d8:	00009800 	andeq	r9, r0, r0, lsl #16
    16dc:	7d000200 	sfmvc	f0, 4, [r0, #-0]
    16e0:	00009800 	andeq	r9, r0, r0, lsl #16
    16e4:	0000e400 	andeq	lr, r0, r0, lsl #8
    16e8:	7d000200 	sfmvc	f0, 4, [r0, #-0]
    16ec:	00000008 	andeq	r0, r0, r8
    16f0:	00000000 	andeq	r0, r0, r0
    16f4:	00009000 	andeq	r9, r0, r0
    16f8:	0000b000 	andeq	fp, r0, r0
    16fc:	30000200 	andcc	r0, r0, r0, lsl #4
    1700:	0000cc9f 	muleq	r0, pc, ip	; <UNPREDICTABLE>
    1704:	0000e400 	andeq	lr, r0, r0, lsl #8
    1708:	53000100 	movwpl	r0, #256	; 0x100
	...
    1714:	000000a0 	andeq	r0, r0, r0, lsr #1
    1718:	000000b4 	strheq	r0, [r0], -r4
    171c:	74910002 	ldrvc	r0, [r1], #2
    1720:	000000b4 	strheq	r0, [r0], -r4
    1724:	000000bc 	strheq	r0, [r0], -ip
    1728:	bc510001 	mrrclt	0, 0, r0, r1, cr1
    172c:	e4000000 	str	r0, [r0], #-0
    1730:	02000000 	andeq	r0, r0, #0
    1734:	00749100 	rsbseq	r9, r4, r0, lsl #2
    1738:	00000000 	andeq	r0, r0, r0
    173c:	e4000000 	str	r0, [r0], #-0
    1740:	18000000 	stmdane	r0, {}	; <UNPREDICTABLE>
    1744:	01000001 	tsteq	r0, r1
    1748:	01345000 	teqeq	r4, r0
    174c:	01380000 	teqeq	r8, r0
    1750:	00010000 	andeq	r0, r1, r0
    1754:	00000050 	andeq	r0, r0, r0, asr r0
    1758:	00000000 	andeq	r0, r0, r0
    175c:	0000e400 	andeq	lr, r0, r0, lsl #8
    1760:	00011800 	andeq	r1, r1, r0, lsl #16
    1764:	70000500 	andvc	r0, r0, r0, lsl #10
    1768:	9f253500 	svcls	0x00253500
    176c:	00000118 	andeq	r0, r0, r8, lsl r1
    1770:	0000011c 	andeq	r0, r0, ip, lsl r1
    1774:	40730003 	rsbsmi	r0, r3, r3
    1778:	0001349f 	muleq	r1, pc, r4	; <UNPREDICTABLE>
    177c:	00013800 	andeq	r3, r1, r0, lsl #16
    1780:	70000500 	andvc	r0, r0, r0, lsl #10
    1784:	9f253500 	svcls	0x00253500
	...
    1790:	000000e4 	andeq	r0, r0, r4, ror #1
    1794:	00000118 	andeq	r0, r0, r8, lsl r1
    1798:	00700005 	rsbseq	r0, r0, r5
    179c:	189f1a4f 	ldmne	pc, {r0, r1, r2, r3, r6, r9, fp, ip}	; <UNPREDICTABLE>
    17a0:	2c000001 	stccs	0, cr0, [r0], {1}
    17a4:	01000001 	tsteq	r0, r1
    17a8:	01345200 	teqeq	r4, r0, lsl #4
    17ac:	01380000 	teqeq	r8, r0
    17b0:	00050000 	andeq	r0, r5, r0
    17b4:	1a4f0070 	bne	13c197c <__bss_end+0x13be404>
    17b8:	0000009f 	muleq	r0, pc, r0	; <UNPREDICTABLE>
    17bc:	00000000 	andeq	r0, r0, r0
    17c0:	00014000 	andeq	r4, r1, r0
    17c4:	00016c00 	andeq	r6, r1, r0, lsl #24
    17c8:	50000100 	andpl	r0, r0, r0, lsl #2
    17cc:	00000190 	muleq	r0, r0, r1
    17d0:	00000194 	muleq	r0, r4, r1
    17d4:	00500001 	subseq	r0, r0, r1
    17d8:	00000000 	andeq	r0, r0, r0
    17dc:	40000000 	andmi	r0, r0, r0
    17e0:	80000001 	andhi	r0, r0, r1
    17e4:	02000001 	andeq	r0, r0, #1
    17e8:	909f3000 	addsls	r3, pc, r0
    17ec:	9c000001 	stcls	0, cr0, [r0], {1}
    17f0:	02000001 	andeq	r0, r0, #1
    17f4:	009f3000 	addseq	r3, pc, r0
    17f8:	00000000 	andeq	r0, r0, r0
    17fc:	40000000 	andmi	r0, r0, r0
    1800:	6c000001 	stcvs	0, cr0, [r0], {1}
    1804:	05000001 	streq	r0, [r0, #-1]
    1808:	35007000 	strcc	r7, [r0, #-0]
    180c:	016c9f25 	cmneq	ip, r5, lsr #30
    1810:	01700000 	cmneq	r0, r0
    1814:	00010000 	andeq	r0, r1, r0
    1818:	00017053 	andeq	r7, r1, r3, asr r0
    181c:	00017400 	andeq	r7, r1, r0, lsl #8
    1820:	73000400 	movwvc	r0, #1024	; 0x400
    1824:	909f7f80 	addsls	r7, pc, r0, lsl #31
    1828:	94000001 	strls	r0, [r0], #-1
    182c:	05000001 	streq	r0, [r0, #-1]
    1830:	35007000 	strcc	r7, [r0, #-0]
    1834:	00009f25 	andeq	r9, r0, r5, lsr #30
    1838:	00000000 	andeq	r0, r0, r0
    183c:	01400000 	mrseq	r0, (UNDEF: 64)
    1840:	016c0000 	cmneq	ip, r0
    1844:	00050000 	andeq	r0, r5, r0
    1848:	1a4f0070 	bne	13c1a10 <__bss_end+0x13be498>
    184c:	00016c9f 	muleq	r1, pc, ip	; <UNPREDICTABLE>
    1850:	00018c00 	andeq	r8, r1, r0, lsl #24
    1854:	50000100 	andpl	r0, r0, r0, lsl #2
    1858:	00000190 	muleq	r0, r0, r1
    185c:	00000194 	muleq	r0, r4, r1
    1860:	00700005 	rsbseq	r0, r0, r5
    1864:	009f1a4f 	addseq	r1, pc, pc, asr #20
	...
    1870:	0c000000 	stceq	0, cr0, [r0], {-0}
    1874:	01000000 	mrseq	r0, (UNDEF: 0)
    1878:	000c5000 	andeq	r5, ip, r0
    187c:	00140000 	andseq	r0, r4, r0
    1880:	00030000 	andeq	r0, r3, r0
    1884:	009f0470 	addseq	r0, pc, r0, ror r4	; <UNPREDICTABLE>
	...
    1890:	14000000 	strne	r0, [r0], #-0
    1894:	02000000 	andeq	r0, r0, #0
    1898:	009f3000 	addseq	r3, pc, r0
    189c:	00000000 	andeq	r0, r0, r0
    18a0:	2c000000 	stccs	0, cr0, [r0], {-0}
    18a4:	38000000 	stmdacc	r0, {}	; <UNPREDICTABLE>
    18a8:	01000000 	mrseq	r0, (UNDEF: 0)
    18ac:	00385000 	eorseq	r5, r8, r0
    18b0:	00400000 	subeq	r0, r0, r0
    18b4:	00030000 	andeq	r0, r3, r0
    18b8:	009f0470 	addseq	r0, pc, r0, ror r4	; <UNPREDICTABLE>
    18bc:	00000000 	andeq	r0, r0, r0
    18c0:	2c000000 	stccs	0, cr0, [r0], {-0}
    18c4:	40000000 	andmi	r0, r0, r0
    18c8:	02000000 	andeq	r0, r0, #0
    18cc:	009f3000 	addseq	r3, pc, r0
    18d0:	00000000 	andeq	r0, r0, r0
    18d4:	58000000 	stmdapl	r0, {}	; <UNPREDICTABLE>
    18d8:	80000000 	andhi	r0, r0, r0
    18dc:	01000000 	mrseq	r0, (UNDEF: 0)
    18e0:	00005000 	andeq	r5, r0, r0
    18e4:	00000000 	andeq	r0, r0, r0
    18e8:	00580000 	subseq	r0, r8, r0
    18ec:	00840000 	addeq	r0, r4, r0
    18f0:	00020000 	andeq	r0, r2, r0
    18f4:	00009f30 	andeq	r9, r0, r0, lsr pc
	...
    1900:	00100000 	andseq	r0, r0, r0
    1904:	00010000 	andeq	r0, r1, r0
    1908:	00001050 	andeq	r1, r0, r0, asr r0
    190c:	00006000 	andeq	r6, r0, r0
    1910:	52000100 	andpl	r0, r0, #0
	...
    191c:	00000060 	andeq	r0, r0, r0, rrx
    1920:	00000078 	andeq	r0, r0, r8, ror r0
    1924:	78500001 	ldmdavc	r0, {r0}^
    1928:	a8000000 	stmdage	r0, {}	; <UNPREDICTABLE>
    192c:	01000000 	mrseq	r0, (UNDEF: 0)
    1930:	00005200 	andeq	r5, r0, r0, lsl #4
    1934:	00000000 	andeq	r0, r0, r0
    1938:	01980000 	orrseq	r0, r8, r0
    193c:	01b40000 			; <UNDEFINED> instruction: 0x01b40000
    1940:	00010000 	andeq	r0, r1, r0
    1944:	00000050 	andeq	r0, r0, r0, asr r0
	...
    1950:	00001000 	andeq	r1, r0, r0
    1954:	50000100 	andpl	r0, r0, r0, lsl #2
    1958:	00000010 	andeq	r0, r0, r0, lsl r0
    195c:	00000030 	andeq	r0, r0, r0, lsr r0
    1960:	00520001 	subseq	r0, r2, r1
    1964:	00000000 	andeq	r0, r0, r0
    1968:	30000000 	andcc	r0, r0, r0
    196c:	48000000 	stmdami	r0, {}	; <UNPREDICTABLE>
    1970:	01000000 	mrseq	r0, (UNDEF: 0)
    1974:	00485000 	subeq	r5, r8, r0
    1978:	00500000 	subseq	r0, r0, r0
    197c:	00010000 	andeq	r0, r1, r0
    1980:	00000052 	andeq	r0, r0, r2, asr r0
	...
    198c:	00001800 	andeq	r1, r0, r0, lsl #16
    1990:	50000100 	andpl	r0, r0, r0, lsl #2
	...
    199c:	00000030 	andeq	r0, r0, r0, lsr r0
    19a0:	00000034 	andeq	r0, r0, r4, lsr r0
    19a4:	007d0002 	rsbseq	r0, sp, r2
    19a8:	00000034 	andeq	r0, r0, r4, lsr r0
    19ac:	000000ac 	andeq	r0, r0, ip, lsr #1
    19b0:	087d0002 	ldmdaeq	sp!, {r1}^
	...
    19bc:	00000030 	andeq	r0, r0, r0, lsr r0
    19c0:	00000084 	andeq	r0, r0, r4, lsl #1
    19c4:	88500001 	ldmdahi	r0, {r0}^
    19c8:	90000000 	andls	r0, r0, r0
    19cc:	01000000 	mrseq	r0, (UNDEF: 0)
    19d0:	009c5000 	addseq	r5, ip, r0
    19d4:	00a00000 	adceq	r0, r0, r0
    19d8:	00010000 	andeq	r0, r1, r0
    19dc:	00000050 	andeq	r0, r0, r0, asr r0
    19e0:	00000000 	andeq	r0, r0, r0
    19e4:	00003000 	andeq	r3, r0, r0
    19e8:	00006000 	andeq	r6, r0, r0
    19ec:	51000100 	mrspl	r0, (UNDEF: 16)
    19f0:	0000009c 	muleq	r0, ip, r0
    19f4:	000000ac 	andeq	r0, r0, ip, lsr #1
    19f8:	00510001 	subseq	r0, r1, r1
    19fc:	00000000 	andeq	r0, r0, r0
    1a00:	30000000 	andcc	r0, r0, r0
    1a04:	64000000 	strvs	r0, [r0], #-0
    1a08:	05000000 	streq	r0, [r0, #-0]
    1a0c:	3a007100 	bcc	1de14 <__bss_end+0x1a89c>
    1a10:	00649f24 	rsbeq	r9, r4, r4, lsr #30
    1a14:	006c0000 	rsbeq	r0, ip, r0
    1a18:	00010000 	andeq	r0, r1, r0
    1a1c:	00006c51 	andeq	r6, r0, r1, asr ip
    1a20:	00007000 	andeq	r7, r0, r0
    1a24:	71000300 	mrsvc	r0, LR_irq
    1a28:	00709f7f 	rsbseq	r9, r0, pc, ror pc
    1a2c:	00740000 	rsbseq	r0, r4, r0
    1a30:	00010000 	andeq	r0, r1, r0
    1a34:	00007451 	andeq	r7, r0, r1, asr r4
    1a38:	00008800 	andeq	r8, r0, r0, lsl #16
    1a3c:	71000300 	mrsvc	r0, LR_irq
    1a40:	009c9f7f 	addseq	r9, ip, pc, ror pc
    1a44:	00ac0000 	adceq	r0, ip, r0
    1a48:	00050000 	andeq	r0, r5, r0
    1a4c:	243a0071 	ldrtcs	r0, [sl], #-113	; 0x71
    1a50:	0000009f 	muleq	r0, pc, r0	; <UNPREDICTABLE>
    1a54:	00000000 	andeq	r0, r0, r0
    1a58:	00003c00 	andeq	r3, r0, r0, lsl #24
    1a5c:	00009300 	andeq	r9, r0, r0, lsl #6
    1a60:	5c000100 	stfpls	f0, [r0], {-0}
    1a64:	0000009c 	muleq	r0, ip, r0
    1a68:	000000ac 	andeq	r0, r0, ip, lsr #1
    1a6c:	005c0001 	subseq	r0, ip, r1
    1a70:	00000000 	andeq	r0, r0, r0
    1a74:	88000000 	stmdahi	r0, {}	; <UNPREDICTABLE>
    1a78:	93000000 	movwls	r0, #0
    1a7c:	01000000 	mrseq	r0, (UNDEF: 0)
    1a80:	00005c00 	andeq	r5, r0, r0, lsl #24
    1a84:	00000000 	andeq	r0, r0, r0
    1a88:	00ac0000 	adceq	r0, ip, r0
    1a8c:	00d80000 	sbcseq	r0, r8, r0
    1a90:	00010000 	andeq	r0, r1, r0
    1a94:	00000050 	andeq	r0, r0, r0, asr r0
    1a98:	00000000 	andeq	r0, r0, r0
    1a9c:	0000dc00 	andeq	sp, r0, r0, lsl #24
    1aa0:	00012c00 	andeq	r2, r1, r0, lsl #24
    1aa4:	50000100 	andpl	r0, r0, r0, lsl #2
    1aa8:	00000130 	andeq	r0, r0, r0, lsr r1
    1aac:	00000138 	andeq	r0, r0, r8, lsr r1
    1ab0:	3c500001 	mrrccc	0, 0, r0, r0, cr1	; <UNPREDICTABLE>
    1ab4:	40000001 	andmi	r0, r0, r1
    1ab8:	01000001 	tsteq	r0, r1
    1abc:	00005000 	andeq	r5, r0, r0
    1ac0:	00000000 	andeq	r0, r0, r0
    1ac4:	00dc0000 	sbcseq	r0, ip, r0
    1ac8:	010c0000 	mrseq	r0, (UNDEF: 12)
    1acc:	00010000 	andeq	r0, r1, r0
    1ad0:	00013c51 	andeq	r3, r1, r1, asr ip
    1ad4:	00014800 	andeq	r4, r1, r0, lsl #16
    1ad8:	51000100 	mrspl	r0, (UNDEF: 16)
	...
    1ae4:	000000dc 	ldrdeq	r0, [r0], -ip
    1ae8:	0000010c 	andeq	r0, r0, ip, lsl #2
    1aec:	00710005 	rsbseq	r0, r1, r5
    1af0:	0c9f243a 	cfldrseq	mvf2, [pc], {58}	; 0x3a
    1af4:	14000001 	strne	r0, [r0], #-1
    1af8:	01000001 	tsteq	r0, r1
    1afc:	01145100 	tsteq	r4, r0, lsl #2
    1b00:	01180000 	tsteq	r8, r0
    1b04:	00030000 	andeq	r0, r3, r0
    1b08:	189f7f71 	ldmne	pc, {r0, r4, r5, r6, r8, r9, sl, fp, ip, sp, lr}	; <UNPREDICTABLE>
    1b0c:	1c000001 	stcne	0, cr0, [r0], {1}
    1b10:	01000001 	tsteq	r0, r1
    1b14:	011c5100 	tsteq	ip, r0, lsl #2
    1b18:	01300000 	teqeq	r0, r0
    1b1c:	00030000 	andeq	r0, r3, r0
    1b20:	3c9f7f71 	ldccc	15, cr7, [pc], {113}	; 0x71
    1b24:	48000001 	stmdami	r0, {r0}
    1b28:	05000001 	streq	r0, [r0, #-1]
    1b2c:	3a007100 	bcc	1df34 <__bss_end+0x1a9bc>
    1b30:	00009f24 	andeq	r9, r0, r4, lsr #30
    1b34:	00000000 	andeq	r0, r0, r0
    1b38:	01300000 	teqeq	r0, r0
    1b3c:	013c0000 	teqeq	ip, r0
    1b40:	00010000 	andeq	r0, r1, r0
    1b44:	0000005c 	andeq	r0, r0, ip, asr r0
    1b48:	00000000 	andeq	r0, r0, r0
    1b4c:	00014800 	andeq	r4, r1, r0, lsl #16
    1b50:	00017400 	andeq	r7, r1, r0, lsl #8
    1b54:	50000100 	andpl	r0, r0, r0, lsl #2
	...
    1b64:	0000001c 	andeq	r0, r0, ip, lsl r0
    1b68:	00500001 	subseq	r0, r0, r1
    1b6c:	00000000 	andeq	r0, r0, r0
    1b70:	40000000 	andmi	r0, r0, r0
    1b74:	50000000 	andpl	r0, r0, r0
    1b78:	01000000 	mrseq	r0, (UNDEF: 0)
    1b7c:	00505000 	subseq	r5, r0, r0
    1b80:	007c0000 	rsbseq	r0, ip, r0
    1b84:	00010000 	andeq	r0, r1, r0
    1b88:	00000052 	andeq	r0, r0, r2, asr r0
    1b8c:	00000000 	andeq	r0, r0, r0
    1b90:	00007c00 	andeq	r7, r0, r0, lsl #24
    1b94:	00009400 	andeq	r9, r0, r0, lsl #8
    1b98:	50000100 	andpl	r0, r0, r0, lsl #2
    1b9c:	00000094 	muleq	r0, r4, r0
    1ba0:	000000a8 	andeq	r0, r0, r8, lsr #1
    1ba4:	00520001 	subseq	r0, r2, r1
    1ba8:	00000000 	andeq	r0, r0, r0
    1bac:	b0000000 	andlt	r0, r0, r0
    1bb0:	b4000000 	strlt	r0, [r0], #-0
    1bb4:	02000000 	andeq	r0, r0, #0
    1bb8:	b4007d00 	strlt	r7, [r0], #-3328	; 0xd00
    1bbc:	20000000 	andcs	r0, r0, r0
    1bc0:	02000001 	andeq	r0, r0, #1
    1bc4:	00107d00 	andseq	r7, r0, r0, lsl #26
    1bc8:	00000000 	andeq	r0, r0, r0
    1bcc:	b0000000 	andlt	r0, r0, r0
    1bd0:	d0000000 	andle	r0, r0, r0
    1bd4:	01000000 	mrseq	r0, (UNDEF: 0)
    1bd8:	00d05000 	sbcseq	r5, r0, r0
    1bdc:	01200000 	teqeq	r0, r0
    1be0:	00010000 	andeq	r0, r1, r0
    1be4:	00000054 	andeq	r0, r0, r4, asr r0
    1be8:	00000000 	andeq	r0, r0, r0
    1bec:	00012000 	andeq	r2, r1, r0
    1bf0:	00012800 	andeq	r2, r1, r0, lsl #16
    1bf4:	7d000200 	sfmvc	f0, 4, [r0, #-0]
    1bf8:	00012800 	andeq	r2, r1, r0, lsl #16
    1bfc:	00016800 	andeq	r6, r1, r0, lsl #16
    1c00:	7d000200 	sfmvc	f0, 4, [r0, #-0]
    1c04:	00000004 	andeq	r0, r0, r4
    1c08:	00000000 	andeq	r0, r0, r0
    1c0c:	00012000 	andeq	r2, r1, r0
    1c10:	00012c00 	andeq	r2, r1, r0, lsl #24
    1c14:	50000100 	andpl	r0, r0, r0, lsl #2
    1c18:	0000012c 	andeq	r0, r0, ip, lsr #2
    1c1c:	00000168 	andeq	r0, r0, r8, ror #2
    1c20:	00520001 	subseq	r0, r2, r1
    1c24:	00000000 	andeq	r0, r0, r0
    1c28:	68000000 	stmdavs	r0, {}	; <UNPREDICTABLE>
    1c2c:	80000001 	andhi	r0, r0, r1
    1c30:	02000001 	andeq	r0, r0, #1
    1c34:	80007d00 	andhi	r7, r0, r0, lsl #26
    1c38:	bc000001 	stclt	0, cr0, [r0], {1}
    1c3c:	02000001 	andeq	r0, r0, #1
    1c40:	00047d00 	andeq	r7, r4, r0, lsl #26
    1c44:	00000000 	andeq	r0, r0, r0
    1c48:	68000000 	stmdavs	r0, {}	; <UNPREDICTABLE>
    1c4c:	88000001 	stmdahi	r0, {r0}
    1c50:	01000001 	tsteq	r0, r1
    1c54:	01885000 	orreq	r5, r8, r0
    1c58:	01a80000 			; <UNDEFINED> instruction: 0x01a80000
    1c5c:	00010000 	andeq	r0, r1, r0
    1c60:	00000051 	andeq	r0, r0, r1, asr r0
    1c64:	00000000 	andeq	r0, r0, r0
    1c68:	0001bc00 	andeq	fp, r1, r0, lsl #24
    1c6c:	0001d000 	andeq	sp, r1, r0
    1c70:	7d000200 	sfmvc	f0, 4, [r0, #-0]
    1c74:	0001d000 	andeq	sp, r1, r0
    1c78:	00020400 	andeq	r0, r2, r0, lsl #8
    1c7c:	7d000200 	sfmvc	f0, 4, [r0, #-0]
    1c80:	00000008 	andeq	r0, r0, r8
    1c84:	00000000 	andeq	r0, r0, r0
    1c88:	0001bc00 	andeq	fp, r1, r0, lsl #24
    1c8c:	0001dc00 	andeq	sp, r1, r0, lsl #24
    1c90:	50000100 	andpl	r0, r0, r0, lsl #2
    1c94:	000001dc 	ldrdeq	r0, [r0], -ip
    1c98:	00000204 	andeq	r0, r0, r4, lsl #4
    1c9c:	00510001 	subseq	r0, r1, r1
    1ca0:	00000000 	andeq	r0, r0, r0
    1ca4:	04000000 	streq	r0, [r0], #-0
    1ca8:	0c000002 	stceq	0, cr0, [r0], {2}
    1cac:	01000002 	tsteq	r0, r2
    1cb0:	020c5000 	andeq	r5, ip, #0
    1cb4:	028c0000 	addeq	r0, ip, #0
    1cb8:	00010000 	andeq	r0, r1, r0
    1cbc:	00000052 	andeq	r0, r0, r2, asr r0
    1cc0:	00000000 	andeq	r0, r0, r0
    1cc4:	0002b800 	andeq	fp, r2, r0, lsl #16
    1cc8:	0002c800 	andeq	ip, r2, r0, lsl #16
    1ccc:	50000100 	andpl	r0, r0, r0, lsl #2
    1cd0:	000002c8 	andeq	r0, r0, r8, asr #5
    1cd4:	00000348 	andeq	r0, r0, r8, asr #6
    1cd8:	00520001 	subseq	r0, r2, r1
    1cdc:	00000000 	andeq	r0, r0, r0
    1ce0:	48000000 	stmdami	r0, {}	; <UNPREDICTABLE>
    1ce4:	50000003 	andpl	r0, r0, r3
    1ce8:	02000003 	andeq	r0, r0, #3
    1cec:	50007d00 	andpl	r7, r0, r0, lsl #26
    1cf0:	a4000003 	strge	r0, [r0], #-3
    1cf4:	02000003 	andeq	r0, r0, #3
    1cf8:	00047d00 	andeq	r7, r4, r0, lsl #26
    1cfc:	00000000 	andeq	r0, r0, r0
    1d00:	48000000 	stmdami	r0, {}	; <UNPREDICTABLE>
    1d04:	80000003 	andhi	r0, r0, r3
    1d08:	02000003 	andeq	r0, r0, #3
    1d0c:	809f3100 	addshi	r3, pc, r0, lsl #2
    1d10:	90000003 	andls	r0, r0, r3
    1d14:	01000003 	tsteq	r0, r3
    1d18:	00005000 	andeq	r5, r0, r0
    1d1c:	00000000 	andeq	r0, r0, r0
    1d20:	03480000 	movteq	r0, #32768	; 0x8000
    1d24:	03840000 	orreq	r0, r4, #0
    1d28:	00020000 	andeq	r0, r2, r0
    1d2c:	03849f31 	orreq	r9, r4, #196	; 0xc4
    1d30:	039f0000 	orrseq	r0, pc, #0
    1d34:	00030000 	andeq	r0, r3, r0
    1d38:	009f017c 	addseq	r0, pc, ip, ror r1	; <UNPREDICTABLE>
    1d3c:	00000000 	andeq	r0, r0, r0
    1d40:	48000000 	stmdami	r0, {}	; <UNPREDICTABLE>
    1d44:	8c000003 	stchi	0, cr0, [r0], {3}
    1d48:	02000003 	andeq	r0, r0, #3
    1d4c:	8c9f3100 	ldfhis	f3, [pc], {0}
    1d50:	98000003 	stmdals	r0, {r0, r1}
    1d54:	01000003 	tsteq	r0, r3
    1d58:	00005100 	andeq	r5, r0, r0, lsl #2
    1d5c:	00000000 	andeq	r0, r0, r0
    1d60:	03480000 	movteq	r0, #32768	; 0x8000
    1d64:	03600000 	cmneq	r0, #0
    1d68:	00020000 	andeq	r0, r2, r0
    1d6c:	00009f30 	andeq	r9, r0, r0, lsr pc
    1d70:	00000000 	andeq	r0, r0, r0
    1d74:	03480000 	movteq	r0, #32768	; 0x8000
    1d78:	03640000 	cmneq	r4, #0
    1d7c:	00020000 	andeq	r0, r2, r0
    1d80:	03649f30 	cmneq	r4, #192	; 0xc0
    1d84:	03700000 	cmneq	r0, #0
    1d88:	00040000 	andeq	r0, r4, r0
    1d8c:	9f5dc00a 	svcls	0x005dc00a
    1d90:	00000370 	andeq	r0, r0, r0, ror r3
    1d94:	000003a4 	andeq	r0, r0, r4, lsr #7
    1d98:	9f300002 	svcls	0x00300002
	...

Disassembly of section .debug_frame:

00000000 <.debug_frame>:
   0:	0000000c 	andeq	r0, r0, ip
   4:	ffffffff 			; <UNDEFINED> instruction: 0xffffffff
   8:	7c020001 	stcvc	0, cr0, [r2], {1}
   c:	000d0c0e 	andeq	r0, sp, lr, lsl #24
  10:	0000000c 	andeq	r0, r0, ip
  14:	00000000 	andeq	r0, r0, r0
  18:	0000008c 	andeq	r0, r0, ip, lsl #1
  1c:	00000028 	andeq	r0, r0, r8, lsr #32
  20:	0000000c 	andeq	r0, r0, ip
  24:	ffffffff 			; <UNDEFINED> instruction: 0xffffffff
  28:	7c020001 	stcvc	0, cr0, [r2], {1}
  2c:	000d0c0e 	andeq	r0, sp, lr, lsl #24
  30:	00000018 	andeq	r0, r0, r8, lsl r0
  34:	00000020 	andeq	r0, r0, r0, lsr #32
  38:	000000dc 	ldrdeq	r0, [r0], -ip
  3c:	0000015c 	andeq	r0, r0, ip, asr r1
  40:	8e100e42 	cdphi	14, 1, cr0, cr0, cr2, {2}
  44:	84028501 	strhi	r8, [r2], #-1281	; 0x501
  48:	00048303 	andeq	r8, r4, r3, lsl #6
  4c:	00000018 	andeq	r0, r0, r8, lsl r0
  50:	00000020 	andeq	r0, r0, r0, lsr #32
  54:	00000238 	andeq	r0, r0, r8, lsr r2
  58:	00000130 	andeq	r0, r0, r0, lsr r1
  5c:	8e100e42 	cdphi	14, 1, cr0, cr0, cr2, {2}
  60:	84028501 	strhi	r8, [r2], #-1281	; 0x501
  64:	00048303 	andeq	r8, r4, r3, lsl #6
  68:	0000000c 	andeq	r0, r0, ip
  6c:	ffffffff 			; <UNDEFINED> instruction: 0xffffffff
  70:	7c020001 	stcvc	0, cr0, [r2], {1}
  74:	000d0c0e 	andeq	r0, sp, lr, lsl #24
  78:	00000010 	andeq	r0, r0, r0, lsl r0
  7c:	00000068 	andeq	r0, r0, r8, rrx
  80:	00000368 	andeq	r0, r0, r8, ror #6
  84:	00000020 	andeq	r0, r0, r0, lsr #32
  88:	00080e42 	andeq	r0, r8, r2, asr #28
  8c:	0000000c 	andeq	r0, r0, ip
  90:	00000068 	andeq	r0, r0, r8, rrx
  94:	00000388 	andeq	r0, r0, r8, lsl #7
  98:	00000004 	andeq	r0, r0, r4
  9c:	0000000c 	andeq	r0, r0, ip
  a0:	00000068 	andeq	r0, r0, r8, rrx
  a4:	0000038c 	andeq	r0, r0, ip, lsl #7
  a8:	00000004 	andeq	r0, r0, r4
  ac:	0000000c 	andeq	r0, r0, ip
  b0:	00000068 	andeq	r0, r0, r8, rrx
  b4:	00000390 	muleq	r0, r0, r3
  b8:	00000024 	andeq	r0, r0, r4, lsr #32
  bc:	0000000c 	andeq	r0, r0, ip
  c0:	00000068 	andeq	r0, r0, r8, rrx
  c4:	000003b4 			; <UNDEFINED> instruction: 0x000003b4
  c8:	00000024 	andeq	r0, r0, r4, lsr #32
  cc:	00000014 	andeq	r0, r0, r4, lsl r0
  d0:	00000068 	andeq	r0, r0, r8, rrx
  d4:	000003d8 	ldrdeq	r0, [r0], -r8
  d8:	00000094 	muleq	r0, r4, r0
  dc:	8e080e42 	cdphi	14, 0, cr0, cr8, cr2, {2}
  e0:	00028401 	andeq	r8, r2, r1, lsl #8
  e4:	0000000c 	andeq	r0, r0, ip
  e8:	00000068 	andeq	r0, r0, r8, rrx
  ec:	0000046c 	andeq	r0, r0, ip, ror #8
  f0:	00000004 	andeq	r0, r0, r4
  f4:	00000018 	andeq	r0, r0, r8, lsl r0
  f8:	00000068 	andeq	r0, r0, r8, rrx
  fc:	00000470 	andeq	r0, r0, r0, ror r4
 100:	00000094 	muleq	r0, r4, r0
 104:	8e080e42 	cdphi	14, 0, cr0, cr8, cr2, {2}
 108:	42028401 	andmi	r8, r2, #16777216	; 0x1000000
 10c:	0000100e 	andeq	r1, r0, lr
 110:	00000014 	andeq	r0, r0, r4, lsl r0
 114:	00000068 	andeq	r0, r0, r8, rrx
 118:	00000504 	andeq	r0, r0, r4, lsl #10
 11c:	00000054 	andeq	r0, r0, r4, asr r0
 120:	8e080e42 	cdphi	14, 0, cr0, cr8, cr2, {2}
 124:	00028401 	andeq	r8, r2, r1, lsl #8
 128:	00000018 	andeq	r0, r0, r8, lsl r0
 12c:	00000068 	andeq	r0, r0, r8, rrx
 130:	00000558 	andeq	r0, r0, r8, asr r5
 134:	00000078 	andeq	r0, r0, r8, ror r0
 138:	8e100e42 	cdphi	14, 1, cr0, cr0, cr2, {2}
 13c:	85028601 	strhi	r8, [r2, #-1537]	; 0x601
 140:	00048403 	andeq	r8, r4, r3, lsl #8
 144:	00000018 	andeq	r0, r0, r8, lsl r0
 148:	00000068 	andeq	r0, r0, r8, rrx
 14c:	000005d0 	ldrdeq	r0, [r0], -r0	; <UNPREDICTABLE>
 150:	00000094 	muleq	r0, r4, r0
 154:	8e0c0e42 	cdphi	14, 0, cr0, cr12, cr2, {2}
 158:	84028501 	strhi	r8, [r2], #-1281	; 0x501
 15c:	180e4203 	stmdane	lr, {r0, r1, r9, lr}
 160:	0000000c 	andeq	r0, r0, ip
 164:	00000068 	andeq	r0, r0, r8, rrx
 168:	00000664 	andeq	r0, r0, r4, ror #12
 16c:	00000018 	andeq	r0, r0, r8, lsl r0
 170:	0000000c 	andeq	r0, r0, ip
 174:	00000068 	andeq	r0, r0, r8, rrx
 178:	0000067c 	andeq	r0, r0, ip, ror r6
 17c:	00000018 	andeq	r0, r0, r8, lsl r0
 180:	0000000c 	andeq	r0, r0, ip
 184:	00000068 	andeq	r0, r0, r8, rrx
 188:	00000694 	muleq	r0, r4, r6
 18c:	00000018 	andeq	r0, r0, r8, lsl r0
 190:	00000018 	andeq	r0, r0, r8, lsl r0
 194:	00000068 	andeq	r0, r0, r8, rrx
 198:	000006ac 	andeq	r0, r0, ip, lsr #13
 19c:	00000034 	andeq	r0, r0, r4, lsr r0
 1a0:	8e100e42 	cdphi	14, 1, cr0, cr0, cr2, {2}
 1a4:	85028601 	strhi	r8, [r2, #-1537]	; 0x601
 1a8:	00048403 	andeq	r8, r4, r3, lsl #8
 1ac:	0000000c 	andeq	r0, r0, ip
 1b0:	ffffffff 			; <UNDEFINED> instruction: 0xffffffff
 1b4:	7c020001 	stcvc	0, cr0, [r2], {1}
 1b8:	000d0c0e 	andeq	r0, sp, lr, lsl #24
 1bc:	0000000c 	andeq	r0, r0, ip
 1c0:	000001ac 	andeq	r0, r0, ip, lsr #3
 1c4:	000006e0 	andeq	r0, r0, r0, ror #13
 1c8:	00000034 	andeq	r0, r0, r4, lsr r0
 1cc:	0000000c 	andeq	r0, r0, ip
 1d0:	000001ac 	andeq	r0, r0, ip, lsr #3
 1d4:	00000714 	andeq	r0, r0, r4, lsl r7
 1d8:	0000001c 	andeq	r0, r0, ip, lsl r0
 1dc:	0000000c 	andeq	r0, r0, ip
 1e0:	000001ac 	andeq	r0, r0, ip, lsr #3
 1e4:	00000730 	andeq	r0, r0, r0, lsr r7
 1e8:	00000024 	andeq	r0, r0, r4, lsr #32
 1ec:	0000000c 	andeq	r0, r0, ip
 1f0:	000001ac 	andeq	r0, r0, ip, lsr #3
 1f4:	00000754 	andeq	r0, r0, r4, asr r7
 1f8:	00000008 	andeq	r0, r0, r8
 1fc:	0000000c 	andeq	r0, r0, ip
 200:	000001ac 	andeq	r0, r0, ip, lsr #3
 204:	0000075c 	andeq	r0, r0, ip, asr r7
 208:	00000010 	andeq	r0, r0, r0, lsl r0
 20c:	00000014 	andeq	r0, r0, r4, lsl r0
 210:	000001ac 	andeq	r0, r0, ip, lsr #3
 214:	0000076c 	andeq	r0, r0, ip, ror #14
 218:	00000034 	andeq	r0, r0, r4, lsr r0
 21c:	8e080e42 	cdphi	14, 0, cr0, cr8, cr2, {2}
 220:	00028401 	andeq	r8, r2, r1, lsl #8
 224:	00000018 	andeq	r0, r0, r8, lsl r0
 228:	000001ac 	andeq	r0, r0, ip, lsr #3
 22c:	000007a0 	andeq	r0, r0, r0, lsr #15
 230:	00000088 	andeq	r0, r0, r8, lsl #1
 234:	8e100e42 	cdphi	14, 1, cr0, cr0, cr2, {2}
 238:	84028501 	strhi	r8, [r2], #-1281	; 0x501
 23c:	00048303 	andeq	r8, r4, r3, lsl #6
 240:	00000014 	andeq	r0, r0, r4, lsl r0
 244:	000001ac 	andeq	r0, r0, ip, lsr #3
 248:	00000828 	andeq	r0, r0, r8, lsr #16
 24c:	00000034 	andeq	r0, r0, r4, lsr r0
 250:	8e080e44 	cdphi	14, 0, cr0, cr8, cr4, {2}
 254:	00028401 	andeq	r8, r2, r1, lsl #8
 258:	0000000c 	andeq	r0, r0, ip
 25c:	000001ac 	andeq	r0, r0, ip, lsr #3
 260:	0000085c 	andeq	r0, r0, ip, asr r8
 264:	0000002c 	andeq	r0, r0, ip, lsr #32
 268:	0000000c 	andeq	r0, r0, ip
 26c:	000001ac 	andeq	r0, r0, ip, lsr #3
 270:	00000888 	andeq	r0, r0, r8, lsl #17
 274:	0000002c 	andeq	r0, r0, ip, lsr #32
 278:	0000000c 	andeq	r0, r0, ip
 27c:	000001ac 	andeq	r0, r0, ip, lsr #3
 280:	000008b4 			; <UNDEFINED> instruction: 0x000008b4
 284:	0000002c 	andeq	r0, r0, ip, lsr #32
 288:	0000000c 	andeq	r0, r0, ip
 28c:	ffffffff 			; <UNDEFINED> instruction: 0xffffffff
 290:	7c020001 	stcvc	0, cr0, [r2], {1}
 294:	000d0c0e 	andeq	r0, sp, lr, lsl #24
 298:	0000000c 	andeq	r0, r0, ip
 29c:	00000288 	andeq	r0, r0, r8, lsl #5
 2a0:	000008e0 	andeq	r0, r0, r0, ror #17
 2a4:	0000003c 	andeq	r0, r0, ip, lsr r0
 2a8:	0000000c 	andeq	r0, r0, ip
 2ac:	00000288 	andeq	r0, r0, r8, lsl #5
 2b0:	0000091c 	andeq	r0, r0, ip, lsl r9
 2b4:	00000064 	andeq	r0, r0, r4, rrx
 2b8:	0000000c 	andeq	r0, r0, ip
 2bc:	ffffffff 			; <UNDEFINED> instruction: 0xffffffff
 2c0:	7c020001 	stcvc	0, cr0, [r2], {1}
 2c4:	000d0c0e 	andeq	r0, sp, lr, lsl #24
 2c8:	0000000c 	andeq	r0, r0, ip
 2cc:	000002b8 			; <UNDEFINED> instruction: 0x000002b8
 2d0:	00000ee0 	andeq	r0, r0, r0, ror #29
 2d4:	00000424 	andeq	r0, r0, r4, lsr #8
 2d8:	0000000c 	andeq	r0, r0, ip
 2dc:	000002b8 			; <UNDEFINED> instruction: 0x000002b8
 2e0:	00001304 	andeq	r1, r0, r4, lsl #6
 2e4:	000002e4 	andeq	r0, r0, r4, ror #5
 2e8:	0000000c 	andeq	r0, r0, ip
 2ec:	000002b8 			; <UNDEFINED> instruction: 0x000002b8
 2f0:	000015e8 	andeq	r1, r0, r8, ror #11
 2f4:	00000018 	andeq	r0, r0, r8, lsl r0
 2f8:	0000000c 	andeq	r0, r0, ip
 2fc:	000002b8 			; <UNDEFINED> instruction: 0x000002b8
 300:	00001600 	andeq	r1, r0, r0, lsl #12
 304:	000000a8 	andeq	r0, r0, r8, lsr #1
 308:	0000000c 	andeq	r0, r0, ip
 30c:	000002b8 			; <UNDEFINED> instruction: 0x000002b8
 310:	000016a8 	andeq	r1, r0, r8, lsr #13
 314:	0000000c 	andeq	r0, r0, ip
 318:	0000000c 	andeq	r0, r0, ip
 31c:	000002b8 			; <UNDEFINED> instruction: 0x000002b8
 320:	000016b4 			; <UNDEFINED> instruction: 0x000016b4
 324:	0000000c 	andeq	r0, r0, ip
 328:	0000000c 	andeq	r0, r0, ip
 32c:	000002b8 			; <UNDEFINED> instruction: 0x000002b8
 330:	000016c0 	andeq	r1, r0, r0, asr #13
 334:	00000014 	andeq	r0, r0, r4, lsl r0
 338:	0000000c 	andeq	r0, r0, ip
 33c:	000002b8 			; <UNDEFINED> instruction: 0x000002b8
 340:	000016d4 	ldrdeq	r1, [r0], -r4
 344:	00000010 	andeq	r0, r0, r0, lsl r0
 348:	0000000c 	andeq	r0, r0, ip
 34c:	ffffffff 			; <UNDEFINED> instruction: 0xffffffff
 350:	7c020001 	stcvc	0, cr0, [r2], {1}
 354:	000d0c0e 	andeq	r0, sp, lr, lsl #24
 358:	00000018 	andeq	r0, r0, r8, lsl r0
 35c:	00000348 	andeq	r0, r0, r8, asr #6
 360:	000016e4 	andeq	r1, r0, r4, ror #13
 364:	000000a8 	andeq	r0, r0, r8, lsr #1
 368:	8e100e42 	cdphi	14, 1, cr0, cr0, cr2, {2}
 36c:	84028501 	strhi	r8, [r2], #-1281	; 0x501
 370:	00048303 	andeq	r8, r4, r3, lsl #6
 374:	00000018 	andeq	r0, r0, r8, lsl r0
 378:	00000348 	andeq	r0, r0, r8, asr #6
 37c:	0000178c 	andeq	r1, r0, ip, lsl #15
 380:	000000ac 	andeq	r0, r0, ip, lsr #1
 384:	8e100e42 	cdphi	14, 1, cr0, cr0, cr2, {2}
 388:	84028501 	strhi	r8, [r2], #-1281	; 0x501
 38c:	00048303 	andeq	r8, r4, r3, lsl #6
 390:	0000000c 	andeq	r0, r0, ip
 394:	00000348 	andeq	r0, r0, r8, asr #6
 398:	00001838 	andeq	r1, r0, r8, lsr r8
 39c:	00000040 	andeq	r0, r0, r0, asr #32
 3a0:	00000018 	andeq	r0, r0, r8, lsl r0
 3a4:	00000348 	andeq	r0, r0, r8, asr #6
 3a8:	00001878 	andeq	r1, r0, r8, ror r8
 3ac:	00000084 	andeq	r0, r0, r4, lsl #1
 3b0:	8e100e42 	cdphi	14, 1, cr0, cr0, cr2, {2}
 3b4:	84028501 	strhi	r8, [r2], #-1281	; 0x501
 3b8:	00048303 	andeq	r8, r4, r3, lsl #6
 3bc:	00000014 	andeq	r0, r0, r4, lsl r0
 3c0:	00000348 	andeq	r0, r0, r8, asr #6
 3c4:	000018fc 	strdeq	r1, [r0], -ip
 3c8:	000000b0 	strheq	r0, [r0], -r0	; <UNPREDICTABLE>
 3cc:	84040e44 	strhi	r0, [r4], #-3652	; 0xe44
 3d0:	00000001 	andeq	r0, r0, r1
 3d4:	00000014 	andeq	r0, r0, r4, lsl r0
 3d8:	00000348 	andeq	r0, r0, r8, asr #6
 3dc:	000019ac 	andeq	r1, r0, ip, lsr #19
 3e0:	0000008c 	andeq	r0, r0, ip, lsl #1
 3e4:	84040e44 	strhi	r0, [r4], #-3652	; 0xe44
 3e8:	00000001 	andeq	r0, r0, r1
 3ec:	0000000c 	andeq	r0, r0, ip
 3f0:	00000348 	andeq	r0, r0, r8, asr #6
 3f4:	00001a38 	andeq	r1, r0, r8, lsr sl
 3f8:	00000014 	andeq	r0, r0, r4, lsl r0
 3fc:	0000000c 	andeq	r0, r0, ip
 400:	00000348 	andeq	r0, r0, r8, asr #6
 404:	00001a4c 	andeq	r1, r0, ip, asr #20
 408:	00000014 	andeq	r0, r0, r4, lsl r0
 40c:	00000018 	andeq	r0, r0, r8, lsl r0
 410:	00000348 	andeq	r0, r0, r8, asr #6
 414:	00001a60 	andeq	r1, r0, r0, ror #20
 418:	0000008c 	andeq	r0, r0, ip, lsl #1
 41c:	8e100e42 	cdphi	14, 1, cr0, cr0, cr2, {2}
 420:	84028501 	strhi	r8, [r2], #-1281	; 0x501
 424:	00048303 	andeq	r8, r4, r3, lsl #6
 428:	00000014 	andeq	r0, r0, r4, lsl r0
 42c:	00000348 	andeq	r0, r0, r8, asr #6
 430:	00001aec 	andeq	r1, r0, ip, ror #21
 434:	000000b0 	strheq	r0, [r0], -r0	; <UNPREDICTABLE>
 438:	84040e44 	strhi	r0, [r4], #-3652	; 0xe44
 43c:	00000001 	andeq	r0, r0, r1
 440:	00000014 	andeq	r0, r0, r4, lsl r0
 444:	00000348 	andeq	r0, r0, r8, asr #6
 448:	00001b9c 	muleq	r0, ip, fp
 44c:	0000008c 	andeq	r0, r0, ip, lsl #1
 450:	84040e44 	strhi	r0, [r4], #-3652	; 0xe44
 454:	00000001 	andeq	r0, r0, r1
 458:	0000000c 	andeq	r0, r0, ip
 45c:	ffffffff 			; <UNDEFINED> instruction: 0xffffffff
 460:	7c020001 	stcvc	0, cr0, [r2], {1}
 464:	000d0c0e 	andeq	r0, sp, lr, lsl #24
 468:	00000020 	andeq	r0, r0, r0, lsr #32
 46c:	00000458 	andeq	r0, r0, r8, asr r4
 470:	00001c28 	andeq	r1, r0, r8, lsr #24
 474:	000000bc 	strheq	r0, [r0], -ip
 478:	8e1c0e42 	cdphi	14, 1, cr0, cr12, cr2, {2}
 47c:	88028a01 	stmdahi	r2, {r0, r9, fp, pc}
 480:	86048703 	strhi	r8, [r4], -r3, lsl #14
 484:	84068505 	strhi	r8, [r6], #-1285	; 0x505
 488:	480e4c07 	stmdami	lr, {r0, r1, r2, sl, fp, lr}
 48c:	0000001c 	andeq	r0, r0, ip, lsl r0
 490:	00000458 	andeq	r0, r0, r8, asr r4
 494:	00001ce4 	andeq	r1, r0, r4, ror #25
 498:	000000a8 	andeq	r0, r0, r8, lsr #1
 49c:	87100e42 	ldrhi	r0, [r0, -r2, asr #28]
 4a0:	85028601 	strhi	r8, [r2, #-1537]	; 0x601
 4a4:	4c048403 	cfstrsmi	mvf8, [r4], {3}
 4a8:	0000280e 	andeq	r2, r0, lr, lsl #16
 4ac:	0000001c 	andeq	r0, r0, ip, lsl r0
 4b0:	00000458 	andeq	r0, r0, r8, asr r4
 4b4:	00001d8c 	andeq	r1, r0, ip, lsl #27
 4b8:	000000e8 	andeq	r0, r0, r8, ror #1
 4bc:	88140e42 	ldmdahi	r4, {r1, r6, r9, sl, fp}
 4c0:	86028701 	strhi	r8, [r2], -r1, lsl #14
 4c4:	84048503 	strhi	r8, [r4], #-1283	; 0x503
 4c8:	400e4a05 	andmi	r4, lr, r5, lsl #20
 4cc:	00000030 	andeq	r0, r0, r0, lsr r0
 4d0:	00000458 	andeq	r0, r0, r8, asr r4
 4d4:	00001e74 	andeq	r1, r0, r4, ror lr
 4d8:	000002d0 	ldrdeq	r0, [r0], -r0	; <UNPREDICTABLE>
 4dc:	83100e42 	tsthi	r0, #1056	; 0x420
 4e0:	81028201 	tsthi	r2, r1, lsl #4
 4e4:	42048003 	andmi	r8, r4, #3
 4e8:	058e300e 	streq	r3, [lr, #14]
 4ec:	0789068a 	streq	r0, [r9, sl, lsl #13]
 4f0:	09870888 	stmibeq	r7, {r3, r7, fp}
 4f4:	0b850a86 	bleq	fe142f14 <__bss_end+0xfe13f99c>
 4f8:	0e420c84 	cdpeq	12, 4, cr0, cr2, cr4, {4}
 4fc:	00000048 	andeq	r0, r0, r8, asr #32
 500:	00000030 	andeq	r0, r0, r0, lsr r0
 504:	00000458 	andeq	r0, r0, r8, asr r4
 508:	00002144 	andeq	r2, r0, r4, asr #2
 50c:	000002d0 	ldrdeq	r0, [r0], -r0	; <UNPREDICTABLE>
 510:	83100e42 	tsthi	r0, #1056	; 0x420
 514:	81028201 	tsthi	r2, r1, lsl #4
 518:	42048003 	andmi	r8, r4, #3
 51c:	058e300e 	streq	r3, [lr, #14]
 520:	0789068a 	streq	r0, [r9, sl, lsl #13]
 524:	09870888 	stmibeq	r7, {r3, r7, fp}
 528:	0b850a86 	bleq	fe142f48 <__bss_end+0xfe13f9d0>
 52c:	0e420c84 	cdpeq	12, 4, cr0, cr2, cr4, {4}
 530:	00000048 	andeq	r0, r0, r8, asr #32
 534:	0000000c 	andeq	r0, r0, ip
 538:	ffffffff 			; <UNDEFINED> instruction: 0xffffffff
 53c:	7c020001 	stcvc	0, cr0, [r2], {1}
 540:	000d0c0e 	andeq	r0, sp, lr, lsl #24
 544:	0000000c 	andeq	r0, r0, ip
 548:	00000534 	andeq	r0, r0, r4, lsr r5
 54c:	000025f0 	strdeq	r2, [r0], -r0
 550:	0000000c 	andeq	r0, r0, ip
 554:	0000000c 	andeq	r0, r0, ip
 558:	00000534 	andeq	r0, r0, r4, lsr r5
 55c:	000025fc 	strdeq	r2, [r0], -ip
 560:	0000004c 	andeq	r0, r0, ip, asr #32
 564:	0000000c 	andeq	r0, r0, ip
 568:	ffffffff 			; <UNDEFINED> instruction: 0xffffffff
 56c:	7c020001 	stcvc	0, cr0, [r2], {1}
 570:	000d0c0e 	andeq	r0, sp, lr, lsl #24
 574:	00000014 	andeq	r0, r0, r4, lsl r0
 578:	00000564 	andeq	r0, r0, r4, ror #10
 57c:	00002648 	andeq	r2, r0, r8, asr #12
 580:	00000090 	muleq	r0, r0, r0
 584:	8e080e48 	cdphi	14, 0, cr0, cr8, cr8, {2}
 588:	00028401 	andeq	r8, r2, r1, lsl #8
 58c:	00000010 	andeq	r0, r0, r0, lsl r0
 590:	00000564 	andeq	r0, r0, r4, ror #10
 594:	000026d8 	ldrdeq	r2, [r0], -r8
 598:	00000054 	andeq	r0, r0, r4, asr r0
 59c:	00080e44 	andeq	r0, r8, r4, asr #28
 5a0:	0000000c 	andeq	r0, r0, ip
 5a4:	00000564 	andeq	r0, r0, r4, ror #10
 5a8:	0000272c 	andeq	r2, r0, ip, lsr #14
 5ac:	0000005c 	andeq	r0, r0, ip, asr r0
 5b0:	0000000c 	andeq	r0, r0, ip
 5b4:	00000564 	andeq	r0, r0, r4, ror #10
 5b8:	00002788 	andeq	r2, r0, r8, lsl #15
 5bc:	0000005c 	andeq	r0, r0, ip, asr r0
 5c0:	0000000c 	andeq	r0, r0, ip
 5c4:	ffffffff 			; <UNDEFINED> instruction: 0xffffffff
 5c8:	7c020001 	stcvc	0, cr0, [r2], {1}
 5cc:	000d0c0e 	andeq	r0, sp, lr, lsl #24
 5d0:	0000000c 	andeq	r0, r0, ip
 5d4:	000005c0 	andeq	r0, r0, r0, asr #11
 5d8:	000027e4 	andeq	r2, r0, r4, ror #15
 5dc:	0000002c 	andeq	r0, r0, ip, lsr #32
 5e0:	0000000c 	andeq	r0, r0, ip
 5e4:	000005c0 	andeq	r0, r0, r0, asr #11
 5e8:	00002810 	andeq	r2, r0, r0, lsl r8
 5ec:	0000002c 	andeq	r0, r0, ip, lsr #32
 5f0:	0000000c 	andeq	r0, r0, ip
 5f4:	000005c0 	andeq	r0, r0, r0, asr #11
 5f8:	0000283c 	andeq	r2, r0, ip, lsr r8
 5fc:	00000048 	andeq	r0, r0, r8, asr #32
 600:	0000000c 	andeq	r0, r0, ip
 604:	ffffffff 			; <UNDEFINED> instruction: 0xffffffff
 608:	7c020001 	stcvc	0, cr0, [r2], {1}
 60c:	000d0c0e 	andeq	r0, sp, lr, lsl #24
 610:	0000000c 	andeq	r0, r0, ip
 614:	00000600 	andeq	r0, r0, r0, lsl #12
 618:	00002884 	andeq	r2, r0, r4, lsl #17
 61c:	00000060 	andeq	r0, r0, r0, rrx
 620:	0000000c 	andeq	r0, r0, ip
 624:	00000600 	andeq	r0, r0, r0, lsl #12
 628:	000028e4 	andeq	r2, r0, r4, ror #17
 62c:	00000050 	andeq	r0, r0, r0, asr r0
 630:	0000000c 	andeq	r0, r0, ip
 634:	00000600 	andeq	r0, r0, r0, lsl #12
 638:	00002934 	andeq	r2, r0, r4, lsr r9
 63c:	00000038 	andeq	r0, r0, r8, lsr r0
 640:	0000000c 	andeq	r0, r0, ip
 644:	00000600 	andeq	r0, r0, r0, lsl #12
 648:	0000296c 	andeq	r2, r0, ip, ror #18
 64c:	00000028 	andeq	r0, r0, r8, lsr #32
 650:	0000000c 	andeq	r0, r0, ip
 654:	00000600 	andeq	r0, r0, r0, lsl #12
 658:	00002994 	muleq	r0, r4, r9
 65c:	00000048 	andeq	r0, r0, r8, asr #32
 660:	0000000c 	andeq	r0, r0, ip
 664:	00000600 	andeq	r0, r0, r0, lsl #12
 668:	000029dc 	ldrdeq	r2, [r0], -ip
 66c:	00000040 	andeq	r0, r0, r0, asr #32
 670:	0000000c 	andeq	r0, r0, ip
 674:	00000600 	andeq	r0, r0, r0, lsl #12
 678:	00002a1c 	andeq	r2, r0, ip, lsl sl
 67c:	00000050 	andeq	r0, r0, r0, asr r0
 680:	0000000c 	andeq	r0, r0, ip
 684:	ffffffff 			; <UNDEFINED> instruction: 0xffffffff
 688:	7c020001 	stcvc	0, cr0, [r2], {1}
 68c:	000d0c0e 	andeq	r0, sp, lr, lsl #24
 690:	0000000c 	andeq	r0, r0, ip
 694:	00000680 	andeq	r0, r0, r0, lsl #13
 698:	00002a6c 	andeq	r2, r0, ip, ror #20
 69c:	00000030 	andeq	r0, r0, r0, lsr r0
 6a0:	0000000c 	andeq	r0, r0, ip
 6a4:	00000680 	andeq	r0, r0, r0, lsl #13
 6a8:	00002a9c 	muleq	r0, ip, sl
 6ac:	00000028 	andeq	r0, r0, r8, lsr #32
 6b0:	0000000c 	andeq	r0, r0, ip
 6b4:	ffffffff 			; <UNDEFINED> instruction: 0xffffffff
 6b8:	7c020001 	stcvc	0, cr0, [r2], {1}
 6bc:	000d0c0e 	andeq	r0, sp, lr, lsl #24
 6c0:	0000000c 	andeq	r0, r0, ip
 6c4:	000006b0 			; <UNDEFINED> instruction: 0x000006b0
 6c8:	00002ac4 	andeq	r2, r0, r4, asr #21
 6cc:	00000030 	andeq	r0, r0, r0, lsr r0
 6d0:	00000014 	andeq	r0, r0, r4, lsl r0
 6d4:	000006b0 			; <UNDEFINED> instruction: 0x000006b0
 6d8:	00002af4 	strdeq	r2, [r0], -r4
 6dc:	0000007c 	andeq	r0, r0, ip, ror r0
 6e0:	8e080e42 	cdphi	14, 0, cr0, cr8, cr2, {2}
 6e4:	00028301 	andeq	r8, r2, r1, lsl #6
 6e8:	0000000c 	andeq	r0, r0, ip
 6ec:	000006b0 			; <UNDEFINED> instruction: 0x000006b0
 6f0:	00002b70 	andeq	r2, r0, r0, ror fp
 6f4:	00000030 	andeq	r0, r0, r0, lsr r0
 6f8:	0000000c 	andeq	r0, r0, ip
 6fc:	000006b0 			; <UNDEFINED> instruction: 0x000006b0
 700:	00002ba0 	andeq	r2, r0, r0, lsr #23
 704:	0000006c 	andeq	r0, r0, ip, rrx
 708:	0000000c 	andeq	r0, r0, ip
 70c:	000006b0 			; <UNDEFINED> instruction: 0x000006b0
 710:	00002c0c 	andeq	r2, r0, ip, lsl #24
 714:	00000030 	andeq	r0, r0, r0, lsr r0
 718:	0000000c 	andeq	r0, r0, ip
 71c:	ffffffff 			; <UNDEFINED> instruction: 0xffffffff
 720:	7c020001 	stcvc	0, cr0, [r2], {1}
 724:	000d0c0e 	andeq	r0, sp, lr, lsl #24
 728:	0000000c 	andeq	r0, r0, ip
 72c:	00000718 	andeq	r0, r0, r8, lsl r7
 730:	00002c3c 	andeq	r2, r0, ip, lsr ip
 734:	00000030 	andeq	r0, r0, r0, lsr r0
 738:	0000000c 	andeq	r0, r0, ip
 73c:	00000718 	andeq	r0, r0, r8, lsl r7
 740:	00002c6c 	andeq	r2, r0, ip, ror #24
 744:	00000010 	andeq	r0, r0, r0, lsl r0
 748:	0000000c 	andeq	r0, r0, ip
 74c:	00000718 	andeq	r0, r0, r8, lsl r7
 750:	00002c7c 	andeq	r2, r0, ip, ror ip
 754:	0000003c 	andeq	r0, r0, ip, lsr r0
 758:	0000000c 	andeq	r0, r0, ip
 75c:	00000718 	andeq	r0, r0, r8, lsl r7
 760:	00002cb8 			; <UNDEFINED> instruction: 0x00002cb8
 764:	00000034 	andeq	r0, r0, r4, lsr r0
 768:	00000018 	andeq	r0, r0, r8, lsl r0
 76c:	00000718 	andeq	r0, r0, r8, lsl r7
 770:	00002cec 	andeq	r2, r0, ip, ror #25
 774:	00000070 	andeq	r0, r0, r0, ror r0
 778:	8e100e42 	cdphi	14, 1, cr0, cr0, cr2, {2}
 77c:	84028501 	strhi	r8, [r2], #-1281	; 0x501
 780:	00048303 	andeq	r8, r4, r3, lsl #6
 784:	00000014 	andeq	r0, r0, r4, lsl r0
 788:	00000718 	andeq	r0, r0, r8, lsl r7
 78c:	00002d5c 	andeq	r2, r0, ip, asr sp
 790:	00000048 	andeq	r0, r0, r8, asr #32
 794:	84040e44 	strhi	r0, [r4], #-3652	; 0xe44
 798:	00000001 	andeq	r0, r0, r1
 79c:	00000014 	andeq	r0, r0, r4, lsl r0
 7a0:	00000718 	andeq	r0, r0, r8, lsl r7
 7a4:	00002da4 	andeq	r2, r0, r4, lsr #27
 7a8:	00000054 	andeq	r0, r0, r4, asr r0
 7ac:	84040e4c 	strhi	r0, [r4], #-3660	; 0xe4c
 7b0:	00000001 	andeq	r0, r0, r1
 7b4:	00000014 	andeq	r0, r0, r4, lsl r0
 7b8:	00000718 	andeq	r0, r0, r8, lsl r7
 7bc:	00002df8 	strdeq	r2, [r0], -r8
 7c0:	00000048 	andeq	r0, r0, r8, asr #32
 7c4:	85080e4a 	strhi	r0, [r8, #-3658]	; 0xe4a
 7c8:	00028401 	andeq	r8, r2, r1, lsl #8
 7cc:	0000000c 	andeq	r0, r0, ip
 7d0:	00000718 	andeq	r0, r0, r8, lsl r7
 7d4:	00002e40 	andeq	r2, r0, r0, asr #28
 7d8:	000000b4 	strheq	r0, [r0], -r4
 7dc:	0000000c 	andeq	r0, r0, ip
 7e0:	00000718 	andeq	r0, r0, r8, lsl r7
 7e4:	00002ef4 	strdeq	r2, [r0], -r4
 7e8:	00000090 	muleq	r0, r0, r0
 7ec:	00000014 	andeq	r0, r0, r4, lsl r0
 7f0:	00000718 	andeq	r0, r0, r8, lsl r7
 7f4:	00002f84 	andeq	r2, r0, r4, lsl #31
 7f8:	0000005c 	andeq	r0, r0, ip, asr r0
 7fc:	84040e44 	strhi	r0, [r4], #-3652	; 0xe44
 800:	00000001 	andeq	r0, r0, r1

Disassembly of section .debug_ranges:

00000000 <.debug_ranges>:
   0:	000000e4 	andeq	r0, r0, r4, ror #1
   4:	000000f4 	strdeq	r0, [r0], -r4
   8:	000000fc 	strdeq	r0, [r0], -ip
   c:	00000108 	andeq	r0, r0, r8, lsl #2
	...
  18:	000000e4 	andeq	r0, r0, r4, ror #1
  1c:	000000f4 	strdeq	r0, [r0], -r4
  20:	000000fc 	strdeq	r0, [r0], -ip
  24:	00000108 	andeq	r0, r0, r8, lsl #2
	...
  30:	000001d0 	ldrdeq	r0, [r0], -r0	; <UNPREDICTABLE>
  34:	000001d8 	ldrdeq	r0, [r0], -r8
  38:	00000210 	andeq	r0, r0, r0, lsl r2
  3c:	00000214 	andeq	r0, r0, r4, lsl r2
	...
  48:	0000023c 	andeq	r0, r0, ip, lsr r2
  4c:	00000240 	andeq	r0, r0, r0, asr #4
  50:	00000244 	andeq	r0, r0, r4, asr #4
  54:	0000024c 	andeq	r0, r0, ip, asr #4
  58:	00000298 	muleq	r0, r8, r2
  5c:	000002c8 	andeq	r0, r0, r8, asr #5
	...
  68:	000002f4 	strdeq	r0, [r0], -r4
  6c:	000002f8 	strdeq	r0, [r0], -r8
  70:	000002fc 	strdeq	r0, [r0], -ip
  74:	00000300 	andeq	r0, r0, r0, lsl #6
  78:	00000308 	andeq	r0, r0, r8, lsl #6
  7c:	00000324 	andeq	r0, r0, r4, lsr #6
  80:	0000032c 	andeq	r0, r0, ip, lsr #6
  84:	00000334 	andeq	r0, r0, r4, lsr r3
	...
  90:	000002f4 	strdeq	r0, [r0], -r4
  94:	000002f8 	strdeq	r0, [r0], -r8
  98:	000002fc 	strdeq	r0, [r0], -ip
  9c:	00000300 	andeq	r0, r0, r0, lsl #6
  a0:	00000308 	andeq	r0, r0, r8, lsl #6
  a4:	00000324 	andeq	r0, r0, r4, lsr #6
  a8:	0000032c 	andeq	r0, r0, ip, lsr #6
  ac:	00000334 	andeq	r0, r0, r4, lsr r3
	...
  b8:	0000042c 	andeq	r0, r0, ip, lsr #8
  bc:	00000430 	andeq	r0, r0, r0, lsr r4
  c0:	00000434 	andeq	r0, r0, r4, lsr r4
  c4:	0000043c 	andeq	r0, r0, ip, lsr r4
  c8:	00000488 	andeq	r0, r0, r8, lsl #9
  cc:	000004b8 			; <UNDEFINED> instruction: 0x000004b8
	...
  d8:	000004e4 	andeq	r0, r0, r4, ror #9
  dc:	000004e8 	andeq	r0, r0, r8, ror #9
  e0:	000004ec 	andeq	r0, r0, ip, ror #9
  e4:	000004f0 	strdeq	r0, [r0], -r0	; <UNPREDICTABLE>
  e8:	000004f8 	strdeq	r0, [r0], -r8
  ec:	00000514 	andeq	r0, r0, r4, lsl r5
  f0:	0000051c 	andeq	r0, r0, ip, lsl r5
  f4:	00000524 	andeq	r0, r0, r4, lsr #10
	...
 100:	000004e4 	andeq	r0, r0, r4, ror #9
 104:	000004e8 	andeq	r0, r0, r8, ror #9
 108:	000004ec 	andeq	r0, r0, ip, ror #9
 10c:	000004f0 	strdeq	r0, [r0], -r0	; <UNPREDICTABLE>
 110:	000004f8 	strdeq	r0, [r0], -r8
 114:	00000514 	andeq	r0, r0, r4, lsl r5
 118:	0000051c 	andeq	r0, r0, ip, lsl r5
 11c:	00000524 	andeq	r0, r0, r4, lsr #10
	...
 128:	000000f8 	strdeq	r0, [r0], -r8
 12c:	000000fc 	strdeq	r0, [r0], -ip
 130:	00000100 	andeq	r0, r0, r0, lsl #2
 134:	00000154 	andeq	r0, r0, r4, asr r1
	...
 140:	000000f8 	strdeq	r0, [r0], -r8
 144:	000000fc 	strdeq	r0, [r0], -ip
 148:	00000100 	andeq	r0, r0, r0, lsl #2
 14c:	00000154 	andeq	r0, r0, r4, asr r1
	...
 158:	000000b0 	strheq	r0, [r0], -r0	; <UNPREDICTABLE>
 15c:	000000b4 	strheq	r0, [r0], -r4
 160:	000000c0 	andeq	r0, r0, r0, asr #1
 164:	000000c4 	andeq	r0, r0, r4, asr #1
 168:	000000c8 	andeq	r0, r0, r8, asr #1
 16c:	000000cc 	andeq	r0, r0, ip, asr #1
 170:	000000d0 	ldrdeq	r0, [r0], -r0	; <UNPREDICTABLE>
 174:	000000d4 	ldrdeq	r0, [r0], -r4
	...
 180:	0000014c 	andeq	r0, r0, ip, asr #2
 184:	00000150 	andeq	r0, r0, r0, asr r1
 188:	0000015c 	andeq	r0, r0, ip, asr r1
 18c:	00000160 	andeq	r0, r0, r0, ror #2
 190:	00000164 	andeq	r0, r0, r4, ror #2
 194:	00000168 	andeq	r0, r0, r8, ror #2
 198:	0000016c 	andeq	r0, r0, ip, ror #2
 19c:	00000170 	andeq	r0, r0, r0, ror r1
	...
