
arch/arm/mach-sunxi/pm/standby/standby.elf:     file format elf32-littlearm


Disassembly of section .text:

f0000000 <standby_main>:
f0000000:	e92d41f0 	push	{r4, r5, r6, r7, r8, lr}
f0000004:	e2505000 	subs	r5, r0, #0
f0000008:	03e00000 	mvneq	r0, #0
f000000c:	08bd81f0 	popeq	{r4, r5, r6, r7, r8, pc}
f0000010:	eb0004f5 	bl	f00013ec <mem_flush_tlb>
f0000014:	e59f3364 	ldr	r3, [pc, #868]	; f0000380 <standby_main+0x380>
f0000018:	e3a01000 	mov	r1, #0
f000001c:	e59f2360 	ldr	r2, [pc, #864]	; f0000384 <standby_main+0x384>
f0000020:	e4c31001 	strb	r1, [r3], #1
f0000024:	e1530002 	cmp	r3, r2
f0000028:	9afffffc 	bls	f0000020 <standby_main+0x20>
f000002c:	e59f6354 	ldr	r6, [pc, #852]	; f0000388 <standby_main+0x388>
f0000030:	e59f4354 	ldr	r4, [pc, #852]	; f000038c <standby_main+0x38c>
f0000034:	eb000441 	bl	f0001140 <save_sp>
f0000038:	e5860000 	str	r0, [r6]
f000003c:	e3a00022 	mov	r0, #34	; 0x22
f0000040:	eb0002f8 	bl	f0000c28 <save_mem_status>
f0000044:	e3a02024 	mov	r2, #36	; 0x24
f0000048:	e1a00004 	mov	r0, r4
f000004c:	e1a01005 	mov	r1, r5
f0000050:	eb0000dc 	bl	f00003c8 <standby_memcpy>
f0000054:	eb0004ed 	bl	f0001410 <mem_preload_tlb>
f0000058:	e3a01000 	mov	r1, #0
f000005c:	e3a00001 	mov	r0, #1
f0000060:	eb00038c 	bl	f0000e98 <init_perfcounters>
f0000064:	eb0000e3 	bl	f00003f8 <standby_clk_init>
f0000068:	e3a00001 	mov	r0, #1
f000006c:	eb000a83 	bl	f0002a80 <mem_clk_init>
f0000070:	eb000b6b 	bl	f0002e24 <standby_arisc_init>
f0000074:	e3a00023 	mov	r0, #35	; 0x23
f0000078:	eb0002ea 	bl	f0000c28 <save_mem_status>
f000007c:	e5943008 	ldr	r3, [r4, #8]
f0000080:	e3130001 	tst	r3, #1
f0000084:	1a000081 	bne	f0000290 <standby_main+0x290>
f0000088:	e5943018 	ldr	r3, [r4, #24]
f000008c:	e3530000 	cmp	r3, #0
f0000090:	0a000008 	beq	f00000b8 <standby_main+0xb8>
f0000094:	e59f02f4 	ldr	r0, [pc, #756]	; f0000390 <standby_main+0x390>
f0000098:	eb000764 	bl	f0001e30 <printk>
f000009c:	e3a01b01 	mov	r1, #1024	; 0x400
f00000a0:	e59f02ec 	ldr	r0, [pc, #748]	; f0000394 <standby_main+0x394>
f00000a4:	e34c1308 	movt	r1, #49928	; 0xc308
f00000a8:	e3a02f71 	mov	r2, #452	; 0x1c4
f00000ac:	eb0000c5 	bl	f00003c8 <standby_memcpy>
f00000b0:	e3a00026 	mov	r0, #38	; 0x26
f00000b4:	eb0002db 	bl	f0000c28 <save_mem_status>
f00000b8:	e3a00027 	mov	r0, #39	; 0x27
f00000bc:	eb0002d9 	bl	f0000c28 <save_mem_status>
f00000c0:	e5943008 	ldr	r3, [r4, #8]
f00000c4:	e3130020 	tst	r3, #32
f00000c8:	1a000058 	bne	f0000230 <standby_main+0x230>
f00000cc:	e3a00028 	mov	r0, #40	; 0x28
f00000d0:	eb0002d4 	bl	f0000c28 <save_mem_status>
f00000d4:	e59f32bc 	ldr	r3, [pc, #700]	; f0000398 <standby_main+0x398>
f00000d8:	e594c004 	ldr	ip, [r4, #4]
f00000dc:	e594100c 	ldr	r1, [r4, #12]
f00000e0:	e5942010 	ldr	r2, [r4, #16]
f00000e4:	e1a00003 	mov	r0, r3
f00000e8:	e583c000 	str	ip, [r3]
f00000ec:	e9830006 	stmib	r3, {r1, r2}
f00000f0:	eb000bc7 	bl	f0003014 <standby_arisc_standby_normal>
f00000f4:	e320f003 	wfi
f00000f8:	eb0000d2 	bl	f0000448 <standby_clk_ldoenable>
f00000fc:	eb0000df 	bl	f0000480 <standby_clk_pll1enable>
f0000100:	e3a00001 	mov	r0, #1
f0000104:	e3a07000 	mov	r7, #0
f0000108:	eb0008ba 	bl	f00023f8 <standby_delay_cycle>
f000010c:	eb0000c5 	bl	f0000428 <standby_clk_core2hosc>
f0000110:	e59f0284 	ldr	r0, [pc, #644]	; f000039c <standby_main+0x39c>
f0000114:	e34f71c2 	movt	r7, #61890	; 0xf1c2
f0000118:	eb000b96 	bl	f0002f78 <standby_arisc_query_wakeup_src>
f000011c:	e3a00041 	mov	r0, #65	; 0x41
f0000120:	eb0002c0 	bl	f0000c28 <save_mem_status>
f0000124:	eb000a09 	bl	f0002950 <mem_tmr_enable_watchdog>
f0000128:	e3a00042 	mov	r0, #66	; 0x42
f000012c:	eb0002bd 	bl	f0000c28 <save_mem_status>
f0000130:	e3a00004 	mov	r0, #4
f0000134:	eb000b50 	bl	f0002e7c <standby_arisc_notify_restore>
f0000138:	e3a00043 	mov	r0, #67	; 0x43
f000013c:	eb0002b9 	bl	f0000c28 <save_mem_status>
f0000140:	e3a03000 	mov	r3, #0
f0000144:	e3a00051 	mov	r0, #81	; 0x51
f0000148:	e5843000 	str	r3, [r4]
f000014c:	eb00097c 	bl	f0002744 <mem_query_int>
f0000150:	e2708001 	rsbs	r8, r0, #1
f0000154:	e3a0004a 	mov	r0, #74	; 0x4a
f0000158:	33a08000 	movcc	r8, #0
f000015c:	e5848000 	str	r8, [r4]
f0000160:	eb000977 	bl	f0002744 <mem_query_int>
f0000164:	e3500000 	cmp	r0, #0
f0000168:	e3a00044 	mov	r0, #68	; 0x44
f000016c:	03a03002 	moveq	r3, #2
f0000170:	13a03000 	movne	r3, #0
f0000174:	e1838008 	orr	r8, r3, r8
f0000178:	e5848000 	str	r8, [r4]
f000017c:	eb0002a9 	bl	f0000c28 <save_mem_status>
f0000180:	ea000001 	b	f000018c <standby_main+0x18c>
f0000184:	e3130001 	tst	r3, #1
f0000188:	1a000021 	bne	f0000214 <standby_main+0x214>
f000018c:	eb000b58 	bl	f0002ef4 <standby_arisc_check_restore_status>
f0000190:	e3500000 	cmp	r0, #0
f0000194:	e5943008 	ldr	r3, [r4, #8]
f0000198:	1afffff9 	bne	f0000184 <standby_main+0x184>
f000019c:	e3130020 	tst	r3, #32
f00001a0:	1a000048 	bne	f00002c8 <standby_main+0x2c8>
f00001a4:	e3a00045 	mov	r0, #69	; 0x45
f00001a8:	eb00029e 	bl	f0000c28 <save_mem_status>
f00001ac:	eb0009f9 	bl	f0002998 <mem_tmr_disable_watchdog>
f00001b0:	e5943008 	ldr	r3, [r4, #8]
f00001b4:	e3130001 	tst	r3, #1
f00001b8:	1a00003f 	bne	f00002bc <standby_main+0x2bc>
f00001bc:	e5960000 	ldr	r0, [r6]
f00001c0:	eb0003e4 	bl	f0001158 <restore_sp>
f00001c4:	e5943008 	ldr	r3, [r4, #8]
f00001c8:	e3130001 	tst	r3, #1
f00001cc:	1a000038 	bne	f00002b4 <standby_main+0x2b4>
f00001d0:	eb000b1e 	bl	f0002e50 <standby_arisc_exit>
f00001d4:	e5943004 	ldr	r3, [r4, #4]
f00001d8:	e3a0002a 	mov	r0, #42	; 0x2a
f00001dc:	e5942000 	ldr	r2, [r4]
f00001e0:	e885000c 	stm	r5, {r2, r3}
f00001e4:	eb00028f 	bl	f0000c28 <save_mem_status>
f00001e8:	e5943008 	ldr	r3, [r4, #8]
f00001ec:	e2133b02 	ands	r3, r3, #2048	; 0x800
f00001f0:	0a00002d 	beq	f00002ac <standby_main+0x2ac>
f00001f4:	e3a00001 	mov	r0, #1
f00001f8:	e3a01000 	mov	r1, #0
f00001fc:	eb000325 	bl	f0000e98 <init_perfcounters>
f0000200:	eb000347 	bl	f0000f24 <change_runtime_env>
f0000204:	e3a00005 	mov	r0, #5
f0000208:	eb000374 	bl	f0000fe0 <delay_ms>
f000020c:	e3a00000 	mov	r0, #0
f0000210:	e8bd81f0 	pop	{r4, r5, r6, r7, r8, pc}
f0000214:	e5971050 	ldr	r1, [r7, #80]	; 0x50
f0000218:	e59f0180 	ldr	r0, [pc, #384]	; f00003a0 <standby_main+0x3a0>
f000021c:	eb000703 	bl	f0001e30 <printk>
f0000220:	e5971000 	ldr	r1, [r7]
f0000224:	e59f0178 	ldr	r0, [pc, #376]	; f00003a4 <standby_main+0x3a4>
f0000228:	eb000700 	bl	f0001e30 <printk>
f000022c:	eaffffd6 	b	f000018c <standby_main+0x18c>
f0000230:	e3a00003 	mov	r0, #3
f0000234:	eb000381 	bl	f0001040 <set_event_counter>
f0000238:	e3a00005 	mov	r0, #5
f000023c:	eb00037f 	bl	f0001040 <set_event_counter>
f0000240:	e3a00001 	mov	r0, #1
f0000244:	eb00037d 	bl	f0001040 <set_event_counter>
f0000248:	e3a00002 	mov	r0, #2
f000024c:	eb00037b 	bl	f0001040 <set_event_counter>
f0000250:	e3a01000 	mov	r1, #0
f0000254:	e3a00001 	mov	r0, #1
f0000258:	eb00036d 	bl	f0001014 <init_event_counter>
f000025c:	e3a00003 	mov	r0, #3
f0000260:	eb000381 	bl	f000106c <get_event_counter>
f0000264:	e5860004 	str	r0, [r6, #4]
f0000268:	e3a00005 	mov	r0, #5
f000026c:	eb00037e 	bl	f000106c <get_event_counter>
f0000270:	e5860008 	str	r0, [r6, #8]
f0000274:	e3a00002 	mov	r0, #2
f0000278:	eb00037b 	bl	f000106c <get_event_counter>
f000027c:	e586000c 	str	r0, [r6, #12]
f0000280:	e3a00001 	mov	r0, #1
f0000284:	eb000378 	bl	f000106c <get_event_counter>
f0000288:	e5860010 	str	r0, [r6, #16]
f000028c:	eaffff8e 	b	f00000cc <standby_main+0xcc>
f0000290:	eb0005d7 	bl	f00019f4 <serial_init_manager>
f0000294:	e5941000 	ldr	r1, [r4]
f0000298:	e59f0108 	ldr	r0, [pc, #264]	; f00003a8 <standby_main+0x3a8>
f000029c:	eb0006e3 	bl	f0001e30 <printk>
f00002a0:	e3a00025 	mov	r0, #37	; 0x25
f00002a4:	eb00025f 	bl	f0000c28 <save_mem_status>
f00002a8:	eaffff76 	b	f0000088 <standby_main+0x88>
f00002ac:	e1a00003 	mov	r0, r3
f00002b0:	e8bd81f0 	pop	{r4, r5, r6, r7, r8, pc}
f00002b4:	eb0005d3 	bl	f0001a08 <serial_exit_manager>
f00002b8:	eaffffc4 	b	f00001d0 <standby_main+0x1d0>
f00002bc:	e59f00e8 	ldr	r0, [pc, #232]	; f00003ac <standby_main+0x3ac>
f00002c0:	eb0006da 	bl	f0001e30 <printk>
f00002c4:	eaffffbc 	b	f00001bc <standby_main+0x1bc>
f00002c8:	e3a00003 	mov	r0, #3
f00002cc:	e59f70b4 	ldr	r7, [pc, #180]	; f0000388 <standby_main+0x388>
f00002d0:	eb000365 	bl	f000106c <get_event_counter>
f00002d4:	e5860014 	str	r0, [r6, #20]
f00002d8:	e3a00005 	mov	r0, #5
f00002dc:	eb000362 	bl	f000106c <get_event_counter>
f00002e0:	e5860018 	str	r0, [r6, #24]
f00002e4:	e3a00002 	mov	r0, #2
f00002e8:	eb00035f 	bl	f000106c <get_event_counter>
f00002ec:	e586001c 	str	r0, [r6, #28]
f00002f0:	e3a00001 	mov	r0, #1
f00002f4:	eb00035c 	bl	f000106c <get_event_counter>
f00002f8:	e5963014 	ldr	r3, [r6, #20]
f00002fc:	e5860020 	str	r0, [r6, #32]
f0000300:	e3530000 	cmp	r3, #0
f0000304:	1a000007 	bne	f0000328 <standby_main+0x328>
f0000308:	e5973018 	ldr	r3, [r7, #24]
f000030c:	e3530000 	cmp	r3, #0
f0000310:	1a000004 	bne	f0000328 <standby_main+0x328>
f0000314:	e597301c 	ldr	r3, [r7, #28]
f0000318:	e3530000 	cmp	r3, #0
f000031c:	1a000001 	bne	f0000328 <standby_main+0x328>
f0000320:	e3500000 	cmp	r0, #0
f0000324:	0a000012 	beq	f0000374 <standby_main+0x374>
f0000328:	e59f0080 	ldr	r0, [pc, #128]	; f00003b0 <standby_main+0x3b0>
f000032c:	eb0006bf 	bl	f0001e30 <printk>
f0000330:	e5961004 	ldr	r1, [r6, #4]
f0000334:	e5962014 	ldr	r2, [r6, #20]
f0000338:	e59f0074 	ldr	r0, [pc, #116]	; f00003b4 <standby_main+0x3b4>
f000033c:	eb0006bb 	bl	f0001e30 <printk>
f0000340:	e5961008 	ldr	r1, [r6, #8]
f0000344:	e5962018 	ldr	r2, [r6, #24]
f0000348:	e59f0068 	ldr	r0, [pc, #104]	; f00003b8 <standby_main+0x3b8>
f000034c:	eb0006b7 	bl	f0001e30 <printk>
f0000350:	e5961010 	ldr	r1, [r6, #16]
f0000354:	e5962020 	ldr	r2, [r6, #32]
f0000358:	e59f005c 	ldr	r0, [pc, #92]	; f00003bc <standby_main+0x3bc>
f000035c:	eb0006b3 	bl	f0001e30 <printk>
f0000360:	e596100c 	ldr	r1, [r6, #12]
f0000364:	e596201c 	ldr	r2, [r6, #28]
f0000368:	e59f0050 	ldr	r0, [pc, #80]	; f00003c0 <standby_main+0x3c0>
f000036c:	eb0006af 	bl	f0001e30 <printk>
f0000370:	eaffff8b 	b	f00001a4 <standby_main+0x1a4>
f0000374:	e59f0048 	ldr	r0, [pc, #72]	; f00003c4 <standby_main+0x3c4>
f0000378:	eb0006ac 	bl	f0001e30 <printk>
f000037c:	eaffff88 	b	f00001a4 <standby_main+0x1a4>
f0000380:	f00039ec 			; <UNDEFINED> instruction: 0xf00039ec
f0000384:	f0003dac 			; <UNDEFINED> instruction: 0xf0003dac
f0000388:	f00039ec 			; <UNDEFINED> instruction: 0xf00039ec
f000038c:	f0003d74 			; <UNDEFINED> instruction: 0xf0003d74
f0000390:	f0003714 			; <UNDEFINED> instruction: 0xf0003714
f0000394:	f0003bb0 			; <UNDEFINED> instruction: 0xf0003bb0
f0000398:	f0003d98 			; <UNDEFINED> instruction: 0xf0003d98
f000039c:	f0003d78 			; <UNDEFINED> instruction: 0xf0003d78
f00003a0:	f0003730 			; <UNDEFINED> instruction: 0xf0003730
f00003a4:	f000374c 			; <UNDEFINED> instruction: 0xf000374c
f00003a8:	f00036e8 			; <UNDEFINED> instruction: 0xf00036e8
f00003ac:	f0003888 			; <UNDEFINED> instruction: 0xf0003888
f00003b0:	f0003768 			; <UNDEFINED> instruction: 0xf0003768
f00003b4:	f00037b4 			; <UNDEFINED> instruction: 0xf00037b4
f00003b8:	f00037e8 			; <UNDEFINED> instruction: 0xf00037e8
f00003bc:	f0003818 			; <UNDEFINED> instruction: 0xf0003818
f00003c0:	f000384c 			; <UNDEFINED> instruction: 0xf000384c
f00003c4:	f000387c 			; <UNDEFINED> instruction: 0xf000387c

f00003c8 <standby_memcpy>:
f00003c8:	e3500000 	cmp	r0, #0
f00003cc:	13510000 	cmpne	r1, #0
f00003d0:	012fff1e 	bxeq	lr
f00003d4:	e3520000 	cmp	r2, #0
f00003d8:	d12fff1e 	bxle	lr
f00003dc:	e2411001 	sub	r1, r1, #1
f00003e0:	e0802002 	add	r2, r0, r2
f00003e4:	e5f13001 	ldrb	r3, [r1, #1]!
f00003e8:	e4c03001 	strb	r3, [r0], #1
f00003ec:	e1500002 	cmp	r0, r2
f00003f0:	1afffffb 	bne	f00003e4 <standby_memcpy+0x1c>
f00003f4:	e12fff1e 	bx	lr

f00003f8 <standby_clk_init>:
f00003f8:	e3033a10 	movw	r3, #14864	; 0x3a10
f00003fc:	e3a01b05 	mov	r1, #5120	; 0x1400
f0000400:	e3a02000 	mov	r2, #0
f0000404:	e34f3000 	movt	r3, #61440	; 0xf000
f0000408:	e34f11f0 	movt	r1, #61936	; 0xf1f0
f000040c:	e34f21c2 	movt	r2, #61890	; 0xf1c2
f0000410:	e5831000 	str	r1, [r3]
f0000414:	e3a00000 	mov	r0, #0
f0000418:	e5832004 	str	r2, [r3, #4]
f000041c:	e12fff1e 	bx	lr

f0000420 <standby_clk_exit>:
f0000420:	e3a00000 	mov	r0, #0
f0000424:	e12fff1e 	bx	lr

f0000428 <standby_clk_core2hosc>:
f0000428:	e3033a10 	movw	r3, #14864	; 0x3a10
f000042c:	e34f3000 	movt	r3, #61440	; 0xf000
f0000430:	e5932004 	ldr	r2, [r3, #4]
f0000434:	e5921050 	ldr	r1, [r2, #80]	; 0x50
f0000438:	e3811a01 	orr	r1, r1, #4096	; 0x1000
f000043c:	e5831008 	str	r1, [r3, #8]
f0000440:	e5821050 	str	r1, [r2, #80]	; 0x50
f0000444:	e12fff1e 	bx	lr

f0000448 <standby_clk_ldoenable>:
f0000448:	e3033a10 	movw	r3, #14864	; 0x3a10
f000044c:	e34f3000 	movt	r3, #61440	; 0xf000
f0000450:	e5933000 	ldr	r3, [r3]
f0000454:	e5932044 	ldr	r2, [r3, #68]	; 0x44
f0000458:	e3c224ff 	bic	r2, r2, #-16777216	; 0xff000000
f000045c:	e38224a7 	orr	r2, r2, #-1493172224	; 0xa7000000
f0000460:	e5832044 	str	r2, [r3, #68]	; 0x44
f0000464:	e5932044 	ldr	r2, [r3, #68]	; 0x44
f0000468:	e3822007 	orr	r2, r2, #7
f000046c:	e5832044 	str	r2, [r3, #68]	; 0x44
f0000470:	e5932044 	ldr	r2, [r3, #68]	; 0x44
f0000474:	e3c224ff 	bic	r2, r2, #-16777216	; 0xff000000
f0000478:	e5832044 	str	r2, [r3, #68]	; 0x44
f000047c:	e12fff1e 	bx	lr

f0000480 <standby_clk_pll1enable>:
f0000480:	e3033a10 	movw	r3, #14864	; 0x3a10
f0000484:	e34f3000 	movt	r3, #61440	; 0xf000
f0000488:	e5932004 	ldr	r2, [r3, #4]
f000048c:	e5921000 	ldr	r1, [r2]
f0000490:	e3811102 	orr	r1, r1, #-2147483648	; 0x80000000
f0000494:	e583100c 	str	r1, [r3, #12]
f0000498:	e5821000 	str	r1, [r2]
f000049c:	e12fff1e 	bx	lr

f00004a0 <standby_ir_init>:
f00004a0:	e3a00000 	mov	r0, #0
f00004a4:	e12fff1e 	bx	lr

f00004a8 <standby_ir_exit>:
f00004a8:	e3a00000 	mov	r0, #0
f00004ac:	e12fff1e 	bx	lr

f00004b0 <standby_ir_detect>:
f00004b0:	e3a00000 	mov	r0, #0
f00004b4:	e12fff1e 	bx	lr

f00004b8 <standby_ir_verify>:
f00004b8:	e3e00000 	mvn	r0, #0
f00004bc:	e12fff1e 	bx	lr

f00004c0 <standby_key_init>:
f00004c0:	e92d4038 	push	{r3, r4, r5, lr}
f00004c4:	e3a0320f 	mov	r3, #-268435456	; 0xf0000000
f00004c8:	e5932000 	ldr	r2, [r3]
f00004cc:	e3034a20 	movw	r4, #14880	; 0x3a20
f00004d0:	e34f4000 	movt	r4, #61440	; 0xf000
f00004d4:	e3a05000 	mov	r5, #0
f00004d8:	e5843000 	str	r3, [r4]
f00004dc:	e5842004 	str	r2, [r4, #4]
f00004e0:	e5932004 	ldr	r2, [r3, #4]
f00004e4:	e5842008 	str	r2, [r4, #8]
f00004e8:	e5835000 	str	r5, [r3]
f00004ec:	eb00028c 	bl	f0000f24 <change_runtime_env>
f00004f0:	e3a0000a 	mov	r0, #10
f00004f4:	eb0002b9 	bl	f0000fe0 <delay_ms>
f00004f8:	e5943000 	ldr	r3, [r4]
f00004fc:	e3a02002 	mov	r2, #2
f0000500:	e3a01041 	mov	r1, #65	; 0x41
f0000504:	e1a00005 	mov	r0, r5
f0000508:	e5831000 	str	r1, [r3]
f000050c:	e5832004 	str	r2, [r3, #4]
f0000510:	e5832008 	str	r2, [r3, #8]
f0000514:	e8bd8038 	pop	{r3, r4, r5, pc}

f0000518 <standby_key_exit>:
f0000518:	e3033a20 	movw	r3, #14880	; 0x3a20
f000051c:	e3a00000 	mov	r0, #0
f0000520:	e34f3000 	movt	r3, #61440	; 0xf000
f0000524:	e5932000 	ldr	r2, [r3]
f0000528:	e993000a 	ldmib	r3, {r1, r3}
f000052c:	e5821000 	str	r1, [r2]
f0000530:	e5823004 	str	r3, [r2, #4]
f0000534:	e12fff1e 	bx	lr

f0000538 <standby_query_key>:
f0000538:	e59f301c 	ldr	r3, [pc, #28]	; f000055c <standby_query_key+0x24>
f000053c:	e5933000 	ldr	r3, [r3]
f0000540:	e5932008 	ldr	r2, [r3, #8]
f0000544:	e3120002 	tst	r2, #2
f0000548:	13a02002 	movne	r2, #2
f000054c:	13a00000 	movne	r0, #0
f0000550:	15832008 	strne	r2, [r3, #8]
f0000554:	03e00000 	mvneq	r0, #0
f0000558:	e12fff1e 	bx	lr
f000055c:	f0003a20 			; <UNDEFINED> instruction: 0xf0003a20

f0000560 <standby_set_voltage>:
f0000560:	e59f3194 	ldr	r3, [pc, #404]	; f00006fc <standby_set_voltage+0x19c>
f0000564:	e92d40f0 	push	{r4, r5, r6, r7, lr}
f0000568:	e24dd00c 	sub	sp, sp, #12
f000056c:	e5932000 	ldr	r2, [r3]
f0000570:	e1500002 	cmp	r0, r2
f0000574:	0a00000c 	beq	f00005ac <standby_set_voltage+0x4c>
f0000578:	e3a0c001 	mov	ip, #1
f000057c:	e1a0200c 	mov	r2, ip
f0000580:	e06c418c 	rsb	r4, ip, ip, lsl #3
f0000584:	e2822001 	add	r2, r2, #1
f0000588:	e1a0c002 	mov	ip, r2
f000058c:	e7935104 	ldr	r5, [r3, r4, lsl #2]
f0000590:	e0834104 	add	r4, r3, r4, lsl #2
f0000594:	e1500005 	cmp	r0, r5
f0000598:	0a000004 	beq	f00005b0 <standby_set_voltage+0x50>
f000059c:	e3520006 	cmp	r2, #6
f00005a0:	1afffff6 	bne	f0000580 <standby_set_voltage+0x20>
f00005a4:	e28dd00c 	add	sp, sp, #12
f00005a8:	e8bd80f0 	pop	{r4, r5, r6, r7, pc}
f00005ac:	e1a04003 	mov	r4, r3
f00005b0:	e5942004 	ldr	r2, [r4, #4]
f00005b4:	e1510002 	cmp	r1, r2
f00005b8:	bafffff9 	blt	f00005a4 <standby_set_voltage+0x44>
f00005bc:	e5943008 	ldr	r3, [r4, #8]
f00005c0:	e1510003 	cmp	r1, r3
f00005c4:	cafffff6 	bgt	f00005a4 <standby_set_voltage+0x44>
f00005c8:	e3500006 	cmp	r0, #6
f00005cc:	0a000021 	beq	f0000658 <standby_set_voltage+0xf8>
f00005d0:	e594300c 	ldr	r3, [r4, #12]
f00005d4:	e0622001 	rsb	r2, r2, r1
f00005d8:	e0820003 	add	r0, r2, r3
f00005dc:	e1a01003 	mov	r1, r3
f00005e0:	e2400001 	sub	r0, r0, #1
f00005e4:	eb0007f3 	bl	f00025b8 <raw_lib_udiv>
f00005e8:	e594c014 	ldr	ip, [r4, #20]
f00005ec:	e6ef7070 	uxtb	r7, r0
f00005f0:	e1a07c17 	lsl	r7, r7, ip
f00005f4:	e6ef7077 	uxtb	r7, r7
f00005f8:	e5946018 	ldr	r6, [r4, #24]
f00005fc:	e3a05001 	mov	r5, #1
f0000600:	e5d42010 	ldrb	r2, [r4, #16]
f0000604:	e28d3007 	add	r3, sp, #7
f0000608:	e3a00000 	mov	r0, #0
f000060c:	e3a01034 	mov	r1, #52	; 0x34
f0000610:	e1a06615 	lsl	r6, r5, r6
f0000614:	e2466001 	sub	r6, r6, #1
f0000618:	e1a06c16 	lsl	r6, r6, ip
f000061c:	eb00008a 	bl	f000084c <twi_byte_rw>
f0000620:	e5dd3007 	ldrb	r3, [sp, #7]
f0000624:	e6ef6076 	uxtb	r6, r6
f0000628:	e0062003 	and	r2, r6, r3
f000062c:	e1520007 	cmp	r2, r7
f0000630:	0affffdb 	beq	f00005a4 <standby_set_voltage+0x44>
f0000634:	e1c33006 	bic	r3, r3, r6
f0000638:	e1a00005 	mov	r0, r5
f000063c:	e1837007 	orr	r7, r3, r7
f0000640:	e3a01034 	mov	r1, #52	; 0x34
f0000644:	e5d42010 	ldrb	r2, [r4, #16]
f0000648:	e28d3007 	add	r3, sp, #7
f000064c:	e5cd7007 	strb	r7, [sp, #7]
f0000650:	eb00007d 	bl	f000084c <twi_byte_rw>
f0000654:	eaffffd2 	b	f00005a4 <standby_set_voltage+0x44>
f0000658:	e30132d0 	movw	r3, #4816	; 0x12d0
f000065c:	e3403013 	movt	r3, #19
f0000660:	e1510003 	cmp	r1, r3
f0000664:	0a00000f 	beq	f00006a8 <standby_set_voltage+0x148>
f0000668:	e594200c 	ldr	r2, [r4, #12]
f000066c:	e30b007f 	movw	r0, #45183	; 0xb07f
f0000670:	e34f0fed 	movt	r0, #65517	; 0xffed
f0000674:	e0823001 	add	r3, r2, r1
f0000678:	e1a01002 	mov	r1, r2
f000067c:	e0830000 	add	r0, r3, r0
f0000680:	eb0007cc 	bl	f00025b8 <raw_lib_udiv>
f0000684:	e6ef0070 	uxtb	r0, r0
f0000688:	e594c014 	ldr	ip, [r4, #20]
f000068c:	e3500010 	cmp	r0, #16
f0000690:	9a000007 	bls	f00006b4 <standby_set_voltage+0x154>
f0000694:	e2400006 	sub	r0, r0, #6
f0000698:	e6ef7070 	uxtb	r7, r0
f000069c:	e1a07c17 	lsl	r7, r7, ip
f00006a0:	e6ef7077 	uxtb	r7, r7
f00006a4:	eaffffd3 	b	f00005f8 <standby_set_voltage+0x98>
f00006a8:	e594c014 	ldr	ip, [r4, #20]
f00006ac:	e3a07000 	mov	r7, #0
f00006b0:	eaffffd0 	b	f00005f8 <standby_set_voltage+0x98>
f00006b4:	e350000d 	cmp	r0, #13
f00006b8:	8a00000a 	bhi	f00006e8 <standby_set_voltage+0x188>
f00006bc:	03a07009 	moveq	r7, #9
f00006c0:	01a07c17 	lsleq	r7, r7, ip
f00006c4:	06ef7077 	uxtbeq	r7, r7
f00006c8:	0affffca 	beq	f00005f8 <standby_set_voltage+0x98>
f00006cc:	e3500008 	cmp	r0, #8
f00006d0:	83a07008 	movhi	r7, #8
f00006d4:	91a00c10 	lslls	r0, r0, ip
f00006d8:	81a07c17 	lslhi	r7, r7, ip
f00006dc:	96ef7070 	uxtbls	r7, r0
f00006e0:	86ef7077 	uxtbhi	r7, r7
f00006e4:	eaffffc3 	b	f00005f8 <standby_set_voltage+0x98>
f00006e8:	e2400005 	sub	r0, r0, #5
f00006ec:	e6ef7070 	uxtb	r7, r0
f00006f0:	e1a07c17 	lsl	r7, r7, ip
f00006f4:	e6ef7077 	uxtb	r7, r7
f00006f8:	eaffffbe 	b	f00005f8 <standby_set_voltage+0x98>
f00006fc:	f0003940 			; <UNDEFINED> instruction: 0xf0003940

f0000700 <standby_get_voltage>:
f0000700:	e59f30a8 	ldr	r3, [pc, #168]	; f00007b0 <standby_get_voltage+0xb0>
f0000704:	e92d4030 	push	{r4, r5, lr}
f0000708:	e1a04000 	mov	r4, r0
f000070c:	e24dd00c 	sub	sp, sp, #12
f0000710:	e5932000 	ldr	r2, [r3]
f0000714:	e1500002 	cmp	r0, r2
f0000718:	0a00000d 	beq	f0000754 <standby_get_voltage+0x54>
f000071c:	e3a01001 	mov	r1, #1
f0000720:	e1a02001 	mov	r2, r1
f0000724:	e0615181 	rsb	r5, r1, r1, lsl #3
f0000728:	e2822001 	add	r2, r2, #1
f000072c:	e1a01002 	mov	r1, r2
f0000730:	e7930105 	ldr	r0, [r3, r5, lsl #2]
f0000734:	e0835105 	add	r5, r3, r5, lsl #2
f0000738:	e1540000 	cmp	r4, r0
f000073c:	0a000005 	beq	f0000758 <standby_get_voltage+0x58>
f0000740:	e3520006 	cmp	r2, #6
f0000744:	1afffff6 	bne	f0000724 <standby_get_voltage+0x24>
f0000748:	e3e00000 	mvn	r0, #0
f000074c:	e28dd00c 	add	sp, sp, #12
f0000750:	e8bd8030 	pop	{r4, r5, pc}
f0000754:	e1a05003 	mov	r5, r3
f0000758:	e3a01034 	mov	r1, #52	; 0x34
f000075c:	e5d52010 	ldrb	r2, [r5, #16]
f0000760:	e28d3007 	add	r3, sp, #7
f0000764:	e3a00000 	mov	r0, #0
f0000768:	eb000037 	bl	f000084c <twi_byte_rw>
f000076c:	e5952018 	ldr	r2, [r5, #24]
f0000770:	e3e00000 	mvn	r0, #0
f0000774:	e5953014 	ldr	r3, [r5, #20]
f0000778:	e3540006 	cmp	r4, #6
f000077c:	e5dd1007 	ldrb	r1, [sp, #7]
f0000780:	e1e02210 	mvn	r2, r0, lsl r2
f0000784:	1595000c 	ldrne	r0, [r5, #12]
f0000788:	03a00ffa 	moveq	r0, #1000	; 0x3e8
f000078c:	e0012312 	and	r2, r1, r2, lsl r3
f0000790:	e1a03352 	asr	r3, r2, r3
f0000794:	059f2018 	ldreq	r2, [pc, #24]	; f00007b4 <standby_get_voltage+0xb4>
f0000798:	15952004 	ldrne	r2, [r5, #4]
f000079c:	e6ef3073 	uxtb	r3, r3
f00007a0:	07923103 	ldreq	r3, [r2, r3, lsl #2]
f00007a4:	10202390 	mlane	r0, r0, r3, r2
f00007a8:	00000390 	muleq	r0, r0, r3
f00007ac:	eaffffe6 	b	f000074c <standby_get_voltage+0x4c>
f00007b0:	f0003940 			; <UNDEFINED> instruction: 0xf0003940
f00007b4:	f0003680 			; <UNDEFINED> instruction: 0xf0003680

f00007b8 <standby_twi_init>:
f00007b8:	e59f203c 	ldr	r2, [pc, #60]	; f00007fc <standby_twi_init+0x44>
f00007bc:	e3a01028 	mov	r1, #40	; 0x28
f00007c0:	e59f3038 	ldr	r3, [pc, #56]	; f0000800 <standby_twi_init+0x48>
f00007c4:	e7922100 	ldr	r2, [r2, r0, lsl #2]
f00007c8:	e592c014 	ldr	ip, [r2, #20]
f00007cc:	e592000c 	ldr	r0, [r2, #12]
f00007d0:	e5821014 	str	r1, [r2, #20]
f00007d4:	e5921018 	ldr	r1, [r2, #24]
f00007d8:	e2000080 	and	r0, r0, #128	; 0x80
f00007dc:	e8831004 	stm	r3, {r2, ip}
f00007e0:	e5830008 	str	r0, [r3, #8]
f00007e4:	e3811001 	orr	r1, r1, #1
f00007e8:	e5821018 	str	r1, [r2, #24]
f00007ec:	e5920018 	ldr	r0, [r2, #24]
f00007f0:	e2100001 	ands	r0, r0, #1
f00007f4:	1afffffc 	bne	f00007ec <standby_twi_init+0x34>
f00007f8:	e12fff1e 	bx	lr
f00007fc:	f00036c0 			; <UNDEFINED> instruction: 0xf00036c0
f0000800:	f0003a2c 			; <UNDEFINED> instruction: 0xf0003a2c

f0000804 <standby_twi_exit>:
f0000804:	e92d4010 	push	{r4, lr}
f0000808:	e3034a2c 	movw	r4, #14892	; 0x3a2c
f000080c:	e34f4000 	movt	r4, #61440	; 0xf000
f0000810:	e5943000 	ldr	r3, [r4]
f0000814:	e5932018 	ldr	r2, [r3, #24]
f0000818:	e3822001 	orr	r2, r2, #1
f000081c:	e5832018 	str	r2, [r3, #24]
f0000820:	eb0001bf 	bl	f0000f24 <change_runtime_env>
f0000824:	e3a0000a 	mov	r0, #10
f0000828:	eb0001ec 	bl	f0000fe0 <delay_ms>
f000082c:	e5943000 	ldr	r3, [r4]
f0000830:	e3a00000 	mov	r0, #0
f0000834:	e9940006 	ldmib	r4, {r1, r2}
f0000838:	e5831014 	str	r1, [r3, #20]
f000083c:	e593100c 	ldr	r1, [r3, #12]
f0000840:	e1812002 	orr	r2, r1, r2
f0000844:	e583200c 	str	r2, [r3, #12]
f0000848:	e8bd8010 	pop	{r4, pc}

f000084c <twi_byte_rw>:
f000084c:	e59fc2a8 	ldr	ip, [pc, #680]	; f0000afc <twi_byte_rw+0x2b0>
f0000850:	e92d0030 	push	{r4, r5}
f0000854:	e3a04000 	mov	r4, #0
f0000858:	e59cc000 	ldr	ip, [ip]
f000085c:	e58c401c 	str	r4, [ip, #28]
f0000860:	e59c4010 	ldr	r4, [ip, #16]
f0000864:	e6ef4074 	uxtb	r4, r4
f0000868:	e35400f8 	cmp	r4, #248	; 0xf8
f000086c:	1a00006b 	bne	f0000a20 <twi_byte_rw+0x1d4>
f0000870:	e59c500c 	ldr	r5, [ip, #12]
f0000874:	e30042ff 	movw	r4, #767	; 0x2ff
f0000878:	e3855020 	orr	r5, r5, #32
f000087c:	e58c500c 	str	r5, [ip, #12]
f0000880:	ea000001 	b	f000088c <twi_byte_rw+0x40>
f0000884:	e2544001 	subs	r4, r4, #1
f0000888:	3a000004 	bcc	f00008a0 <twi_byte_rw+0x54>
f000088c:	e59c500c 	ldr	r5, [ip, #12]
f0000890:	e3150008 	tst	r5, #8
f0000894:	0afffffa 	beq	f0000884 <twi_byte_rw+0x38>
f0000898:	e3540000 	cmp	r4, #0
f000089c:	0a00005f 	beq	f0000a20 <twi_byte_rw+0x1d4>
f00008a0:	e59c4010 	ldr	r4, [ip, #16]
f00008a4:	e6ef4074 	uxtb	r4, r4
f00008a8:	e3540008 	cmp	r4, #8
f00008ac:	1a00005b 	bne	f0000a20 <twi_byte_rw+0x1d4>
f00008b0:	e1a01081 	lsl	r1, r1, #1
f00008b4:	e30042ff 	movw	r4, #767	; 0x2ff
f00008b8:	e58c1008 	str	r1, [ip, #8]
f00008bc:	e59c500c 	ldr	r5, [ip, #12]
f00008c0:	e20550f7 	and	r5, r5, #247	; 0xf7
f00008c4:	e58c500c 	str	r5, [ip, #12]
f00008c8:	ea000001 	b	f00008d4 <twi_byte_rw+0x88>
f00008cc:	e2544001 	subs	r4, r4, #1
f00008d0:	3a000004 	bcc	f00008e8 <twi_byte_rw+0x9c>
f00008d4:	e59c500c 	ldr	r5, [ip, #12]
f00008d8:	e3150008 	tst	r5, #8
f00008dc:	0afffffa 	beq	f00008cc <twi_byte_rw+0x80>
f00008e0:	e3540000 	cmp	r4, #0
f00008e4:	0a00004d 	beq	f0000a20 <twi_byte_rw+0x1d4>
f00008e8:	e59c4010 	ldr	r4, [ip, #16]
f00008ec:	e6ef4074 	uxtb	r4, r4
f00008f0:	e3540018 	cmp	r4, #24
f00008f4:	1a000049 	bne	f0000a20 <twi_byte_rw+0x1d4>
f00008f8:	e58c2008 	str	r2, [ip, #8]
f00008fc:	e30022ff 	movw	r2, #767	; 0x2ff
f0000900:	e59c400c 	ldr	r4, [ip, #12]
f0000904:	e20440f7 	and	r4, r4, #247	; 0xf7
f0000908:	e58c400c 	str	r4, [ip, #12]
f000090c:	ea000001 	b	f0000918 <twi_byte_rw+0xcc>
f0000910:	e2522001 	subs	r2, r2, #1
f0000914:	3a000004 	bcc	f000092c <twi_byte_rw+0xe0>
f0000918:	e59c400c 	ldr	r4, [ip, #12]
f000091c:	e3140008 	tst	r4, #8
f0000920:	0afffffa 	beq	f0000910 <twi_byte_rw+0xc4>
f0000924:	e3520000 	cmp	r2, #0
f0000928:	0a00003c 	beq	f0000a20 <twi_byte_rw+0x1d4>
f000092c:	e59c2010 	ldr	r2, [ip, #16]
f0000930:	e6ef2072 	uxtb	r2, r2
f0000934:	e3520028 	cmp	r2, #40	; 0x28
f0000938:	1a000038 	bne	f0000a20 <twi_byte_rw+0x1d4>
f000093c:	e3500001 	cmp	r0, #1
f0000940:	0a000057 	beq	f0000aa4 <twi_byte_rw+0x258>
f0000944:	e59c000c 	ldr	r0, [ip, #12]
f0000948:	e30022ff 	movw	r2, #767	; 0x2ff
f000094c:	e20000c0 	and	r0, r0, #192	; 0xc0
f0000950:	e3800020 	orr	r0, r0, #32
f0000954:	e58c000c 	str	r0, [ip, #12]
f0000958:	ea000001 	b	f0000964 <twi_byte_rw+0x118>
f000095c:	e2522001 	subs	r2, r2, #1
f0000960:	3a000004 	bcc	f0000978 <twi_byte_rw+0x12c>
f0000964:	e59c000c 	ldr	r0, [ip, #12]
f0000968:	e3100008 	tst	r0, #8
f000096c:	0afffffa 	beq	f000095c <twi_byte_rw+0x110>
f0000970:	e3520000 	cmp	r2, #0
f0000974:	0a000029 	beq	f0000a20 <twi_byte_rw+0x1d4>
f0000978:	e59c2010 	ldr	r2, [ip, #16]
f000097c:	e6ef2072 	uxtb	r2, r2
f0000980:	e3520010 	cmp	r2, #16
f0000984:	1a000025 	bne	f0000a20 <twi_byte_rw+0x1d4>
f0000988:	e3811001 	orr	r1, r1, #1
f000098c:	e30022ff 	movw	r2, #767	; 0x2ff
f0000990:	e58c1008 	str	r1, [ip, #8]
f0000994:	e59c100c 	ldr	r1, [ip, #12]
f0000998:	e20110f7 	and	r1, r1, #247	; 0xf7
f000099c:	e58c100c 	str	r1, [ip, #12]
f00009a0:	ea000001 	b	f00009ac <twi_byte_rw+0x160>
f00009a4:	e2522001 	subs	r2, r2, #1
f00009a8:	3a000004 	bcc	f00009c0 <twi_byte_rw+0x174>
f00009ac:	e59c100c 	ldr	r1, [ip, #12]
f00009b0:	e3110008 	tst	r1, #8
f00009b4:	0afffffa 	beq	f00009a4 <twi_byte_rw+0x158>
f00009b8:	e3520000 	cmp	r2, #0
f00009bc:	0a000017 	beq	f0000a20 <twi_byte_rw+0x1d4>
f00009c0:	e59c2010 	ldr	r2, [ip, #16]
f00009c4:	e6ef2072 	uxtb	r2, r2
f00009c8:	e3520040 	cmp	r2, #64	; 0x40
f00009cc:	1a000013 	bne	f0000a20 <twi_byte_rw+0x1d4>
f00009d0:	e59c100c 	ldr	r1, [ip, #12]
f00009d4:	e30022ff 	movw	r2, #767	; 0x2ff
f00009d8:	e20110f7 	and	r1, r1, #247	; 0xf7
f00009dc:	e58c100c 	str	r1, [ip, #12]
f00009e0:	ea000001 	b	f00009ec <twi_byte_rw+0x1a0>
f00009e4:	e2522001 	subs	r2, r2, #1
f00009e8:	3a000004 	bcc	f0000a00 <twi_byte_rw+0x1b4>
f00009ec:	e59c100c 	ldr	r1, [ip, #12]
f00009f0:	e3110008 	tst	r1, #8
f00009f4:	0afffffa 	beq	f00009e4 <twi_byte_rw+0x198>
f00009f8:	e3520000 	cmp	r2, #0
f00009fc:	0a000007 	beq	f0000a20 <twi_byte_rw+0x1d4>
f0000a00:	e59c2008 	ldr	r2, [ip, #8]
f0000a04:	e5c32000 	strb	r2, [r3]
f0000a08:	e59c3010 	ldr	r3, [ip, #16]
f0000a0c:	e6ef3073 	uxtb	r3, r3
f0000a10:	e3530058 	cmp	r3, #88	; 0x58
f0000a14:	03a00000 	moveq	r0, #0
f0000a18:	13e00000 	mvnne	r0, #0
f0000a1c:	ea000000 	b	f0000a24 <twi_byte_rw+0x1d8>
f0000a20:	e3e00000 	mvn	r0, #0
f0000a24:	e59c200c 	ldr	r2, [ip, #12]
f0000a28:	e30032ff 	movw	r3, #767	; 0x2ff
f0000a2c:	e20220c0 	and	r2, r2, #192	; 0xc0
f0000a30:	e3822010 	orr	r2, r2, #16
f0000a34:	e58c200c 	str	r2, [ip, #12]
f0000a38:	e59c200c 	ldr	r2, [ip, #12]
f0000a3c:	ea000001 	b	f0000a48 <twi_byte_rw+0x1fc>
f0000a40:	e2533001 	subs	r3, r3, #1
f0000a44:	3a00002a 	bcc	f0000af4 <twi_byte_rw+0x2a8>
f0000a48:	e59c200c 	ldr	r2, [ip, #12]
f0000a4c:	e3120010 	tst	r2, #16
f0000a50:	1afffffa 	bne	f0000a40 <twi_byte_rw+0x1f4>
f0000a54:	e3530000 	cmp	r3, #0
f0000a58:	130032ff 	movwne	r3, #767	; 0x2ff
f0000a5c:	1a000003 	bne	f0000a70 <twi_byte_rw+0x224>
f0000a60:	e8bd0030 	pop	{r4, r5}
f0000a64:	e12fff1e 	bx	lr
f0000a68:	e2533001 	subs	r3, r3, #1
f0000a6c:	3a000004 	bcc	f0000a84 <twi_byte_rw+0x238>
f0000a70:	e59c2010 	ldr	r2, [ip, #16]
f0000a74:	e35200f8 	cmp	r2, #248	; 0xf8
f0000a78:	1afffffa 	bne	f0000a68 <twi_byte_rw+0x21c>
f0000a7c:	e3530000 	cmp	r3, #0
f0000a80:	0afffff6 	beq	f0000a60 <twi_byte_rw+0x214>
f0000a84:	e3a03c03 	mov	r3, #768	; 0x300
f0000a88:	ea000001 	b	f0000a94 <twi_byte_rw+0x248>
f0000a8c:	e2533001 	subs	r3, r3, #1
f0000a90:	0afffff2 	beq	f0000a60 <twi_byte_rw+0x214>
f0000a94:	e59c2020 	ldr	r2, [ip, #32]
f0000a98:	e352003a 	cmp	r2, #58	; 0x3a
f0000a9c:	1afffffa 	bne	f0000a8c <twi_byte_rw+0x240>
f0000aa0:	eaffffee 	b	f0000a60 <twi_byte_rw+0x214>
f0000aa4:	e5d32000 	ldrb	r2, [r3]
f0000aa8:	e30032ff 	movw	r3, #767	; 0x2ff
f0000aac:	e58c2008 	str	r2, [ip, #8]
f0000ab0:	e59c200c 	ldr	r2, [ip, #12]
f0000ab4:	e20220f7 	and	r2, r2, #247	; 0xf7
f0000ab8:	e58c200c 	str	r2, [ip, #12]
f0000abc:	ea000001 	b	f0000ac8 <twi_byte_rw+0x27c>
f0000ac0:	e2533001 	subs	r3, r3, #1
f0000ac4:	3a000004 	bcc	f0000adc <twi_byte_rw+0x290>
f0000ac8:	e59c200c 	ldr	r2, [ip, #12]
f0000acc:	e3120008 	tst	r2, #8
f0000ad0:	0afffffa 	beq	f0000ac0 <twi_byte_rw+0x274>
f0000ad4:	e3530000 	cmp	r3, #0
f0000ad8:	0affffd0 	beq	f0000a20 <twi_byte_rw+0x1d4>
f0000adc:	e59c3010 	ldr	r3, [ip, #16]
f0000ae0:	e6ef3073 	uxtb	r3, r3
f0000ae4:	e3530028 	cmp	r3, #40	; 0x28
f0000ae8:	03a00000 	moveq	r0, #0
f0000aec:	13e00000 	mvnne	r0, #0
f0000af0:	eaffffcb 	b	f0000a24 <twi_byte_rw+0x1d8>
f0000af4:	e2833c03 	add	r3, r3, #768	; 0x300
f0000af8:	eaffffdc 	b	f0000a70 <twi_byte_rw+0x224>
f0000afc:	f0003a2c 			; <UNDEFINED> instruction: 0xf0003a2c

f0000b00 <standby_usb_init>:
f0000b00:	e3a00000 	mov	r0, #0
f0000b04:	e12fff1e 	bx	lr

f0000b08 <standby_usb_exit>:
f0000b08:	e3a00000 	mov	r0, #0
f0000b0c:	e12fff1e 	bx	lr

f0000b10 <standby_is_usb_status_change>:
f0000b10:	e3a00000 	mov	r0, #0
f0000b14:	e12fff1e 	bx	lr

f0000b18 <standby_query_usb_event>:
f0000b18:	e3e00000 	mvn	r0, #0
f0000b1c:	e12fff1e 	bx	lr

f0000b20 <busy_waiting>:
f0000b20:	e24dd008 	sub	sp, sp, #8
f0000b24:	e3a03001 	mov	r3, #1
f0000b28:	e58d3004 	str	r3, [sp, #4]
f0000b2c:	e59d3004 	ldr	r3, [sp, #4]
f0000b30:	e3530001 	cmp	r3, #1
f0000b34:	0afffffc 	beq	f0000b2c <busy_waiting+0xc>
f0000b38:	e28dd008 	add	sp, sp, #8
f0000b3c:	e12fff1e 	bx	lr

f0000b40 <save_mem_flag>:
f0000b40:	e12fff1e 	bx	lr

f0000b44 <clear_mem_flag>:
f0000b44:	e12fff1e 	bx	lr

f0000b48 <mem_status_init>:
f0000b48:	e30115f0 	movw	r1, #5616	; 0x15f0
f0000b4c:	e3033a38 	movw	r3, #14904	; 0x3a38
f0000b50:	e1a02001 	mov	r2, r1
f0000b54:	e34f3000 	movt	r3, #61440	; 0xf000
f0000b58:	e34f11f0 	movt	r1, #61936	; 0xf1f0
f0000b5c:	e34021f0 	movt	r2, #496	; 0x1f0
f0000b60:	e3a00001 	mov	r0, #1
f0000b64:	e8830006 	stm	r3, {r1, r2}
f0000b68:	ea000a66 	b	f0003508 <hwspinlock_init>

f0000b6c <mem_status_init_nommu>:
f0000b6c:	e30115f0 	movw	r1, #5616	; 0x15f0
f0000b70:	e3033a38 	movw	r3, #14904	; 0x3a38
f0000b74:	e1a02001 	mov	r2, r1
f0000b78:	e34f3000 	movt	r3, #61440	; 0xf000
f0000b7c:	e34f11f0 	movt	r1, #61936	; 0xf1f0
f0000b80:	e34021f0 	movt	r2, #496	; 0x1f0
f0000b84:	e3a00000 	mov	r0, #0
f0000b88:	e8830006 	stm	r3, {r1, r2}
f0000b8c:	ea000a5d 	b	f0003508 <hwspinlock_init>

f0000b90 <mem_status_clear>:
f0000b90:	e92d4010 	push	{r4, lr}
f0000b94:	e3a00002 	mov	r0, #2
f0000b98:	e59f4080 	ldr	r4, [pc, #128]	; f0000c20 <mem_status_clear+0x90>
f0000b9c:	e3041e20 	movw	r1, #20000	; 0x4e20
f0000ba0:	e5943000 	ldr	r3, [r4]
f0000ba4:	e5933000 	ldr	r3, [r3]
f0000ba8:	e5843008 	str	r3, [r4, #8]
f0000bac:	eb000a61 	bl	f0003538 <hwspin_lock_timeout>
f0000bb0:	e3500000 	cmp	r0, #0
f0000bb4:	18bd8010 	popne	{r4, pc}
f0000bb8:	e5942000 	ldr	r2, [r4]
f0000bbc:	e3a01001 	mov	r1, #1
f0000bc0:	e5943008 	ldr	r3, [r4, #8]
f0000bc4:	e281c001 	add	ip, r1, #1
f0000bc8:	e7d13811 	bfi	r3, r1, #16, #2
f0000bcc:	e21c1003 	ands	r1, ip, #3
f0000bd0:	e5843008 	str	r3, [r4, #8]
f0000bd4:	e5c40009 	strb	r0, [r4, #9]
f0000bd8:	e594c008 	ldr	ip, [r4, #8]
f0000bdc:	e1a0300c 	mov	r3, ip
f0000be0:	e582c000 	str	ip, [r2]
f0000be4:	e7df3f9f 	bfc	r3, #31, #1
f0000be8:	e5843008 	str	r3, [r4, #8]
f0000bec:	e5823000 	str	r3, [r2]
f0000bf0:	e5943008 	ldr	r3, [r4, #8]
f0000bf4:	e3833102 	orr	r3, r3, #-2147483648	; 0x80000000
f0000bf8:	e5843008 	str	r3, [r4, #8]
f0000bfc:	e5823000 	str	r3, [r2]
f0000c00:	e5943008 	ldr	r3, [r4, #8]
f0000c04:	e7df3f9f 	bfc	r3, #31, #1
f0000c08:	e5843008 	str	r3, [r4, #8]
f0000c0c:	e5823000 	str	r3, [r2]
f0000c10:	1affffea 	bne	f0000bc0 <mem_status_clear+0x30>
f0000c14:	e3a00002 	mov	r0, #2
f0000c18:	e8bd4010 	pop	{r4, lr}
f0000c1c:	ea000a64 	b	f00035b4 <hwspin_unlock>
f0000c20:	f0003a38 			; <UNDEFINED> instruction: 0xf0003a38

f0000c24 <mem_status_exit>:
f0000c24:	e12fff1e 	bx	lr

f0000c28 <save_mem_status>:
f0000c28:	e92d4010 	push	{r4, lr}
f0000c2c:	e24dd008 	sub	sp, sp, #8
f0000c30:	e58d0004 	str	r0, [sp, #4]
f0000c34:	e3041e20 	movw	r1, #20000	; 0x4e20
f0000c38:	e3a00002 	mov	r0, #2
f0000c3c:	eb000a3d 	bl	f0003538 <hwspin_lock_timeout>
f0000c40:	e2503000 	subs	r3, r0, #0
f0000c44:	1a000017 	bne	f0000ca8 <save_mem_status+0x80>
f0000c48:	e59f2068 	ldr	r2, [pc, #104]	; f0000cb8 <save_mem_status+0x90>
f0000c4c:	e3a04001 	mov	r4, #1
f0000c50:	e59de004 	ldr	lr, [sp, #4]
f0000c54:	e3a00002 	mov	r0, #2
f0000c58:	e592c008 	ldr	ip, [r2, #8]
f0000c5c:	e5921000 	ldr	r1, [r2]
f0000c60:	e7d1c814 	bfi	ip, r4, #16, #2
f0000c64:	e582c008 	str	ip, [r2, #8]
f0000c68:	e5c2e009 	strb	lr, [r2, #9]
f0000c6c:	e592e008 	ldr	lr, [r2, #8]
f0000c70:	e1a0c00e 	mov	ip, lr
f0000c74:	e581e000 	str	lr, [r1]
f0000c78:	e7dfcf93 	bfi	ip, r3, #31, #1
f0000c7c:	e582c008 	str	ip, [r2, #8]
f0000c80:	e581c000 	str	ip, [r1]
f0000c84:	e592c008 	ldr	ip, [r2, #8]
f0000c88:	e38cc102 	orr	ip, ip, #-2147483648	; 0x80000000
f0000c8c:	e582c008 	str	ip, [r2, #8]
f0000c90:	e581c000 	str	ip, [r1]
f0000c94:	e592c008 	ldr	ip, [r2, #8]
f0000c98:	e7dfcf93 	bfi	ip, r3, #31, #1
f0000c9c:	e582c008 	str	ip, [r2, #8]
f0000ca0:	e581c000 	str	ip, [r1]
f0000ca4:	eb000a42 	bl	f00035b4 <hwspin_unlock>
f0000ca8:	f57ff04f 	dsb	sy
f0000cac:	f57ff06f 	isb	sy
f0000cb0:	e28dd008 	add	sp, sp, #8
f0000cb4:	e8bd8010 	pop	{r4, pc}
f0000cb8:	f0003a38 			; <UNDEFINED> instruction: 0xf0003a38

f0000cbc <get_mem_status>:
f0000cbc:	e92d4010 	push	{r4, lr}
f0000cc0:	e3a02001 	mov	r2, #1
f0000cc4:	e59f4040 	ldr	r4, [pc, #64]	; f0000d0c <get_mem_status+0x50>
f0000cc8:	e3a00002 	mov	r0, #2
f0000ccc:	e3041e20 	movw	r1, #20000	; 0x4e20
f0000cd0:	e5943008 	ldr	r3, [r4, #8]
f0000cd4:	e7d13812 	bfi	r3, r2, #16, #2
f0000cd8:	e5843008 	str	r3, [r4, #8]
f0000cdc:	eb000a15 	bl	f0003538 <hwspin_lock_timeout>
f0000ce0:	e3500000 	cmp	r0, #0
f0000ce4:	1a000006 	bne	f0000d04 <get_mem_status+0x48>
f0000ce8:	e5943000 	ldr	r3, [r4]
f0000cec:	e3a00002 	mov	r0, #2
f0000cf0:	e5942008 	ldr	r2, [r4, #8]
f0000cf4:	e5832000 	str	r2, [r3]
f0000cf8:	e5933000 	ldr	r3, [r3]
f0000cfc:	e5843008 	str	r3, [r4, #8]
f0000d00:	eb000a2b 	bl	f00035b4 <hwspin_unlock>
f0000d04:	e5d40008 	ldrb	r0, [r4, #8]
f0000d08:	e8bd8010 	pop	{r4, pc}
f0000d0c:	f0003a38 			; <UNDEFINED> instruction: 0xf0003a38

f0000d10 <show_mem_status>:
f0000d10:	e92d4070 	push	{r4, r5, r6, lr}
f0000d14:	e3a04001 	mov	r4, #1
f0000d18:	e59f5060 	ldr	r5, [pc, #96]	; f0000d80 <show_mem_status+0x70>
f0000d1c:	e1a06005 	mov	r6, r5
f0000d20:	e5953008 	ldr	r3, [r5, #8]
f0000d24:	e3041e20 	movw	r1, #20000	; 0x4e20
f0000d28:	e3a00002 	mov	r0, #2
f0000d2c:	e7d13814 	bfi	r3, r4, #16, #2
f0000d30:	e5853008 	str	r3, [r5, #8]
f0000d34:	eb0009ff 	bl	f0003538 <hwspin_lock_timeout>
f0000d38:	e3500000 	cmp	r0, #0
f0000d3c:	0a000007 	beq	f0000d60 <show_mem_status+0x50>
f0000d40:	e1a01004 	mov	r1, r4
f0000d44:	e59f0038 	ldr	r0, [pc, #56]	; f0000d84 <show_mem_status+0x74>
f0000d48:	e5d52008 	ldrb	r2, [r5, #8]
f0000d4c:	e2844001 	add	r4, r4, #1
f0000d50:	eb000436 	bl	f0001e30 <printk>
f0000d54:	e3540004 	cmp	r4, #4
f0000d58:	1afffff0 	bne	f0000d20 <show_mem_status+0x10>
f0000d5c:	e8bd8070 	pop	{r4, r5, r6, pc}
f0000d60:	e5963000 	ldr	r3, [r6]
f0000d64:	e3a00002 	mov	r0, #2
f0000d68:	e5962008 	ldr	r2, [r6, #8]
f0000d6c:	e5832000 	str	r2, [r3]
f0000d70:	e5933000 	ldr	r3, [r3]
f0000d74:	e5863008 	str	r3, [r6, #8]
f0000d78:	eb000a0d 	bl	f00035b4 <hwspin_unlock>
f0000d7c:	eaffffef 	b	f0000d40 <show_mem_status+0x30>
f0000d80:	f0003a38 			; <UNDEFINED> instruction: 0xf0003a38
f0000d84:	f00038ac 			; <UNDEFINED> instruction: 0xf00038ac

f0000d88 <save_mem_status_nommu>:
f0000d88:	e92d4030 	push	{r4, r5, lr}
f0000d8c:	e24dd00c 	sub	sp, sp, #12
f0000d90:	e58d0004 	str	r0, [sp, #4]
f0000d94:	e3041e20 	movw	r1, #20000	; 0x4e20
f0000d98:	e3a00002 	mov	r0, #2
f0000d9c:	eb000a10 	bl	f00035e4 <hwspin_lock_timeout_nommu>
f0000da0:	e250c000 	subs	ip, r0, #0
f0000da4:	0a000001 	beq	f0000db0 <save_mem_status_nommu+0x28>
f0000da8:	e28dd00c 	add	sp, sp, #12
f0000dac:	e8bd8030 	pop	{r4, r5, pc}
f0000db0:	e59f3060 	ldr	r3, [pc, #96]	; f0000e18 <save_mem_status_nommu+0x90>
f0000db4:	e3a05001 	mov	r5, #1
f0000db8:	e59d4004 	ldr	r4, [sp, #4]
f0000dbc:	e3a00002 	mov	r0, #2
f0000dc0:	e593100c 	ldr	r1, [r3, #12]
f0000dc4:	e5932004 	ldr	r2, [r3, #4]
f0000dc8:	e7d11815 	bfi	r1, r5, #16, #2
f0000dcc:	e583100c 	str	r1, [r3, #12]
f0000dd0:	e5c3400d 	strb	r4, [r3, #13]
f0000dd4:	e593400c 	ldr	r4, [r3, #12]
f0000dd8:	e1a01004 	mov	r1, r4
f0000ddc:	e5824000 	str	r4, [r2]
f0000de0:	e7df1f9c 	bfi	r1, ip, #31, #1
f0000de4:	e583100c 	str	r1, [r3, #12]
f0000de8:	e5821000 	str	r1, [r2]
f0000dec:	e593100c 	ldr	r1, [r3, #12]
f0000df0:	e3811102 	orr	r1, r1, #-2147483648	; 0x80000000
f0000df4:	e583100c 	str	r1, [r3, #12]
f0000df8:	e5821000 	str	r1, [r2]
f0000dfc:	e593100c 	ldr	r1, [r3, #12]
f0000e00:	e7df1f9c 	bfi	r1, ip, #31, #1
f0000e04:	e583100c 	str	r1, [r3, #12]
f0000e08:	e5821000 	str	r1, [r2]
f0000e0c:	e28dd00c 	add	sp, sp, #12
f0000e10:	e8bd4030 	pop	{r4, r5, lr}
f0000e14:	ea000a0d 	b	f0003650 <hwspin_unlock_nommu>
f0000e18:	f0003a38 			; <UNDEFINED> instruction: 0xf0003a38

f0000e1c <io_init>:
f0000e1c:	e3a03000 	mov	r3, #0
f0000e20:	e3012111 	movw	r2, #4369	; 0x1111
f0000e24:	e34f31c2 	movt	r3, #61890	; 0xf1c2
f0000e28:	e3402011 	movt	r2, #17
f0000e2c:	e5832890 	str	r2, [r3, #2192]	; 0x890
f0000e30:	e12fff1e 	bx	lr

f0000e34 <io_init_high>:
f0000e34:	e3a03000 	mov	r3, #0
f0000e38:	e34f31c2 	movt	r3, #61890	; 0xf1c2
f0000e3c:	e59328a0 	ldr	r2, [r3, #2208]	; 0x8a0
f0000e40:	e382203f 	orr	r2, r2, #63	; 0x3f
f0000e44:	e58328a0 	str	r2, [r3, #2208]	; 0x8a0
f0000e48:	e12fff1e 	bx	lr

f0000e4c <io_init_low>:
f0000e4c:	e3a03000 	mov	r3, #0
f0000e50:	e34f31c2 	movt	r3, #61890	; 0xf1c2
f0000e54:	e59328a0 	ldr	r2, [r3, #2208]	; 0x8a0
f0000e58:	e3c2203f 	bic	r2, r2, #63	; 0x3f
f0000e5c:	e58328a0 	str	r2, [r3, #2208]	; 0x8a0
f0000e60:	e12fff1e 	bx	lr

f0000e64 <io_high>:
f0000e64:	e92d4070 	push	{r4, r5, r6, lr}
f0000e68:	e3a04000 	mov	r4, #0
f0000e6c:	e34f41c2 	movt	r4, #61890	; 0xf1c2
f0000e70:	e3a05001 	mov	r5, #1
f0000e74:	e1a05015 	lsl	r5, r5, r0
f0000e78:	e3020710 	movw	r0, #10000	; 0x2710
f0000e7c:	e59468a0 	ldr	r6, [r4, #2208]	; 0x8a0
f0000e80:	e1c66005 	bic	r6, r6, r5
f0000e84:	e58468a0 	str	r6, [r4, #2208]	; 0x8a0
f0000e88:	e1865005 	orr	r5, r6, r5
f0000e8c:	eb000031 	bl	f0000f58 <delay_us>
f0000e90:	e58458a0 	str	r5, [r4, #2208]	; 0x8a0
f0000e94:	e8bd8070 	pop	{r4, r5, r6, pc}

f0000e98 <init_perfcounters>:
f0000e98:	e3500000 	cmp	r0, #0
f0000e9c:	13a00007 	movne	r0, #7
f0000ea0:	03a00001 	moveq	r0, #1
f0000ea4:	e3510000 	cmp	r1, #0
f0000ea8:	13800008 	orrne	r0, r0, #8
f0000eac:	e3800010 	orr	r0, r0, #16
f0000eb0:	ee090f1c 	mcr	15, 0, r0, cr9, cr12, {0}
f0000eb4:	e3a0313e 	mov	r3, #-2147483633	; 0x8000000f
f0000eb8:	ee093f3c 	mcr	15, 0, r3, cr9, cr12, {1}
f0000ebc:	ee093f7c 	mcr	15, 0, r3, cr9, cr12, {3}
f0000ec0:	f57ff04f 	dsb	sy
f0000ec4:	f57ff06f 	isb	sy
f0000ec8:	e12fff1e 	bx	lr

f0000ecc <backup_perfcounter>:
f0000ecc:	ee192f1c 	mrc	15, 0, r2, cr9, cr12, {0}
f0000ed0:	e3033a4c 	movw	r3, #14924	; 0x3a4c
f0000ed4:	e34f3000 	movt	r3, #61440	; 0xf000
f0000ed8:	e5832000 	str	r2, [r3]
f0000edc:	ee192f3c 	mrc	15, 0, r2, cr9, cr12, {1}
f0000ee0:	e5832004 	str	r2, [r3, #4]
f0000ee4:	e12fff1e 	bx	lr

f0000ee8 <restore_perfcounter>:
f0000ee8:	e3033a4c 	movw	r3, #14924	; 0x3a4c
f0000eec:	e34f3000 	movt	r3, #61440	; 0xf000
f0000ef0:	e5933000 	ldr	r3, [r3]
f0000ef4:	ee093f1c 	mcr	15, 0, r3, cr9, cr12, {0}
f0000ef8:	e3033a4c 	movw	r3, #14924	; 0x3a4c
f0000efc:	e34f3000 	movt	r3, #61440	; 0xf000
f0000f00:	e5933004 	ldr	r3, [r3, #4]
f0000f04:	ee093f3c 	mcr	15, 0, r3, cr9, cr12, {1}
f0000f08:	e12fff1e 	bx	lr

f0000f0c <get_cyclecount>:
f0000f0c:	ee190f1d 	mrc	15, 0, r0, cr9, cr13, {0}
f0000f10:	e12fff1e 	bx	lr

f0000f14 <reset_counter>:
f0000f14:	ee193f1c 	mrc	15, 0, r3, cr9, cr12, {0}
f0000f18:	e3833004 	orr	r3, r3, #4
f0000f1c:	ee093f1c 	mcr	15, 0, r3, cr9, cr12, {0}
f0000f20:	e12fff1e 	bx	lr

f0000f24 <change_runtime_env>:
f0000f24:	e92d4010 	push	{r4, lr}
f0000f28:	ee192f1d 	mrc	15, 0, r2, cr9, cr13, {0}
f0000f2c:	ee193f1d 	mrc	15, 0, r3, cr9, cr13, {0}
f0000f30:	e59f401c 	ldr	r4, [pc, #28]	; f0000f54 <change_runtime_env+0x30>
f0000f34:	e1520003 	cmp	r2, r3
f0000f38:	81e02002 	mvnhi	r2, r2
f0000f3c:	90623003 	rsbls	r3, r2, r3
f0000f40:	80823003 	addhi	r3, r2, r3
f0000f44:	e5843008 	str	r3, [r4, #8]
f0000f48:	eb00079e 	bl	f0002dc8 <mem_clk_get_cpu_freq>
f0000f4c:	e584000c 	str	r0, [r4, #12]
f0000f50:	e8bd8010 	pop	{r4, pc}
f0000f54:	f0003a4c 			; <UNDEFINED> instruction: 0xf0003a4c

f0000f58 <delay_us>:
f0000f58:	e92d4038 	push	{r3, r4, r5, lr}
f0000f5c:	e1a05000 	mov	r5, r0
f0000f60:	e59f4074 	ldr	r4, [pc, #116]	; f0000fdc <delay_us+0x84>
f0000f64:	e594000c 	ldr	r0, [r4, #12]
f0000f68:	e3500ffa 	cmp	r0, #1000	; 0x3e8
f0000f6c:	8a000002 	bhi	f0000f7c <delay_us+0x24>
f0000f70:	f57ff05f 	dmb	sy
f0000f74:	f57ff06f 	isb	sy
f0000f78:	e8bd8038 	pop	{r3, r4, r5, pc}
f0000f7c:	e3a01ffa 	mov	r1, #1000	; 0x3e8
f0000f80:	eb00058c 	bl	f00025b8 <raw_lib_udiv>
f0000f84:	ee193f1d 	mrc	15, 0, r3, cr9, cr13, {0}
f0000f88:	e5942008 	ldr	r2, [r4, #8]
f0000f8c:	e0255590 	mla	r5, r0, r5, r5
f0000f90:	e0622003 	rsb	r2, r2, r3
f0000f94:	e0825005 	add	r5, r2, r5
f0000f98:	ee192f3c 	mrc	15, 0, r2, cr9, cr12, {1}
f0000f9c:	e202213e 	and	r2, r2, #-2147483633	; 0x8000000f
f0000fa0:	e352013e 	cmp	r2, #-2147483633	; 0x8000000f
f0000fa4:	0a000008 	beq	f0000fcc <delay_us+0x74>
f0000fa8:	e3a02017 	mov	r2, #23
f0000fac:	ee092f1c 	mcr	15, 0, r2, cr9, cr12, {0}
f0000fb0:	e3a0213e 	mov	r2, #-2147483633	; 0x8000000f
f0000fb4:	ee092f3c 	mcr	15, 0, r2, cr9, cr12, {1}
f0000fb8:	ee092f7c 	mcr	15, 0, r2, cr9, cr12, {3}
f0000fbc:	f57ff04f 	dsb	sy
f0000fc0:	f57ff06f 	isb	sy
f0000fc4:	ea000000 	b	f0000fcc <delay_us+0x74>
f0000fc8:	ee193f1d 	mrc	15, 0, r3, cr9, cr13, {0}
f0000fcc:	e0653003 	rsb	r3, r5, r3
f0000fd0:	e3530000 	cmp	r3, #0
f0000fd4:	bafffffb 	blt	f0000fc8 <delay_us+0x70>
f0000fd8:	eaffffe4 	b	f0000f70 <delay_us+0x18>
f0000fdc:	f0003a4c 			; <UNDEFINED> instruction: 0xf0003a4c

f0000fe0 <delay_ms>:
f0000fe0:	e350000a 	cmp	r0, #10
f0000fe4:	e92d4010 	push	{r4, lr}
f0000fe8:	e1a04000 	mov	r4, r0
f0000fec:	9a000004 	bls	f0001004 <delay_ms+0x24>
f0000ff0:	e3020710 	movw	r0, #10000	; 0x2710
f0000ff4:	e244400a 	sub	r4, r4, #10
f0000ff8:	ebffffd6 	bl	f0000f58 <delay_us>
f0000ffc:	e354000a 	cmp	r4, #10
f0001000:	8afffffa 	bhi	f0000ff0 <delay_ms+0x10>
f0001004:	e3a00ffa 	mov	r0, #1000	; 0x3e8
f0001008:	e0000490 	mul	r0, r0, r4
f000100c:	e8bd4010 	pop	{r4, lr}
f0001010:	eaffffd0 	b	f0000f58 <delay_us>

f0001014 <init_event_counter>:
f0001014:	e3500000 	cmp	r0, #0
f0001018:	13a00007 	movne	r0, #7
f000101c:	03a00001 	moveq	r0, #1
f0001020:	e3510000 	cmp	r1, #0
f0001024:	13800008 	orrne	r0, r0, #8
f0001028:	e3800010 	orr	r0, r0, #16
f000102c:	ee090f1c 	mcr	15, 0, r0, cr9, cr12, {0}
f0001030:	e3a0313e 	mov	r3, #-2147483633	; 0x8000000f
f0001034:	ee093f3c 	mcr	15, 0, r3, cr9, cr12, {1}
f0001038:	ee093f7c 	mcr	15, 0, r3, cr9, cr12, {3}
f000103c:	e12fff1e 	bx	lr

f0001040 <set_event_counter>:
f0001040:	e2403002 	sub	r3, r0, #2
f0001044:	e3530003 	cmp	r3, #3
f0001048:	959f2018 	ldrls	r2, [pc, #24]	; f0001068 <set_event_counter+0x28>
f000104c:	83a03000 	movhi	r3, #0
f0001050:	97923103 	ldrls	r3, [r2, r3, lsl #2]
f0001054:	ee093fbc 	mcr	15, 0, r3, cr9, cr12, {5}
f0001058:	ee090f3d 	mcr	15, 0, r0, cr9, cr13, {1}
f000105c:	f57ff04f 	dsb	sy
f0001060:	f57ff06f 	isb	sy
f0001064:	e12fff1e 	bx	lr
f0001068:	f00036cc 			; <UNDEFINED> instruction: 0xf00036cc

f000106c <get_event_counter>:
f000106c:	e2400002 	sub	r0, r0, #2
f0001070:	e3500003 	cmp	r0, #3
f0001074:	959f3018 	ldrls	r3, [pc, #24]	; f0001094 <get_event_counter+0x28>
f0001078:	83a03000 	movhi	r3, #0
f000107c:	97933100 	ldrls	r3, [r3, r0, lsl #2]
f0001080:	ee093fbc 	mcr	15, 0, r3, cr9, cr12, {5}
f0001084:	ee190f5d 	mrc	15, 0, r0, cr9, cr13, {2}
f0001088:	f57ff04f 	dsb	sy
f000108c:	f57ff06f 	isb	sy
f0001090:	e12fff1e 	bx	lr
f0001094:	f00036cc 			; <UNDEFINED> instruction: 0xf00036cc
	...

f00010a0 <save_mmu_state>:
f00010a0:	ee503f10 	mrc	15, 2, r3, cr0, cr0, {0}
f00010a4:	e5803000 	str	r3, [r0]
f00010a8:	ee113f50 	mrc	15, 0, r3, cr1, cr0, {2}
f00010ac:	e5803008 	str	r3, [r0, #8]
f00010b0:	ee133f10 	mrc	15, 0, r3, cr3, cr0, {0}
f00010b4:	e5803018 	str	r3, [r0, #24]
f00010b8:	ee123f10 	mrc	15, 0, r3, cr2, cr0, {0}
f00010bc:	e580300c 	str	r3, [r0, #12]
f00010c0:	ee123f30 	mrc	15, 0, r3, cr2, cr0, {1}
f00010c4:	e5803010 	str	r3, [r0, #16]
f00010c8:	ee123f50 	mrc	15, 0, r3, cr2, cr0, {2}
f00010cc:	e5803014 	str	r3, [r0, #20]
f00010d0:	ee113f10 	mrc	15, 0, r3, cr1, cr0, {0}
f00010d4:	e5803004 	str	r3, [r0, #4]
f00010d8:	e12fff1e 	bx	lr

f00010dc <restore_mmu_state>:
f00010dc:	e5903000 	ldr	r3, [r0]
f00010e0:	ee403f10 	mcr	15, 2, r3, cr0, cr0, {0}
f00010e4:	e5903008 	ldr	r3, [r0, #8]
f00010e8:	ee013f50 	mcr	15, 0, r3, cr1, cr0, {2}
f00010ec:	e5903018 	ldr	r3, [r0, #24]
f00010f0:	ee033f10 	mcr	15, 0, r3, cr3, cr0, {0}
f00010f4:	e5903010 	ldr	r3, [r0, #16]
f00010f8:	ee023f10 	mcr	15, 0, r3, cr2, cr0, {0}
f00010fc:	ee023f30 	mcr	15, 0, r3, cr2, cr0, {1}
f0001100:	e5903014 	ldr	r3, [r0, #20]
f0001104:	ee023f50 	mcr	15, 0, r3, cr2, cr0, {2}
f0001108:	ea000004 	b	f0001120 <__turn_mmu_on>
f000110c:	e320f000 	nop	{0}
f0001110:	e320f000 	nop	{0}
f0001114:	e320f000 	nop	{0}
f0001118:	e320f000 	nop	{0}
f000111c:	e320f000 	nop	{0}

f0001120 <__turn_mmu_on>:
f0001120:	e1a00000 	nop			; (mov r0, r0)
f0001124:	e5903004 	ldr	r3, [r0, #4]
f0001128:	ee013f10 	mcr	15, 0, r3, cr1, cr0, {0}
f000112c:	ee103f10 	mrc	15, 0, r3, cr0, cr0, {0}
f0001130:	e1a03003 	mov	r3, r3
f0001134:	e1a03003 	mov	r3, r3
f0001138:	f57ff06f 	isb	sy
f000113c:	e12fff1e 	bx	lr

f0001140 <save_sp>:
f0001140:	e1a0000d 	mov	r0, sp
f0001144:	e59fd4bc 	ldr	sp, [pc, #1212]	; f0001608 <jump_to_resume0_nommu+0x28>
f0001148:	e1a0f00e 	mov	pc, lr

f000114c <save_sp_nommu>:
f000114c:	e1a0000d 	mov	r0, sp
f0001150:	e59fd4b4 	ldr	sp, [pc, #1204]	; f000160c <jump_to_resume0_nommu+0x2c>
f0001154:	e1a0f00e 	mov	pc, lr

f0001158 <restore_sp>:
f0001158:	e1a0d000 	mov	sp, r0
f000115c:	e1a0f00e 	mov	pc, lr

f0001160 <get_sp>:
f0001160:	e1a0000d 	mov	r0, sp
f0001164:	e1a0f00e 	mov	pc, lr
f0001168:	e320f000 	nop	{0}
f000116c:	e320f000 	nop	{0}

f0001170 <get_cur_cluster_id>:
f0001170:	ee100fb0 	mrc	15, 0, r0, cr0, cr0, {5}
f0001174:	e7e30450 	ubfx	r0, r0, #8, #4
f0001178:	e1a0f00e 	mov	pc, lr
f000117c:	e320f000 	nop	{0}

f0001180 <invalidate_dcache>:
f0001180:	f57ff05f 	dmb	sy
f0001184:	ee300f30 	mrc	15, 1, r0, cr0, cr0, {1}
f0001188:	e2103407 	ands	r3, r0, #117440512	; 0x7000000
f000118c:	e1a03ba3 	lsr	r3, r3, #23
f0001190:	0a00001a 	beq	f0001200 <inv_finished>
f0001194:	e3a0a000 	mov	sl, #0

f0001198 <inv_loop1>:
f0001198:	e08a20aa 	add	r2, sl, sl, lsr #1
f000119c:	e1a01230 	lsr	r1, r0, r2
f00011a0:	e2011007 	and	r1, r1, #7
f00011a4:	e3510002 	cmp	r1, #2
f00011a8:	ba000011 	blt	f00011f4 <inv_skip>
f00011ac:	ee40af10 	mcr	15, 2, sl, cr0, cr0, {0}
f00011b0:	f57ff06f 	isb	sy
f00011b4:	ee301f10 	mrc	15, 1, r1, cr0, cr0, {0}
f00011b8:	e2012007 	and	r2, r1, #7
f00011bc:	e2822004 	add	r2, r2, #4
f00011c0:	e59f4448 	ldr	r4, [pc, #1096]	; f0001610 <jump_to_resume0_nommu+0x30>
f00011c4:	e01441a1 	ands	r4, r4, r1, lsr #3
f00011c8:	e16f5f14 	clz	r5, r4
f00011cc:	e59f7440 	ldr	r7, [pc, #1088]	; f0001614 <jump_to_resume0_nommu+0x34>
f00011d0:	e01776a1 	ands	r7, r7, r1, lsr #13

f00011d4 <inv_loop2>:
f00011d4:	e1a09004 	mov	r9, r4

f00011d8 <inv_loop3>:
f00011d8:	e18ab519 	orr	fp, sl, r9, lsl r5
f00011dc:	e18bb217 	orr	fp, fp, r7, lsl r2
f00011e0:	ee07bf56 	mcr	15, 0, fp, cr7, cr6, {2}
f00011e4:	e2599001 	subs	r9, r9, #1
f00011e8:	aafffffa 	bge	f00011d8 <inv_loop3>
f00011ec:	e2577001 	subs	r7, r7, #1
f00011f0:	aafffff7 	bge	f00011d4 <inv_loop2>

f00011f4 <inv_skip>:
f00011f4:	e28aa002 	add	sl, sl, #2
f00011f8:	e153000a 	cmp	r3, sl
f00011fc:	caffffe5 	bgt	f0001198 <inv_loop1>

f0001200 <inv_finished>:
f0001200:	e3a0a000 	mov	sl, #0
f0001204:	ee40af10 	mcr	15, 2, sl, cr0, cr0, {0}
f0001208:	f57ff04f 	dsb	sy
f000120c:	f57ff06f 	isb	sy
f0001210:	e1a0f00e 	mov	pc, lr

f0001214 <invalidate_icache>:
f0001214:	e3a00000 	mov	r0, #0
f0001218:	ee070f11 	mcr	15, 0, r0, cr7, cr1, {0}
f000121c:	ee070f15 	mcr	15, 0, r0, cr7, cr5, {0}
f0001220:	f57ff04f 	dsb	sy
f0001224:	f57ff06f 	isb	sy
f0001228:	e1a0f00e 	mov	pc, lr

f000122c <flush_dcache>:
f000122c:	e92d1fff 	push	{r0, r1, r2, r3, r4, r5, r6, r7, r8, r9, sl, fp, ip}
f0001230:	f57ff05f 	dmb	sy
f0001234:	ee300f30 	mrc	15, 1, r0, cr0, cr0, {1}
f0001238:	e2103407 	ands	r3, r0, #117440512	; 0x7000000
f000123c:	e1a03ba3 	lsr	r3, r3, #23
f0001240:	0a00001a 	beq	f00012b0 <finished>
f0001244:	e3a0a000 	mov	sl, #0

f0001248 <loop1>:
f0001248:	e08a20aa 	add	r2, sl, sl, lsr #1
f000124c:	e1a01230 	lsr	r1, r0, r2
f0001250:	e2011007 	and	r1, r1, #7
f0001254:	e3510002 	cmp	r1, #2
f0001258:	ba000011 	blt	f00012a4 <skip>
f000125c:	ee40af10 	mcr	15, 2, sl, cr0, cr0, {0}
f0001260:	f57ff06f 	isb	sy
f0001264:	ee301f10 	mrc	15, 1, r1, cr0, cr0, {0}
f0001268:	e2012007 	and	r2, r1, #7
f000126c:	e2822004 	add	r2, r2, #4
f0001270:	e59f4398 	ldr	r4, [pc, #920]	; f0001610 <jump_to_resume0_nommu+0x30>
f0001274:	e01441a1 	ands	r4, r4, r1, lsr #3
f0001278:	e16f5f14 	clz	r5, r4
f000127c:	e59f7390 	ldr	r7, [pc, #912]	; f0001614 <jump_to_resume0_nommu+0x34>
f0001280:	e01776a1 	ands	r7, r7, r1, lsr #13

f0001284 <loop2>:
f0001284:	e1a09004 	mov	r9, r4

f0001288 <loop3>:
f0001288:	e18ab519 	orr	fp, sl, r9, lsl r5
f000128c:	e18bb217 	orr	fp, fp, r7, lsl r2
f0001290:	ee07bf5e 	mcr	15, 0, fp, cr7, cr14, {2}
f0001294:	e2599001 	subs	r9, r9, #1
f0001298:	aafffffa 	bge	f0001288 <loop3>
f000129c:	e2577001 	subs	r7, r7, #1
f00012a0:	aafffff7 	bge	f0001284 <loop2>

f00012a4 <skip>:
f00012a4:	e28aa002 	add	sl, sl, #2
f00012a8:	e153000a 	cmp	r3, sl
f00012ac:	caffffe5 	bgt	f0001248 <loop1>

f00012b0 <finished>:
f00012b0:	e3a0a000 	mov	sl, #0
f00012b4:	ee40af10 	mcr	15, 2, sl, cr0, cr0, {0}
f00012b8:	f57ff04f 	dsb	sy
f00012bc:	f57ff06f 	isb	sy
f00012c0:	e8bd1fff 	pop	{r0, r1, r2, r3, r4, r5, r6, r7, r8, r9, sl, fp, ip}
f00012c4:	e1a0f00e 	mov	pc, lr

f00012c8 <flush_icache>:
f00012c8:	e92d000f 	push	{r0, r1, r2, r3}
f00012cc:	e3a00000 	mov	r0, #0
f00012d0:	ee070f15 	mcr	15, 0, r0, cr7, cr5, {0}
f00012d4:	ee070f11 	mcr	15, 0, r0, cr7, cr1, {0}
f00012d8:	ee070fd1 	mcr	15, 0, r0, cr7, cr1, {6}
f00012dc:	f57ff06f 	isb	sy
f00012e0:	f57ff04f 	dsb	sy
f00012e4:	e8bd000f 	pop	{r0, r1, r2, r3}
f00012e8:	e1a0f00e 	mov	pc, lr

f00012ec <disable_cache>:
f00012ec:	e92d000f 	push	{r0, r1, r2, r3}
f00012f0:	ee110f10 	mrc	15, 0, r0, cr1, cr0, {0}
f00012f4:	e3c00a01 	bic	r0, r0, #4096	; 0x1000
f00012f8:	e3c00004 	bic	r0, r0, #4
f00012fc:	ee010f10 	mcr	15, 0, r0, cr1, cr0, {0}
f0001300:	f57ff06f 	isb	sy
f0001304:	e8bd000f 	pop	{r0, r1, r2, r3}
f0001308:	e1a0f00e 	mov	pc, lr

f000130c <disable_dcache>:
f000130c:	e92d000f 	push	{r0, r1, r2, r3}
f0001310:	ee110f10 	mrc	15, 0, r0, cr1, cr0, {0}
f0001314:	e3c00004 	bic	r0, r0, #4
f0001318:	ee010f10 	mcr	15, 0, r0, cr1, cr0, {0}
f000131c:	f57ff06f 	isb	sy
f0001320:	e8bd000f 	pop	{r0, r1, r2, r3}
f0001324:	e1a0f00e 	mov	pc, lr

f0001328 <disable_icache>:
f0001328:	e92d000f 	push	{r0, r1, r2, r3}
f000132c:	ee110f10 	mrc	15, 0, r0, cr1, cr0, {0}
f0001330:	e3c00a01 	bic	r0, r0, #4096	; 0x1000
f0001334:	ee010f10 	mcr	15, 0, r0, cr1, cr0, {0}
f0001338:	f57ff06f 	isb	sy
f000133c:	e8bd000f 	pop	{r0, r1, r2, r3}
f0001340:	e1a0f00e 	mov	pc, lr

f0001344 <disable_l2cache>:
f0001344:	e92d000f 	push	{r0, r1, r2, r3}
f0001348:	ee110f30 	mrc	15, 0, r0, cr1, cr0, {1}
f000134c:	e3c00002 	bic	r0, r0, #2
f0001350:	ee010f30 	mcr	15, 0, r0, cr1, cr0, {1}
f0001354:	f57ff06f 	isb	sy
f0001358:	e8bd000f 	pop	{r0, r1, r2, r3}
f000135c:	e1a0f00e 	mov	pc, lr

f0001360 <enable_cache>:
f0001360:	e92d000f 	push	{r0, r1, r2, r3}
f0001364:	ee110f10 	mrc	15, 0, r0, cr1, cr0, {0}
f0001368:	e3800a01 	orr	r0, r0, #4096	; 0x1000
f000136c:	e3800004 	orr	r0, r0, #4
f0001370:	ee010f10 	mcr	15, 0, r0, cr1, cr0, {0}
f0001374:	f57ff06f 	isb	sy
f0001378:	e8bd000f 	pop	{r0, r1, r2, r3}
f000137c:	e1a0f00e 	mov	pc, lr

f0001380 <enable_icache>:
f0001380:	e92d000f 	push	{r0, r1, r2, r3}
f0001384:	ee110f10 	mrc	15, 0, r0, cr1, cr0, {0}
f0001388:	e3800a01 	orr	r0, r0, #4096	; 0x1000
f000138c:	ee010f10 	mcr	15, 0, r0, cr1, cr0, {0}
f0001390:	f57ff06f 	isb	sy
f0001394:	e8bd000f 	pop	{r0, r1, r2, r3}
f0001398:	e1a0f00e 	mov	pc, lr

f000139c <invalidate_branch_predictor>:
f000139c:	e92d000f 	push	{r0, r1, r2, r3}
f00013a0:	e3a00000 	mov	r0, #0
f00013a4:	ee070fd5 	mcr	15, 0, r0, cr7, cr5, {6}
f00013a8:	f57ff06f 	isb	sy
f00013ac:	e8bd000f 	pop	{r0, r1, r2, r3}
f00013b0:	e1a0f00e 	mov	pc, lr

f00013b4 <disable_program_flow_prediction>:
f00013b4:	e92d000f 	push	{r0, r1, r2, r3}
f00013b8:	ee110f10 	mrc	15, 0, r0, cr1, cr0, {0}
f00013bc:	e3c00b02 	bic	r0, r0, #2048	; 0x800
f00013c0:	ee010f10 	mcr	15, 0, r0, cr1, cr0, {0}
f00013c4:	f57ff06f 	isb	sy
f00013c8:	e8bd000f 	pop	{r0, r1, r2, r3}
f00013cc:	e1a0f00e 	mov	pc, lr

f00013d0 <enable_program_flow_prediction>:
f00013d0:	e92d000f 	push	{r0, r1, r2, r3}
f00013d4:	ee110f10 	mrc	15, 0, r0, cr1, cr0, {0}
f00013d8:	e3800b02 	orr	r0, r0, #2048	; 0x800
f00013dc:	ee010f10 	mcr	15, 0, r0, cr1, cr0, {0}
f00013e0:	f57ff06f 	isb	sy
f00013e4:	e8bd000f 	pop	{r0, r1, r2, r3}
f00013e8:	e1a0f00e 	mov	pc, lr

f00013ec <mem_flush_tlb>:
f00013ec:	e92d000f 	push	{r0, r1, r2, r3}
f00013f0:	e3a00000 	mov	r0, #0
f00013f4:	ee080f15 	mcr	15, 0, r0, cr8, cr5, {0}
f00013f8:	ee080f16 	mcr	15, 0, r0, cr8, cr6, {0}
f00013fc:	ee080f13 	mcr	15, 0, r0, cr8, cr3, {0}
f0001400:	f57ff04f 	dsb	sy
f0001404:	f57ff06f 	isb	sy
f0001408:	e8bd000f 	pop	{r0, r1, r2, r3}
f000140c:	e1a0f00e 	mov	pc, lr

f0001410 <mem_preload_tlb>:
f0001410:	e92d000f 	push	{r0, r1, r2, r3}
f0001414:	e3a0020f 	mov	r0, #-268435456	; 0xf0000000
f0001418:	e5901000 	ldr	r1, [r0]
f000141c:	e59f01f4 	ldr	r0, [pc, #500]	; f0001618 <jump_to_resume0_nommu+0x38>
f0001420:	e5901000 	ldr	r1, [r0]
f0001424:	e59f01f0 	ldr	r0, [pc, #496]	; f000161c <jump_to_resume0_nommu+0x3c>
f0001428:	e5901000 	ldr	r1, [r0]
f000142c:	e59f01ec 	ldr	r0, [pc, #492]	; f0001620 <jump_to_resume0_nommu+0x40>
f0001430:	e5901000 	ldr	r1, [r0]
f0001434:	e59f01e8 	ldr	r0, [pc, #488]	; f0001624 <jump_to_resume0_nommu+0x44>
f0001438:	e5901000 	ldr	r1, [r0]
f000143c:	e59f01e4 	ldr	r0, [pc, #484]	; f0001628 <jump_to_resume0_nommu+0x48>
f0001440:	e5901000 	ldr	r1, [r0]
f0001444:	e59f01e0 	ldr	r0, [pc, #480]	; f000162c <jump_to_resume0_nommu+0x4c>
f0001448:	e5901000 	ldr	r1, [r0]
f000144c:	e59f01dc 	ldr	r0, [pc, #476]	; f0001630 <jump_to_resume0_nommu+0x50>
f0001450:	e5901000 	ldr	r1, [r0]
f0001454:	e59f01d8 	ldr	r0, [pc, #472]	; f0001634 <jump_to_resume0_nommu+0x54>
f0001458:	e5901000 	ldr	r1, [r0]
f000145c:	e59f01d4 	ldr	r0, [pc, #468]	; f0001638 <jump_to_resume0_nommu+0x58>
f0001460:	e5901000 	ldr	r1, [r0]
f0001464:	e59f01d0 	ldr	r0, [pc, #464]	; f000163c <jump_to_resume0_nommu+0x5c>
f0001468:	e5901000 	ldr	r1, [r0]
f000146c:	e59f01cc 	ldr	r0, [pc, #460]	; f0001640 <jump_to_resume0_nommu+0x60>
f0001470:	e5901000 	ldr	r1, [r0]
f0001474:	e59f01c8 	ldr	r0, [pc, #456]	; f0001644 <jump_to_resume0_nommu+0x64>
f0001478:	e5901000 	ldr	r1, [r0]
f000147c:	e59f01c4 	ldr	r0, [pc, #452]	; f0001648 <jump_to_resume0_nommu+0x68>
f0001480:	e5901000 	ldr	r1, [r0]
f0001484:	e59f01c0 	ldr	r0, [pc, #448]	; f000164c <jump_to_resume0_nommu+0x6c>
f0001488:	e5901000 	ldr	r1, [r0]
f000148c:	e59f01bc 	ldr	r0, [pc, #444]	; f0001650 <jump_to_resume0_nommu+0x70>
f0001490:	e5901000 	ldr	r1, [r0]
f0001494:	e59f01b8 	ldr	r0, [pc, #440]	; f0001654 <jump_to_resume0_nommu+0x74>
f0001498:	e5901000 	ldr	r1, [r0]
f000149c:	e59f01b4 	ldr	r0, [pc, #436]	; f0001658 <jump_to_resume0_nommu+0x78>
f00014a0:	e5901000 	ldr	r1, [r0]
f00014a4:	e59f01b0 	ldr	r0, [pc, #432]	; f000165c <jump_to_resume0_nommu+0x7c>
f00014a8:	e5901000 	ldr	r1, [r0]
f00014ac:	e59f01ac 	ldr	r0, [pc, #428]	; f0001660 <jump_to_resume0_nommu+0x80>
f00014b0:	e5901000 	ldr	r1, [r0]
f00014b4:	e59f01a8 	ldr	r0, [pc, #424]	; f0001664 <jump_to_resume0_nommu+0x84>
f00014b8:	e5901000 	ldr	r1, [r0]
f00014bc:	e59f01a4 	ldr	r0, [pc, #420]	; f0001668 <jump_to_resume0_nommu+0x88>
f00014c0:	e5901000 	ldr	r1, [r0]
f00014c4:	e59f01a0 	ldr	r0, [pc, #416]	; f000166c <jump_to_resume0_nommu+0x8c>
f00014c8:	e5901000 	ldr	r1, [r0]
f00014cc:	e59f019c 	ldr	r0, [pc, #412]	; f0001670 <jump_to_resume0_nommu+0x90>
f00014d0:	e5901000 	ldr	r1, [r0]
f00014d4:	e59f0198 	ldr	r0, [pc, #408]	; f0001674 <jump_to_resume0_nommu+0x94>
f00014d8:	e5901000 	ldr	r1, [r0]
f00014dc:	e59f0194 	ldr	r0, [pc, #404]	; f0001678 <jump_to_resume0_nommu+0x98>
f00014e0:	e5901000 	ldr	r1, [r0]
f00014e4:	e59f0190 	ldr	r0, [pc, #400]	; f000167c <jump_to_resume0_nommu+0x9c>
f00014e8:	e5901000 	ldr	r1, [r0]
f00014ec:	e59f018c 	ldr	r0, [pc, #396]	; f0001680 <jump_to_resume0_nommu+0xa0>
f00014f0:	e5901000 	ldr	r1, [r0]
f00014f4:	e59f0188 	ldr	r0, [pc, #392]	; f0001684 <jump_to_resume0_nommu+0xa4>
f00014f8:	e5901000 	ldr	r1, [r0]
f00014fc:	e3a0020f 	mov	r0, #-268435456	; 0xf0000000
f0001500:	e5901000 	ldr	r1, [r0]
f0001504:	e59f017c 	ldr	r0, [pc, #380]	; f0001688 <jump_to_resume0_nommu+0xa8>
f0001508:	e5901000 	ldr	r1, [r0]
f000150c:	f57ff04f 	dsb	sy
f0001510:	f57ff06f 	isb	sy
f0001514:	e8bd000f 	pop	{r0, r1, r2, r3}
f0001518:	e1a0f00e 	mov	pc, lr

f000151c <disable_mmu>:
f000151c:	ee111f10 	mrc	15, 0, r1, cr1, cr0, {0}
f0001520:	e3c11a01 	bic	r1, r1, #4096	; 0x1000
f0001524:	e3c11005 	bic	r1, r1, #5
f0001528:	ea000004 	b	f0001540 <__turn_mmu_off>
f000152c:	e320f000 	nop	{0}
f0001530:	e320f000 	nop	{0}
f0001534:	e320f000 	nop	{0}
f0001538:	e320f000 	nop	{0}
f000153c:	e320f000 	nop	{0}

f0001540 <__turn_mmu_off>:
f0001540:	ee011f10 	mcr	15, 0, r1, cr1, cr0, {0}
f0001544:	ee103f10 	mrc	15, 0, r3, cr0, cr0, {0}
f0001548:	e1a03003 	mov	r3, r3
f000154c:	e1a03003 	mov	r3, r3
f0001550:	e1a0f00e 	mov	pc, lr

f0001554 <enable_mmu>:
f0001554:	ee111f10 	mrc	15, 0, r1, cr1, cr0, {0}
f0001558:	e3811a01 	orr	r1, r1, #4096	; 0x1000
f000155c:	e3811005 	orr	r1, r1, #5
f0001560:	ea000006 	b	f0001580 <__turn_mmu_on>
f0001564:	e320f000 	nop	{0}
f0001568:	e320f000 	nop	{0}
f000156c:	e320f000 	nop	{0}
f0001570:	e320f000 	nop	{0}
f0001574:	e320f000 	nop	{0}
f0001578:	e320f000 	nop	{0}
f000157c:	e320f000 	nop	{0}

f0001580 <__turn_mmu_on>:
f0001580:	ee011f10 	mcr	15, 0, r1, cr1, cr0, {0}
f0001584:	ee103f10 	mrc	15, 0, r3, cr0, cr0, {0}
f0001588:	e1a03003 	mov	r3, r3
f000158c:	e1a03003 	mov	r3, r3
f0001590:	e1a0f00e 	mov	pc, lr

f0001594 <jump_to_suspend>:
f0001594:	ee020f10 	mcr	15, 0, r0, cr2, cr0, {0}
f0001598:	f57ff04f 	dsb	sy
f000159c:	f57ff06f 	isb	sy
f00015a0:	e1a0f001 	mov	pc, r1
f00015a4:	e320f000 	nop	{0}
f00015a8:	e320f000 	nop	{0}
f00015ac:	e320f000 	nop	{0}

f00015b0 <jump_to_resume>:
f00015b0:	e1a0c000 	mov	ip, r0
f00015b4:	e1a08001 	mov	r8, r1
f00015b8:	ebfffef0 	bl	f0001180 <invalidate_dcache>
f00015bc:	e1a01008 	mov	r1, r8
f00015c0:	e1a0e00c 	mov	lr, ip
f00015c4:	e8913fff 	ldm	r1, {r0, r1, r2, r3, r4, r5, r6, r7, r8, r9, sl, fp, ip, sp}
f00015c8:	e1a0f00e 	mov	pc, lr
f00015cc:	e320f000 	nop	{0}

f00015d0 <jump_to_resume0>:
f00015d0:	e1a0e000 	mov	lr, r0
f00015d4:	e1a0f00e 	mov	pc, lr
f00015d8:	e320f000 	nop	{0}
f00015dc:	e320f000 	nop	{0}

f00015e0 <jump_to_resume0_nommu>:
f00015e0:	ee111f10 	mrc	15, 0, r1, cr1, cr0, {0}
f00015e4:	e3c11a01 	bic	r1, r1, #4096	; 0x1000
f00015e8:	e3c11007 	bic	r1, r1, #7
f00015ec:	ee011f10 	mcr	15, 0, r1, cr1, cr0, {0}
f00015f0:	ee103f10 	mrc	15, 0, r3, cr0, cr0, {0}
f00015f4:	e1a03003 	mov	r3, r3
f00015f8:	e1a03003 	mov	r3, r3
f00015fc:	e1a0e000 	mov	lr, r0
f0001600:	f57ff06f 	isb	sy
f0001604:	e1a0f00e 	mov	pc, lr
f0001608:	f0003ffc 			; <UNDEFINED> instruction: 0xf0003ffc
f000160c:	00003ffc 	strdeq	r3, [r0], -ip
f0001610:	000003ff 	strdeq	r0, [r0], -pc	; <UNPREDICTABLE>
f0001614:	00007fff 	strdeq	r7, [r0], -pc	; <UNPREDICTABLE>
f0001618:	f0001000 			; <UNDEFINED> instruction: 0xf0001000
f000161c:	f0002000 			; <UNDEFINED> instruction: 0xf0002000
f0001620:	f0003000 			; <UNDEFINED> instruction: 0xf0003000
f0001624:	f0040000 			; <UNDEFINED> instruction: 0xf0040000
f0001628:	f0041000 			; <UNDEFINED> instruction: 0xf0041000
f000162c:	f0042000 			; <UNDEFINED> instruction: 0xf0042000
f0001630:	f0043000 			; <UNDEFINED> instruction: 0xf0043000
f0001634:	f0044000 			; <UNDEFINED> instruction: 0xf0044000
f0001638:	f0045000 			; <UNDEFINED> instruction: 0xf0045000
f000163c:	f0046000 			; <UNDEFINED> instruction: 0xf0046000
f0001640:	f0047000 			; <UNDEFINED> instruction: 0xf0047000
f0001644:	f0048000 			; <UNDEFINED> instruction: 0xf0048000
f0001648:	f0049000 			; <UNDEFINED> instruction: 0xf0049000
f000164c:	f004a000 			; <UNDEFINED> instruction: 0xf004a000
f0001650:	f004b000 			; <UNDEFINED> instruction: 0xf004b000
f0001654:	f004c000 			; <UNDEFINED> instruction: 0xf004c000
f0001658:	f004d000 			; <UNDEFINED> instruction: 0xf004d000
f000165c:	f004e000 			; <UNDEFINED> instruction: 0xf004e000
f0001660:	f004f000 			; <UNDEFINED> instruction: 0xf004f000
f0001664:	f0050000 			; <UNDEFINED> instruction: 0xf0050000
f0001668:	f0051000 			; <UNDEFINED> instruction: 0xf0051000
f000166c:	f0052000 			; <UNDEFINED> instruction: 0xf0052000
f0001670:	f0053000 			; <UNDEFINED> instruction: 0xf0053000
f0001674:	f1c17000 			; <UNDEFINED> instruction: 0xf1c17000
f0001678:	f1c18000 			; <UNDEFINED> instruction: 0xf1c18000
f000167c:	f1c20800 			; <UNDEFINED> instruction: 0xf1c20800
f0001680:	f1f01400 			; <UNDEFINED> instruction: 0xf1f01400
f0001684:	f1c28000 			; <UNDEFINED> instruction: 0xf1c28000
f0001688:	f1c20000 			; <UNDEFINED> instruction: 0xf1c20000
f000168c:	e320f000 	nop	{0}
f0001690:	e320f000 	nop	{0}
f0001694:	e320f000 	nop	{0}
f0001698:	e320f000 	nop	{0}
f000169c:	e320f000 	nop	{0}

f00016a0 <set_serial_gpio>:
f00016a0:	e92d4038 	push	{r3, r4, r5, lr}
f00016a4:	e1a04000 	mov	r4, r0
f00016a8:	e1a05001 	mov	r5, r1
f00016ac:	eb000451 	bl	f00027f8 <config_gpio_clk>
f00016b0:	e3540000 	cmp	r4, #0
f00016b4:	1a000018 	bne	f000171c <set_serial_gpio+0x7c>
f00016b8:	e30f10ff 	movw	r1, #61695	; 0xf0ff
f00016bc:	e3a02c03 	mov	r2, #768	; 0x300
f00016c0:	e3000828 	movw	r0, #2088	; 0x828
f00016c4:	e30038b4 	movw	r3, #2228	; 0x8b4
f00016c8:	e3550000 	cmp	r5, #0
f00016cc:	e34f1ff0 	movt	r1, #65520	; 0xfff0
f00016d0:	e3402003 	movt	r2, #3
f00016d4:	e34001c2 	movt	r0, #450	; 0x1c2
f00016d8:	e34031c2 	movt	r3, #450	; 0x1c2
f00016dc:	03e01eff 	mvneq	r1, #4080	; 0xff0
f00016e0:	03a02e22 	moveq	r2, #544	; 0x220
f00016e4:	01a03000 	moveq	r3, r0
f00016e8:	e5930000 	ldr	r0, [r3]
f00016ec:	e0001001 	and	r1, r0, r1
f00016f0:	e5831000 	str	r1, [r3]
f00016f4:	f57ff04f 	dsb	sy
f00016f8:	f57ff06f 	isb	sy
f00016fc:	f57ff04f 	dsb	sy
f0001700:	f57ff06f 	isb	sy
f0001704:	e5931000 	ldr	r1, [r3]
f0001708:	e1812002 	orr	r2, r1, r2
f000170c:	e5832000 	str	r2, [r3]
f0001710:	f57ff04f 	dsb	sy
f0001714:	f57ff06f 	isb	sy
f0001718:	e8bd8038 	pop	{r3, r4, r5, pc}
f000171c:	e3a02000 	mov	r2, #0
f0001720:	e59f001c 	ldr	r0, [pc, #28]	; f0001744 <set_serial_gpio+0xa4>
f0001724:	e34f21c2 	movt	r2, #61890	; 0xf1c2
f0001728:	e30038b4 	movw	r3, #2228	; 0x8b4
f000172c:	e592c8b4 	ldr	ip, [r2, #2228]	; 0x8b4
f0001730:	e3e01000 	mvn	r1, #0
f0001734:	e3a02000 	mov	r2, #0
f0001738:	e34f31c2 	movt	r3, #61890	; 0xf1c2
f000173c:	e580c000 	str	ip, [r0]
f0001740:	eaffffe8 	b	f00016e8 <set_serial_gpio+0x48>
f0001744:	f0003a5c 			; <UNDEFINED> instruction: 0xf0003a5c

f0001748 <set_serial_clk>:
f0001748:	e92d4038 	push	{r3, r4, r5, lr}
f000174c:	e1a04000 	mov	r4, r0
f0001750:	eb0004d6 	bl	f0002ab0 <mem_get_ba>
f0001754:	e5903058 	ldr	r3, [r0, #88]	; 0x58
f0001758:	e7e12c53 	ubfx	r2, r3, #24, #2
f000175c:	e3520003 	cmp	r2, #3
f0001760:	159f1084 	ldrne	r1, [pc, #132]	; f00017ec <set_serial_clk+0xa4>
f0001764:	03a00000 	moveq	r0, #0
f0001768:	17910102 	ldrne	r0, [r1, r2, lsl #2]
f000176c:	e203101f 	and	r1, r3, #31
f0001770:	e2811001 	add	r1, r1, #1
f0001774:	e7e13853 	ubfx	r3, r3, #16, #2
f0001778:	e1a01311 	lsl	r1, r1, r3
f000177c:	eb000324 	bl	f0002414 <__aeabi_uidiv>
f0001780:	e3540000 	cmp	r4, #0
f0001784:	e3a04000 	mov	r4, #0
f0001788:	134f41c2 	movtne	r4, #61890	; 0xf1c2
f000178c:	159f305c 	ldrne	r3, [pc, #92]	; f00017f0 <set_serial_clk+0xa8>
f0001790:	1594206c 	ldrne	r2, [r4, #108]	; 0x6c
f0001794:	034041c2 	movteq	r4, #450	; 0x1c2
f0001798:	e1a05000 	mov	r5, r0
f000179c:	15832004 	strne	r2, [r3, #4]
f00017a0:	159422d8 	ldrne	r2, [r4, #728]	; 0x2d8
f00017a4:	15832008 	strne	r2, [r3, #8]
f00017a8:	e59432d8 	ldr	r3, [r4, #728]	; 0x2d8
f00017ac:	e3c33801 	bic	r3, r3, #65536	; 0x10000
f00017b0:	e58432d8 	str	r3, [r4, #728]	; 0x2d8
f00017b4:	e59432d8 	ldr	r3, [r4, #728]	; 0x2d8
f00017b8:	e3833801 	orr	r3, r3, #65536	; 0x10000
f00017bc:	e58432d8 	str	r3, [r4, #728]	; 0x2d8
f00017c0:	ebfffdd7 	bl	f0000f24 <change_runtime_env>
f00017c4:	e3a00001 	mov	r0, #1
f00017c8:	ebfffde2 	bl	f0000f58 <delay_us>
f00017cc:	e594306c 	ldr	r3, [r4, #108]	; 0x6c
f00017d0:	e1a00005 	mov	r0, r5
f00017d4:	e3c33801 	bic	r3, r3, #65536	; 0x10000
f00017d8:	e584306c 	str	r3, [r4, #108]	; 0x6c
f00017dc:	e594306c 	ldr	r3, [r4, #108]	; 0x6c
f00017e0:	e3833801 	orr	r3, r3, #65536	; 0x10000
f00017e4:	e584306c 	str	r3, [r4, #108]	; 0x6c
f00017e8:	e8bd8038 	pop	{r3, r4, r5, pc}
f00017ec:	f00036dc 			; <UNDEFINED> instruction: 0xf00036dc
f00017f0:	f0003a5c 			; <UNDEFINED> instruction: 0xf0003a5c

f00017f4 <serial_exit>:
f00017f4:	e59f3034 	ldr	r3, [pc, #52]	; f0001830 <serial_exit+0x3c>
f00017f8:	e3a02000 	mov	r2, #0
f00017fc:	e34f21c2 	movt	r2, #61890	; 0xf1c2
f0001800:	e5931004 	ldr	r1, [r3, #4]
f0001804:	e582106c 	str	r1, [r2, #108]	; 0x6c
f0001808:	e5931008 	ldr	r1, [r3, #8]
f000180c:	e58212d8 	str	r1, [r2, #728]	; 0x2d8
f0001810:	e593100c 	ldr	r1, [r3, #12]
f0001814:	e3510000 	cmp	r1, #0
f0001818:	e5931000 	ldr	r1, [r3]
f000181c:	05821828 	streq	r1, [r2, #2088]	; 0x828
f0001820:	158218b4 	strne	r1, [r2, #2228]	; 0x8b4
f0001824:	e3a02000 	mov	r2, #0
f0001828:	e5832010 	str	r2, [r3, #16]
f000182c:	e12fff1e 	bx	lr
f0001830:	f0003a5c 			; <UNDEFINED> instruction: 0xf0003a5c

f0001834 <serial_init_nommu>:
f0001834:	e92d4038 	push	{r3, r4, r5, lr}
f0001838:	e1a01000 	mov	r1, r0
f000183c:	e3a00000 	mov	r0, #0
f0001840:	ebffff96 	bl	f00016a0 <set_serial_gpio>
f0001844:	e3a00000 	mov	r0, #0
f0001848:	ebffffbe 	bl	f0001748 <set_serial_clk>
f000184c:	e30b33c5 	movw	r3, #46021	; 0xb3c5
f0001850:	e2800ae1 	add	r0, r0, #921600	; 0xe1000
f0001854:	e34931a2 	movt	r3, #37282	; 0x91a2
f0001858:	e3a02902 	mov	r2, #32768	; 0x8000
f000185c:	e0831093 	umull	r1, r3, r3, r0
f0001860:	e34021c2 	movt	r2, #450	; 0x1c2
f0001864:	e592000c 	ldr	r0, [r2, #12]
f0001868:	e3a0c001 	mov	ip, #1
f000186c:	e582c0a4 	str	ip, [r2, #164]	; 0xa4
f0001870:	e3031a5c 	movw	r1, #14940	; 0x3a5c
f0001874:	e34f1000 	movt	r1, #61440	; 0xf000
f0001878:	e3805080 	orr	r5, r0, #128	; 0x80
f000187c:	e3c00080 	bic	r0, r0, #128	; 0x80
f0001880:	e1a04e23 	lsr	r4, r3, #28
f0001884:	e7e73a53 	ubfx	r3, r3, #20, #8
f0001888:	e582500c 	str	r5, [r2, #12]
f000188c:	e5824004 	str	r4, [r2, #4]
f0001890:	e5823000 	str	r3, [r2]
f0001894:	e3a03000 	mov	r3, #0
f0001898:	e582000c 	str	r0, [r2, #12]
f000189c:	e58230a4 	str	r3, [r2, #164]	; 0xa4
f00018a0:	e3a03003 	mov	r3, #3
f00018a4:	e582300c 	str	r3, [r2, #12]
f00018a8:	e3a030e1 	mov	r3, #225	; 0xe1
f00018ac:	e5823008 	str	r3, [r2, #8]
f00018b0:	e581c010 	str	ip, [r1, #16]
f00018b4:	e8bd8038 	pop	{r3, r4, r5, pc}

f00018b8 <serial_puts_nommu>:
f00018b8:	e59f30a4 	ldr	r3, [pc, #164]	; f0001964 <serial_puts_nommu+0xac>
f00018bc:	e52d4004 	push	{r4}		; (str r4, [sp, #-4]!)
f00018c0:	e5933010 	ldr	r3, [r3, #16]
f00018c4:	e3530000 	cmp	r3, #0
f00018c8:	03e00000 	mvneq	r0, #0
f00018cc:	0a000017 	beq	f0001930 <serial_puts_nommu+0x78>
f00018d0:	e5d03000 	ldrb	r3, [r0]
f00018d4:	e3530000 	cmp	r3, #0
f00018d8:	0a000013 	beq	f000192c <serial_puts_nommu+0x74>
f00018dc:	e3a01902 	mov	r1, #32768	; 0x8000
f00018e0:	e2400001 	sub	r0, r0, #1
f00018e4:	e34011c2 	movt	r1, #450	; 0x1c2
f00018e8:	e3a0400d 	mov	r4, #13
f00018ec:	e353000a 	cmp	r3, #10
f00018f0:	0a000010 	beq	f0001938 <serial_puts_nommu+0x80>
f00018f4:	e5f0c001 	ldrb	ip, [r0, #1]!
f00018f8:	e591207c 	ldr	r2, [r1, #124]	; 0x7c
f00018fc:	e3a03902 	mov	r3, #32768	; 0x8000
f0001900:	e34031c2 	movt	r3, #450	; 0x1c2
f0001904:	e3120002 	tst	r2, #2
f0001908:	0afffffa 	beq	f00018f8 <serial_puts_nommu+0x40>
f000190c:	f57ff04f 	dsb	sy
f0001910:	f57ff06f 	isb	sy
f0001914:	e583c000 	str	ip, [r3]
f0001918:	f57ff04f 	dsb	sy
f000191c:	f57ff06f 	isb	sy
f0001920:	e5d03001 	ldrb	r3, [r0, #1]
f0001924:	e3530000 	cmp	r3, #0
f0001928:	1affffef 	bne	f00018ec <serial_puts_nommu+0x34>
f000192c:	e1a00003 	mov	r0, r3
f0001930:	e8bd0010 	pop	{r4}
f0001934:	e12fff1e 	bx	lr
f0001938:	e591207c 	ldr	r2, [r1, #124]	; 0x7c
f000193c:	e3a03902 	mov	r3, #32768	; 0x8000
f0001940:	e34031c2 	movt	r3, #450	; 0x1c2
f0001944:	e3120002 	tst	r2, #2
f0001948:	0afffffa 	beq	f0001938 <serial_puts_nommu+0x80>
f000194c:	f57ff04f 	dsb	sy
f0001950:	f57ff06f 	isb	sy
f0001954:	e5834000 	str	r4, [r3]
f0001958:	f57ff04f 	dsb	sy
f000195c:	f57ff06f 	isb	sy
f0001960:	eaffffe3 	b	f00018f4 <serial_puts_nommu+0x3c>
f0001964:	f0003a5c 			; <UNDEFINED> instruction: 0xf0003a5c

f0001968 <serial_gets_nommu>:
f0001968:	e59f3080 	ldr	r3, [pc, #128]	; f00019f0 <serial_gets_nommu+0x88>
f000196c:	e52d4004 	push	{r4}		; (str r4, [sp, #-4]!)
f0001970:	e5933010 	ldr	r3, [r3, #16]
f0001974:	e3530000 	cmp	r3, #0
f0001978:	03e00000 	mvneq	r0, #0
f000197c:	1a000001 	bne	f0001988 <serial_gets_nommu+0x20>
f0001980:	e8bd0010 	pop	{r4}
f0001984:	e12fff1e 	bx	lr
f0001988:	e3510000 	cmp	r1, #0
f000198c:	03a00001 	moveq	r0, #1
f0001990:	0afffffa 	beq	f0001980 <serial_gets_nommu+0x18>
f0001994:	e3a0c902 	mov	ip, #32768	; 0x8000
f0001998:	e3a04000 	mov	r4, #0
f000199c:	e340c1c2 	movt	ip, #450	; 0x1c2
f00019a0:	e30f3fff 	movw	r3, #65535	; 0xffff
f00019a4:	ea000001 	b	f00019b0 <serial_gets_nommu+0x48>
f00019a8:	e2533001 	subs	r3, r3, #1
f00019ac:	3a000006 	bcc	f00019cc <serial_gets_nommu+0x64>
f00019b0:	e59c207c 	ldr	r2, [ip, #124]	; 0x7c
f00019b4:	e3120008 	tst	r2, #8
f00019b8:	0afffffa 	beq	f00019a8 <serial_gets_nommu+0x40>
f00019bc:	e3530000 	cmp	r3, #0
f00019c0:	1a000001 	bne	f00019cc <serial_gets_nommu+0x64>
f00019c4:	e2840001 	add	r0, r4, #1
f00019c8:	eaffffec 	b	f0001980 <serial_gets_nommu+0x18>
f00019cc:	e59c3000 	ldr	r3, [ip]
f00019d0:	e6ef3073 	uxtb	r3, r3
f00019d4:	e3530000 	cmp	r3, #0
f00019d8:	0afffff9 	beq	f00019c4 <serial_gets_nommu+0x5c>
f00019dc:	e7c03004 	strb	r3, [r0, r4]
f00019e0:	e2844001 	add	r4, r4, #1
f00019e4:	e1540001 	cmp	r4, r1
f00019e8:	1affffec 	bne	f00019a0 <serial_gets_nommu+0x38>
f00019ec:	eafffff4 	b	f00019c4 <serial_gets_nommu+0x5c>
f00019f0:	f0003a5c 			; <UNDEFINED> instruction: 0xf0003a5c

f00019f4 <serial_init_manager>:
f00019f4:	e3033a5c 	movw	r3, #14940	; 0x3a5c
f00019f8:	e3a02001 	mov	r2, #1
f00019fc:	e34f3000 	movt	r3, #61440	; 0xf000
f0001a00:	e5832010 	str	r2, [r3, #16]
f0001a04:	e12fff1e 	bx	lr

f0001a08 <serial_exit_manager>:
f0001a08:	e3033a5c 	movw	r3, #14940	; 0x3a5c
f0001a0c:	e3a02000 	mov	r2, #0
f0001a10:	e34f3000 	movt	r3, #61440	; 0xf000
f0001a14:	e5832010 	str	r2, [r3, #16]
f0001a18:	e12fff1e 	bx	lr

f0001a1c <serial_init>:
f0001a1c:	e92d4038 	push	{r3, r4, r5, lr}
f0001a20:	e1a03000 	mov	r3, r0
f0001a24:	e3034a5c 	movw	r4, #14940	; 0x3a5c
f0001a28:	e1a01003 	mov	r1, r3
f0001a2c:	e34f4000 	movt	r4, #61440	; 0xf000
f0001a30:	e3a00001 	mov	r0, #1
f0001a34:	e584300c 	str	r3, [r4, #12]
f0001a38:	ebffff18 	bl	f00016a0 <set_serial_gpio>
f0001a3c:	e3a00001 	mov	r0, #1
f0001a40:	ebffff40 	bl	f0001748 <set_serial_clk>
f0001a44:	e30b33c5 	movw	r3, #46021	; 0xb3c5
f0001a48:	e2800ae1 	add	r0, r0, #921600	; 0xe1000
f0001a4c:	e34931a2 	movt	r3, #37282	; 0x91a2
f0001a50:	e3a02902 	mov	r2, #32768	; 0x8000
f0001a54:	e0831093 	umull	r1, r3, r3, r0
f0001a58:	e34f21c2 	movt	r2, #61890	; 0xf1c2
f0001a5c:	e592000c 	ldr	r0, [r2, #12]
f0001a60:	e3a01001 	mov	r1, #1
f0001a64:	e58210a4 	str	r1, [r2, #164]	; 0xa4
f0001a68:	e3805080 	orr	r5, r0, #128	; 0x80
f0001a6c:	e3c00080 	bic	r0, r0, #128	; 0x80
f0001a70:	e1a0ce23 	lsr	ip, r3, #28
f0001a74:	e7e73a53 	ubfx	r3, r3, #20, #8
f0001a78:	e582500c 	str	r5, [r2, #12]
f0001a7c:	e582c004 	str	ip, [r2, #4]
f0001a80:	e5823000 	str	r3, [r2]
f0001a84:	e3a03000 	mov	r3, #0
f0001a88:	e582000c 	str	r0, [r2, #12]
f0001a8c:	e58230a4 	str	r3, [r2, #164]	; 0xa4
f0001a90:	e3a03003 	mov	r3, #3
f0001a94:	e582300c 	str	r3, [r2, #12]
f0001a98:	e3a030e1 	mov	r3, #225	; 0xe1
f0001a9c:	e5823008 	str	r3, [r2, #8]
f0001aa0:	e5841010 	str	r1, [r4, #16]
f0001aa4:	e8bd8038 	pop	{r3, r4, r5, pc}

f0001aa8 <serial_puts>:
f0001aa8:	e59f30a4 	ldr	r3, [pc, #164]	; f0001b54 <serial_puts+0xac>
f0001aac:	e52d4004 	push	{r4}		; (str r4, [sp, #-4]!)
f0001ab0:	e5933010 	ldr	r3, [r3, #16]
f0001ab4:	e3530000 	cmp	r3, #0
f0001ab8:	03e00000 	mvneq	r0, #0
f0001abc:	0a000017 	beq	f0001b20 <serial_puts+0x78>
f0001ac0:	e5d03000 	ldrb	r3, [r0]
f0001ac4:	e3530000 	cmp	r3, #0
f0001ac8:	0a000013 	beq	f0001b1c <serial_puts+0x74>
f0001acc:	e3a01902 	mov	r1, #32768	; 0x8000
f0001ad0:	e2400001 	sub	r0, r0, #1
f0001ad4:	e34f11c2 	movt	r1, #61890	; 0xf1c2
f0001ad8:	e3a0400d 	mov	r4, #13
f0001adc:	e353000a 	cmp	r3, #10
f0001ae0:	0a000010 	beq	f0001b28 <serial_puts+0x80>
f0001ae4:	e5f0c001 	ldrb	ip, [r0, #1]!
f0001ae8:	e591207c 	ldr	r2, [r1, #124]	; 0x7c
f0001aec:	e3a03902 	mov	r3, #32768	; 0x8000
f0001af0:	e34f31c2 	movt	r3, #61890	; 0xf1c2
f0001af4:	e3120002 	tst	r2, #2
f0001af8:	0afffffa 	beq	f0001ae8 <serial_puts+0x40>
f0001afc:	f57ff04f 	dsb	sy
f0001b00:	f57ff06f 	isb	sy
f0001b04:	e583c000 	str	ip, [r3]
f0001b08:	f57ff04f 	dsb	sy
f0001b0c:	f57ff06f 	isb	sy
f0001b10:	e5d03001 	ldrb	r3, [r0, #1]
f0001b14:	e3530000 	cmp	r3, #0
f0001b18:	1affffef 	bne	f0001adc <serial_puts+0x34>
f0001b1c:	e1a00003 	mov	r0, r3
f0001b20:	e8bd0010 	pop	{r4}
f0001b24:	e12fff1e 	bx	lr
f0001b28:	e591207c 	ldr	r2, [r1, #124]	; 0x7c
f0001b2c:	e3a03902 	mov	r3, #32768	; 0x8000
f0001b30:	e34f31c2 	movt	r3, #61890	; 0xf1c2
f0001b34:	e3120002 	tst	r2, #2
f0001b38:	0afffffa 	beq	f0001b28 <serial_puts+0x80>
f0001b3c:	f57ff04f 	dsb	sy
f0001b40:	f57ff06f 	isb	sy
f0001b44:	e5834000 	str	r4, [r3]
f0001b48:	f57ff04f 	dsb	sy
f0001b4c:	f57ff06f 	isb	sy
f0001b50:	eaffffe3 	b	f0001ae4 <serial_puts+0x3c>
f0001b54:	f0003a5c 			; <UNDEFINED> instruction: 0xf0003a5c

f0001b58 <serial_gets>:
f0001b58:	e59f3080 	ldr	r3, [pc, #128]	; f0001be0 <serial_gets+0x88>
f0001b5c:	e52d4004 	push	{r4}		; (str r4, [sp, #-4]!)
f0001b60:	e5933010 	ldr	r3, [r3, #16]
f0001b64:	e3530000 	cmp	r3, #0
f0001b68:	03e00000 	mvneq	r0, #0
f0001b6c:	1a000001 	bne	f0001b78 <serial_gets+0x20>
f0001b70:	e8bd0010 	pop	{r4}
f0001b74:	e12fff1e 	bx	lr
f0001b78:	e3510000 	cmp	r1, #0
f0001b7c:	03a00001 	moveq	r0, #1
f0001b80:	0afffffa 	beq	f0001b70 <serial_gets+0x18>
f0001b84:	e3a0c902 	mov	ip, #32768	; 0x8000
f0001b88:	e3a04000 	mov	r4, #0
f0001b8c:	e34fc1c2 	movt	ip, #61890	; 0xf1c2
f0001b90:	e30f3fff 	movw	r3, #65535	; 0xffff
f0001b94:	ea000001 	b	f0001ba0 <serial_gets+0x48>
f0001b98:	e2533001 	subs	r3, r3, #1
f0001b9c:	3a000006 	bcc	f0001bbc <serial_gets+0x64>
f0001ba0:	e59c207c 	ldr	r2, [ip, #124]	; 0x7c
f0001ba4:	e3120008 	tst	r2, #8
f0001ba8:	0afffffa 	beq	f0001b98 <serial_gets+0x40>
f0001bac:	e3530000 	cmp	r3, #0
f0001bb0:	1a000001 	bne	f0001bbc <serial_gets+0x64>
f0001bb4:	e2840001 	add	r0, r4, #1
f0001bb8:	eaffffec 	b	f0001b70 <serial_gets+0x18>
f0001bbc:	e59c3000 	ldr	r3, [ip]
f0001bc0:	e6ef3073 	uxtb	r3, r3
f0001bc4:	e3530000 	cmp	r3, #0
f0001bc8:	0afffff9 	beq	f0001bb4 <serial_gets+0x5c>
f0001bcc:	e7c03004 	strb	r3, [r0, r4]
f0001bd0:	e2844001 	add	r4, r4, #1
f0001bd4:	e1540001 	cmp	r4, r1
f0001bd8:	1affffec 	bne	f0001b90 <serial_gets+0x38>
f0001bdc:	eafffff4 	b	f0001bb4 <serial_gets+0x5c>
f0001be0:	f0003a5c 			; <UNDEFINED> instruction: 0xf0003a5c

f0001be4 <utoa>:
f0001be4:	e92d45f0 	push	{r4, r5, r6, r7, r8, sl, lr}
f0001be8:	e3500000 	cmp	r0, #0
f0001bec:	e59f60a8 	ldr	r6, [pc, #168]	; f0001c9c <utoa+0xb8>
f0001bf0:	e1a07001 	mov	r7, r1
f0001bf4:	e1a04000 	mov	r4, r0
f0001bf8:	e1a05002 	mov	r5, r2
f0001bfc:	e24dd02c 	sub	sp, sp, #44	; 0x2c
f0001c00:	13a08000 	movne	r8, #0
f0001c04:	e28dc004 	add	ip, sp, #4
f0001c08:	128da018 	addne	sl, sp, #24
f0001c0c:	e8b6000f 	ldm	r6!, {r0, r1, r2, r3}
f0001c10:	e5966000 	ldr	r6, [r6]
f0001c14:	e8ac000f 	stmia	ip!, {r0, r1, r2, r3}
f0001c18:	03a03030 	moveq	r3, #48	; 0x30
f0001c1c:	05c74001 	strbeq	r4, [r7, #1]
f0001c20:	e5cc6000 	strb	r6, [ip]
f0001c24:	05c73000 	strbeq	r3, [r7]
f0001c28:	1a000001 	bne	f0001c34 <utoa+0x50>
f0001c2c:	ea000017 	b	f0001c90 <utoa+0xac>
f0001c30:	e1a08003 	mov	r8, r3
f0001c34:	e1a00004 	mov	r0, r4
f0001c38:	e1a01005 	mov	r1, r5
f0001c3c:	eb00024e 	bl	f000257c <__aeabi_uidivmod>
f0001c40:	e28d3028 	add	r3, sp, #40	; 0x28
f0001c44:	e1a00004 	mov	r0, r4
f0001c48:	e0831001 	add	r1, r3, r1
f0001c4c:	e5516024 	ldrb	r6, [r1, #-36]	; 0x24
f0001c50:	e1a01005 	mov	r1, r5
f0001c54:	e7ca6008 	strb	r6, [sl, r8]
f0001c58:	eb0001ed 	bl	f0002414 <__aeabi_uidiv>
f0001c5c:	e2504000 	subs	r4, r0, #0
f0001c60:	e2883001 	add	r3, r8, #1
f0001c64:	1afffff1 	bne	f0001c30 <utoa+0x4c>
f0001c68:	e2472001 	sub	r2, r7, #1
f0001c6c:	e08a3008 	add	r3, sl, r8
f0001c70:	ea000000 	b	f0001c78 <utoa+0x94>
f0001c74:	e5736001 	ldrb	r6, [r3, #-1]!
f0001c78:	e153000a 	cmp	r3, sl
f0001c7c:	e5e26001 	strb	r6, [r2, #1]!
f0001c80:	1afffffb 	bne	f0001c74 <utoa+0x90>
f0001c84:	e0878008 	add	r8, r7, r8
f0001c88:	e3a03000 	mov	r3, #0
f0001c8c:	e5c83001 	strb	r3, [r8, #1]
f0001c90:	e1a00007 	mov	r0, r7
f0001c94:	e28dd02c 	add	sp, sp, #44	; 0x2c
f0001c98:	e8bd85f0 	pop	{r4, r5, r6, r7, r8, sl, pc}
f0001c9c:	f00038c4 			; <UNDEFINED> instruction: 0xf00038c4

f0001ca0 <print_align>:
f0001ca0:	e92d00f0 	push	{r4, r5, r6, r7}
f0001ca4:	e1510002 	cmp	r1, r2
f0001ca8:	e59f4094 	ldr	r4, [pc, #148]	; f0001d44 <print_align+0xa4>
f0001cac:	e1a07001 	mov	r7, r1
f0001cb0:	e1a06002 	mov	r6, r2
f0001cb4:	e1a05000 	mov	r5, r0
f0001cb8:	e24dd018 	sub	sp, sp, #24
f0001cbc:	e28dc004 	add	ip, sp, #4
f0001cc0:	e8b4000f 	ldm	r4!, {r0, r1, r2, r3}
f0001cc4:	e5944000 	ldr	r4, [r4]
f0001cc8:	e8ac000f 	stmia	ip!, {r0, r1, r2, r3}
f0001ccc:	a3a00000 	movge	r0, #0
f0001cd0:	e5cc4000 	strb	r4, [ip]
f0001cd4:	aa000017 	bge	f0001d38 <print_align+0x98>
f0001cd8:	e0670006 	rsb	r0, r7, r6
f0001cdc:	e3500000 	cmp	r0, #0
f0001ce0:	e1a01000 	mov	r1, r0
f0001ce4:	0a000013 	beq	f0001d38 <print_align+0x98>
f0001ce8:	e5d53000 	ldrb	r3, [r5]
f0001cec:	e3530000 	cmp	r3, #0
f0001cf0:	0a000005 	beq	f0001d0c <print_align+0x6c>
f0001cf4:	e1a03005 	mov	r3, r5
f0001cf8:	e2833001 	add	r3, r3, #1
f0001cfc:	e5d32000 	ldrb	r2, [r3]
f0001d00:	e1a05003 	mov	r5, r3
f0001d04:	e3520000 	cmp	r2, #0
f0001d08:	1afffffa 	bne	f0001cf8 <print_align+0x58>
f0001d0c:	e28dc003 	add	ip, sp, #3
f0001d10:	ea000000 	b	f0001d18 <print_align+0x78>
f0001d14:	e1a05003 	mov	r5, r3
f0001d18:	e5fc2001 	ldrb	r2, [ip, #1]!
f0001d1c:	e1a03005 	mov	r3, r5
f0001d20:	e3520000 	cmp	r2, #0
f0001d24:	e4c32001 	strb	r2, [r3], #1
f0001d28:	0a000002 	beq	f0001d38 <print_align+0x98>
f0001d2c:	e2511001 	subs	r1, r1, #1
f0001d30:	1afffff7 	bne	f0001d14 <print_align+0x74>
f0001d34:	e5c51001 	strb	r1, [r5, #1]
f0001d38:	e28dd018 	add	sp, sp, #24
f0001d3c:	e8bd00f0 	pop	{r4, r5, r6, r7}
f0001d40:	e12fff1e 	bx	lr
f0001d44:	f00038d8 			; <UNDEFINED> instruction: 0xf00038d8

f0001d48 <itoa.constprop.0>:
f0001d48:	e92d01f0 	push	{r4, r5, r6, r7, r8}
f0001d4c:	e3500000 	cmp	r0, #0
f0001d50:	e59f50d4 	ldr	r5, [pc, #212]	; f0001e2c <itoa.constprop.0+0xe4>
f0001d54:	e1a06001 	mov	r6, r1
f0001d58:	e1a0c000 	mov	ip, r0
f0001d5c:	e24dd02c 	sub	sp, sp, #44	; 0x2c
f0001d60:	e28d4004 	add	r4, sp, #4
f0001d64:	e8b5000f 	ldm	r5!, {r0, r1, r2, r3}
f0001d68:	e5955000 	ldr	r5, [r5]
f0001d6c:	e8a4000f 	stmia	r4!, {r0, r1, r2, r3}
f0001d70:	03a03030 	moveq	r3, #48	; 0x30
f0001d74:	05c6c001 	strbeq	ip, [r6, #1]
f0001d78:	e5c45000 	strb	r5, [r4]
f0001d7c:	05c63000 	strbeq	r3, [r6]
f0001d80:	0a000025 	beq	f0001e1c <itoa.constprop.0+0xd4>
f0001d84:	e3065667 	movw	r5, #26215	; 0x6667
f0001d88:	b26cc000 	rsblt	ip, ip, #0
f0001d8c:	b3a07001 	movlt	r7, #1
f0001d90:	a3a07000 	movge	r7, #0
f0001d94:	e3a03000 	mov	r3, #0
f0001d98:	e28d0018 	add	r0, sp, #24
f0001d9c:	e3465666 	movt	r5, #26214	; 0x6666
f0001da0:	ea000000 	b	f0001da8 <itoa.constprop.0+0x60>
f0001da4:	e1a03004 	mov	r3, r4
f0001da8:	e0c12c95 	smull	r2, r1, r5, ip
f0001dac:	e1a02fcc 	asr	r2, ip, #31
f0001db0:	e28d8028 	add	r8, sp, #40	; 0x28
f0001db4:	e2834001 	add	r4, r3, #1
f0001db8:	e0622141 	rsb	r2, r2, r1, asr #2
f0001dbc:	e0821102 	add	r1, r2, r2, lsl #2
f0001dc0:	e04c1081 	sub	r1, ip, r1, lsl #1
f0001dc4:	e252c000 	subs	ip, r2, #0
f0001dc8:	e0882001 	add	r2, r8, r1
f0001dcc:	e5522024 	ldrb	r2, [r2, #-36]	; 0x24
f0001dd0:	e7c02003 	strb	r2, [r0, r3]
f0001dd4:	1afffff2 	bne	f0001da4 <itoa.constprop.0+0x5c>
f0001dd8:	e3570000 	cmp	r7, #0
f0001ddc:	e1a0c003 	mov	ip, r3
f0001de0:	13a0102d 	movne	r1, #45	; 0x2d
f0001de4:	13a07001 	movne	r7, #1
f0001de8:	15c61000 	strbne	r1, [r6]
f0001dec:	e2471001 	sub	r1, r7, #1
f0001df0:	e0861001 	add	r1, r6, r1
f0001df4:	ea000000 	b	f0001dfc <itoa.constprop.0+0xb4>
f0001df8:	e7d02003 	ldrb	r2, [r0, r3]
f0001dfc:	e2433001 	sub	r3, r3, #1
f0001e00:	e5e12001 	strb	r2, [r1, #1]!
f0001e04:	e3730001 	cmn	r3, #1
f0001e08:	1afffffa 	bne	f0001df8 <itoa.constprop.0+0xb0>
f0001e0c:	e2877001 	add	r7, r7, #1
f0001e10:	e3a03000 	mov	r3, #0
f0001e14:	e0867007 	add	r7, r6, r7
f0001e18:	e7c7300c 	strb	r3, [r7, ip]
f0001e1c:	e1a00006 	mov	r0, r6
f0001e20:	e28dd02c 	add	sp, sp, #44	; 0x2c
f0001e24:	e8bd01f0 	pop	{r4, r5, r6, r7, r8}
f0001e28:	e12fff1e 	bx	lr
f0001e2c:	f00038c4 			; <UNDEFINED> instruction: 0xf00038c4

f0001e30 <printk>:
f0001e30:	e92d000f 	push	{r0, r1, r2, r3}
f0001e34:	e92d47f0 	push	{r4, r5, r6, r7, r8, r9, sl, lr}
f0001e38:	e24dd018 	sub	sp, sp, #24
f0001e3c:	e28d303c 	add	r3, sp, #60	; 0x3c
f0001e40:	e59d4038 	ldr	r4, [sp, #56]	; 0x38
f0001e44:	e58d3014 	str	r3, [sp, #20]
f0001e48:	e59f82ac 	ldr	r8, [pc, #684]	; f00020fc <printk+0x2cc>
f0001e4c:	e5d43000 	ldrb	r3, [r4]
f0001e50:	e3530000 	cmp	r3, #0
f0001e54:	01a05008 	moveq	r5, r8
f0001e58:	0a00002c 	beq	f0001f10 <printk+0xe0>
f0001e5c:	e3a09025 	mov	r9, #37	; 0x25
f0001e60:	e28d6004 	add	r6, sp, #4
f0001e64:	e1a05008 	mov	r5, r8
f0001e68:	ea000003 	b	f0001e7c <printk+0x4c>
f0001e6c:	e5d43001 	ldrb	r3, [r4, #1]
f0001e70:	e2844001 	add	r4, r4, #1
f0001e74:	e3530000 	cmp	r3, #0
f0001e78:	0a000024 	beq	f0001f10 <printk+0xe0>
f0001e7c:	e3530025 	cmp	r3, #37	; 0x25
f0001e80:	14c53001 	strbne	r3, [r5], #1
f0001e84:	1afffff8 	bne	f0001e6c <printk+0x3c>
f0001e88:	e5d43001 	ldrb	r3, [r4, #1]
f0001e8c:	e2432031 	sub	r2, r3, #49	; 0x31
f0001e90:	e3520008 	cmp	r2, #8
f0001e94:	92437030 	subls	r7, r3, #48	; 0x30
f0001e98:	95d43002 	ldrbls	r3, [r4, #2]
f0001e9c:	82844001 	addhi	r4, r4, #1
f0001ea0:	83a07000 	movhi	r7, #0
f0001ea4:	92844002 	addls	r4, r4, #2
f0001ea8:	e2433063 	sub	r3, r3, #99	; 0x63
f0001eac:	e3530015 	cmp	r3, #21
f0001eb0:	979ff103 	ldrls	pc, [pc, r3, lsl #2]
f0001eb4:	ea000070 	b	f000207c <printk+0x24c>
f0001eb8:	f0002064 			; <UNDEFINED> instruction: 0xf0002064
f0001ebc:	f0002090 			; <UNDEFINED> instruction: 0xf0002090
f0001ec0:	f000207c 			; <UNDEFINED> instruction: 0xf000207c
f0001ec4:	f000207c 			; <UNDEFINED> instruction: 0xf000207c
f0001ec8:	f000207c 			; <UNDEFINED> instruction: 0xf000207c
f0001ecc:	f000207c 			; <UNDEFINED> instruction: 0xf000207c
f0001ed0:	f000207c 			; <UNDEFINED> instruction: 0xf000207c
f0001ed4:	f000207c 			; <UNDEFINED> instruction: 0xf000207c
f0001ed8:	f000207c 			; <UNDEFINED> instruction: 0xf000207c
f0001edc:	f000207c 			; <UNDEFINED> instruction: 0xf000207c
f0001ee0:	f000207c 			; <UNDEFINED> instruction: 0xf000207c
f0001ee4:	f000207c 			; <UNDEFINED> instruction: 0xf000207c
f0001ee8:	f000207c 			; <UNDEFINED> instruction: 0xf000207c
f0001eec:	f0001ff4 			; <UNDEFINED> instruction: 0xf0001ff4
f0001ef0:	f000207c 			; <UNDEFINED> instruction: 0xf000207c
f0001ef4:	f000207c 			; <UNDEFINED> instruction: 0xf000207c
f0001ef8:	f0001fa4 			; <UNDEFINED> instruction: 0xf0001fa4
f0001efc:	f000207c 			; <UNDEFINED> instruction: 0xf000207c
f0001f00:	f0001f34 			; <UNDEFINED> instruction: 0xf0001f34
f0001f04:	f000207c 			; <UNDEFINED> instruction: 0xf000207c
f0001f08:	f000207c 			; <UNDEFINED> instruction: 0xf000207c
f0001f0c:	f0001ff4 			; <UNDEFINED> instruction: 0xf0001ff4
f0001f10:	e3a03000 	mov	r3, #0
f0001f14:	e59f01e0 	ldr	r0, [pc, #480]	; f00020fc <printk+0x2cc>
f0001f18:	e4c53001 	strb	r3, [r5], #1
f0001f1c:	ebfffee1 	bl	f0001aa8 <serial_puts>
f0001f20:	e0680005 	rsb	r0, r8, r5
f0001f24:	e28dd018 	add	sp, sp, #24
f0001f28:	e8bd47f0 	pop	{r4, r5, r6, r7, r8, r9, sl, lr}
f0001f2c:	e28dd010 	add	sp, sp, #16
f0001f30:	e12fff1e 	bx	lr
f0001f34:	e59d0014 	ldr	r0, [sp, #20]
f0001f38:	e1a01006 	mov	r1, r6
f0001f3c:	e3a0200a 	mov	r2, #10
f0001f40:	e2803004 	add	r3, r0, #4
f0001f44:	e5900000 	ldr	r0, [r0]
f0001f48:	e58d3014 	str	r3, [sp, #20]
f0001f4c:	ebffff24 	bl	f0001be4 <utoa>
f0001f50:	e5d6a000 	ldrb	sl, [r6]
f0001f54:	e35a0000 	cmp	sl, #0
f0001f58:	0a000004 	beq	f0001f70 <printk+0x140>
f0001f5c:	e1a0a006 	mov	sl, r6
f0001f60:	e5fa3001 	ldrb	r3, [sl, #1]!
f0001f64:	e3530000 	cmp	r3, #0
f0001f68:	1afffffc 	bne	f0001f60 <printk+0x130>
f0001f6c:	e066a00a 	rsb	sl, r6, sl
f0001f70:	e1a0100a 	mov	r1, sl
f0001f74:	e1a00006 	mov	r0, r6
f0001f78:	e1a02007 	mov	r2, r7
f0001f7c:	ebffff47 	bl	f0001ca0 <print_align>
f0001f80:	e28d3003 	add	r3, sp, #3
f0001f84:	e080000a 	add	r0, r0, sl
f0001f88:	e1a01005 	mov	r1, r5
f0001f8c:	e5f32001 	ldrb	r2, [r3, #1]!
f0001f90:	e3520000 	cmp	r2, #0
f0001f94:	e4c12001 	strb	r2, [r1], #1
f0001f98:	1afffffb 	bne	f0001f8c <printk+0x15c>
f0001f9c:	e0855000 	add	r5, r5, r0
f0001fa0:	eaffffb1 	b	f0001e6c <printk+0x3c>
f0001fa4:	e59d3014 	ldr	r3, [sp, #20]
f0001fa8:	e1a01005 	mov	r1, r5
f0001fac:	e2832004 	add	r2, r3, #4
f0001fb0:	e58d2014 	str	r2, [sp, #20]
f0001fb4:	e5930000 	ldr	r0, [r3]
f0001fb8:	e2402001 	sub	r2, r0, #1
f0001fbc:	e5f23001 	ldrb	r3, [r2, #1]!
f0001fc0:	e3530000 	cmp	r3, #0
f0001fc4:	e4c13001 	strb	r3, [r1], #1
f0001fc8:	1afffffb 	bne	f0001fbc <printk+0x18c>
f0001fcc:	e5d03000 	ldrb	r3, [r0]
f0001fd0:	e3530000 	cmp	r3, #0
f0001fd4:	0a000004 	beq	f0001fec <printk+0x1bc>
f0001fd8:	e1a03000 	mov	r3, r0
f0001fdc:	e5f32001 	ldrb	r2, [r3, #1]!
f0001fe0:	e3520000 	cmp	r2, #0
f0001fe4:	1afffffc 	bne	f0001fdc <printk+0x1ac>
f0001fe8:	e0603003 	rsb	r3, r0, r3
f0001fec:	e0855003 	add	r5, r5, r3
f0001ff0:	eaffff9d 	b	f0001e6c <printk+0x3c>
f0001ff4:	e59d0014 	ldr	r0, [sp, #20]
f0001ff8:	e1a01006 	mov	r1, r6
f0001ffc:	e3a02010 	mov	r2, #16
f0002000:	e2803004 	add	r3, r0, #4
f0002004:	e5900000 	ldr	r0, [r0]
f0002008:	e58d3014 	str	r3, [sp, #20]
f000200c:	ebfffef4 	bl	f0001be4 <utoa>
f0002010:	e5d6a000 	ldrb	sl, [r6]
f0002014:	e35a0000 	cmp	sl, #0
f0002018:	0a000004 	beq	f0002030 <printk+0x200>
f000201c:	e1a0a006 	mov	sl, r6
f0002020:	e5fa3001 	ldrb	r3, [sl, #1]!
f0002024:	e3530000 	cmp	r3, #0
f0002028:	1afffffc 	bne	f0002020 <printk+0x1f0>
f000202c:	e066a00a 	rsb	sl, r6, sl
f0002030:	e1a0100a 	mov	r1, sl
f0002034:	e1a00006 	mov	r0, r6
f0002038:	e1a02007 	mov	r2, r7
f000203c:	ebffff17 	bl	f0001ca0 <print_align>
f0002040:	e28d3003 	add	r3, sp, #3
f0002044:	e080000a 	add	r0, r0, sl
f0002048:	e1a01005 	mov	r1, r5
f000204c:	e5f32001 	ldrb	r2, [r3, #1]!
f0002050:	e3520000 	cmp	r2, #0
f0002054:	e4c12001 	strb	r2, [r1], #1
f0002058:	1afffffb 	bne	f000204c <printk+0x21c>
f000205c:	e0855000 	add	r5, r5, r0
f0002060:	eaffff81 	b	f0001e6c <printk+0x3c>
f0002064:	e59d3014 	ldr	r3, [sp, #20]
f0002068:	e5932000 	ldr	r2, [r3]
f000206c:	e2833004 	add	r3, r3, #4
f0002070:	e58d3014 	str	r3, [sp, #20]
f0002074:	e5c52000 	strb	r2, [r5]
f0002078:	eaffff7b 	b	f0001e6c <printk+0x3c>
f000207c:	e5c59000 	strb	r9, [r5]
f0002080:	e5d43000 	ldrb	r3, [r4]
f0002084:	e5c53001 	strb	r3, [r5, #1]
f0002088:	e2855002 	add	r5, r5, #2
f000208c:	eaffff76 	b	f0001e6c <printk+0x3c>
f0002090:	e59d2014 	ldr	r2, [sp, #20]
f0002094:	e1a01006 	mov	r1, r6
f0002098:	e2823004 	add	r3, r2, #4
f000209c:	e5920000 	ldr	r0, [r2]
f00020a0:	e58d3014 	str	r3, [sp, #20]
f00020a4:	ebffff27 	bl	f0001d48 <itoa.constprop.0>
f00020a8:	e5d6a000 	ldrb	sl, [r6]
f00020ac:	e35a0000 	cmp	sl, #0
f00020b0:	0a000004 	beq	f00020c8 <printk+0x298>
f00020b4:	e1a0a006 	mov	sl, r6
f00020b8:	e5fa3001 	ldrb	r3, [sl, #1]!
f00020bc:	e3530000 	cmp	r3, #0
f00020c0:	1afffffc 	bne	f00020b8 <printk+0x288>
f00020c4:	e066a00a 	rsb	sl, r6, sl
f00020c8:	e1a0100a 	mov	r1, sl
f00020cc:	e1a00006 	mov	r0, r6
f00020d0:	e1a02007 	mov	r2, r7
f00020d4:	ebfffef1 	bl	f0001ca0 <print_align>
f00020d8:	e28d3003 	add	r3, sp, #3
f00020dc:	e080000a 	add	r0, r0, sl
f00020e0:	e1a01005 	mov	r1, r5
f00020e4:	e5f32001 	ldrb	r2, [r3, #1]!
f00020e8:	e3520000 	cmp	r2, #0
f00020ec:	e4c12001 	strb	r2, [r1], #1
f00020f0:	1afffffb 	bne	f00020e4 <printk+0x2b4>
f00020f4:	e0855000 	add	r5, r5, r0
f00020f8:	eaffff5b 	b	f0001e6c <printk+0x3c>
f00020fc:	f0003a70 			; <UNDEFINED> instruction: 0xf0003a70

f0002100 <printk_nommu>:
f0002100:	e92d000f 	push	{r0, r1, r2, r3}
f0002104:	e92d47f0 	push	{r4, r5, r6, r7, r8, r9, sl, lr}
f0002108:	e24dd018 	sub	sp, sp, #24
f000210c:	e28d303c 	add	r3, sp, #60	; 0x3c
f0002110:	e59d4038 	ldr	r4, [sp, #56]	; 0x38
f0002114:	e58d3014 	str	r3, [sp, #20]
f0002118:	e59f82ac 	ldr	r8, [pc, #684]	; f00023cc <printk_nommu+0x2cc>
f000211c:	e5d43000 	ldrb	r3, [r4]
f0002120:	e3530000 	cmp	r3, #0
f0002124:	01a05008 	moveq	r5, r8
f0002128:	0a00002c 	beq	f00021e0 <printk_nommu+0xe0>
f000212c:	e3a09025 	mov	r9, #37	; 0x25
f0002130:	e28d6004 	add	r6, sp, #4
f0002134:	e1a05008 	mov	r5, r8
f0002138:	ea000003 	b	f000214c <printk_nommu+0x4c>
f000213c:	e5d43001 	ldrb	r3, [r4, #1]
f0002140:	e2844001 	add	r4, r4, #1
f0002144:	e3530000 	cmp	r3, #0
f0002148:	0a000024 	beq	f00021e0 <printk_nommu+0xe0>
f000214c:	e3530025 	cmp	r3, #37	; 0x25
f0002150:	14c53001 	strbne	r3, [r5], #1
f0002154:	1afffff8 	bne	f000213c <printk_nommu+0x3c>
f0002158:	e5d43001 	ldrb	r3, [r4, #1]
f000215c:	e2432031 	sub	r2, r3, #49	; 0x31
f0002160:	e3520008 	cmp	r2, #8
f0002164:	92437030 	subls	r7, r3, #48	; 0x30
f0002168:	95d43002 	ldrbls	r3, [r4, #2]
f000216c:	82844001 	addhi	r4, r4, #1
f0002170:	83a07000 	movhi	r7, #0
f0002174:	92844002 	addls	r4, r4, #2
f0002178:	e2433063 	sub	r3, r3, #99	; 0x63
f000217c:	e3530015 	cmp	r3, #21
f0002180:	979ff103 	ldrls	pc, [pc, r3, lsl #2]
f0002184:	ea000070 	b	f000234c <printk_nommu+0x24c>
f0002188:	f0002334 			; <UNDEFINED> instruction: 0xf0002334
f000218c:	f0002360 			; <UNDEFINED> instruction: 0xf0002360
f0002190:	f000234c 			; <UNDEFINED> instruction: 0xf000234c
f0002194:	f000234c 			; <UNDEFINED> instruction: 0xf000234c
f0002198:	f000234c 			; <UNDEFINED> instruction: 0xf000234c
f000219c:	f000234c 			; <UNDEFINED> instruction: 0xf000234c
f00021a0:	f000234c 			; <UNDEFINED> instruction: 0xf000234c
f00021a4:	f000234c 			; <UNDEFINED> instruction: 0xf000234c
f00021a8:	f000234c 			; <UNDEFINED> instruction: 0xf000234c
f00021ac:	f000234c 			; <UNDEFINED> instruction: 0xf000234c
f00021b0:	f000234c 			; <UNDEFINED> instruction: 0xf000234c
f00021b4:	f000234c 			; <UNDEFINED> instruction: 0xf000234c
f00021b8:	f000234c 			; <UNDEFINED> instruction: 0xf000234c
f00021bc:	f00022c4 			; <UNDEFINED> instruction: 0xf00022c4
f00021c0:	f000234c 			; <UNDEFINED> instruction: 0xf000234c
f00021c4:	f000234c 			; <UNDEFINED> instruction: 0xf000234c
f00021c8:	f0002274 			; <UNDEFINED> instruction: 0xf0002274
f00021cc:	f000234c 			; <UNDEFINED> instruction: 0xf000234c
f00021d0:	f0002204 			; <UNDEFINED> instruction: 0xf0002204
f00021d4:	f000234c 			; <UNDEFINED> instruction: 0xf000234c
f00021d8:	f000234c 			; <UNDEFINED> instruction: 0xf000234c
f00021dc:	f00022c4 			; <UNDEFINED> instruction: 0xf00022c4
f00021e0:	e3a03000 	mov	r3, #0
f00021e4:	e59f01e0 	ldr	r0, [pc, #480]	; f00023cc <printk_nommu+0x2cc>
f00021e8:	e4c53001 	strb	r3, [r5], #1
f00021ec:	ebfffdb1 	bl	f00018b8 <serial_puts_nommu>
f00021f0:	e0680005 	rsb	r0, r8, r5
f00021f4:	e28dd018 	add	sp, sp, #24
f00021f8:	e8bd47f0 	pop	{r4, r5, r6, r7, r8, r9, sl, lr}
f00021fc:	e28dd010 	add	sp, sp, #16
f0002200:	e12fff1e 	bx	lr
f0002204:	e59d0014 	ldr	r0, [sp, #20]
f0002208:	e1a01006 	mov	r1, r6
f000220c:	e3a0200a 	mov	r2, #10
f0002210:	e2803004 	add	r3, r0, #4
f0002214:	e5900000 	ldr	r0, [r0]
f0002218:	e58d3014 	str	r3, [sp, #20]
f000221c:	ebfffe70 	bl	f0001be4 <utoa>
f0002220:	e5d6a000 	ldrb	sl, [r6]
f0002224:	e35a0000 	cmp	sl, #0
f0002228:	0a000004 	beq	f0002240 <printk_nommu+0x140>
f000222c:	e1a0a006 	mov	sl, r6
f0002230:	e5fa3001 	ldrb	r3, [sl, #1]!
f0002234:	e3530000 	cmp	r3, #0
f0002238:	1afffffc 	bne	f0002230 <printk_nommu+0x130>
f000223c:	e066a00a 	rsb	sl, r6, sl
f0002240:	e1a0100a 	mov	r1, sl
f0002244:	e1a00006 	mov	r0, r6
f0002248:	e1a02007 	mov	r2, r7
f000224c:	ebfffe93 	bl	f0001ca0 <print_align>
f0002250:	e28d3003 	add	r3, sp, #3
f0002254:	e080000a 	add	r0, r0, sl
f0002258:	e1a01005 	mov	r1, r5
f000225c:	e5f32001 	ldrb	r2, [r3, #1]!
f0002260:	e3520000 	cmp	r2, #0
f0002264:	e4c12001 	strb	r2, [r1], #1
f0002268:	1afffffb 	bne	f000225c <printk_nommu+0x15c>
f000226c:	e0855000 	add	r5, r5, r0
f0002270:	eaffffb1 	b	f000213c <printk_nommu+0x3c>
f0002274:	e59d3014 	ldr	r3, [sp, #20]
f0002278:	e1a01005 	mov	r1, r5
f000227c:	e2832004 	add	r2, r3, #4
f0002280:	e58d2014 	str	r2, [sp, #20]
f0002284:	e5930000 	ldr	r0, [r3]
f0002288:	e2402001 	sub	r2, r0, #1
f000228c:	e5f23001 	ldrb	r3, [r2, #1]!
f0002290:	e3530000 	cmp	r3, #0
f0002294:	e4c13001 	strb	r3, [r1], #1
f0002298:	1afffffb 	bne	f000228c <printk_nommu+0x18c>
f000229c:	e5d03000 	ldrb	r3, [r0]
f00022a0:	e3530000 	cmp	r3, #0
f00022a4:	0a000004 	beq	f00022bc <printk_nommu+0x1bc>
f00022a8:	e1a03000 	mov	r3, r0
f00022ac:	e5f32001 	ldrb	r2, [r3, #1]!
f00022b0:	e3520000 	cmp	r2, #0
f00022b4:	1afffffc 	bne	f00022ac <printk_nommu+0x1ac>
f00022b8:	e0603003 	rsb	r3, r0, r3
f00022bc:	e0855003 	add	r5, r5, r3
f00022c0:	eaffff9d 	b	f000213c <printk_nommu+0x3c>
f00022c4:	e59d0014 	ldr	r0, [sp, #20]
f00022c8:	e1a01006 	mov	r1, r6
f00022cc:	e3a02010 	mov	r2, #16
f00022d0:	e2803004 	add	r3, r0, #4
f00022d4:	e5900000 	ldr	r0, [r0]
f00022d8:	e58d3014 	str	r3, [sp, #20]
f00022dc:	ebfffe40 	bl	f0001be4 <utoa>
f00022e0:	e5d6a000 	ldrb	sl, [r6]
f00022e4:	e35a0000 	cmp	sl, #0
f00022e8:	0a000004 	beq	f0002300 <printk_nommu+0x200>
f00022ec:	e1a0a006 	mov	sl, r6
f00022f0:	e5fa3001 	ldrb	r3, [sl, #1]!
f00022f4:	e3530000 	cmp	r3, #0
f00022f8:	1afffffc 	bne	f00022f0 <printk_nommu+0x1f0>
f00022fc:	e066a00a 	rsb	sl, r6, sl
f0002300:	e1a0100a 	mov	r1, sl
f0002304:	e1a00006 	mov	r0, r6
f0002308:	e1a02007 	mov	r2, r7
f000230c:	ebfffe63 	bl	f0001ca0 <print_align>
f0002310:	e28d3003 	add	r3, sp, #3
f0002314:	e080000a 	add	r0, r0, sl
f0002318:	e1a01005 	mov	r1, r5
f000231c:	e5f32001 	ldrb	r2, [r3, #1]!
f0002320:	e3520000 	cmp	r2, #0
f0002324:	e4c12001 	strb	r2, [r1], #1
f0002328:	1afffffb 	bne	f000231c <printk_nommu+0x21c>
f000232c:	e0855000 	add	r5, r5, r0
f0002330:	eaffff81 	b	f000213c <printk_nommu+0x3c>
f0002334:	e59d3014 	ldr	r3, [sp, #20]
f0002338:	e5932000 	ldr	r2, [r3]
f000233c:	e2833004 	add	r3, r3, #4
f0002340:	e58d3014 	str	r3, [sp, #20]
f0002344:	e5c52000 	strb	r2, [r5]
f0002348:	eaffff7b 	b	f000213c <printk_nommu+0x3c>
f000234c:	e5c59000 	strb	r9, [r5]
f0002350:	e5d43000 	ldrb	r3, [r4]
f0002354:	e5c53001 	strb	r3, [r5, #1]
f0002358:	e2855002 	add	r5, r5, #2
f000235c:	eaffff76 	b	f000213c <printk_nommu+0x3c>
f0002360:	e59d2014 	ldr	r2, [sp, #20]
f0002364:	e1a01006 	mov	r1, r6
f0002368:	e2823004 	add	r3, r2, #4
f000236c:	e5920000 	ldr	r0, [r2]
f0002370:	e58d3014 	str	r3, [sp, #20]
f0002374:	ebfffe73 	bl	f0001d48 <itoa.constprop.0>
f0002378:	e5d6a000 	ldrb	sl, [r6]
f000237c:	e35a0000 	cmp	sl, #0
f0002380:	0a000004 	beq	f0002398 <printk_nommu+0x298>
f0002384:	e1a0a006 	mov	sl, r6
f0002388:	e5fa3001 	ldrb	r3, [sl, #1]!
f000238c:	e3530000 	cmp	r3, #0
f0002390:	1afffffc 	bne	f0002388 <printk_nommu+0x288>
f0002394:	e066a00a 	rsb	sl, r6, sl
f0002398:	e1a0100a 	mov	r1, sl
f000239c:	e1a00006 	mov	r0, r6
f00023a0:	e1a02007 	mov	r2, r7
f00023a4:	ebfffe3d 	bl	f0001ca0 <print_align>
f00023a8:	e28d3003 	add	r3, sp, #3
f00023ac:	e080000a 	add	r0, r0, sl
f00023b0:	e1a01005 	mov	r1, r5
f00023b4:	e5f32001 	ldrb	r2, [r3, #1]!
f00023b8:	e3520000 	cmp	r2, #0
f00023bc:	e4c12001 	strb	r2, [r1], #1
f00023c0:	1afffffb 	bne	f00023b4 <printk_nommu+0x2b4>
f00023c4:	e0855000 	add	r5, r5, r0
f00023c8:	eaffff5b 	b	f000213c <printk_nommu+0x3c>
f00023cc:	f0003a70 			; <UNDEFINED> instruction: 0xf0003a70

f00023d0 <standby_delay>:
f00023d0:	e92d000f 	push	{r0, r1, r2, r3}
f00023d4:	e3a01011 	mov	r1, #17
f00023d8:	e1a03000 	mov	r3, r0

f00023dc <standby_delay_loop2>:
f00023dc:	e2500001 	subs	r0, r0, #1
f00023e0:	8afffffd 	bhi	f00023dc <standby_delay_loop2>
f00023e4:	e1a00003 	mov	r0, r3
f00023e8:	e2511001 	subs	r1, r1, #1
f00023ec:	8afffffa 	bhi	f00023dc <standby_delay_loop2>
f00023f0:	e8bd000f 	pop	{r0, r1, r2, r3}
f00023f4:	e1a0f00e 	mov	pc, lr

f00023f8 <standby_delay_cycle>:
f00023f8:	e2500001 	subs	r0, r0, #1
f00023fc:	8afffffd 	bhi	f00023f8 <standby_delay_cycle>
f0002400:	e1a0f00e 	mov	pc, lr

f0002404 <Ldiv0>:
f0002404:	e52de008 	str	lr, [sp, #-8]!
f0002408:	eb000067 	bl	f00025ac <__mem_div0>
f000240c:	e3a00000 	mov	r0, #0
f0002410:	e49df008 	ldr	pc, [sp], #8

f0002414 <__aeabi_uidiv>:
f0002414:	e2512001 	subs	r2, r1, #1
f0002418:	01a0f00e 	moveq	pc, lr
f000241c:	3afffff8 	bcc	f0002404 <Ldiv0>
f0002420:	e1500001 	cmp	r0, r1
f0002424:	9a00001a 	bls	f0002494 <__aeabi_uidiv+0x80>
f0002428:	e1110002 	tst	r1, r2
f000242c:	0a00001b 	beq	f00024a0 <__aeabi_uidiv+0x8c>
f0002430:	e16f3f11 	clz	r3, r1
f0002434:	e16f2f10 	clz	r2, r0
f0002438:	e0432002 	sub	r2, r3, r2
f000243c:	e3a03001 	mov	r3, #1
f0002440:	e1a01211 	lsl	r1, r1, r2
f0002444:	e1a03213 	lsl	r3, r3, r2
f0002448:	e3a02000 	mov	r2, #0
f000244c:	e1500001 	cmp	r0, r1
f0002450:	20400001 	subcs	r0, r0, r1
f0002454:	21822003 	orrcs	r2, r2, r3
f0002458:	e15000a1 	cmp	r0, r1, lsr #1
f000245c:	204000a1 	subcs	r0, r0, r1, lsr #1
f0002460:	218220a3 	orrcs	r2, r2, r3, lsr #1
f0002464:	e1500121 	cmp	r0, r1, lsr #2
f0002468:	20400121 	subcs	r0, r0, r1, lsr #2
f000246c:	21822123 	orrcs	r2, r2, r3, lsr #2
f0002470:	e15001a1 	cmp	r0, r1, lsr #3
f0002474:	204001a1 	subcs	r0, r0, r1, lsr #3
f0002478:	218221a3 	orrcs	r2, r2, r3, lsr #3
f000247c:	e3500000 	cmp	r0, #0
f0002480:	11b03223 	lsrsne	r3, r3, #4
f0002484:	11a01221 	lsrne	r1, r1, #4
f0002488:	1affffef 	bne	f000244c <__aeabi_uidiv+0x38>
f000248c:	e1a00002 	mov	r0, r2
f0002490:	e1a0f00e 	mov	pc, lr
f0002494:	03a00001 	moveq	r0, #1
f0002498:	13a00000 	movne	r0, #0
f000249c:	e1a0f00e 	mov	pc, lr
f00024a0:	e16f2f11 	clz	r2, r1
f00024a4:	e262201f 	rsb	r2, r2, #31
f00024a8:	e1a00230 	lsr	r0, r0, r2
f00024ac:	e1a0f00e 	mov	pc, lr

f00024b0 <__aeabi_idiv>:
f00024b0:	e3510000 	cmp	r1, #0
f00024b4:	e020c001 	eor	ip, r0, r1
f00024b8:	0affffd1 	beq	f0002404 <Ldiv0>
f00024bc:	42611000 	rsbmi	r1, r1, #0
f00024c0:	e2512001 	subs	r2, r1, #1
f00024c4:	0a00001f 	beq	f0002548 <__aeabi_idiv+0x98>
f00024c8:	e1b03000 	movs	r3, r0
f00024cc:	42603000 	rsbmi	r3, r0, #0
f00024d0:	e1530001 	cmp	r3, r1
f00024d4:	9a00001e 	bls	f0002554 <__aeabi_idiv+0xa4>
f00024d8:	e1110002 	tst	r1, r2
f00024dc:	0a000020 	beq	f0002564 <__aeabi_idiv+0xb4>
f00024e0:	e16f2f11 	clz	r2, r1
f00024e4:	e16f0f13 	clz	r0, r3
f00024e8:	e0420000 	sub	r0, r2, r0
f00024ec:	e3a02001 	mov	r2, #1
f00024f0:	e1a01011 	lsl	r1, r1, r0
f00024f4:	e1a02012 	lsl	r2, r2, r0
f00024f8:	e3a00000 	mov	r0, #0
f00024fc:	e1530001 	cmp	r3, r1
f0002500:	20433001 	subcs	r3, r3, r1
f0002504:	21800002 	orrcs	r0, r0, r2
f0002508:	e15300a1 	cmp	r3, r1, lsr #1
f000250c:	204330a1 	subcs	r3, r3, r1, lsr #1
f0002510:	218000a2 	orrcs	r0, r0, r2, lsr #1
f0002514:	e1530121 	cmp	r3, r1, lsr #2
f0002518:	20433121 	subcs	r3, r3, r1, lsr #2
f000251c:	21800122 	orrcs	r0, r0, r2, lsr #2
f0002520:	e15301a1 	cmp	r3, r1, lsr #3
f0002524:	204331a1 	subcs	r3, r3, r1, lsr #3
f0002528:	218001a2 	orrcs	r0, r0, r2, lsr #3
f000252c:	e3530000 	cmp	r3, #0
f0002530:	11b02222 	lsrsne	r2, r2, #4
f0002534:	11a01221 	lsrne	r1, r1, #4
f0002538:	1affffef 	bne	f00024fc <__aeabi_idiv+0x4c>
f000253c:	e35c0000 	cmp	ip, #0
f0002540:	42600000 	rsbmi	r0, r0, #0
f0002544:	e1a0f00e 	mov	pc, lr
f0002548:	e13c0000 	teq	ip, r0
f000254c:	42600000 	rsbmi	r0, r0, #0
f0002550:	e1a0f00e 	mov	pc, lr
f0002554:	33a00000 	movcc	r0, #0
f0002558:	01a00fcc 	asreq	r0, ip, #31
f000255c:	03800001 	orreq	r0, r0, #1
f0002560:	e1a0f00e 	mov	pc, lr
f0002564:	e16f2f11 	clz	r2, r1
f0002568:	e262201f 	rsb	r2, r2, #31
f000256c:	e35c0000 	cmp	ip, #0
f0002570:	e1a00233 	lsr	r0, r3, r2
f0002574:	42600000 	rsbmi	r0, r0, #0
f0002578:	e1a0f00e 	mov	pc, lr

f000257c <__aeabi_uidivmod>:
f000257c:	e92d5003 	push	{r0, r1, ip, lr}
f0002580:	ebffffa3 	bl	f0002414 <__aeabi_uidiv>
f0002584:	e8bd5006 	pop	{r1, r2, ip, lr}
f0002588:	e0030290 	mul	r3, r0, r2
f000258c:	e0411003 	sub	r1, r1, r3
f0002590:	e1a0f00e 	mov	pc, lr

f0002594 <__aeabi_idivmod>:
f0002594:	e92d5003 	push	{r0, r1, ip, lr}
f0002598:	ebffffc4 	bl	f00024b0 <__aeabi_idiv>
f000259c:	e8bd5006 	pop	{r1, r2, ip, lr}
f00025a0:	e0030290 	mul	r3, r0, r2
f00025a4:	e0411003 	sub	r1, r1, r3
f00025a8:	e1a0f00e 	mov	pc, lr

f00025ac <__mem_div0>:
f00025ac:	e30308ec 	movw	r0, #14572	; 0x38ec
f00025b0:	e34f0000 	movt	r0, #61440	; 0xf000
f00025b4:	eafffe1d 	b	f0001e30 <printk>

f00025b8 <raw_lib_udiv>:
f00025b8:	e3510000 	cmp	r1, #0
f00025bc:	01a02001 	moveq	r2, r1
f00025c0:	0a00000d 	beq	f00025fc <raw_lib_udiv+0x44>
f00025c4:	e3a03000 	mov	r3, #0
f00025c8:	ba000002 	blt	f00025d8 <raw_lib_udiv+0x20>
f00025cc:	e1b01081 	lsls	r1, r1, #1
f00025d0:	e2833001 	add	r3, r3, #1
f00025d4:	5afffffc 	bpl	f00025cc <raw_lib_udiv+0x14>
f00025d8:	e3a02000 	mov	r2, #0
f00025dc:	e1a0c082 	lsl	ip, r2, #1
f00025e0:	e1500001 	cmp	r0, r1
f00025e4:	20610000 	rsbcs	r0, r1, r0
f00025e8:	31a02082 	lslcc	r2, r2, #1
f00025ec:	238c2001 	orrcs	r2, ip, #1
f00025f0:	e1a010a1 	lsr	r1, r1, #1
f00025f4:	e2533001 	subs	r3, r3, #1
f00025f8:	5afffff7 	bpl	f00025dc <raw_lib_udiv+0x24>
f00025fc:	e1a00002 	mov	r0, r2
f0002600:	e12fff1e 	bx	lr

f0002604 <mem_int_init>:
f0002604:	e59f0080 	ldr	r0, [pc, #128]	; f000268c <mem_int_init+0x88>
f0002608:	e3013184 	movw	r3, #4484	; 0x1184
f000260c:	e3a02d47 	mov	r2, #4544	; 0x11c0
f0002610:	e92d4010 	push	{r4, lr}
f0002614:	e3a0ca02 	mov	ip, #8192	; 0x2000
f0002618:	e3a04a01 	mov	r4, #4096	; 0x1000
f000261c:	e34f31c8 	movt	r3, #61896	; 0xf1c8
f0002620:	e3e01000 	mvn	r1, #0
f0002624:	e34f21c8 	movt	r2, #61896	; 0xf1c8
f0002628:	e34f41c8 	movt	r4, #61896	; 0xf1c8
f000262c:	e34fc1c8 	movt	ip, #61896	; 0xf1c8
f0002630:	e8801010 	stm	r0, {r4, ip}
f0002634:	e4831004 	str	r1, [r3], #4
f0002638:	e1530002 	cmp	r3, r2
f000263c:	1afffffc 	bne	f0002634 <mem_int_init+0x30>
f0002640:	e3013284 	movw	r3, #4740	; 0x1284
f0002644:	e3a02d4b 	mov	r2, #4800	; 0x12c0
f0002648:	e34f31c8 	movt	r3, #61896	; 0xf1c8
f000264c:	e3e01000 	mvn	r1, #0
f0002650:	e34f21c8 	movt	r2, #61896	; 0xf1c8
f0002654:	e4831004 	str	r1, [r3], #4
f0002658:	e1530002 	cmp	r3, r2
f000265c:	1afffffc 	bne	f0002654 <mem_int_init+0x50>
f0002660:	e3a03a02 	mov	r3, #8192	; 0x2000
f0002664:	e30023ff 	movw	r2, #1023	; 0x3ff
f0002668:	e34f31c8 	movt	r3, #61896	; 0xf1c8
f000266c:	e593100c 	ldr	r1, [r3, #12]
f0002670:	e1510002 	cmp	r1, r2
f0002674:	0a000002 	beq	f0002684 <mem_int_init+0x80>
f0002678:	e5831010 	str	r1, [r3, #16]
f000267c:	e59f000c 	ldr	r0, [pc, #12]	; f0002690 <mem_int_init+0x8c>
f0002680:	ebfffdea 	bl	f0001e30 <printk>
f0002684:	e3a00000 	mov	r0, #0
f0002688:	e8bd8010 	pop	{r4, pc}
f000268c:	f0003b70 			; <UNDEFINED> instruction: 0xf0003b70
f0002690:	f0003908 			; <UNDEFINED> instruction: 0xf0003908

f0002694 <mem_int_exit>:
f0002694:	e3a02000 	mov	r2, #0
f0002698:	e24dd008 	sub	sp, sp, #8
f000269c:	e1a03002 	mov	r3, r2
f00026a0:	e58d2004 	str	r2, [sp, #4]
f00026a4:	e59f2038 	ldr	r2, [pc, #56]	; f00026e4 <mem_int_exit+0x50>
f00026a8:	e5922000 	ldr	r2, [r2]
f00026ac:	e282cc01 	add	ip, r2, #256	; 0x100
f00026b0:	e2822d0a 	add	r2, r2, #640	; 0x280
f00026b4:	e79c1003 	ldr	r1, [ip, r3]
f00026b8:	e58d1004 	str	r1, [sp, #4]
f00026bc:	e7921003 	ldr	r1, [r2, r3]
f00026c0:	e59d0004 	ldr	r0, [sp, #4]
f00026c4:	e1c11000 	bic	r1, r1, r0
f00026c8:	e7821003 	str	r1, [r2, r3]
f00026cc:	e2833004 	add	r3, r3, #4
f00026d0:	e3530040 	cmp	r3, #64	; 0x40
f00026d4:	1afffff6 	bne	f00026b4 <mem_int_exit+0x20>
f00026d8:	e3a00000 	mov	r0, #0
f00026dc:	e28dd008 	add	sp, sp, #8
f00026e0:	e12fff1e 	bx	lr
f00026e4:	f0003b70 			; <UNDEFINED> instruction: 0xf0003b70

f00026e8 <mem_enable_int>:
f00026e8:	e59f3050 	ldr	r3, [pc, #80]	; f0002740 <mem_enable_int+0x58>
f00026ec:	e3a01a01 	mov	r1, #4096	; 0x1000
f00026f0:	e3a02a02 	mov	r2, #8192	; 0x2000
f00026f4:	e3500000 	cmp	r0, #0
f00026f8:	e34f11c8 	movt	r1, #61896	; 0xf1c8
f00026fc:	e34f21c8 	movt	r2, #61896	; 0xf1c8
f0002700:	e8830006 	stm	r3, {r1, r2}
f0002704:	0a00000b 	beq	f0002738 <mem_enable_int+0x50>
f0002708:	e1a032a0 	lsr	r3, r0, #5
f000270c:	e200201f 	and	r2, r0, #31
f0002710:	e3a0c001 	mov	ip, #1
f0002714:	e2833040 	add	r3, r3, #64	; 0x40
f0002718:	e3a00000 	mov	r0, #0
f000271c:	e1a03103 	lsl	r3, r3, #2
f0002720:	e24336e3 	sub	r3, r3, #238026752	; 0xe300000
f0002724:	e2433a7f 	sub	r3, r3, #520192	; 0x7f000
f0002728:	e5931000 	ldr	r1, [r3]
f000272c:	e181221c 	orr	r2, r1, ip, lsl r2
f0002730:	e5832000 	str	r2, [r3]
f0002734:	e12fff1e 	bx	lr
f0002738:	e3e00000 	mvn	r0, #0
f000273c:	e12fff1e 	bx	lr
f0002740:	f0003b70 			; <UNDEFINED> instruction: 0xf0003b70

f0002744 <mem_query_int>:
f0002744:	e59f3050 	ldr	r3, [pc, #80]	; f000279c <mem_query_int+0x58>
f0002748:	e3a01a01 	mov	r1, #4096	; 0x1000
f000274c:	e3a02a02 	mov	r2, #8192	; 0x2000
f0002750:	e3500000 	cmp	r0, #0
f0002754:	e34f11c8 	movt	r1, #61896	; 0xf1c8
f0002758:	e34f21c8 	movt	r2, #61896	; 0xf1c8
f000275c:	e8830006 	stm	r3, {r1, r2}
f0002760:	0a00000b 	beq	f0002794 <mem_query_int+0x50>
f0002764:	e1a032a0 	lsr	r3, r0, #5
f0002768:	e3a02001 	mov	r2, #1
f000276c:	e200001f 	and	r0, r0, #31
f0002770:	e2833080 	add	r3, r3, #128	; 0x80
f0002774:	e1a03103 	lsl	r3, r3, #2
f0002778:	e24336e3 	sub	r3, r3, #238026752	; 0xe300000
f000277c:	e2433a7f 	sub	r3, r3, #520192	; 0x7f000
f0002780:	e5933000 	ldr	r3, [r3]
f0002784:	e0132012 	ands	r2, r3, r2, lsl r0
f0002788:	03e00000 	mvneq	r0, #0
f000278c:	13a00000 	movne	r0, #0
f0002790:	e12fff1e 	bx	lr
f0002794:	e3e00000 	mvn	r0, #0
f0002798:	e12fff1e 	bx	lr
f000279c:	f0003b70 			; <UNDEFINED> instruction: 0xf0003b70

f00027a0 <mem_gpio_save>:
f00027a0:	e3a03b02 	mov	r3, #2048	; 0x800
f00027a4:	e3a02eb2 	mov	r2, #2848	; 0xb20
f00027a8:	e2400004 	sub	r0, r0, #4
f00027ac:	e34f31c2 	movt	r3, #61890	; 0xf1c2
f00027b0:	e34f21c2 	movt	r2, #61890	; 0xf1c2
f00027b4:	e4931004 	ldr	r1, [r3], #4
f00027b8:	e1530002 	cmp	r3, r2
f00027bc:	e5a01004 	str	r1, [r0, #4]!
f00027c0:	1afffffb 	bne	f00027b4 <mem_gpio_save+0x14>
f00027c4:	e3a00000 	mov	r0, #0
f00027c8:	e12fff1e 	bx	lr

f00027cc <mem_gpio_restore>:
f00027cc:	e3a03b02 	mov	r3, #2048	; 0x800
f00027d0:	e3a02eb2 	mov	r2, #2848	; 0xb20
f00027d4:	e2400004 	sub	r0, r0, #4
f00027d8:	e34f31c2 	movt	r3, #61890	; 0xf1c2
f00027dc:	e34f21c2 	movt	r2, #61890	; 0xf1c2
f00027e0:	e5b01004 	ldr	r1, [r0, #4]!
f00027e4:	e4831004 	str	r1, [r3], #4
f00027e8:	e1530002 	cmp	r3, r2
f00027ec:	1afffffb 	bne	f00027e0 <mem_gpio_restore+0x14>
f00027f0:	e3a00000 	mov	r0, #0
f00027f4:	e12fff1e 	bx	lr

f00027f8 <config_gpio_clk>:
f00027f8:	e59f303c 	ldr	r3, [pc, #60]	; f000283c <config_gpio_clk+0x44>
f00027fc:	e5932000 	ldr	r2, [r3]
f0002800:	e3520000 	cmp	r2, #0
f0002804:	112fff1e 	bxne	lr
f0002808:	e3a01068 	mov	r1, #104	; 0x68
f000280c:	e3500000 	cmp	r0, #0
f0002810:	e1a02001 	mov	r2, r1
f0002814:	e34011c2 	movt	r1, #450	; 0x1c2
f0002818:	e34f21c2 	movt	r2, #61890	; 0xf1c2
f000281c:	01a00001 	moveq	r0, r1
f0002820:	11a00002 	movne	r0, r2
f0002824:	e3a01001 	mov	r1, #1
f0002828:	e5902000 	ldr	r2, [r0]
f000282c:	e5831000 	str	r1, [r3]
f0002830:	e3823020 	orr	r3, r2, #32
f0002834:	e5803000 	str	r3, [r0]
f0002838:	e12fff1e 	bx	lr
f000283c:	f0003b78 			; <UNDEFINED> instruction: 0xf0003b78

f0002840 <mem_tmr_save>:
f0002840:	e3a03000 	mov	r3, #0
f0002844:	e1a02000 	mov	r2, r0
f0002848:	e34f31c2 	movt	r3, #61890	; 0xf1c2
f000284c:	e3030b7c 	movw	r0, #15228	; 0x3b7c
f0002850:	e5931c00 	ldr	r1, [r3, #3072]	; 0xc00
f0002854:	e3a0cb03 	mov	ip, #3072	; 0xc00
f0002858:	e34f0000 	movt	r0, #61440	; 0xf000
f000285c:	e34fc1c2 	movt	ip, #61890	; 0xf1c2
f0002860:	e580c000 	str	ip, [r0]
f0002864:	e3a00000 	mov	r0, #0
f0002868:	e5821000 	str	r1, [r2]
f000286c:	e5931c10 	ldr	r1, [r3, #3088]	; 0xc10
f0002870:	e5821010 	str	r1, [r2, #16]
f0002874:	e5931c14 	ldr	r1, [r3, #3092]	; 0xc14
f0002878:	e5821014 	str	r1, [r2, #20]
f000287c:	e5931c18 	ldr	r1, [r3, #3096]	; 0xc18
f0002880:	e5821018 	str	r1, [r2, #24]
f0002884:	e5931c20 	ldr	r1, [r3, #3104]	; 0xc20
f0002888:	e5821020 	str	r1, [r2, #32]
f000288c:	e5931c24 	ldr	r1, [r3, #3108]	; 0xc24
f0002890:	e5821024 	str	r1, [r2, #36]	; 0x24
f0002894:	e5933c28 	ldr	r3, [r3, #3112]	; 0xc28
f0002898:	e5823028 	str	r3, [r2, #40]	; 0x28
f000289c:	e12fff1e 	bx	lr

f00028a0 <mem_tmr_restore>:
f00028a0:	e3033b7c 	movw	r3, #15228	; 0x3b7c
f00028a4:	e5901014 	ldr	r1, [r0, #20]
f00028a8:	e34f3000 	movt	r3, #61440	; 0xf000
f00028ac:	e1a02000 	mov	r2, r0
f00028b0:	e5933000 	ldr	r3, [r3]
f00028b4:	e3a00000 	mov	r0, #0
f00028b8:	e5831014 	str	r1, [r3, #20]
f00028bc:	e5921018 	ldr	r1, [r2, #24]
f00028c0:	e5831018 	str	r1, [r3, #24]
f00028c4:	e5921010 	ldr	r1, [r2, #16]
f00028c8:	e5831010 	str	r1, [r3, #16]
f00028cc:	e5921024 	ldr	r1, [r2, #36]	; 0x24
f00028d0:	e5831024 	str	r1, [r3, #36]	; 0x24
f00028d4:	e5921028 	ldr	r1, [r2, #40]	; 0x28
f00028d8:	e5831028 	str	r1, [r3, #40]	; 0x28
f00028dc:	e5921020 	ldr	r1, [r2, #32]
f00028e0:	e5831020 	str	r1, [r3, #32]
f00028e4:	e5922000 	ldr	r2, [r2]
f00028e8:	e5832000 	str	r2, [r3]
f00028ec:	e12fff1e 	bx	lr

f00028f0 <mem_tmr_init>:
f00028f0:	e3a02000 	mov	r2, #0
f00028f4:	e3033b7c 	movw	r3, #15228	; 0x3b7c
f00028f8:	e34f21c2 	movt	r2, #61890	; 0xf1c2
f00028fc:	e3a01b03 	mov	r1, #3072	; 0xc00
f0002900:	e592ccb4 	ldr	ip, [r2, #3252]	; 0xcb4
f0002904:	e34f3000 	movt	r3, #61440	; 0xf000
f0002908:	e34f11c2 	movt	r1, #61890	; 0xf1c2
f000290c:	e3a00000 	mov	r0, #0
f0002910:	e8831002 	stm	r3, {r1, ip}
f0002914:	e5921cb8 	ldr	r1, [r2, #3256]	; 0xcb8
f0002918:	e5831008 	str	r1, [r3, #8]
f000291c:	e5922ca0 	ldr	r2, [r2, #3232]	; 0xca0
f0002920:	e583200c 	str	r2, [r3, #12]
f0002924:	e12fff1e 	bx	lr

f0002928 <mem_tmr_exit>:
f0002928:	e3033b7c 	movw	r3, #15228	; 0x3b7c
f000292c:	e3a00000 	mov	r0, #0
f0002930:	e34f3000 	movt	r3, #61440	; 0xf000
f0002934:	e8931004 	ldm	r3, {r2, ip}
f0002938:	e5931008 	ldr	r1, [r3, #8]
f000293c:	e593300c 	ldr	r3, [r3, #12]
f0002940:	e582c0b4 	str	ip, [r2, #180]	; 0xb4
f0002944:	e58210b8 	str	r1, [r2, #184]	; 0xb8
f0002948:	e58230a0 	str	r3, [r2, #160]	; 0xa0
f000294c:	e12fff1e 	bx	lr

f0002950 <mem_tmr_enable_watchdog>:
f0002950:	e3033b7c 	movw	r3, #15228	; 0x3b7c
f0002954:	e34f3000 	movt	r3, #61440	; 0xf000
f0002958:	e5933000 	ldr	r3, [r3]
f000295c:	e59320b4 	ldr	r2, [r3, #180]	; 0xb4
f0002960:	e3c22003 	bic	r2, r2, #3
f0002964:	e58320b4 	str	r2, [r3, #180]	; 0xb4
f0002968:	e59320b4 	ldr	r2, [r3, #180]	; 0xb4
f000296c:	e3822001 	orr	r2, r2, #1
f0002970:	e58320b4 	str	r2, [r3, #180]	; 0xb4
f0002974:	e3a020b0 	mov	r2, #176	; 0xb0
f0002978:	e58320b8 	str	r2, [r3, #184]	; 0xb8
f000297c:	e59320a0 	ldr	r2, [r3, #160]	; 0xa0
f0002980:	e3822001 	orr	r2, r2, #1
f0002984:	e58320a0 	str	r2, [r3, #160]	; 0xa0
f0002988:	e59320b8 	ldr	r2, [r3, #184]	; 0xb8
f000298c:	e3822001 	orr	r2, r2, #1
f0002990:	e58320b8 	str	r2, [r3, #184]	; 0xb8
f0002994:	e12fff1e 	bx	lr

f0002998 <mem_tmr_disable_watchdog>:
f0002998:	e3033b7c 	movw	r3, #15228	; 0x3b7c
f000299c:	e34f3000 	movt	r3, #61440	; 0xf000
f00029a0:	e5933000 	ldr	r3, [r3]
f00029a4:	e59320b4 	ldr	r2, [r3, #180]	; 0xb4
f00029a8:	e3c22003 	bic	r2, r2, #3
f00029ac:	e58320b4 	str	r2, [r3, #180]	; 0xb4
f00029b0:	e59320b4 	ldr	r2, [r3, #180]	; 0xb4
f00029b4:	e3822002 	orr	r2, r2, #2
f00029b8:	e58320b4 	str	r2, [r3, #180]	; 0xb4
f00029bc:	e59320a0 	ldr	r2, [r3, #160]	; 0xa0
f00029c0:	e3c22001 	bic	r2, r2, #1
f00029c4:	e58320a0 	str	r2, [r3, #160]	; 0xa0
f00029c8:	e59320b8 	ldr	r2, [r3, #184]	; 0xb8
f00029cc:	e3c22001 	bic	r2, r2, #1
f00029d0:	e58320b8 	str	r2, [r3, #184]	; 0xb8
f00029d4:	e12fff1e 	bx	lr

f00029d8 <mem_tmr_set>:
f00029d8:	e3033b7c 	movw	r3, #15228	; 0x3b7c
f00029dc:	e3a01001 	mov	r1, #1
f00029e0:	e34f3000 	movt	r3, #61440	; 0xf000
f00029e4:	e1a0c500 	lsl	ip, r0, #10
f00029e8:	e5933000 	ldr	r3, [r3]
f00029ec:	e3a02000 	mov	r2, #0
f00029f0:	e1a00002 	mov	r0, r2
f00029f4:	e5831004 	str	r1, [r3, #4]
f00029f8:	e5831000 	str	r1, [r3]
f00029fc:	e5832010 	str	r2, [r3, #16]
f0002a00:	e3a020d0 	mov	r2, #208	; 0xd0
f0002a04:	e583c014 	str	ip, [r3, #20]
f0002a08:	e5832010 	str	r2, [r3, #16]
f0002a0c:	e5932010 	ldr	r2, [r3, #16]
f0002a10:	e3822002 	orr	r2, r2, #2
f0002a14:	e5832010 	str	r2, [r3, #16]
f0002a18:	e5932010 	ldr	r2, [r3, #16]
f0002a1c:	e1822001 	orr	r2, r2, r1
f0002a20:	e5832010 	str	r2, [r3, #16]
f0002a24:	e12fff1e 	bx	lr

f0002a28 <mem_tmstmp_save>:
f0002a28:	e3a03000 	mov	r3, #0
f0002a2c:	e1a02000 	mov	r2, r0
f0002a30:	e34f3172 	movt	r3, #61810	; 0xf172
f0002a34:	e3030b8c 	movw	r0, #15244	; 0x3b8c
f0002a38:	e5931000 	ldr	r1, [r3]
f0002a3c:	e34f0000 	movt	r0, #61440	; 0xf000
f0002a40:	e5803000 	str	r3, [r0]
f0002a44:	e3a00000 	mov	r0, #0
f0002a48:	e5821000 	str	r1, [r2]
f0002a4c:	e5933020 	ldr	r3, [r3, #32]
f0002a50:	e5823020 	str	r3, [r2, #32]
f0002a54:	e12fff1e 	bx	lr

f0002a58 <mem_tmstmp_restore>:
f0002a58:	e3033b8c 	movw	r3, #15244	; 0x3b8c
f0002a5c:	e5901000 	ldr	r1, [r0]
f0002a60:	e34f3000 	movt	r3, #61440	; 0xf000
f0002a64:	e1a02000 	mov	r2, r0
f0002a68:	e5933000 	ldr	r3, [r3]
f0002a6c:	e3a00000 	mov	r0, #0
f0002a70:	e5831000 	str	r1, [r3]
f0002a74:	e5922020 	ldr	r2, [r2, #32]
f0002a78:	e5832020 	str	r2, [r3, #32]
f0002a7c:	e12fff1e 	bx	lr

f0002a80 <mem_clk_init>:
f0002a80:	e3500001 	cmp	r0, #1
f0002a84:	e3a03000 	mov	r3, #0
f0002a88:	059f201c 	ldreq	r2, [pc, #28]	; f0002aac <mem_clk_init+0x2c>
f0002a8c:	034f31c2 	movteq	r3, #61890	; 0xf1c2
f0002a90:	159f2014 	ldrne	r2, [pc, #20]	; f0002aac <mem_clk_init+0x2c>
f0002a94:	134031c2 	movtne	r3, #450	; 0x1c2
f0002a98:	01a00003 	moveq	r0, r3
f0002a9c:	11a00003 	movne	r0, r3
f0002aa0:	05823000 	streq	r3, [r2]
f0002aa4:	15823000 	strne	r3, [r2]
f0002aa8:	e12fff1e 	bx	lr
f0002aac:	f0003b90 			; <UNDEFINED> instruction: 0xf0003b90

f0002ab0 <mem_get_ba>:
f0002ab0:	e3033b90 	movw	r3, #15248	; 0x3b90
f0002ab4:	e34f3000 	movt	r3, #61440	; 0xf000
f0002ab8:	e5930000 	ldr	r0, [r3]
f0002abc:	e12fff1e 	bx	lr

f0002ac0 <mem_clk_save>:
f0002ac0:	e3a03000 	mov	r3, #0
f0002ac4:	e1a02000 	mov	r2, r0
f0002ac8:	e34f31c2 	movt	r3, #61890	; 0xf1c2
f0002acc:	e3030b90 	movw	r0, #15248	; 0x3b90
f0002ad0:	e5931050 	ldr	r1, [r3, #80]	; 0x50
f0002ad4:	e34f0000 	movt	r0, #61440	; 0xf000
f0002ad8:	e5803000 	str	r3, [r0]
f0002adc:	e3a00000 	mov	r0, #0
f0002ae0:	e5823000 	str	r3, [r2]
f0002ae4:	e5821004 	str	r1, [r2, #4]
f0002ae8:	e5931058 	ldr	r1, [r3, #88]	; 0x58
f0002aec:	e5821008 	str	r1, [r2, #8]
f0002af0:	e5933054 	ldr	r3, [r3, #84]	; 0x54
f0002af4:	e582300c 	str	r3, [r2, #12]
f0002af8:	e12fff1e 	bx	lr

f0002afc <mem_clk_restore>:
f0002afc:	e5903000 	ldr	r3, [r0]
f0002b00:	e3031b90 	movw	r1, #15248	; 0x3b90
f0002b04:	e590c004 	ldr	ip, [r0, #4]
f0002b08:	e1a02000 	mov	r2, r0
f0002b0c:	e34f1000 	movt	r1, #61440	; 0xf000
f0002b10:	e3a00000 	mov	r0, #0
f0002b14:	e5813000 	str	r3, [r1]
f0002b18:	e583c050 	str	ip, [r3, #80]	; 0x50
f0002b1c:	e5921008 	ldr	r1, [r2, #8]
f0002b20:	e5831058 	str	r1, [r3, #88]	; 0x58
f0002b24:	e592200c 	ldr	r2, [r2, #12]
f0002b28:	e5832054 	str	r2, [r3, #84]	; 0x54
f0002b2c:	e12fff1e 	bx	lr

f0002b30 <mem_clk_setdiv>:
f0002b30:	e92d4038 	push	{r3, r4, r5, lr}
f0002b34:	e2504000 	subs	r4, r0, #0
f0002b38:	0a000015 	beq	f0002b94 <mem_clk_setdiv+0x64>
f0002b3c:	e59f5058 	ldr	r5, [pc, #88]	; f0002b9c <mem_clk_setdiv+0x6c>
f0002b40:	e3a03000 	mov	r3, #0
f0002b44:	e34031c2 	movt	r3, #450	; 0x1c2
f0002b48:	e5941000 	ldr	r1, [r4]
f0002b4c:	e3a00005 	mov	r0, #5
f0002b50:	e5853000 	str	r3, [r5]
f0002b54:	e5932050 	ldr	r2, [r3, #80]	; 0x50
f0002b58:	e7c12011 	bfi	r2, r1, #0, #2
f0002b5c:	e5852004 	str	r2, [r5, #4]
f0002b60:	e5832050 	str	r2, [r3, #80]	; 0x50
f0002b64:	e5942004 	ldr	r2, [r4, #4]
f0002b68:	e3c22a03 	bic	r2, r2, #12288	; 0x3000
f0002b6c:	e3822a01 	orr	r2, r2, #4096	; 0x1000
f0002b70:	e5832054 	str	r2, [r3, #84]	; 0x54
f0002b74:	ebfff8f7 	bl	f0000f58 <delay_us>
f0002b78:	e5953000 	ldr	r3, [r5]
f0002b7c:	e3a00005 	mov	r0, #5
f0002b80:	e5942004 	ldr	r2, [r4, #4]
f0002b84:	e5832054 	str	r2, [r3, #84]	; 0x54
f0002b88:	ebfff8f2 	bl	f0000f58 <delay_us>
f0002b8c:	e3a00000 	mov	r0, #0
f0002b90:	e8bd8038 	pop	{r3, r4, r5, pc}
f0002b94:	e3e00000 	mvn	r0, #0
f0002b98:	e8bd8038 	pop	{r3, r4, r5, pc}
f0002b9c:	f0003b90 			; <UNDEFINED> instruction: 0xf0003b90

f0002ba0 <mem_clk_getdiv>:
f0002ba0:	e2502000 	subs	r2, r0, #0
f0002ba4:	e52d4004 	push	{r4}		; (str r4, [sp, #-4]!)
f0002ba8:	03e00000 	mvneq	r0, #0
f0002bac:	0a00000a 	beq	f0002bdc <mem_clk_getdiv+0x3c>
f0002bb0:	e59f102c 	ldr	r1, [pc, #44]	; f0002be4 <mem_clk_getdiv+0x44>
f0002bb4:	e3a03000 	mov	r3, #0
f0002bb8:	e34f31c2 	movt	r3, #61890	; 0xf1c2
f0002bbc:	e3a00000 	mov	r0, #0
f0002bc0:	e5813000 	str	r3, [r1]
f0002bc4:	e593c050 	ldr	ip, [r3, #80]	; 0x50
f0002bc8:	e20c4003 	and	r4, ip, #3
f0002bcc:	e581c004 	str	ip, [r1, #4]
f0002bd0:	e5824000 	str	r4, [r2]
f0002bd4:	e5933054 	ldr	r3, [r3, #84]	; 0x54
f0002bd8:	e5823004 	str	r3, [r2, #4]
f0002bdc:	e8bd0010 	pop	{r4}
f0002be0:	e12fff1e 	bx	lr
f0002be4:	f0003b90 			; <UNDEFINED> instruction: 0xf0003b90

f0002be8 <mem_clk_set_pll_factor>:
f0002be8:	e3033b90 	movw	r3, #15248	; 0x3b90
f0002bec:	e3a02000 	mov	r2, #0
f0002bf0:	e34f3000 	movt	r3, #61440	; 0xf000
f0002bf4:	e34021c2 	movt	r2, #450	; 0x1c2
f0002bf8:	e1a01000 	mov	r1, r0
f0002bfc:	e52d4004 	push	{r4}		; (str r4, [sp, #-4]!)
f0002c00:	e5832000 	str	r2, [r3]
f0002c04:	e3a00000 	mov	r0, #0
f0002c08:	e5d14003 	ldrb	r4, [r1, #3]
f0002c0c:	e592c000 	ldr	ip, [r2]
f0002c10:	e7d0c814 	bfi	ip, r4, #16, #1
f0002c14:	e583c008 	str	ip, [r3, #8]
f0002c18:	e5d14002 	ldrb	r4, [r1, #2]
f0002c1c:	e7c1c014 	bfi	ip, r4, #0, #2
f0002c20:	e583c008 	str	ip, [r3, #8]
f0002c24:	e5d11000 	ldrb	r1, [r1]
f0002c28:	e5c31009 	strb	r1, [r3, #9]
f0002c2c:	e5933008 	ldr	r3, [r3, #8]
f0002c30:	e5823000 	str	r3, [r2]
f0002c34:	e8bd0010 	pop	{r4}
f0002c38:	e12fff1e 	bx	lr

f0002c3c <mem_clk_get_pll_factor>:
f0002c3c:	e3033b90 	movw	r3, #15248	; 0x3b90
f0002c40:	e3a02000 	mov	r2, #0
f0002c44:	e34f3000 	movt	r3, #61440	; 0xf000
f0002c48:	e34f21c2 	movt	r2, #61890	; 0xf1c2
f0002c4c:	e92d0030 	push	{r4, r5}
f0002c50:	e1a01000 	mov	r1, r0
f0002c54:	e5832000 	str	r2, [r3]
f0002c58:	e3a00000 	mov	r0, #0
f0002c5c:	e5922000 	ldr	r2, [r2]
f0002c60:	e7e75452 	ubfx	r5, r2, #8, #8
f0002c64:	e7e14052 	ubfx	r4, r2, #0, #2
f0002c68:	e7e0c852 	ubfx	ip, r2, #16, #1
f0002c6c:	e5832008 	str	r2, [r3, #8]
f0002c70:	e5c15000 	strb	r5, [r1]
f0002c74:	e5c14002 	strb	r4, [r1, #2]
f0002c78:	e5c1c003 	strb	ip, [r1, #3]
f0002c7c:	e8bd0030 	pop	{r4, r5}
f0002c80:	e12fff1e 	bx	lr

f0002c84 <mem_clk_set_misc>:
f0002c84:	e1a02000 	mov	r2, r0
f0002c88:	e5900000 	ldr	r0, [r0]
f0002c8c:	e3031b90 	movw	r1, #15248	; 0x3b90
f0002c90:	e3a03000 	mov	r3, #0
f0002c94:	e34031c2 	movt	r3, #450	; 0x1c2
f0002c98:	e34f1000 	movt	r1, #61440	; 0xf000
f0002c9c:	e5813000 	str	r3, [r1]
f0002ca0:	e5830220 	str	r0, [r3, #544]	; 0x220
f0002ca4:	e3a00000 	mov	r0, #0
f0002ca8:	e592c008 	ldr	ip, [r2, #8]
f0002cac:	e583c250 	str	ip, [r3, #592]	; 0x250
f0002cb0:	e592c00c 	ldr	ip, [r2, #12]
f0002cb4:	e583c238 	str	ip, [r3, #568]	; 0x238
f0002cb8:	e592c010 	ldr	ip, [r2, #16]
f0002cbc:	e583c254 	str	ip, [r3, #596]	; 0x254
f0002cc0:	e592c014 	ldr	ip, [r2, #20]
f0002cc4:	e583c004 	str	ip, [r3, #4]
f0002cc8:	e592c024 	ldr	ip, [r2, #36]	; 0x24
f0002ccc:	e583c228 	str	ip, [r3, #552]	; 0x228
f0002cd0:	e592c028 	ldr	ip, [r2, #40]	; 0x28
f0002cd4:	e583c22c 	str	ip, [r3, #556]	; 0x22c
f0002cd8:	e592c02c 	ldr	ip, [r2, #44]	; 0x2c
f0002cdc:	e583c234 	str	ip, [r3, #564]	; 0x234
f0002ce0:	e592c030 	ldr	ip, [r2, #48]	; 0x30
f0002ce4:	e583c288 	str	ip, [r3, #648]	; 0x288
f0002ce8:	e592c034 	ldr	ip, [r2, #52]	; 0x34
f0002cec:	e583c2a8 	str	ip, [r3, #680]	; 0x2a8
f0002cf0:	e592c018 	ldr	ip, [r2, #24]
f0002cf4:	e583c010 	str	ip, [r3, #16]
f0002cf8:	e592c01c 	ldr	ip, [r2, #28]
f0002cfc:	e583c018 	str	ip, [r3, #24]
f0002d00:	e592c020 	ldr	ip, [r2, #32]
f0002d04:	e583c028 	str	ip, [r3, #40]	; 0x28
f0002d08:	e5922038 	ldr	r2, [r2, #56]	; 0x38
f0002d0c:	e5832058 	str	r2, [r3, #88]	; 0x58
f0002d10:	e3a02002 	mov	r2, #2
f0002d14:	e593c050 	ldr	ip, [r3, #80]	; 0x50
f0002d18:	e7c1c012 	bfi	ip, r2, #0, #2
f0002d1c:	e583c050 	str	ip, [r3, #80]	; 0x50
f0002d20:	e1a0200c 	mov	r2, ip
f0002d24:	e3a0c001 	mov	ip, #1
f0002d28:	e7c1201c 	bfi	r2, ip, #0, #2
f0002d2c:	e5812004 	str	r2, [r1, #4]
f0002d30:	e5832050 	str	r2, [r3, #80]	; 0x50
f0002d34:	e12fff1e 	bx	lr

f0002d38 <mem_clk_get_misc>:
f0002d38:	e3a03000 	mov	r3, #0
f0002d3c:	e1a02000 	mov	r2, r0
f0002d40:	e34f31c2 	movt	r3, #61890	; 0xf1c2
f0002d44:	e3030b90 	movw	r0, #15248	; 0x3b90
f0002d48:	e5931220 	ldr	r1, [r3, #544]	; 0x220
f0002d4c:	e34f0000 	movt	r0, #61440	; 0xf000
f0002d50:	e5803000 	str	r3, [r0]
f0002d54:	e3a00000 	mov	r0, #0
f0002d58:	e5821000 	str	r1, [r2]
f0002d5c:	e5931250 	ldr	r1, [r3, #592]	; 0x250
f0002d60:	e5821008 	str	r1, [r2, #8]
f0002d64:	e5931238 	ldr	r1, [r3, #568]	; 0x238
f0002d68:	e582100c 	str	r1, [r2, #12]
f0002d6c:	e5931254 	ldr	r1, [r3, #596]	; 0x254
f0002d70:	e5821010 	str	r1, [r2, #16]
f0002d74:	e5931004 	ldr	r1, [r3, #4]
f0002d78:	e5821014 	str	r1, [r2, #20]
f0002d7c:	e5931228 	ldr	r1, [r3, #552]	; 0x228
f0002d80:	e5821024 	str	r1, [r2, #36]	; 0x24
f0002d84:	e593122c 	ldr	r1, [r3, #556]	; 0x22c
f0002d88:	e5821028 	str	r1, [r2, #40]	; 0x28
f0002d8c:	e5931288 	ldr	r1, [r3, #648]	; 0x288
f0002d90:	e5821030 	str	r1, [r2, #48]	; 0x30
f0002d94:	e59312a8 	ldr	r1, [r3, #680]	; 0x2a8
f0002d98:	e5821034 	str	r1, [r2, #52]	; 0x34
f0002d9c:	e5931010 	ldr	r1, [r3, #16]
f0002da0:	e5821018 	str	r1, [r2, #24]
f0002da4:	e5931018 	ldr	r1, [r3, #24]
f0002da8:	e582101c 	str	r1, [r2, #28]
f0002dac:	e5931234 	ldr	r1, [r3, #564]	; 0x234
f0002db0:	e582102c 	str	r1, [r2, #44]	; 0x2c
f0002db4:	e5931028 	ldr	r1, [r3, #40]	; 0x28
f0002db8:	e5821020 	str	r1, [r2, #32]
f0002dbc:	e5933058 	ldr	r3, [r3, #88]	; 0x58
f0002dc0:	e5823038 	str	r3, [r2, #56]	; 0x38
f0002dc4:	e12fff1e 	bx	lr

f0002dc8 <mem_clk_get_cpu_freq>:
f0002dc8:	e59f3050 	ldr	r3, [pc, #80]	; f0002e20 <mem_clk_get_cpu_freq+0x58>
f0002dcc:	e52d4004 	push	{r4}		; (str r4, [sp, #-4]!)
f0002dd0:	e5931000 	ldr	r1, [r3]
f0002dd4:	e5912050 	ldr	r2, [r1, #80]	; 0x50
f0002dd8:	e3120a01 	tst	r2, #4096	; 0x1000
f0002ddc:	e5832004 	str	r2, [r3, #4]
f0002de0:	1a000002 	bne	f0002df0 <mem_clk_get_cpu_freq+0x28>
f0002de4:	e3050dc0 	movw	r0, #24000	; 0x5dc0
f0002de8:	e8bd0010 	pop	{r4}
f0002dec:	e12fff1e 	bx	lr
f0002df0:	e5912000 	ldr	r2, [r1]
f0002df4:	e3054dc0 	movw	r4, #24000	; 0x5dc0
f0002df8:	e3120801 	tst	r2, #65536	; 0x10000
f0002dfc:	e7e70452 	ubfx	r0, r2, #8, #8
f0002e00:	e202c003 	and	ip, r2, #3
f0002e04:	13a01004 	movne	r1, #4
f0002e08:	03a01001 	moveq	r1, #1
f0002e0c:	e0000094 	mul	r0, r4, r0
f0002e10:	e5832008 	str	r2, [r3, #8]
f0002e14:	e021119c 	mla	r1, ip, r1, r1
f0002e18:	e8bd0010 	pop	{r4}
f0002e1c:	eafffde5 	b	f00025b8 <raw_lib_udiv>
f0002e20:	f0003b90 			; <UNDEFINED> instruction: 0xf0003b90

f0002e24 <standby_arisc_init>:
f0002e24:	e3033b9c 	movw	r3, #15260	; 0x3b9c
f0002e28:	e92d4010 	push	{r4, lr}
f0002e2c:	e34f3000 	movt	r3, #61440	; 0xf000
f0002e30:	e3a04000 	mov	r4, #0
f0002e34:	e5834000 	str	r4, [r3]
f0002e38:	e5834004 	str	r4, [r3, #4]
f0002e3c:	eb000160 	bl	f00033c4 <arisc_hwspinlock_init>
f0002e40:	eb000091 	bl	f000308c <arisc_hwmsgbox_init>
f0002e44:	eb000173 	bl	f0003418 <arisc_message_manager_init>
f0002e48:	e1a00004 	mov	r0, r4
f0002e4c:	e8bd8010 	pop	{r4, pc}

f0002e50 <standby_arisc_exit>:
f0002e50:	e92d4008 	push	{r3, lr}
f0002e54:	eb000179 	bl	f0003440 <arisc_message_manager_exit>
f0002e58:	eb00008d 	bl	f0003094 <arisc_hwmsgbox_exit>
f0002e5c:	eb00015a 	bl	f00033cc <arisc_hwspinlock_exit>
f0002e60:	e3033b9c 	movw	r3, #15260	; 0x3b9c
f0002e64:	e3a02000 	mov	r2, #0
f0002e68:	e34f3000 	movt	r3, #61440	; 0xf000
f0002e6c:	e1a00002 	mov	r0, r2
f0002e70:	e5832004 	str	r2, [r3, #4]
f0002e74:	e5832000 	str	r2, [r3]
f0002e78:	e8bd8008 	pop	{r3, pc}

f0002e7c <standby_arisc_notify_restore>:
f0002e7c:	e92d4038 	push	{r3, r4, r5, lr}
f0002e80:	e1a05000 	mov	r5, r0
f0002e84:	e3a00000 	mov	r0, #0
f0002e88:	eb00016e 	bl	f0003448 <arisc_message_allocate>
f0002e8c:	e2504000 	subs	r4, r0, #0
f0002e90:	0a000015 	beq	f0002eec <standby_arisc_notify_restore+0x70>
f0002e94:	e2155002 	ands	r5, r5, #2
f0002e98:	0a00000a 	beq	f0002ec8 <standby_arisc_notify_restore+0x4c>
f0002e9c:	e3a03002 	mov	r3, #2
f0002ea0:	e3a02014 	mov	r2, #20
f0002ea4:	e5c42002 	strb	r2, [r4, #2]
f0002ea8:	e3a0100a 	mov	r1, #10
f0002eac:	e5c43001 	strb	r3, [r4, #1]
f0002eb0:	e5c43000 	strb	r3, [r4]
f0002eb4:	eb000078 	bl	f000309c <arisc_hwmsgbox_send_message>
f0002eb8:	e1a00004 	mov	r0, r4
f0002ebc:	eb000186 	bl	f00034dc <arisc_message_free>
f0002ec0:	e3a00000 	mov	r0, #0
f0002ec4:	e8bd8038 	pop	{r3, r4, r5, pc}
f0002ec8:	e3a03014 	mov	r3, #20
f0002ecc:	e3a0100a 	mov	r1, #10
f0002ed0:	e5c43002 	strb	r3, [r4, #2]
f0002ed4:	e3a03002 	mov	r3, #2
f0002ed8:	e5c45001 	strb	r5, [r4, #1]
f0002edc:	e5c43000 	strb	r3, [r4]
f0002ee0:	eb00006d 	bl	f000309c <arisc_hwmsgbox_send_message>
f0002ee4:	e1a00005 	mov	r0, r5
f0002ee8:	e8bd8038 	pop	{r3, r4, r5, pc}
f0002eec:	e3e0000b 	mvn	r0, #11
f0002ef0:	e8bd8038 	pop	{r3, r4, r5, pc}

f0002ef4 <standby_arisc_check_restore_status>:
f0002ef4:	e92d4010 	push	{r4, lr}
f0002ef8:	e59f4074 	ldr	r4, [pc, #116]	; f0002f74 <standby_arisc_check_restore_status+0x80>
f0002efc:	e5943004 	ldr	r3, [r4, #4]
f0002f00:	e3530000 	cmp	r3, #0
f0002f04:	13a00000 	movne	r0, #0
f0002f08:	18bd8010 	popne	{r4, pc}
f0002f0c:	eb0000e4 	bl	f00032a4 <arisc_hwmsgbox_query_message>
f0002f10:	e2503000 	subs	r3, r0, #0
f0002f14:	03e00015 	mvneq	r0, #21
f0002f18:	08bd8010 	popeq	{r4, pc}
f0002f1c:	e5d32002 	ldrb	r2, [r3, #2]
f0002f20:	e3520015 	cmp	r2, #21
f0002f24:	1a000010 	bne	f0002f6c <standby_arisc_check_restore_status+0x78>
f0002f28:	e3a02005 	mov	r2, #5
f0002f2c:	e5c32000 	strb	r2, [r3]
f0002f30:	e5d32001 	ldrb	r2, [r3, #1]
f0002f34:	e3120001 	tst	r2, #1
f0002f38:	1a000002 	bne	f0002f48 <standby_arisc_check_restore_status+0x54>
f0002f3c:	e5d32001 	ldrb	r2, [r3, #1]
f0002f40:	e3120002 	tst	r2, #2
f0002f44:	0a000006 	beq	f0002f64 <standby_arisc_check_restore_status+0x70>
f0002f48:	e1a00003 	mov	r0, r3
f0002f4c:	e3a0100a 	mov	r1, #10
f0002f50:	eb000082 	bl	f0003160 <arisc_hwmsgbox_feedback_message>
f0002f54:	e3a03001 	mov	r3, #1
f0002f58:	e3a00000 	mov	r0, #0
f0002f5c:	e5843004 	str	r3, [r4, #4]
f0002f60:	e8bd8010 	pop	{r4, pc}
f0002f64:	eb00015c 	bl	f00034dc <arisc_message_free>
f0002f68:	eafffff9 	b	f0002f54 <standby_arisc_check_restore_status+0x60>
f0002f6c:	e3e00015 	mvn	r0, #21
f0002f70:	e8bd8010 	pop	{r4, pc}
f0002f74:	f0003b9c 			; <UNDEFINED> instruction: 0xf0003b9c

f0002f78 <standby_arisc_query_wakeup_src>:
f0002f78:	e92d4038 	push	{r3, r4, r5, lr}
f0002f7c:	e2505000 	subs	r5, r0, #0
f0002f80:	0a000020 	beq	f0003008 <standby_arisc_query_wakeup_src+0x90>
f0002f84:	e59f4084 	ldr	r4, [pc, #132]	; f0003010 <standby_arisc_query_wakeup_src+0x98>
f0002f88:	e5943000 	ldr	r3, [r4]
f0002f8c:	e3530000 	cmp	r3, #0
f0002f90:	15853000 	strne	r3, [r5]
f0002f94:	13a00000 	movne	r0, #0
f0002f98:	18bd8038 	popne	{r3, r4, r5, pc}
f0002f9c:	eb0000c0 	bl	f00032a4 <arisc_hwmsgbox_query_message>
f0002fa0:	e2503000 	subs	r3, r0, #0
f0002fa4:	0a000017 	beq	f0003008 <standby_arisc_query_wakeup_src+0x90>
f0002fa8:	e5d32002 	ldrb	r2, [r3, #2]
f0002fac:	e3520013 	cmp	r2, #19
f0002fb0:	1a000012 	bne	f0003000 <standby_arisc_query_wakeup_src+0x88>
f0002fb4:	e3a02005 	mov	r2, #5
f0002fb8:	e5931014 	ldr	r1, [r3, #20]
f0002fbc:	e5c32000 	strb	r2, [r3]
f0002fc0:	e5d32001 	ldrb	r2, [r3, #1]
f0002fc4:	e5841000 	str	r1, [r4]
f0002fc8:	e3120001 	tst	r2, #1
f0002fcc:	1a000002 	bne	f0002fdc <standby_arisc_query_wakeup_src+0x64>
f0002fd0:	e5d32001 	ldrb	r2, [r3, #1]
f0002fd4:	e3120002 	tst	r2, #2
f0002fd8:	0a000006 	beq	f0002ff8 <standby_arisc_query_wakeup_src+0x80>
f0002fdc:	e1a00003 	mov	r0, r3
f0002fe0:	e3a0100a 	mov	r1, #10
f0002fe4:	eb00005d 	bl	f0003160 <arisc_hwmsgbox_feedback_message>
f0002fe8:	e5943000 	ldr	r3, [r4]
f0002fec:	e3a00000 	mov	r0, #0
f0002ff0:	e5853000 	str	r3, [r5]
f0002ff4:	e8bd8038 	pop	{r3, r4, r5, pc}
f0002ff8:	eb000137 	bl	f00034dc <arisc_message_free>
f0002ffc:	eafffff9 	b	f0002fe8 <standby_arisc_query_wakeup_src+0x70>
f0003000:	e3e00015 	mvn	r0, #21
f0003004:	e8bd8038 	pop	{r3, r4, r5, pc}
f0003008:	e3e00015 	mvn	r0, #21
f000300c:	e8bd8038 	pop	{r3, r4, r5, pc}
f0003010:	f0003b9c 			; <UNDEFINED> instruction: 0xf0003b9c

f0003014 <standby_arisc_standby_normal>:
f0003014:	e92d4038 	push	{r3, r4, r5, lr}
f0003018:	e1a05000 	mov	r5, r0
f000301c:	e3a00000 	mov	r0, #0
f0003020:	eb000108 	bl	f0003448 <arisc_message_allocate>
f0003024:	e2504000 	subs	r4, r0, #0
f0003028:	03e0400b 	mvneq	r4, #11
f000302c:	0a00000e 	beq	f000306c <standby_arisc_standby_normal+0x58>
f0003030:	e3a03012 	mov	r3, #18
f0003034:	e2840014 	add	r0, r4, #20
f0003038:	e5c43002 	strb	r3, [r4, #2]
f000303c:	e1a01005 	mov	r1, r5
f0003040:	e3a02014 	mov	r2, #20
f0003044:	ebfff4df 	bl	f00003c8 <standby_memcpy>
f0003048:	e3a03002 	mov	r3, #2
f000304c:	e1a00004 	mov	r0, r4
f0003050:	e5c43000 	strb	r3, [r4]
f0003054:	e3a0100a 	mov	r1, #10
f0003058:	eb00000f 	bl	f000309c <arisc_hwmsgbox_send_message>
f000305c:	e5d43001 	ldrb	r3, [r4, #1]
f0003060:	e3530000 	cmp	r3, #0
f0003064:	01a04003 	moveq	r4, r3
f0003068:	1a000001 	bne	f0003074 <standby_arisc_standby_normal+0x60>
f000306c:	e1a00004 	mov	r0, r4
f0003070:	e8bd8038 	pop	{r3, r4, r5, pc}
f0003074:	e5d43003 	ldrb	r3, [r4, #3]
f0003078:	e1a00004 	mov	r0, r4
f000307c:	e1a04003 	mov	r4, r3
f0003080:	eb000115 	bl	f00034dc <arisc_message_free>
f0003084:	e1a00004 	mov	r0, r4
f0003088:	e8bd8038 	pop	{r3, r4, r5, pc}

f000308c <arisc_hwmsgbox_init>:
f000308c:	e3a00000 	mov	r0, #0
f0003090:	e12fff1e 	bx	lr

f0003094 <arisc_hwmsgbox_exit>:
f0003094:	e3a00000 	mov	r0, #0
f0003098:	e12fff1e 	bx	lr

f000309c <arisc_hwmsgbox_send_message>:
f000309c:	e3500000 	cmp	r0, #0
f00030a0:	e24dd008 	sub	sp, sp, #8
f00030a4:	03e00015 	mvneq	r0, #21
f00030a8:	0a00001a 	beq	f0003118 <arisc_hwmsgbox_send_message+0x7c>
f00030ac:	e5d03001 	ldrb	r3, [r0, #1]
f00030b0:	e3071fff 	movw	r1, #32767	; 0x7fff
f00030b4:	e34f11c1 	movt	r1, #61889	; 0xf1c1
f00030b8:	e3130002 	tst	r3, #2
f00030bc:	0a000017 	beq	f0003120 <arisc_hwmsgbox_send_message+0x84>
f00030c0:	e5112eef 	ldr	r2, [r1, #-3823]	; 0xeef
f00030c4:	e3073fff 	movw	r3, #32767	; 0x7fff
f00030c8:	e34f31c1 	movt	r3, #61889	; 0xf1c1
f00030cc:	e3520001 	cmp	r2, #1
f00030d0:	0afffffa 	beq	f00030c0 <arisc_hwmsgbox_send_message+0x24>
f00030d4:	e59f2080 	ldr	r2, [pc, #128]	; f000315c <arisc_hwmsgbox_send_message+0xc0>
f00030d8:	e1a01003 	mov	r1, r3
f00030dc:	e5922000 	ldr	r2, [r2]
f00030e0:	e0620000 	rsb	r0, r2, r0
f00030e4:	e58d0004 	str	r0, [sp, #4]
f00030e8:	e59d2004 	ldr	r2, [sp, #4]
f00030ec:	e5032e6f 	str	r2, [r3, #-3695]	; 0xe6f
f00030f0:	e5112eab 	ldr	r2, [r1, #-3755]	; 0xeab
f00030f4:	e3073fff 	movw	r3, #32767	; 0x7fff
f00030f8:	e34f31c1 	movt	r3, #61889	; 0xf1c1
f00030fc:	e3520000 	cmp	r2, #0
f0003100:	0afffffa 	beq	f00030f0 <arisc_hwmsgbox_send_message+0x54>
f0003104:	e5132e6b 	ldr	r2, [r3, #-3691]	; 0xe6b
f0003108:	e59d3004 	ldr	r3, [sp, #4]
f000310c:	e1520003 	cmp	r2, r3
f0003110:	03a00000 	moveq	r0, #0
f0003114:	13e00015 	mvnne	r0, #21
f0003118:	e28dd008 	add	sp, sp, #8
f000311c:	e12fff1e 	bx	lr
f0003120:	e5112efb 	ldr	r2, [r1, #-3835]	; 0xefb
f0003124:	e3073fff 	movw	r3, #32767	; 0x7fff
f0003128:	e34f31c1 	movt	r3, #61889	; 0xf1c1
f000312c:	e3520001 	cmp	r2, #1
f0003130:	0afffffa 	beq	f0003120 <arisc_hwmsgbox_send_message+0x84>
f0003134:	e59f2020 	ldr	r2, [pc, #32]	; f000315c <arisc_hwmsgbox_send_message+0xc0>
f0003138:	e5922000 	ldr	r2, [r2]
f000313c:	e0622000 	rsb	r2, r2, r0
f0003140:	e58d2004 	str	r2, [sp, #4]
f0003144:	e59d2004 	ldr	r2, [sp, #4]
f0003148:	e5032e7b 	str	r2, [r3, #-3707]	; 0xe7b
f000314c:	e5d00001 	ldrb	r0, [r0, #1]
f0003150:	e2100001 	ands	r0, r0, #1
f0003154:	13e00015 	mvnne	r0, #21
f0003158:	eaffffee 	b	f0003118 <arisc_hwmsgbox_send_message+0x7c>
f000315c:	f00039e8 			; <UNDEFINED> instruction: 0xf00039e8

f0003160 <arisc_hwmsgbox_feedback_message>:
f0003160:	e5d03001 	ldrb	r3, [r0, #1]
f0003164:	e24dd008 	sub	sp, sp, #8
f0003168:	e3130002 	tst	r3, #2
f000316c:	0a000010 	beq	f00031b4 <arisc_hwmsgbox_feedback_message+0x54>
f0003170:	e3071fff 	movw	r1, #32767	; 0x7fff
f0003174:	e34f11c1 	movt	r1, #61889	; 0xf1c1
f0003178:	e5112ef3 	ldr	r2, [r1, #-3827]	; 0xef3
f000317c:	e3073fff 	movw	r3, #32767	; 0x7fff
f0003180:	e34f31c1 	movt	r3, #61889	; 0xf1c1
f0003184:	e3520001 	cmp	r2, #1
f0003188:	0afffffa 	beq	f0003178 <arisc_hwmsgbox_feedback_message+0x18>
f000318c:	e59f106c 	ldr	r1, [pc, #108]	; f0003200 <arisc_hwmsgbox_feedback_message+0xa0>
f0003190:	e3a02000 	mov	r2, #0
f0003194:	e5911000 	ldr	r1, [r1]
f0003198:	e0610000 	rsb	r0, r1, r0
f000319c:	e58d0004 	str	r0, [sp, #4]
f00031a0:	e59d1004 	ldr	r1, [sp, #4]
f00031a4:	e5031e73 	str	r1, [r3, #-3699]	; 0xe73
f00031a8:	e1a00002 	mov	r0, r2
f00031ac:	e28dd008 	add	sp, sp, #8
f00031b0:	e12fff1e 	bx	lr
f00031b4:	e5d03001 	ldrb	r3, [r0, #1]
f00031b8:	e3130001 	tst	r3, #1
f00031bc:	03e02015 	mvneq	r2, #21
f00031c0:	0afffff8 	beq	f00031a8 <arisc_hwmsgbox_feedback_message+0x48>
f00031c4:	e3071fff 	movw	r1, #32767	; 0x7fff
f00031c8:	e34f11c1 	movt	r1, #61889	; 0xf1c1
f00031cc:	e5112efb 	ldr	r2, [r1, #-3835]	; 0xefb
f00031d0:	e3073fff 	movw	r3, #32767	; 0x7fff
f00031d4:	e34f31c1 	movt	r3, #61889	; 0xf1c1
f00031d8:	e3520001 	cmp	r2, #1
f00031dc:	0afffffa 	beq	f00031cc <arisc_hwmsgbox_feedback_message+0x6c>
f00031e0:	e59f1018 	ldr	r1, [pc, #24]	; f0003200 <arisc_hwmsgbox_feedback_message+0xa0>
f00031e4:	e3a02000 	mov	r2, #0
f00031e8:	e5911000 	ldr	r1, [r1]
f00031ec:	e0610000 	rsb	r0, r1, r0
f00031f0:	e58d0004 	str	r0, [sp, #4]
f00031f4:	e59d1004 	ldr	r1, [sp, #4]
f00031f8:	e5031e7b 	str	r1, [r3, #-3707]	; 0xe7b
f00031fc:	eaffffe9 	b	f00031a8 <arisc_hwmsgbox_feedback_message+0x48>
f0003200:	f00039e8 			; <UNDEFINED> instruction: 0xf00039e8

f0003204 <arisc_hwmsgbox_enable_receiver_int>:
f0003204:	e3003b82 	movw	r3, #2946	; 0xb82
f0003208:	e24dd008 	sub	sp, sp, #8
f000320c:	e340378e 	movt	r3, #1934	; 0x78e
f0003210:	e1a00080 	lsl	r0, r0, #1
f0003214:	e0813003 	add	r3, r1, r3
f0003218:	e1a03283 	lsl	r3, r3, #5
f000321c:	e3a02001 	mov	r2, #1
f0003220:	e1a02012 	lsl	r2, r2, r0
f0003224:	e3a00000 	mov	r0, #0
f0003228:	e5931000 	ldr	r1, [r3]
f000322c:	e58d1004 	str	r1, [sp, #4]
f0003230:	e59d1004 	ldr	r1, [sp, #4]
f0003234:	e1c11002 	bic	r1, r1, r2
f0003238:	e58d1004 	str	r1, [sp, #4]
f000323c:	e59d1004 	ldr	r1, [sp, #4]
f0003240:	e1822001 	orr	r2, r2, r1
f0003244:	e58d2004 	str	r2, [sp, #4]
f0003248:	e59d2004 	ldr	r2, [sp, #4]
f000324c:	e5832000 	str	r2, [r3]
f0003250:	e28dd008 	add	sp, sp, #8
f0003254:	e12fff1e 	bx	lr

f0003258 <arisc_hwmsgbox_query_receiver_pending>:
f0003258:	e3073050 	movw	r3, #28752	; 0x7050
f000325c:	e24dd008 	sub	sp, sp, #8
f0003260:	e34f31c1 	movt	r3, #61889	; 0xf1c1
f0003264:	e1a00080 	lsl	r0, r0, #1
f0003268:	e7933281 	ldr	r3, [r3, r1, lsl #5]
f000326c:	e3a02001 	mov	r2, #1
f0003270:	e58d3004 	str	r3, [sp, #4]
f0003274:	e59d3004 	ldr	r3, [sp, #4]
f0003278:	e0030012 	and	r0, r3, r2, lsl r0
f000327c:	e28dd008 	add	sp, sp, #8
f0003280:	e12fff1e 	bx	lr

f0003284 <arisc_hwmsgbox_clear_receiver_pending>:
f0003284:	e1a00080 	lsl	r0, r0, #1
f0003288:	e3a02001 	mov	r2, #1
f000328c:	e3073050 	movw	r3, #28752	; 0x7050
f0003290:	e1a00012 	lsl	r0, r2, r0
f0003294:	e34f31c1 	movt	r3, #61889	; 0xf1c1
f0003298:	e7830281 	str	r0, [r3, r1, lsl #5]
f000329c:	e3a00000 	mov	r0, #0
f00032a0:	e12fff1e 	bx	lr

f00032a4 <arisc_hwmsgbox_query_message>:
f00032a4:	e3073fff 	movw	r3, #32767	; 0x7fff
f00032a8:	e24dd008 	sub	sp, sp, #8
f00032ac:	e34f31c1 	movt	r3, #61889	; 0xf1c1
f00032b0:	e5130ebf 	ldr	r0, [r3, #-3775]	; 0xebf
f00032b4:	e3500000 	cmp	r0, #0
f00032b8:	0a000016 	beq	f0003318 <arisc_hwmsgbox_query_message+0x74>
f00032bc:	e5133e7f 	ldr	r3, [r3, #-3711]	; 0xe7f
f00032c0:	e58d3004 	str	r3, [sp, #4]
f00032c4:	e59f30c0 	ldr	r3, [pc, #192]	; f000338c <arisc_hwmsgbox_query_message+0xe8>
f00032c8:	e59d2004 	ldr	r2, [sp, #4]
f00032cc:	e5933000 	ldr	r3, [r3]
f00032d0:	e2831a13 	add	r1, r3, #77824	; 0x13000
f00032d4:	e0830002 	add	r0, r3, r2
f00032d8:	e1500001 	cmp	r0, r1
f00032dc:	3a000028 	bcc	f0003384 <arisc_hwmsgbox_query_message+0xe0>
f00032e0:	e2831905 	add	r1, r3, #81920	; 0x14000
f00032e4:	e1500001 	cmp	r0, r1
f00032e8:	2a000025 	bcs	f0003384 <arisc_hwmsgbox_query_message+0xe0>
f00032ec:	e7d31002 	ldrb	r1, [r3, r2]
f00032f0:	e3510005 	cmp	r1, #5
f00032f4:	03a01006 	moveq	r1, #6
f00032f8:	13a01003 	movne	r1, #3
f00032fc:	e7c31002 	strb	r1, [r3, r2]
f0003300:	e3073fff 	movw	r3, #32767	; 0x7fff
f0003304:	e34f31c1 	movt	r3, #61889	; 0xf1c1
f0003308:	e3a02001 	mov	r2, #1
f000330c:	e5032f8f 	str	r2, [r3, #-3983]	; 0xf8f
f0003310:	e28dd008 	add	sp, sp, #8
f0003314:	e12fff1e 	bx	lr
f0003318:	e5132eb7 	ldr	r2, [r3, #-3767]	; 0xeb7
f000331c:	e3520000 	cmp	r2, #0
f0003320:	01a00002 	moveq	r0, r2
f0003324:	0afffff9 	beq	f0003310 <arisc_hwmsgbox_query_message+0x6c>
f0003328:	e5133e77 	ldr	r3, [r3, #-3703]	; 0xe77
f000332c:	e58d3004 	str	r3, [sp, #4]
f0003330:	e59f3054 	ldr	r3, [pc, #84]	; f000338c <arisc_hwmsgbox_query_message+0xe8>
f0003334:	e59d2004 	ldr	r2, [sp, #4]
f0003338:	e5933000 	ldr	r3, [r3]
f000333c:	e283ca13 	add	ip, r3, #77824	; 0x13000
f0003340:	e0831002 	add	r1, r3, r2
f0003344:	e151000c 	cmp	r1, ip
f0003348:	3afffff0 	bcc	f0003310 <arisc_hwmsgbox_query_message+0x6c>
f000334c:	e283c905 	add	ip, r3, #81920	; 0x14000
f0003350:	e151000c 	cmp	r1, ip
f0003354:	2affffed 	bcs	f0003310 <arisc_hwmsgbox_query_message+0x6c>
f0003358:	e7d3c002 	ldrb	ip, [r3, r2]
f000335c:	e1a00001 	mov	r0, r1
f0003360:	e35c0005 	cmp	ip, #5
f0003364:	03a01006 	moveq	r1, #6
f0003368:	13a01003 	movne	r1, #3
f000336c:	e7c31002 	strb	r1, [r3, r2]
f0003370:	e3073fff 	movw	r3, #32767	; 0x7fff
f0003374:	e34f31c1 	movt	r3, #61889	; 0xf1c1
f0003378:	e3a02010 	mov	r2, #16
f000337c:	e5032f8f 	str	r2, [r3, #-3983]	; 0xf8f
f0003380:	eaffffe2 	b	f0003310 <arisc_hwmsgbox_query_message+0x6c>
f0003384:	e3a00000 	mov	r0, #0
f0003388:	eaffffe0 	b	f0003310 <arisc_hwmsgbox_query_message+0x6c>
f000338c:	f00039e8 			; <UNDEFINED> instruction: 0xf00039e8

f0003390 <arisc_message_valid>:
f0003390:	e59f3028 	ldr	r3, [pc, #40]	; f00033c0 <arisc_message_valid+0x30>
f0003394:	e5933000 	ldr	r3, [r3]
f0003398:	e2832a13 	add	r2, r3, #77824	; 0x13000
f000339c:	e1500002 	cmp	r0, r2
f00033a0:	3a000004 	bcc	f00033b8 <arisc_message_valid+0x28>
f00033a4:	e2833905 	add	r3, r3, #81920	; 0x14000
f00033a8:	e1500003 	cmp	r0, r3
f00033ac:	23a00000 	movcs	r0, #0
f00033b0:	33a00001 	movcc	r0, #1
f00033b4:	e12fff1e 	bx	lr
f00033b8:	e3a00000 	mov	r0, #0
f00033bc:	e12fff1e 	bx	lr
f00033c0:	f00039e8 			; <UNDEFINED> instruction: 0xf00039e8

f00033c4 <arisc_hwspinlock_init>:
f00033c4:	e3a00000 	mov	r0, #0
f00033c8:	e12fff1e 	bx	lr

f00033cc <arisc_hwspinlock_exit>:
f00033cc:	e3a00000 	mov	r0, #0
f00033d0:	e12fff1e 	bx	lr

f00033d4 <arisc_hwspin_lock_timeout>:
f00033d4:	e3063040 	movw	r3, #24640	; 0x6040
f00033d8:	e3433c70 	movt	r3, #15472	; 0x3c70
f00033dc:	e0803003 	add	r3, r0, r3
f00033e0:	e1a03103 	lsl	r3, r3, #2
f00033e4:	e5932000 	ldr	r2, [r3]
f00033e8:	e3520001 	cmp	r2, #1
f00033ec:	0afffffc 	beq	f00033e4 <arisc_hwspin_lock_timeout+0x10>
f00033f0:	e3a00000 	mov	r0, #0
f00033f4:	e12fff1e 	bx	lr

f00033f8 <arisc_hwspin_unlock>:
f00033f8:	e3063040 	movw	r3, #24640	; 0x6040
f00033fc:	e3a02000 	mov	r2, #0
f0003400:	e3433c70 	movt	r3, #15472	; 0x3c70
f0003404:	e0803003 	add	r3, r0, r3
f0003408:	e1a00002 	mov	r0, r2
f000340c:	e1a03103 	lsl	r3, r3, #2
f0003410:	e5832000 	str	r2, [r3]
f0003414:	e12fff1e 	bx	lr

f0003418 <arisc_message_manager_init>:
f0003418:	e30329e8 	movw	r2, #14824	; 0x39e8
f000341c:	e3033ba4 	movw	r3, #15268	; 0x3ba4
f0003420:	e34f2000 	movt	r2, #61440	; 0xf000
f0003424:	e34f3000 	movt	r3, #61440	; 0xf000
f0003428:	e5922000 	ldr	r2, [r2]
f000342c:	e3a00000 	mov	r0, #0
f0003430:	e2821a13 	add	r1, r2, #77824	; 0x13000
f0003434:	e2822905 	add	r2, r2, #81920	; 0x14000
f0003438:	e8830006 	stm	r3, {r1, r2}
f000343c:	e12fff1e 	bx	lr

f0003440 <arisc_message_manager_exit>:
f0003440:	e3a00000 	mov	r0, #0
f0003444:	e12fff1e 	bx	lr

f0003448 <arisc_message_allocate>:
f0003448:	e92d4038 	push	{r3, r4, r5, lr}
f000344c:	e3a0100a 	mov	r1, #10
f0003450:	e1a04000 	mov	r4, r0
f0003454:	e3a00000 	mov	r0, #0
f0003458:	ebffffdd 	bl	f00033d4 <arisc_hwspin_lock_timeout>
f000345c:	e59f2074 	ldr	r2, [pc, #116]	; f00034d8 <arisc_message_allocate+0x90>
f0003460:	e5923000 	ldr	r3, [r2]
f0003464:	e5921004 	ldr	r1, [r2, #4]
f0003468:	e1530001 	cmp	r3, r1
f000346c:	2a00000a 	bcs	f000349c <arisc_message_allocate+0x54>
f0003470:	e5d32000 	ldrb	r2, [r3]
f0003474:	e3520000 	cmp	r2, #0
f0003478:	1a000004 	bne	f0003490 <arisc_message_allocate+0x48>
f000347c:	ea00000a 	b	f00034ac <arisc_message_allocate+0x64>
f0003480:	e5d32040 	ldrb	r2, [r3, #64]	; 0x40
f0003484:	e1a03005 	mov	r3, r5
f0003488:	e3520000 	cmp	r2, #0
f000348c:	0a000007 	beq	f00034b0 <arisc_message_allocate+0x68>
f0003490:	e2835040 	add	r5, r3, #64	; 0x40
f0003494:	e1550001 	cmp	r5, r1
f0003498:	3afffff8 	bcc	f0003480 <arisc_message_allocate+0x38>
f000349c:	e3a00000 	mov	r0, #0
f00034a0:	ebffffd4 	bl	f00033f8 <arisc_hwspin_unlock>
f00034a4:	e3a00000 	mov	r0, #0
f00034a8:	e8bd8038 	pop	{r3, r4, r5, pc}
f00034ac:	e1a05003 	mov	r5, r3
f00034b0:	e3a03001 	mov	r3, #1
f00034b4:	e3a00000 	mov	r0, #0
f00034b8:	e5c53000 	strb	r3, [r5]
f00034bc:	e6ef4074 	uxtb	r4, r4
f00034c0:	ebffffcc 	bl	f00033f8 <arisc_hwspin_unlock>
f00034c4:	e3a03000 	mov	r3, #0
f00034c8:	e1a00005 	mov	r0, r5
f00034cc:	e5853004 	str	r3, [r5, #4]
f00034d0:	e5c54001 	strb	r4, [r5, #1]
f00034d4:	e8bd8038 	pop	{r3, r4, r5, pc}
f00034d8:	f0003ba4 			; <UNDEFINED> instruction: 0xf0003ba4

f00034dc <arisc_message_free>:
f00034dc:	e92d4010 	push	{r4, lr}
f00034e0:	e3a0100a 	mov	r1, #10
f00034e4:	e1a04000 	mov	r4, r0
f00034e8:	e3a00000 	mov	r0, #0
f00034ec:	ebffffb8 	bl	f00033d4 <arisc_hwspin_lock_timeout>
f00034f0:	e3a03000 	mov	r3, #0
f00034f4:	e5c43000 	strb	r3, [r4]
f00034f8:	e1a00003 	mov	r0, r3
f00034fc:	e5843004 	str	r3, [r4, #4]
f0003500:	e8bd4010 	pop	{r4, lr}
f0003504:	eaffffbb 	b	f00033f8 <arisc_hwspin_unlock>

f0003508 <hwspinlock_init>:
f0003508:	e3a03000 	mov	r3, #0
f000350c:	e3500001 	cmp	r0, #1
f0003510:	034f31c2 	movteq	r3, #61890	; 0xf1c2
f0003514:	134031c2 	movtne	r3, #450	; 0x1c2
f0003518:	e59322c4 	ldr	r2, [r3, #708]	; 0x2c4
f000351c:	e3a00000 	mov	r0, #0
f0003520:	e3822501 	orr	r2, r2, #4194304	; 0x400000
f0003524:	e58322c4 	str	r2, [r3, #708]	; 0x2c4
f0003528:	e5932064 	ldr	r2, [r3, #100]	; 0x64
f000352c:	e3822501 	orr	r2, r2, #4194304	; 0x400000
f0003530:	e5832064 	str	r2, [r3, #100]	; 0x64
f0003534:	e12fff1e 	bx	lr

f0003538 <hwspin_lock_timeout>:
f0003538:	e92d4008 	push	{r3, lr}
f000353c:	e10fc000 	mrs	ip, CPSR
f0003540:	f10c0080 	cpsid	i
f0003544:	e3062040 	movw	r2, #24640	; 0x6040
f0003548:	e3432c70 	movt	r2, #15472	; 0x3c70
f000354c:	e59f3058 	ldr	r3, [pc, #88]	; f00035ac <hwspin_lock_timeout+0x74>
f0003550:	e0802002 	add	r2, r0, r2
f0003554:	e1a02102 	lsl	r2, r2, #2
f0003558:	e583c000 	str	ip, [r3]
f000355c:	e5923000 	ldr	r3, [r2]
f0003560:	e3530001 	cmp	r3, #1
f0003564:	1a00000e 	bne	f00035a4 <hwspin_lock_timeout+0x6c>
f0003568:	e1b01501 	lsls	r1, r1, #10
f000356c:	1a000002 	bne	f000357c <hwspin_lock_timeout+0x44>
f0003570:	ea000006 	b	f0003590 <hwspin_lock_timeout+0x58>
f0003574:	e2511001 	subs	r1, r1, #1
f0003578:	0a000004 	beq	f0003590 <hwspin_lock_timeout+0x58>
f000357c:	e5923000 	ldr	r3, [r2]
f0003580:	e3530001 	cmp	r3, #1
f0003584:	0afffffa 	beq	f0003574 <hwspin_lock_timeout+0x3c>
f0003588:	e3a00000 	mov	r0, #0
f000358c:	e8bd8008 	pop	{r3, pc}
f0003590:	e121f00c 	msr	CPSR_c, ip
f0003594:	e59f0014 	ldr	r0, [pc, #20]	; f00035b0 <hwspin_lock_timeout+0x78>
f0003598:	ebfffa24 	bl	f0001e30 <printk>
f000359c:	e3e00000 	mvn	r0, #0
f00035a0:	e8bd8008 	pop	{r3, pc}
f00035a4:	e3a00000 	mov	r0, #0
f00035a8:	e8bd8008 	pop	{r3, pc}
f00035ac:	f0003bac 			; <UNDEFINED> instruction: 0xf0003bac
f00035b0:	f0003924 			; <UNDEFINED> instruction: 0xf0003924

f00035b4 <hwspin_unlock>:
f00035b4:	e3063040 	movw	r3, #24640	; 0x6040
f00035b8:	e3032bac 	movw	r2, #15276	; 0x3bac
f00035bc:	e3433c70 	movt	r3, #15472	; 0x3c70
f00035c0:	e3a01000 	mov	r1, #0
f00035c4:	e0803003 	add	r3, r0, r3
f00035c8:	e34f2000 	movt	r2, #61440	; 0xf000
f00035cc:	e1a03103 	lsl	r3, r3, #2
f00035d0:	e5922000 	ldr	r2, [r2]
f00035d4:	e5831000 	str	r1, [r3]
f00035d8:	e121f002 	msr	CPSR_c, r2
f00035dc:	e1a00001 	mov	r0, r1
f00035e0:	e12fff1e 	bx	lr

f00035e4 <hwspin_lock_timeout_nommu>:
f00035e4:	e10fc000 	mrs	ip, CPSR
f00035e8:	f10c0080 	cpsid	i
f00035ec:	e3062040 	movw	r2, #24640	; 0x6040
f00035f0:	e59f3054 	ldr	r3, [pc, #84]	; f000364c <hwspin_lock_timeout_nommu+0x68>
f00035f4:	e3402070 	movt	r2, #112	; 0x70
f00035f8:	e0802002 	add	r2, r0, r2
f00035fc:	e1a02102 	lsl	r2, r2, #2
f0003600:	e583c000 	str	ip, [r3]
f0003604:	e5923000 	ldr	r3, [r2]
f0003608:	e3530001 	cmp	r3, #1
f000360c:	1a00000c 	bne	f0003644 <hwspin_lock_timeout_nommu+0x60>
f0003610:	e1b01501 	lsls	r1, r1, #10
f0003614:	1a000002 	bne	f0003624 <hwspin_lock_timeout_nommu+0x40>
f0003618:	ea000006 	b	f0003638 <hwspin_lock_timeout_nommu+0x54>
f000361c:	e2511001 	subs	r1, r1, #1
f0003620:	0a000004 	beq	f0003638 <hwspin_lock_timeout_nommu+0x54>
f0003624:	e5923000 	ldr	r3, [r2]
f0003628:	e3530001 	cmp	r3, #1
f000362c:	0afffffa 	beq	f000361c <hwspin_lock_timeout_nommu+0x38>
f0003630:	e3a00000 	mov	r0, #0
f0003634:	e12fff1e 	bx	lr
f0003638:	e121f00c 	msr	CPSR_c, ip
f000363c:	e3e00000 	mvn	r0, #0
f0003640:	e12fff1e 	bx	lr
f0003644:	e3a00000 	mov	r0, #0
f0003648:	e12fff1e 	bx	lr
f000364c:	f0003bac 			; <UNDEFINED> instruction: 0xf0003bac

f0003650 <hwspin_unlock_nommu>:
f0003650:	e3063040 	movw	r3, #24640	; 0x6040
f0003654:	e3032bac 	movw	r2, #15276	; 0x3bac
f0003658:	e3403070 	movt	r3, #112	; 0x70
f000365c:	e3a01000 	mov	r1, #0
f0003660:	e0803003 	add	r3, r0, r3
f0003664:	e34f2000 	movt	r2, #61440	; 0xf000
f0003668:	e1a03103 	lsl	r3, r3, #2
f000366c:	e5922000 	ldr	r2, [r2]
f0003670:	e5831000 	str	r1, [r3]
f0003674:	e121f002 	msr	CPSR_c, r2
f0003678:	e1a00001 	mov	r0, r1
f000367c:	e12fff1e 	bx	lr

f0003680 <axp20_ldo4_data>:
f0003680:	000004e2 	andeq	r0, r0, r2, ror #9
f0003684:	00000514 	andeq	r0, r0, r4, lsl r5
f0003688:	00000578 	andeq	r0, r0, r8, ror r5
f000368c:	000005dc 	ldrdeq	r0, [r0], -ip
f0003690:	00000640 	andeq	r0, r0, r0, asr #12
f0003694:	000006a4 	andeq	r0, r0, r4, lsr #13
f0003698:	00000708 	andeq	r0, r0, r8, lsl #14
f000369c:	0000076c 	andeq	r0, r0, ip, ror #14
f00036a0:	000007d0 	ldrdeq	r0, [r0], -r0	; <UNPREDICTABLE>
f00036a4:	000009c4 	andeq	r0, r0, r4, asr #19
f00036a8:	00000a8c 	andeq	r0, r0, ip, lsl #21
f00036ac:	00000af0 	strdeq	r0, [r0], -r0	; <UNPREDICTABLE>
f00036b0:	00000bb8 			; <UNDEFINED> instruction: 0x00000bb8
f00036b4:	00000c1c 	andeq	r0, r0, ip, lsl ip
f00036b8:	00000c80 	andeq	r0, r0, r0, lsl #25
f00036bc:	00000ce4 	andeq	r0, r0, r4, ror #25

f00036c0 <TWI_REG_BASE>:
f00036c0:	f1c2ac00 			; <UNDEFINED> instruction: 0xf1c2ac00
f00036c4:	f1c2b000 			; <UNDEFINED> instruction: 0xf1c2b000
f00036c8:	f1c2b400 			; <UNDEFINED> instruction: 0xf1c2b400

f00036cc <CSWTCH.9>:
f00036cc:	00000001 	andeq	r0, r0, r1
f00036d0:	00000002 	andeq	r0, r0, r2
f00036d4:	00000000 	andeq	r0, r0, r0
f00036d8:	00000003 	andeq	r0, r0, r3

f00036dc <CSWTCH.12>:
f00036dc:	00007d00 	andeq	r7, r0, r0, lsl #26
f00036e0:	016e3600 	cmneq	lr, r0, lsl #12
f00036e4:	47868c00 	strmi	r8, [r6, r0, lsl #24]

Disassembly of section .rodata.str1.4:

f00036e8 <.rodata.str1.4>:
f00036e8:	6d726f6e 	ldclvs	15, cr6, [r2, #-440]!	; 0xfffffe48
f00036ec:	73206c61 	teqvc	r0, #24832	; 0x6100
f00036f0:	646e6174 	strbtvs	r6, [lr], #-372	; 0x174
f00036f4:	77207962 	strvc	r7, [r0, -r2, ror #18]!
f00036f8:	75656b61 	strbvc	r6, [r5, #-2913]!	; 0xb61
f00036fc:	72732070 	rsbsvc	r2, r3, #112	; 0x70
f0003700:	6f632063 	svcvs	0x00632063
f0003704:	6769666e 	strbvs	r6, [r9, -lr, ror #12]!
f0003708:	30203d20 	eorcc	r3, r0, r0, lsr #26
f000370c:	2e782578 	mrccs	5, 3, r2, cr8, cr8, {3}
f0003710:	00000a20 	andeq	r0, r0, r0, lsr #20
f0003714:	20657375 	rsbcs	r7, r5, r5, ror r3
f0003718:	65747865 	ldrbvs	r7, [r4, #-2149]!	; 0x865
f000371c:	6465646e 	strbtvs	r6, [r5], #-1134	; 0x46e
f0003720:	6174735f 	cmnvs	r4, pc, asr r3
f0003724:	7962646e 	stmdbvc	r2!, {r1, r2, r3, r5, r6, sl, sp, lr}^
f0003728:	67666320 	strbvs	r6, [r6, -r0, lsr #6]!
f000372c:	00000a2e 	andeq	r0, r0, lr, lsr #20
f0003730:	31667830 	cmncc	r6, r0, lsr r8
f0003734:	30303263 	eorscc	r3, r0, r3, ror #4
f0003738:	76203035 			; <UNDEFINED> instruction: 0x76203035
f000373c:	65756c61 	ldrbvs	r6, [r5, #-3169]!	; 0xc61
f0003740:	7830203a 	ldmdavc	r0!, {r1, r3, r4, r5, sp}
f0003744:	202e7825 	eorcs	r7, lr, r5, lsr #16
f0003748:	0000000a 	andeq	r0, r0, sl
f000374c:	31667830 	cmncc	r6, r0, lsr r8
f0003750:	30303263 	eorscc	r3, r0, r3, ror #4
f0003754:	76203030 			; <UNDEFINED> instruction: 0x76203030
f0003758:	65756c61 	ldrbvs	r6, [r5, #-3169]!	; 0xc61
f000375c:	7830203a 	ldmdavc	r0!, {r1, r3, r4, r5, sp}
f0003760:	202e7825 	eorcs	r7, lr, r5, lsr #16
f0003764:	0000000a 	andeq	r0, r0, sl
f0003768:	3d3d3d3d 	ldccc	13, cr3, [sp, #-244]!	; 0xffffff0c
f000376c:	3d3d3d3d 	ldccc	13, cr3, [sp, #-244]!	; 0xffffff0c
f0003770:	3d3d3d3d 	ldccc	13, cr3, [sp, #-244]!	; 0xffffff0c
f0003774:	3d3d3d3d 	ldccc	13, cr3, [sp, #-244]!	; 0xffffff0c
f0003778:	3d3d3d3d 	ldccc	13, cr3, [sp, #-244]!	; 0xffffff0c
f000377c:	3d3d3d3d 	ldccc	13, cr3, [sp, #-244]!	; 0xffffff0c
f0003780:	3d3d3d3d 	ldccc	13, cr3, [sp, #-244]!	; 0xffffff0c
f0003784:	544f4e3d 	strbpl	r4, [pc], #-3645	; f000378c <CSWTCH.12+0xb0>
f0003788:	3d454349 	stclcc	3, cr4, [r5, #-292]	; 0xfffffedc
f000378c:	3d3d3d3d 	ldccc	13, cr3, [sp, #-244]!	; 0xffffff0c
f0003790:	3d3d3d3d 	ldccc	13, cr3, [sp, #-244]!	; 0xffffff0c
f0003794:	3d3d3d3d 	ldccc	13, cr3, [sp, #-244]!	; 0xffffff0c
f0003798:	3d3d3d3d 	ldccc	13, cr3, [sp, #-244]!	; 0xffffff0c
f000379c:	3d3d3d3d 	ldccc	13, cr3, [sp, #-244]!	; 0xffffff0c
f00037a0:	3d3d3d3d 	ldccc	13, cr3, [sp, #-244]!	; 0xffffff0c
f00037a4:	3d3d3d3d 	ldccc	13, cr3, [sp, #-244]!	; 0xffffff0c
f00037a8:	3d3d3d3d 	ldccc	13, cr3, [sp, #-244]!	; 0xffffff0c
f00037ac:	2e3d3d3d 	mrccs	13, 1, r3, cr13, cr13, {1}
f00037b0:	00000a20 	andeq	r0, r0, r0, lsr #20
f00037b4:	61635f64 	cmnvs	r3, r4, ror #30
f00037b8:	5f656863 	svcpl	0x00656863
f00037bc:	7373696d 	cmnvc	r3, #1785856	; 0x1b4000
f00037c0:	6174735f 	cmnvs	r4, pc, asr r3
f00037c4:	3d207472 	cfstrscc	mvf7, [r0, #-456]!	; 0xfffffe38
f00037c8:	2c642520 	cfstr64cs	mvdx2, [r4], #-128	; 0xffffff80
f00037cc:	635f6420 	cmpvs	pc, #536870912	; 0x20000000
f00037d0:	65686361 	strbvs	r6, [r8, #-865]!	; 0x361
f00037d4:	73696d5f 	cmnvc	r9, #6080	; 0x17c0
f00037d8:	6e655f73 	mcrvs	15, 3, r5, cr5, cr3, {3}
f00037dc:	25203d64 	strcs	r3, [r0, #-3428]!	; 0xd64
f00037e0:	0a202e64 	beq	f080f178 <__bss_end+0x80b3cc>
f00037e4:	00000000 	andeq	r0, r0, r0
f00037e8:	6c745f64 	ldclvs	15, cr5, [r4], #-400	; 0xfffffe70
f00037ec:	696d5f62 	stmdbvs	sp!, {r1, r5, r6, r8, r9, sl, fp, ip, lr}^
f00037f0:	735f7373 	cmpvc	pc, #-872415231	; 0xcc000001
f00037f4:	74726174 	ldrbtvc	r6, [r2], #-372	; 0x174
f00037f8:	25203d20 	strcs	r3, [r0, #-3360]!	; 0xd20
f00037fc:	64202c64 	strtvs	r2, [r0], #-3172	; 0xc64
f0003800:	626c745f 	rsbvs	r7, ip, #1593835520	; 0x5f000000
f0003804:	73696d5f 	cmnvc	r9, #6080	; 0x17c0
f0003808:	6e655f73 	mcrvs	15, 3, r5, cr5, cr3, {3}
f000380c:	25203d64 	strcs	r3, [r0, #-3428]!	; 0xd64
f0003810:	0a202e64 	beq	f080f1a8 <__bss_end+0x80b3fc>
f0003814:	00000000 	andeq	r0, r0, r0
f0003818:	61635f69 	cmnvs	r3, r9, ror #30
f000381c:	5f656863 	svcpl	0x00656863
f0003820:	7373696d 	cmnvc	r3, #1785856	; 0x1b4000
f0003824:	6174735f 	cmnvs	r4, pc, asr r3
f0003828:	3d207472 	cfstrscc	mvf7, [r0, #-456]!	; 0xfffffe38
f000382c:	2c642520 	cfstr64cs	mvdx2, [r4], #-128	; 0xffffff80
f0003830:	635f6920 	cmpvs	pc, #524288	; 0x80000
f0003834:	65686361 	strbvs	r6, [r8, #-865]!	; 0x361
f0003838:	73696d5f 	cmnvc	r9, #6080	; 0x17c0
f000383c:	6e655f73 	mcrvs	15, 3, r5, cr5, cr3, {3}
f0003840:	25203d64 	strcs	r3, [r0, #-3428]!	; 0xd64
f0003844:	0a202e64 	beq	f080f1dc <__bss_end+0x80b430>
f0003848:	00000000 	andeq	r0, r0, r0
f000384c:	6c745f69 	ldclvs	15, cr5, [r4], #-420	; 0xfffffe5c
f0003850:	696d5f62 	stmdbvs	sp!, {r1, r5, r6, r8, r9, sl, fp, ip, lr}^
f0003854:	735f7373 	cmpvc	pc, #-872415231	; 0xcc000001
f0003858:	74726174 	ldrbtvc	r6, [r2], #-372	; 0x174
f000385c:	25203d20 	strcs	r3, [r0, #-3360]!	; 0xd20
f0003860:	69202c64 	stmdbvs	r0!, {r2, r5, r6, sl, fp, sp}
f0003864:	626c745f 	rsbvs	r7, ip, #1593835520	; 0x5f000000
f0003868:	73696d5f 	cmnvc	r9, #6080	; 0x17c0
f000386c:	6e655f73 	mcrvs	15, 3, r5, cr5, cr3, {3}
f0003870:	25203d64 	strcs	r3, [r0, #-3428]!	; 0xd64
f0003874:	0a202e64 	beq	f080f20c <__bss_end+0x80b460>
f0003878:	00000000 	andeq	r0, r0, r0
f000387c:	6d206f6e 	stcvs	15, cr6, [r0, #-440]!	; 0xfffffe48
f0003880:	2e737369 	cdpcs	3, 7, cr7, cr3, cr9, {3}
f0003884:	00000a20 	andeq	r0, r0, r0, lsr #20
f0003888:	65746661 	ldrbvs	r6, [r4, #-1633]!	; 0x661
f000388c:	656d2072 	strbvs	r2, [sp, #-114]!	; 0x72
f0003890:	6d745f6d 	ldclvs	15, cr5, [r4, #-436]!	; 0xfffffe4c
f0003894:	69645f72 	stmdbvs	r4!, {r1, r4, r5, r6, r8, r9, sl, fp, ip, lr}^
f0003898:	6c626173 	stfvse	f6, [r2], #-460	; 0xfffffe34
f000389c:	61775f65 	cmnvs	r7, r5, ror #30
f00038a0:	64686374 	strbtvs	r6, [r8], #-884	; 0x374
f00038a4:	202e676f 	eorcs	r6, lr, pc, ror #14
f00038a8:	0000000a 	andeq	r0, r0, sl
f00038ac:	72646461 	rsbvc	r6, r4, #1627389952	; 0x61000000
f00038b0:	2c782520 	cfldr64cs	mvdx2, [r8], #-128	; 0xffffff80
f00038b4:	6c617620 	stclvs	6, cr7, [r1], #-128	; 0xffffff80
f00038b8:	3d206575 	cfstr32cc	mvfx6, [r0, #-468]!	; 0xfffffe2c
f00038bc:	2e782520 	cdpcs	5, 7, cr2, cr8, cr0, {1}
f00038c0:	00000a20 	andeq	r0, r0, r0, lsr #20
f00038c4:	33323130 	teqcc	r2, #12
f00038c8:	37363534 			; <UNDEFINED> instruction: 0x37363534
f00038cc:	42413938 	submi	r3, r1, #917504	; 0xe0000
f00038d0:	46454443 	strbmi	r4, [r5], -r3, asr #8
f00038d4:	00000000 	andeq	r0, r0, r0
f00038d8:	20202020 	eorcs	r2, r0, r0, lsr #32
f00038dc:	20202020 	eorcs	r2, r0, r0, lsr #32
f00038e0:	20202020 	eorcs	r2, r0, r0, lsr #32
f00038e4:	20202020 	eorcs	r2, r0, r0, lsr #32
f00038e8:	00000000 	andeq	r0, r0, r0
f00038ec:	65747441 	ldrbvs	r7, [r4, #-1089]!	; 0x441
f00038f0:	6974706d 	ldmdbvs	r4!, {r0, r2, r3, r5, r6, ip, sp, lr}^
f00038f4:	6420676e 	strtvs	r6, [r0], #-1902	; 0x76e
f00038f8:	73697669 	cmnvc	r9, #110100480	; 0x6900000
f00038fc:	206e6f69 	rsbcs	r6, lr, r9, ror #30
f0003900:	30207962 	eorcc	r7, r0, r2, ror #18
f0003904:	00000021 	andeq	r0, r0, r1, lsr #32
f0003908:	69746f6e 	ldmdbvs	r4!, {r1, r2, r3, r5, r6, r8, r9, sl, fp, sp, lr}^
f000390c:	203a6563 	eorscs	r6, sl, r3, ror #10
f0003910:	20636967 	rsbcs	r6, r3, r7, ror #18
f0003914:	20726169 	rsbscs	r6, r2, r9, ror #2
f0003918:	30203d3d 	eorcc	r3, r0, sp, lsr sp
f000391c:	2e782578 	mrccs	5, 3, r2, cr8, cr8, {3}
f0003920:	00000a20 	andeq	r0, r0, r0, lsr #20
f0003924:	656b6174 	strbvs	r6, [fp, #-372]!	; 0x174
f0003928:	73776820 	cmnvc	r7, #2097152	; 0x200000
f000392c:	6c6e6970 	stclvs	9, cr6, [lr], #-448	; 0xfffffe40
f0003930:	206b636f 	rsbcs	r6, fp, pc, ror #6
f0003934:	656d6974 	strbvs	r6, [sp, #-2420]!	; 0x974
f0003938:	0a74756f 	beq	f1d20efc <__bss_end+0x1d1d150>
f000393c:	00000000 	andeq	r0, r0, r0

Disassembly of section .data:

f0003940 <axp20_info>:
f0003940:	00000003 	andeq	r0, r0, r3
f0003944:	00000514 	andeq	r0, r0, r4, lsl r5
f0003948:	00000514 	andeq	r0, r0, r4, lsl r5
	...
f000395c:	00000004 	andeq	r0, r0, r4
f0003960:	00000708 	andeq	r0, r0, r8, lsl #14
f0003964:	00000ce4 	andeq	r0, r0, r4, ror #25
f0003968:	00000064 	andeq	r0, r0, r4, rrx
f000396c:	00000028 	andeq	r0, r0, r8, lsr #32
f0003970:	00000004 	andeq	r0, r0, r4
f0003974:	00000004 	andeq	r0, r0, r4
f0003978:	00000005 	andeq	r0, r0, r5
f000397c:	000002bc 			; <UNDEFINED> instruction: 0x000002bc
f0003980:	00000dac 	andeq	r0, r0, ip, lsr #27
f0003984:	00000019 	andeq	r0, r0, r9, lsl r0
f0003988:	00000029 	andeq	r0, r0, r9, lsr #32
f000398c:	00000000 	andeq	r0, r0, r0
f0003990:	00000007 	andeq	r0, r0, r7
f0003994:	00000006 	andeq	r0, r0, r6
f0003998:	000004e2 	andeq	r0, r0, r2, ror #9
f000399c:	00000ce4 	andeq	r0, r0, r4, ror #25
f00039a0:	00000064 	andeq	r0, r0, r4, rrx
f00039a4:	00000028 	andeq	r0, r0, r8, lsr #32
f00039a8:	00000000 	andeq	r0, r0, r0
f00039ac:	00000004 	andeq	r0, r0, r4
f00039b0:	00000001 	andeq	r0, r0, r1
f00039b4:	000002bc 			; <UNDEFINED> instruction: 0x000002bc
f00039b8:	000008e3 	andeq	r0, r0, r3, ror #17
f00039bc:	00000019 	andeq	r0, r0, r9, lsl r0
f00039c0:	00000023 	andeq	r0, r0, r3, lsr #32
f00039c4:	00000000 	andeq	r0, r0, r0
f00039c8:	00000006 	andeq	r0, r0, r6
f00039cc:	00000002 	andeq	r0, r0, r2
f00039d0:	000002bc 			; <UNDEFINED> instruction: 0x000002bc
f00039d4:	00000dac 	andeq	r0, r0, ip, lsr #27
f00039d8:	00000019 	andeq	r0, r0, r9, lsl r0
f00039dc:	00000027 	andeq	r0, r0, r7, lsr #32
f00039e0:	00000000 	andeq	r0, r0, r0
f00039e4:	00000007 	andeq	r0, r0, r7

f00039e8 <arisc_sram_a2_vbase>:
f00039e8:	f0040000 			; <UNDEFINED> instruction: 0xf0040000

Disassembly of section .bss:

f00039ec <sp_backup>:
f00039ec:	00000000 	andeq	r0, r0, r0

f00039f0 <d_cache_miss_start>:
f00039f0:	00000000 	andeq	r0, r0, r0

f00039f4 <d_tlb_miss_start>:
f00039f4:	00000000 	andeq	r0, r0, r0

f00039f8 <i_tlb_miss_start>:
f00039f8:	00000000 	andeq	r0, r0, r0

f00039fc <i_cache_miss_start>:
f00039fc:	00000000 	andeq	r0, r0, r0

f0003a00 <d_cache_miss_end>:
f0003a00:	00000000 	andeq	r0, r0, r0

f0003a04 <d_tlb_miss_end>:
f0003a04:	00000000 	andeq	r0, r0, r0

f0003a08 <i_tlb_miss_end>:
f0003a08:	00000000 	andeq	r0, r0, r0

f0003a0c <i_cache_miss_end>:
f0003a0c:	00000000 	andeq	r0, r0, r0

f0003a10 <r_prcm>:
f0003a10:	00000000 	andeq	r0, r0, r0

f0003a14 <CmuReg>:
f0003a14:	00000000 	andeq	r0, r0, r0

f0003a18 <CmuReg_SysClkDiv_tmp>:
f0003a18:	00000000 	andeq	r0, r0, r0

f0003a1c <CmuReg_Pll1Ctl_tmp>:
f0003a1c:	00000000 	andeq	r0, r0, r0

f0003a20 <KeyReg>:
f0003a20:	00000000 	andeq	r0, r0, r0

f0003a24 <KeyCtrl>:
f0003a24:	00000000 	andeq	r0, r0, r0

f0003a28 <KeyIntc>:
f0003a28:	00000000 	andeq	r0, r0, r0

f0003a2c <twi_reg>:
f0003a2c:	00000000 	andeq	r0, r0, r0

f0003a30 <TwiClkRegBak>:
f0003a30:	00000000 	andeq	r0, r0, r0

f0003a34 <TwiCtlRegBak>:
f0003a34:	00000000 	andeq	r0, r0, r0

f0003a38 <status_reg>:
f0003a38:	00000000 	andeq	r0, r0, r0

f0003a3c <status_reg_pa>:
f0003a3c:	00000000 	andeq	r0, r0, r0

f0003a40 <status_reg_tmp>:
f0003a40:	00000000 	andeq	r0, r0, r0

f0003a44 <status_reg_pa_tmp>:
f0003a44:	00000000 	andeq	r0, r0, r0

f0003a48 <print_flag>:
f0003a48:	00000000 	andeq	r0, r0, r0

f0003a4c <backup_perf_counter_ctrl_reg>:
f0003a4c:	00000000 	andeq	r0, r0, r0

f0003a50 <backup_perf_counter_enable_reg>:
f0003a50:	00000000 	andeq	r0, r0, r0

f0003a54 <overhead>:
f0003a54:	00000000 	andeq	r0, r0, r0

f0003a58 <cpu_freq>:
f0003a58:	00000000 	andeq	r0, r0, r0

f0003a5c <backup_gpio_uart>:
f0003a5c:	00000000 	andeq	r0, r0, r0

f0003a60 <backup_ccu_uart>:
f0003a60:	00000000 	andeq	r0, r0, r0

f0003a64 <backup_ccu_uart_reset>:
f0003a64:	00000000 	andeq	r0, r0, r0

f0003a68 <backup_port_id>:
f0003a68:	00000000 	andeq	r0, r0, r0

f0003a6c <serial_inited_flag>:
f0003a6c:	00000000 	andeq	r0, r0, r0

f0003a70 <debugger_buffer>:
	...

f0003b70 <GicDDisc>:
f0003b70:	00000000 	andeq	r0, r0, r0

f0003b74 <GicCDisc>:
f0003b74:	00000000 	andeq	r0, r0, r0

f0003b78 <gpio_clk_inited.2428>:
f0003b78:	00000000 	andeq	r0, r0, r0

f0003b7c <TmrReg>:
f0003b7c:	00000000 	andeq	r0, r0, r0

f0003b80 <WatchDog1_Config_Reg_Bak>:
f0003b80:	00000000 	andeq	r0, r0, r0

f0003b84 <WatchDog1_Mod_Reg_Bak>:
f0003b84:	00000000 	andeq	r0, r0, r0

f0003b88 <WatchDog1_Irq_En_Bak>:
f0003b88:	00000000 	andeq	r0, r0, r0

f0003b8c <TmstmpReg>:
f0003b8c:	00000000 	andeq	r0, r0, r0

f0003b90 <CmuReg>:
f0003b90:	00000000 	andeq	r0, r0, r0

f0003b94 <CmuReg_SysClkDiv_tmp>:
f0003b94:	00000000 	andeq	r0, r0, r0

f0003b98 <CmuReg_Pll1Ctl_tmp>:
f0003b98:	00000000 	andeq	r0, r0, r0

f0003b9c <wakeup_event>:
f0003b9c:	00000000 	andeq	r0, r0, r0

f0003ba0 <restore_completed>:
f0003ba0:	00000000 	andeq	r0, r0, r0

f0003ba4 <message_start>:
f0003ba4:	00000000 	andeq	r0, r0, r0

f0003ba8 <message_end>:
f0003ba8:	00000000 	andeq	r0, r0, r0

f0003bac <cpsr_backup>:
f0003bac:	00000000 	andeq	r0, r0, r0

f0003bb0 <extended_standby_para_info>:
	...

f0003d74 <pm_info>:
	...

f0003d98 <normal_standby_para_info>:
	...

Disassembly of section .debug_info:

00000000 <.debug_info>:
       0:	0000086c 	andeq	r0, r0, ip, ror #16
       4:	00000002 	andeq	r0, r0, r2
       8:	01040000 	mrseq	r0, (UNDEF: 4)
       c:	000003f4 	strdeq	r0, [r0], -r4
      10:	00065601 	andeq	r5, r6, r1, lsl #12
      14:	00048200 	andeq	r8, r4, r0, lsl #4
      18:	00000000 	andeq	r0, r0, r0
      1c:	0003c8f0 	strdeq	ip, [r3], -r0
      20:	000000f0 	strdeq	r0, [r0], -r0	; <UNPREDICTABLE>
      24:	06010200 	streq	r0, [r1], -r0, lsl #4
      28:	0000078d 	andeq	r0, r0, sp, lsl #15
      2c:	8b080102 	blhi	20043c <__standby_start+0x20043c>
      30:	02000007 	andeq	r0, r0, #7
      34:	06410502 	strbeq	r0, [r1], -r2, lsl #10
      38:	02020000 	andeq	r0, r2, #0
      3c:	00084d07 	andeq	r4, r8, r7, lsl #26
      40:	05040300 	streq	r0, [r4, #-768]	; 0x300
      44:	00746e69 	rsbseq	r6, r4, r9, ror #28
      48:	00043a04 	andeq	r3, r4, r4, lsl #20
      4c:	53130600 	tstpl	r3, #0
      50:	02000000 	andeq	r0, r0, #0
      54:	02450704 	subeq	r0, r5, #1048576	; 0x100000
      58:	08020000 	stmdaeq	r2, {}	; <UNPREDICTABLE>
      5c:	00047405 	andeq	r7, r4, r5, lsl #8
      60:	07080200 	streq	r0, [r8, -r0, lsl #4]
      64:	0000023b 	andeq	r0, r0, fp, lsr r2
      68:	00025f05 	andeq	r5, r2, r5, lsl #30
      6c:	14020400 	strne	r0, [r2], #-1024	; 0x400
      70:	0000008d 	andeq	r0, r0, sp, lsl #1
      74:	00000006 	andeq	r0, r0, r6
      78:	47060100 	strmi	r0, [r6, -r0, lsl #2]
      7c:	02000005 	andeq	r0, r0, #5
      80:	00025206 	andeq	r5, r2, r6, lsl #4
      84:	79060300 	stmdbvc	r6, {r8, r9}
      88:	05000002 	streq	r0, [r0, #-2]
      8c:	062e0500 	strteq	r0, [lr], -r0, lsl #10
      90:	03040000 	movweq	r0, #16384	; 0x4000
      94:	00013e18 	andeq	r3, r1, r8, lsl lr
      98:	01c40600 	biceq	r0, r4, r0, lsl #12
      9c:	06320000 	ldrteq	r0, [r2], -r0
      a0:	000001d6 	ldrdeq	r0, [r0], -r6
      a4:	05ee0633 	strbeq	r0, [lr, #1587]!	; 0x633
      a8:	06000000 	streq	r0, [r0], -r0
      ac:	000006a1 	andeq	r0, r0, r1, lsr #13
      b0:	220600ca 	andcs	r0, r6, #202	; 0xca
      b4:	c0000002 	andgt	r0, r0, r2
      b8:	05a10600 	streq	r0, [r1, #1536]!	; 0x600
      bc:	00d10000 	sbcseq	r0, r1, r0
      c0:	00000d06 	andeq	r0, r0, r6, lsl #26
      c4:	c2060000 	andgt	r0, r6, #0
      c8:	00000002 	andeq	r0, r0, r2
      cc:	0002d106 	andeq	sp, r2, r6, lsl #2
      d0:	be060000 	cdplt	0, 0, cr0, cr6, cr0, {0}
      d4:	e7000000 	str	r0, [r0, -r0]
      d8:	04f20600 	ldrbteq	r0, [r2], #1536	; 0x600
      dc:	00e80000 	rsceq	r0, r8, r0
      e0:	00050606 	andeq	r0, r5, r6, lsl #12
      e4:	0600ea00 	streq	lr, [r0], -r0, lsl #20
      e8:	0000051a 	andeq	r0, r0, sl, lsl r5
      ec:	003d0600 	eorseq	r0, sp, r0, lsl #12
      f0:	00e90000 	rsceq	r0, r9, r0
      f4:	00005106 	andeq	r5, r0, r6, lsl #2
      f8:	65060000 	strvs	r0, [r6, #-0]
      fc:	00000000 	andeq	r0, r0, r0
     100:	00010406 	andeq	r0, r1, r6, lsl #8
     104:	15060000 	strne	r0, [r6, #-0]
     108:	2f000001 	svccs	0x00000001
     10c:	00012606 	andeq	r2, r1, r6, lsl #12
     110:	37060000 	strcc	r0, [r6, -r0]
     114:	00000001 	andeq	r0, r0, r1
     118:	00014806 	andeq	r4, r1, r6, lsl #16
     11c:	59060000 	stmdbpl	r6, {}	; <UNPREDICTABLE>
     120:	00000001 	andeq	r0, r0, r1
     124:	00016a06 	andeq	r6, r1, r6, lsl #20
     128:	7b063100 	blvc	18c530 <__standby_start+0x18c530>
     12c:	84000001 	strhi	r0, [r0], #-1
     130:	018c0601 	orreq	r0, ip, r1, lsl #12
     134:	06000000 	streq	r0, [r0], -r0
     138:	0000019d 	muleq	r0, sp, r1
     13c:	45050000 	strmi	r0, [r5, #-0]
     140:	04000008 	streq	r0, [r0], #-8
     144:	01ab7a04 			; <UNDEFINED> instruction: 0x01ab7a04
     148:	88060000 	stmdahi	r6, {}	; <UNPREDICTABLE>
     14c:	00000006 	andeq	r0, r0, r6
     150:	00033406 	andeq	r3, r3, r6, lsl #8
     154:	46060100 	strmi	r0, [r6], -r0, lsl #2
     158:	02000007 	andeq	r0, r0, #7
     15c:	00032806 	andeq	r2, r3, r6, lsl #16
     160:	2e060300 	cdpcs	3, 0, cr0, cr6, cr0, {0}
     164:	04000004 	streq	r0, [r0], #-4
     168:	00069506 	andeq	r9, r6, r6, lsl #10
     16c:	e7060500 	str	r0, [r6, -r0, lsl #10]
     170:	06000003 	streq	r0, [r0], -r3
     174:	00082f06 	andeq	r2, r8, r6, lsl #30
     178:	61060700 	tstvs	r6, r0, lsl #14
     17c:	08000004 	stmdaeq	r0, {r2}
     180:	0008d006 	andeq	sp, r8, r6
     184:	23060900 	movwcs	r0, #26880	; 0x6900
     188:	0a000006 	beq	1a8 <__standby_start+0x1a8>
     18c:	00064b06 	andeq	r4, r6, r6, lsl #22
     190:	3f060b00 	svccc	0x00060b00
     194:	0c000008 	stceq	0, cr0, [r0], {8}
     198:	0007a006 	andeq	sl, r7, r6
     19c:	02060d00 	andeq	r0, r6, #0
     1a0:	0e000006 	cdpeq	0, 0, cr0, cr0, cr6, {0}
     1a4:	0007ce06 	andeq	ip, r7, r6, lsl #28
     1a8:	02000f00 	andeq	r0, r0, #0
     1ac:	07940801 	ldreq	r0, [r4, r1, lsl #16]
     1b0:	03070000 	movweq	r0, #28672	; 0x7000
     1b4:	10000003 	andne	r0, r0, r3
     1b8:	01f76805 	mvnseq	r6, r5, lsl #16
     1bc:	40080000 	andmi	r0, r8, r0
     1c0:	05000004 	streq	r0, [r0, #-4]
     1c4:	00005369 	andeq	r5, r0, r9, ror #6
     1c8:	00230200 	eoreq	r0, r3, r0, lsl #4
     1cc:	00007908 	andeq	r7, r0, r8, lsl #18
     1d0:	536a0500 	cmnpl	sl, #0
     1d4:	02000000 	andeq	r0, r0, #0
     1d8:	81080423 	tsthi	r8, r3, lsr #8
     1dc:	05000000 	streq	r0, [r0, #-0]
     1e0:	0000536b 	andeq	r5, r0, fp, ror #6
     1e4:	08230200 	stmdaeq	r3!, {r9}
     1e8:	00008908 	andeq	r8, r0, r8, lsl #18
     1ec:	536c0500 	cmnpl	ip, #0
     1f0:	02000000 	andeq	r0, r0, #0
     1f4:	04000c23 	streq	r0, [r0], #-3107	; 0xc23
     1f8:	0000060e 	andeq	r0, r0, lr, lsl #12
     1fc:	01b26d05 			; <UNDEFINED> instruction: 0x01b26d05
     200:	2e070000 	cdpcs	0, 0, cr0, cr7, cr0, {0}
     204:	14000005 	strne	r0, [r0], #-5
     208:	02517705 	subseq	r7, r1, #1310720	; 0x140000
     20c:	73090000 	movwvc	r0, #36864	; 0x9000
     210:	05006372 	streq	r6, [r0, #-882]	; 0x372
     214:	00005378 	andeq	r5, r0, r8, ror r3
     218:	00230200 	eoreq	r0, r3, r0, lsl #4
     21c:	00038c08 	andeq	r8, r3, r8, lsl #24
     220:	53790500 	cmnpl	r9, #0
     224:	02000000 	andeq	r0, r0, #0
     228:	d1080423 	tstle	r8, r3, lsr #8
     22c:	05000003 	streq	r0, [r0, #-3]
     230:	0000537a 	andeq	r5, r0, sl, ror r3
     234:	08230200 	stmdaeq	r3!, {r9}
     238:	05006e09 	streq	r6, [r0, #-3593]	; 0xe09
     23c:	0000537b 	andeq	r5, r0, fp, ror r3
     240:	0c230200 	sfmeq	f0, 4, [r3], #-0
     244:	05006d09 	streq	r6, [r0, #-3337]	; 0xd09
     248:	0000537c 	andeq	r5, r0, ip, ror r3
     24c:	10230200 	eorne	r0, r3, r0, lsl #4
     250:	02f80400 	rscseq	r0, r8, #0
     254:	7d050000 	stcvc	0, cr0, [r5, #-0]
     258:	00000202 	andeq	r0, r0, r2, lsl #4
     25c:	0005c007 	andeq	ip, r5, r7
     260:	c0052800 	andgt	r2, r5, r0, lsl #16
     264:	00000293 	muleq	r0, r3, r2
     268:	00056608 	andeq	r6, r5, r8, lsl #12
     26c:	53c60500 	bicpl	r0, r6, #0
     270:	02000000 	andeq	r0, r0, #0
     274:	fb080023 	blx	20030a <__standby_start+0x20030a>
     278:	05000000 	streq	r0, [r0, #-0]
     27c:	000053c7 	andeq	r5, r0, r7, asr #7
     280:	04230200 	strteq	r0, [r3], #-512	; 0x200
     284:	00070808 	andeq	r0, r7, r8, lsl #16
     288:	93d20500 	bicsls	r0, r2, #0
     28c:	02000002 	andeq	r0, r0, #2
     290:	0a000823 	beq	2324 <__standby_start+0x2324>
     294:	0000003a 	andeq	r0, r0, sl, lsr r0
     298:	000002a3 	andeq	r0, r0, r3, lsr #5
     29c:	0000530b 	andeq	r5, r0, fp, lsl #6
     2a0:	04000e00 	streq	r0, [r0], #-3584	; 0xe00
     2a4:	00000091 	muleq	r0, r1, r0
     2a8:	025cd305 	subseq	sp, ip, #335544320	; 0x14000000
     2ac:	20070000 	andcs	r0, r7, r0
     2b0:	10000007 	andne	r0, r0, r7
     2b4:	02f3d505 	rscseq	sp, r3, #20971520	; 0x1400000
     2b8:	cd080000 	stcgt	0, cr0, [r8, #-0]
     2bc:	05000005 	streq	r0, [r0, #-5]
     2c0:	000053d6 	ldrdeq	r5, [r0], -r6
     2c4:	00230200 	eoreq	r0, r3, r0, lsl #4
     2c8:	00023408 	andeq	r3, r2, r8, lsl #8
     2cc:	53d70500 	bicspl	r0, r7, #0
     2d0:	02000000 	andeq	r0, r0, #0
     2d4:	dc080423 	cfstrsle	mvf0, [r8], {35}	; 0x23
     2d8:	05000007 	streq	r0, [r0, #-7]
     2dc:	000053d8 	ldrdeq	r5, [r0], -r8
     2e0:	08230200 	stmdaeq	r3!, {r9}
     2e4:	0005b408 	andeq	fp, r5, r8, lsl #8
     2e8:	53d90500 	bicspl	r0, r9, #0
     2ec:	02000000 	andeq	r0, r0, #0
     2f0:	04000c23 	streq	r0, [r0], #-3107	; 0xc23
     2f4:	0000056c 	andeq	r0, r0, ip, ror #10
     2f8:	02aeda05 	adceq	sp, lr, #20480	; 0x5000
     2fc:	d0070000 	andle	r0, r7, r0
     300:	0c000000 	stceq	0, cr0, [r0], {-0}
     304:	0335e005 	teqeq	r5, #5
     308:	0a080000 	beq	200310 <__standby_start+0x200310>
     30c:	05000002 	streq	r0, [r0, #-2]
     310:	000335e1 	andeq	r3, r3, r1, ror #11
     314:	00230200 	eoreq	r0, r3, r0, lsl #4
     318:	00055208 	andeq	r5, r5, r8, lsl #4
     31c:	53e20500 	mvnpl	r0, #0
     320:	02000000 	andeq	r0, r0, #0
     324:	84080423 	strhi	r0, [r8], #-1059	; 0x423
     328:	05000002 	streq	r0, [r0, #-2]
     32c:	000053e3 	andeq	r5, r0, r3, ror #7
     330:	08230200 	stmdaeq	r3!, {r9}
     334:	53040c00 	movwpl	r0, #19456	; 0x4c00
     338:	04000000 	streq	r0, [r0], #-0
     33c:	000008db 	ldrdeq	r0, [r0], -fp
     340:	02fee405 	rscseq	lr, lr, #83886080	; 0x5000000
     344:	db070000 	blle	1c034c <__standby_start+0x1c034c>
     348:	1c000003 	stcne	0, cr0, [r0], {3}
     34c:	036fe605 	cmneq	pc, #5242880	; 0x500000
     350:	8e080000 	cdphi	0, 0, cr0, cr8, cr0, {0}
     354:	05000008 	streq	r0, [r0, #-8]
     358:	000053f0 	strdeq	r5, [r0], -r0
     35c:	00230200 	eoreq	r0, r3, r0, lsl #4
     360:	0007c508 	andeq	ip, r7, r8, lsl #10
     364:	6ff70500 	svcvs	0x00f70500
     368:	02000003 	andeq	r0, r0, #3
     36c:	0a000423 	beq	1400 <__standby_start+0x1400>
     370:	0000033b 	andeq	r0, r0, fp, lsr r3
     374:	0000037f 	andeq	r0, r0, pc, ror r3
     378:	0000530b 	andeq	r5, r0, fp, lsl #6
     37c:	04000100 	streq	r0, [r0], #-256	; 0x100
     380:	000004b5 			; <UNDEFINED> instruction: 0x000004b5
     384:	0346f805 	movteq	pc, #26629	; 0x6805	; <UNPREDICTABLE>
     388:	780d0000 	stmdavc	sp, {}	; <UNPREDICTABLE>
     38c:	64000005 	strvs	r0, [r0], #-5
     390:	03fa0501 	mvnseq	r0, #4194304	; 0x400000
     394:	0e000004 	cdpeq	0, 0, cr0, cr0, cr4, {0}
     398:	000000b7 	strheq	r0, [r0], -r7
     39c:	41010105 	tstmi	r1, r5, lsl #2
     3a0:	02000000 	andeq	r0, r0, #0
     3a4:	e00e0023 	and	r0, lr, r3, lsr #32
     3a8:	05000002 	streq	r0, [r0, #-2]
     3ac:	0041010e 	subeq	r0, r1, lr, lsl #2
     3b0:	23020000 	movwcs	r0, #8192	; 0x2000
     3b4:	07e60e04 	strbeq	r0, [r6, r4, lsl #28]!
     3b8:	14050000 	strne	r0, [r5], #-0
     3bc:	00004101 	andeq	r4, r0, r1, lsl #2
     3c0:	08230200 	stmdaeq	r3!, {r9}
     3c4:	0002100e 	andeq	r1, r2, lr
     3c8:	01190500 	tsteq	r9, r0, lsl #10
     3cc:	00000041 	andeq	r0, r0, r1, asr #32
     3d0:	0e0c2302 	cdpeq	3, 0, cr2, cr12, cr2, {0}
     3d4:	00002132 	andeq	r2, r0, r2, lsr r1
     3d8:	03011f05 	movweq	r1, #7941	; 0x1f05
     3dc:	02000004 	andeq	r0, r0, #4
     3e0:	980e1023 	stmdals	lr, {r0, r1, r5, ip}
     3e4:	05000008 	streq	r0, [r0, #-8]
     3e8:	0041014d 	subeq	r0, r1, sp, asr #2
     3ec:	23030000 	movwcs	r0, #12288	; 0x3000
     3f0:	8a0e01c0 	bhi	380af8 <__standby_start+0x380af8>
     3f4:	05000002 	streq	r0, [r0, #-2]
     3f8:	04130153 	ldreq	r0, [r3], #-339	; 0x153
     3fc:	23030000 	movwcs	r0, #12288	; 0x3000
     400:	0a0001c4 	beq	b18 <__standby_start+0xb18>
     404:	000001f7 	strdeq	r0, [r0], -r7
     408:	00000413 	andeq	r0, r0, r3, lsl r4
     40c:	0000530b 	andeq	r5, r0, fp, lsl #6
     410:	0a000a00 	beq	2c18 <__standby_start+0x2c18>
     414:	00000251 	andeq	r0, r0, r1, asr r2
     418:	00000423 	andeq	r0, r0, r3, lsr #8
     41c:	0000530b 	andeq	r5, r0, fp, lsl #6
     420:	0f000700 	svceq	0x00000700
     424:	00000537 	andeq	r0, r0, r7, lsr r5
     428:	8a015505 	bhi	55844 <__standby_start+0x55844>
     42c:	02000003 	andeq	r0, r0, #3
     430:	02400704 	subeq	r0, r0, #1048576	; 0x100000
     434:	96100000 	ldrls	r0, [r0], -r0
     438:	c4000002 	strgt	r0, [r0], #-2
     43c:	01640501 	cmneq	r4, r1, lsl #10
     440:	000004ad 	andeq	r0, r0, sp, lsr #9
     444:	00646911 	rsbeq	r6, r4, r1, lsl r9
     448:	2f016805 	svccs	0x00016805
     44c:	02000004 	andeq	r0, r0, #4
     450:	6d0e0023 	stcvs	0, cr0, [lr, #-140]	; 0xffffff74
     454:	05000004 	streq	r0, [r0, #-4]
     458:	00530169 	subseq	r0, r3, r9, ror #2
     45c:	23020000 	movwcs	r0, #8192	; 0x2000
     460:	021b0e04 	andseq	r0, fp, #64	; 0x40
     464:	70050000 	andvc	r0, r5, r0
     468:	00005301 	andeq	r5, r0, r1, lsl #6
     46c:	08230200 	stmdaeq	r3!, {r9}
     470:	0005bc0e 	andeq	fp, r5, lr, lsl #24
     474:	01730500 	cmneq	r3, r0, lsl #10
     478:	000002a3 	andeq	r0, r0, r3, lsr #5
     47c:	0e0c2302 	cdpeq	3, 0, cr2, cr12, cr2, {0}
     480:	000003b7 			; <UNDEFINED> instruction: 0x000003b7
     484:	f3017405 	vshl.u8	d7, d5, d1
     488:	02000002 	andeq	r0, r0, #2
     48c:	c10e3423 	tstgt	lr, r3, lsr #8
     490:	05000007 	streq	r0, [r0, #-7]
     494:	037f0175 	cmneq	pc, #1073741853	; 0x4000001d
     498:	23020000 	movwcs	r0, #8192	; 0x2000
     49c:	055d0e44 	ldrbeq	r0, [sp, #-3652]	; 0xe44
     4a0:	76050000 	strvc	r0, [r5], -r0
     4a4:	00042301 	andeq	r2, r4, r1, lsl #6
     4a8:	60230200 	eorvs	r0, r3, r0, lsl #4
     4ac:	07ae0f00 	streq	r0, [lr, r0, lsl #30]!
     4b0:	77050000 	strvc	r0, [r5, -r0]
     4b4:	00043601 	andeq	r3, r4, r1, lsl #12
     4b8:	ad040c00 	stcge	12, cr0, [r4, #-0]
     4bc:	12000004 	andne	r0, r0, #4
     4c0:	00000029 	andeq	r0, r0, r9, lsr #32
     4c4:	01f00514 	mvnseq	r0, r4, lsl r5
     4c8:	00000518 	andeq	r0, r0, r8, lsl r5
     4cc:	0015420e 	andseq	r4, r5, lr, lsl #4
     4d0:	01f20500 	mvnseq	r0, r0, lsl #10
     4d4:	0000042f 	andeq	r0, r0, pc, lsr #8
     4d8:	0e002302 	cdpeq	3, 0, cr2, cr0, cr2, {0}
     4dc:	00002534 	andeq	r2, r0, r4, lsr r5
     4e0:	2f01f305 	svccs	0x0001f305
     4e4:	02000004 	andeq	r0, r0, #4
     4e8:	c30e0423 	movwgt	r0, #58403	; 0xe423
     4ec:	05000004 	streq	r0, [r0, #-4]
     4f0:	042f01f4 	strteq	r0, [pc], #-500	; 4f8 <__standby_start+0x4f8>
     4f4:	23020000 	movwcs	r0, #8192	; 0x2000
     4f8:	03940e08 	orrseq	r0, r4, #128	; 0x80
     4fc:	f5050000 			; <UNDEFINED> instruction: 0xf5050000
     500:	00042f01 	andeq	r2, r4, r1, lsl #30
     504:	0c230200 	sfmeq	f0, 4, [r3], #-0
     508:	0002950e 	andeq	r9, r2, lr, lsl #10
     50c:	01f60500 	mvnseq	r0, r0, lsl #10
     510:	000004b9 			; <UNDEFINED> instruction: 0x000004b9
     514:	00102302 	andseq	r2, r0, r2, lsl #6
     518:	00044812 	andeq	r4, r4, r2, lsl r8
     51c:	07050800 	streq	r0, [r5, -r0, lsl #16]
     520:	00054402 	andeq	r4, r5, r2, lsl #8
     524:	05db0e00 	ldrbeq	r0, [fp, #3584]	; 0xe00
     528:	08050000 	stmdaeq	r5, {}	; <UNPREDICTABLE>
     52c:	00005302 	andeq	r5, r0, r2, lsl #6
     530:	00230200 	eoreq	r0, r3, r0, lsl #4
     534:	00067f0e 	andeq	r7, r6, lr, lsl #30
     538:	02090500 	andeq	r0, r9, #0
     53c:	0000002c 	andeq	r0, r0, ip, lsr #32
     540:	00042302 	andeq	r2, r4, r2, lsl #6
     544:	0006c112 	andeq	ip, r6, r2, lsl r1
     548:	10051c00 	andne	r1, r5, r0, lsl #24
     54c:	0005bb02 	andeq	fp, r5, r2, lsl #22
     550:	15420e00 	strbne	r0, [r2, #-3584]	; 0xe00
     554:	11050000 	mrsne	r0, (UNDEF: 5)
     558:	00005302 	andeq	r5, r0, r2, lsl #6
     55c:	00230200 	eoreq	r0, r3, r0, lsl #4
     560:	0006190e 	andeq	r1, r6, lr, lsl #18
     564:	02120500 	andseq	r0, r2, #0
     568:	00000053 	andeq	r0, r0, r3, asr r0
     56c:	0e042302 	cdpeq	3, 0, cr2, cr4, cr2, {0}
     570:	0000001e 	andeq	r0, r0, lr, lsl r0
     574:	53021305 	movwpl	r1, #8965	; 0x2305
     578:	02000000 	andeq	r0, r0, #0
     57c:	340e0823 	strcc	r0, [lr], #-2083	; 0x823
     580:	05000025 	streq	r0, [r0, #-37]	; 0x25
     584:	00410214 	subeq	r0, r1, r4, lsl r2
     588:	23020000 	movwcs	r0, #8192	; 0x2000
     58c:	04c30e0c 	strbeq	r0, [r3], #3596	; 0xe0c
     590:	15050000 	strne	r0, [r5, #-0]
     594:	00042f02 	andeq	r2, r4, r2, lsl #30
     598:	10230200 	eorne	r0, r3, r0, lsl #4
     59c:	0003940e 	andeq	r9, r3, lr, lsl #8
     5a0:	02160500 	andseq	r0, r6, #0
     5a4:	0000042f 	andeq	r0, r0, pc, lsr #8
     5a8:	0e142302 	cdpeq	3, 1, cr2, cr4, cr2, {0}
     5ac:	00000295 	muleq	r0, r5, r2
     5b0:	b9021705 	stmdblt	r2, {r0, r2, r8, r9, sl, ip}
     5b4:	02000004 	andeq	r0, r0, #4
     5b8:	12001823 	andne	r1, r0, #2293760	; 0x230000
     5bc:	0000026e 	andeq	r0, r0, lr, ror #4
     5c0:	021e0524 	andseq	r0, lr, #150994944	; 0x9000000
     5c4:	000005e7 	andeq	r0, r0, r7, ror #11
     5c8:	0000300e 	andeq	r3, r0, lr
     5cc:	021f0500 	andseq	r0, pc, #0
     5d0:	00000544 	andeq	r0, r0, r4, asr #10
     5d4:	0e002302 	cdpeq	3, 0, cr2, cr0, cr2, {0}
     5d8:	0000044b 	andeq	r0, r0, fp, asr #8
     5dc:	18022005 	stmdane	r2, {r0, r2, sp}
     5e0:	02000005 	andeq	r0, r0, #5
     5e4:	13001c23 	movwne	r1, #3107	; 0xc23
     5e8:	45280704 	strmi	r0, [r8, #-1796]!	; 0x704
     5ec:	06000006 	streq	r0, [r0], -r6
     5f0:	0000035c 	andeq	r0, r0, ip, asr r3
     5f4:	04160601 	ldreq	r0, [r6], #-1537	; 0x601
     5f8:	06020000 	streq	r0, [r2], -r0
     5fc:	000000a0 	andeq	r0, r0, r0, lsr #1
     600:	01ae0604 			; <UNDEFINED> instruction: 0x01ae0604
     604:	06080000 	streq	r0, [r8], -r0
     608:	000002a7 	andeq	r0, r0, r7, lsr #5
     60c:	07f20610 			; <UNDEFINED> instruction: 0x07f20610
     610:	06200000 	strteq	r0, [r0], -r0
     614:	000004d6 	ldrdeq	r0, [r0], -r6
     618:	b40600c0 	strlt	r0, [r6], #-192	; 0xc0
     61c:	80000008 	andhi	r0, r0, r8
     620:	086e0601 	stmdaeq	lr!, {r0, r9, sl}^
     624:	02800000 	addeq	r0, r0, #0
     628:	00072a06 	andeq	r2, r7, r6, lsl #20
     62c:	06048000 	streq	r8, [r4], -r0
     630:	00000341 	andeq	r0, r0, r1, asr #6
     634:	62060880 	andvs	r0, r6, #8388608	; 0x800000
     638:	80000007 	andhi	r0, r0, r7
     63c:	01e80610 	mvneq	r0, r0, lsl r6
     640:	20800000 	addcs	r0, r0, r0
     644:	03c61400 	biceq	r1, r6, #0
     648:	da010000 	ble	40650 <__standby_start+0x40650>
     64c:	15010101 	strne	r0, [r1, #-257]	; 0x101
     650:	00000812 	andeq	r0, r0, r2, lsl r8
     654:	0101e001 	tsteq	r1, r1
     658:	00066e01 	andeq	r6, r6, r1, lsl #28
     65c:	75011600 	strvc	r1, [r1, #-1536]	; 0x600
     660:	01000003 	tsteq	r0, r3
     664:	004101e6 	subeq	r0, r1, r6, ror #3
     668:	17010000 	strne	r0, [r1, -r0]
     66c:	0c140000 	ldceq	0, cr0, [r4], {-0}
     670:	01000003 	tsteq	r0, r3
     674:	0101023a 	tsteq	r1, sl, lsr r2
     678:	0006f514 	andeq	pc, r6, r4, lsl r5	; <UNPREDICTABLE>
     67c:	02440100 	subeq	r0, r4, #0
     680:	a3140101 	tstge	r4, #1073741824	; 0x40000000
     684:	01000008 	tsteq	r0, r8
     688:	0101022b 	tsteq	r1, fp, lsr #4
     68c:	00045914 	andeq	r5, r4, r4, lsl r9
     690:	026b0100 	rsbeq	r0, fp, #0
     694:	53140101 	tstpl	r4, #1073741824	; 0x40000000
     698:	01000004 	tsteq	r0, r4
     69c:	01010198 			; <UNDEFINED> instruction: 0x01010198
     6a0:	04a80118 	strteq	r0, [r8], #280	; 0x118
     6a4:	55010000 	strpl	r0, [r1, #-0]
     6a8:	00004101 	andeq	r4, r0, r1, lsl #2
     6ac:	00000000 	andeq	r0, r0, r0
     6b0:	0003c8f0 	strdeq	ip, [r3], -r0
     6b4:	000000f0 	strdeq	r0, [r0], -r0	; <UNPREDICTABLE>
     6b8:	00074a00 	andeq	r4, r7, r0, lsl #20
     6bc:	72611900 	rsbvc	r1, r1, #0
     6c0:	55010067 	strpl	r0, [r1, #-103]	; 0x67
     6c4:	0000074a 	andeq	r0, r0, sl, asr #14
     6c8:	00000020 	andeq	r0, r0, r0, lsr #32
     6cc:	0007991a 	andeq	r9, r7, sl, lsl r9
     6d0:	50570100 	subspl	r0, r7, r0, lsl #2
     6d4:	3e000007 	cdpcc	0, 0, cr0, cr0, cr7, {0}
     6d8:	1b000000 	blne	6e0 <__standby_start+0x6e0>
     6dc:	0000068c 	andeq	r0, r0, ip, lsl #13
     6e0:	f00000d4 			; <UNDEFINED> instruction: 0xf00000d4
     6e4:	00000000 	andeq	r0, r0, r0
     6e8:	073a9401 	ldreq	r9, [sl, -r1, lsl #8]!
     6ec:	961c0000 	ldrls	r0, [ip], -r0
     6f0:	d4000006 	strle	r0, [r0], #-6
     6f4:	20f00000 	rscscs	r0, r0, r0
     6f8:	01000000 	mrseq	r0, (UNDEF: 0)
     6fc:	4f1d026e 	svcmi	0x001d026e
     700:	f8000006 			; <UNDEFINED> instruction: 0xf8000006
     704:	40f00000 	rscsmi	r0, r0, r0
     708:	01000000 	mrseq	r0, (UNDEF: 0)
     70c:	071801a9 	ldreq	r0, [r8, -r9, lsr #3]
     710:	581e0000 	ldmdapl	lr, {}	; <UNPREDICTABLE>
     714:	00000000 	andeq	r0, r0, r0
     718:	00066e1f 	andeq	r6, r6, pc, lsl lr
     71c:	0002c800 	andeq	ip, r2, r0, lsl #16
     720:	000070f0 	strdeq	r7, [r0], -r0
     724:	01c60100 	biceq	r0, r6, r0, lsl #2
     728:	00067820 	andeq	r7, r6, r0, lsr #16
     72c:	00033000 	andeq	r3, r3, r0
     730:	000374f0 	strdeq	r7, [r3], -r0
     734:	01c901f0 	strdeq	r0, [r9, #16]
     738:	82210000 	eorhi	r0, r1, #0
     73c:	30000006 	andcc	r0, r0, r6
     740:	90f00002 	rscsls	r0, r0, r2
     744:	01f00002 	mvnseq	r0, r2
     748:	040c0090 	streq	r0, [ip], #-144	; 0x90
     74c:	000005bb 			; <UNDEFINED> instruction: 0x000005bb
     750:	01ab040c 			; <UNDEFINED> instruction: 0x01ab040c
     754:	e4220000 	strt	r0, [r2], #-0
     758:	01000005 	tsteq	r0, r5
     75c:	00004821 	andeq	r4, r0, r1, lsr #16
     760:	ec030500 	cfstr32	mvfx0, [r3], {-0}
     764:	23f00039 	mvnscs	r0, #57	; 0x39
     768:	00000860 	andeq	r0, r0, r0, ror #16
     76c:	00482201 	subeq	r2, r8, r1, lsl #4
     770:	0a000000 	beq	778 <__standby_start+0x778>
     774:	00000048 	andeq	r0, r0, r8, asr #32
     778:	00000784 	andeq	r0, r0, r4, lsl #15
     77c:	00005324 	andeq	r5, r0, r4, lsr #6
     780:	000fff00 	andeq	pc, pc, r0, lsl #30
     784:	0002ed25 	andeq	lr, r2, r5, lsr #26
     788:	73250100 	teqvc	r5, #0
     78c:	26000007 	strcs	r0, [r0], -r7
     790:	00000271 	andeq	r0, r0, r1, ror r2
     794:	05bb4501 	ldreq	r4, [fp, #1281]!	; 0x501
     798:	05010000 	streq	r0, [r1, #-0]
     79c:	003d7403 	eorseq	r7, sp, r3, lsl #8
     7a0:	070d26f0 			; <UNDEFINED> instruction: 0x070d26f0
     7a4:	2a010000 	bcs	407ac <__standby_start+0x407ac>
     7a8:	00000041 	andeq	r0, r0, r1, asr #32
     7ac:	f0030501 			; <UNDEFINED> instruction: 0xf0030501
     7b0:	26f00039 			; <UNDEFINED> instruction: 0x26f00039
     7b4:	000006e4 	andeq	r0, r0, r4, ror #13
     7b8:	00412b01 	subeq	r2, r1, r1, lsl #22
     7bc:	05010000 	streq	r0, [r1, #-0]
     7c0:	0039f403 	eorseq	pc, r9, r3, lsl #8
     7c4:	081e26f0 	ldmdaeq	lr, {r4, r5, r6, r7, r9, sl, sp}
     7c8:	2c010000 	stccs	0, cr0, [r1], {-0}
     7cc:	00000041 	andeq	r0, r0, r1, asr #32
     7d0:	f8030501 			; <UNDEFINED> instruction: 0xf8030501
     7d4:	26f00039 			; <UNDEFINED> instruction: 0x26f00039
     7d8:	000006d1 	ldrdeq	r0, [r0], -r1
     7dc:	00412d01 	subeq	r2, r1, r1, lsl #26
     7e0:	05010000 	streq	r0, [r1, #-0]
     7e4:	0039fc03 	eorseq	pc, r9, r3, lsl #24
     7e8:	00ea26f0 	strdeq	r2, [sl], #96	; 0x60	; <UNPREDICTABLE>
     7ec:	2e010000 	cdpcs	0, 0, cr0, cr1, cr0, {0}
     7f0:	00000041 	andeq	r0, r0, r1, asr #32
     7f4:	00030501 	andeq	r0, r3, r1, lsl #10
     7f8:	26f0003a 			; <UNDEFINED> instruction: 0x26f0003a
     7fc:	00000753 	andeq	r0, r0, r3, asr r7
     800:	00412f01 	subeq	r2, r1, r1, lsl #30
     804:	05010000 	streq	r0, [r1, #-0]
     808:	003a0403 	eorseq	r0, sl, r3, lsl #8
     80c:	06b226f0 			; <UNDEFINED> instruction: 0x06b226f0
     810:	30010000 	andcc	r0, r1, r0
     814:	00000041 	andeq	r0, r0, r1, asr #32
     818:	08030501 	stmdaeq	r3, {r0, r8, sl}
     81c:	26f0003a 			; <UNDEFINED> instruction: 0x26f0003a
     820:	000003a6 	andeq	r0, r0, r6, lsr #7
     824:	00413101 	subeq	r3, r1, r1, lsl #2
     828:	05010000 	streq	r0, [r1, #-0]
     82c:	003a0c03 	eorseq	r0, sl, r3, lsl #24
     830:	077226f0 			; <UNDEFINED> instruction: 0x077226f0
     834:	46010000 	strmi	r0, [r1], -r0
     838:	000004bf 			; <UNDEFINED> instruction: 0x000004bf
     83c:	98030501 	stmdals	r3, {r0, r8, sl}
     840:	27f0003d 			; <UNDEFINED> instruction: 0x27f0003d
     844:	0000031c 	andeq	r0, r0, ip, lsl r3
     848:	07501c01 	ldrbeq	r1, [r0, -r1, lsl #24]
     84c:	01010000 	mrseq	r0, (UNDEF: 1)
     850:	0000e027 	andeq	lr, r0, r7, lsr #32
     854:	501d0100 	andspl	r0, sp, r0, lsl #2
     858:	01000007 	tsteq	r0, r7
     85c:	05862601 	streq	r2, [r6, #1537]	; 0x601
     860:	47010000 	strmi	r0, [r1, -r0]
     864:	000004ad 	andeq	r0, r0, sp, lsr #9
     868:	b0030501 	andlt	r0, r3, r1, lsl #10
     86c:	00f0003b 	rscseq	r0, r0, fp, lsr r0
     870:	000000d0 	ldrdeq	r0, [r0], -r0	; <UNPREDICTABLE>
     874:	02240002 	eoreq	r0, r4, #2
     878:	01040000 	mrseq	r0, (UNDEF: 4)
     87c:	000003f4 	strdeq	r0, [r0], -r4
     880:	0008ed01 	andeq	lr, r8, r1, lsl #26
     884:	00048200 	andeq	r8, r4, r0, lsl #4
     888:	0003c800 	andeq	ip, r3, r0, lsl #16
     88c:	0003f8f0 	strdeq	pc, [r3], -r0
     890:	00018df0 	strdeq	r8, [r1], -r0
     894:	06010200 	streq	r0, [r1], -r0, lsl #4
     898:	0000078d 	andeq	r0, r0, sp, lsl #15
     89c:	8b080102 	blhi	200cac <__standby_start+0x200cac>
     8a0:	02000007 	andeq	r0, r0, #7
     8a4:	06410502 	strbeq	r0, [r1], -r2, lsl #10
     8a8:	02020000 	andeq	r0, r2, #0
     8ac:	00084d07 	andeq	r4, r8, r7, lsl #26
     8b0:	05040300 	streq	r0, [r4, #-768]	; 0x300
     8b4:	00746e69 	rsbseq	r6, r4, r9, ror #28
     8b8:	45070402 	strmi	r0, [r7, #-1026]	; 0x402
     8bc:	02000002 	andeq	r0, r0, #2
     8c0:	04740508 	ldrbteq	r0, [r4], #-1288	; 0x508
     8c4:	08020000 	stmdaeq	r2, {}	; <UNPREDICTABLE>
     8c8:	00023b07 	andeq	r3, r2, r7, lsl #22
     8cc:	08010200 	stmdaeq	r1, {r9}
     8d0:	00000794 	muleq	r0, r4, r7
     8d4:	40070402 	andmi	r0, r7, r2, lsl #8
     8d8:	04000002 	streq	r0, [r0], #-2
     8dc:	1d010504 	cfstr32ne	mvfx0, [r1, #-16]
     8e0:	01000009 	tsteq	r0, r9
     8e4:	03c80123 	biceq	r0, r8, #-1073741816	; 0xc0000008
     8e8:	03f8f000 	mvnseq	pc, #0
     8ec:	7d02f000 	stcvc	0, cr15, [r2, #-0]
     8f0:	0000cd00 	andeq	ip, r0, r0, lsl #26
     8f4:	1b5f0600 	blne	17c20fc <__standby_start+0x17c20fc>
     8f8:	23010000 	movwcs	r0, #4096	; 0x1000
     8fc:	0000006b 	andeq	r0, r0, fp, rrx
     900:	00000051 	andeq	r0, r0, r1, asr r0
     904:	63727307 	cmnvs	r2, #469762048	; 0x1c000000
     908:	6b230100 	blvs	8c0d10 <__standby_start+0x8c0d10>
     90c:	64000000 	strvs	r0, [r0], #-0
     910:	07000000 	streq	r0, [r0, -r0]
     914:	2301006e 	movwcs	r0, #4206	; 0x106e
     918:	00000041 	andeq	r0, r0, r1, asr #32
     91c:	00000084 	andeq	r0, r0, r4, lsl #1
     920:	00092c08 	andeq	r2, r9, r8, lsl #24
     924:	cd250100 	stfgts	f0, [r5, #-0]
     928:	64000000 	strvs	r0, [r0], #-0
     92c:	09000000 	stmdbeq	r0, {}	; <UNPREDICTABLE>
     930:	00000915 	andeq	r0, r0, r5, lsl r9
     934:	00cd2601 	sbceq	r2, sp, r1, lsl #12
     938:	50010000 	andpl	r0, r1, r0
     93c:	5d040a00 	vstrpl	s0, [r4, #-0]
     940:	00000000 	andeq	r0, r0, r0
     944:	00000d80 	andeq	r0, r0, r0, lsl #27
     948:	02b10002 	adcseq	r0, r1, #2
     94c:	01040000 	mrseq	r0, (UNDEF: 4)
     950:	000003f4 	strdeq	r0, [r0], -r4
     954:	000c8f01 	andeq	r8, ip, r1, lsl #30
     958:	00048200 	andeq	r8, r4, r0, lsl #4
     95c:	0003f800 	andeq	pc, r3, r0, lsl #16
     960:	0004a0f0 	strdeq	sl, [r4], -r0
     964:	0001f9f0 	strdeq	pc, [r1], -r0
     968:	06010200 	streq	r0, [r1], -r0, lsl #4
     96c:	0000078d 	andeq	r0, r0, sp, lsl #15
     970:	8b080102 	blhi	200d80 <__standby_start+0x200d80>
     974:	02000007 	andeq	r0, r0, #7
     978:	06410502 	strbeq	r0, [r1], -r2, lsl #10
     97c:	02020000 	andeq	r0, r2, #0
     980:	00084d07 	andeq	r4, r8, r7, lsl #26
     984:	0e1c0300 	cdpeq	3, 1, cr0, cr12, cr0, {0}
     988:	12020000 	andne	r0, r2, #0
     98c:	0000004c 	andeq	r0, r0, ip, asr #32
     990:	69050404 	stmdbvs	r5, {r2, sl}
     994:	0300746e 	movweq	r7, #1134	; 0x46e
     998:	0000043a 	andeq	r0, r0, sl, lsr r4
     99c:	005e1302 	subseq	r1, lr, r2, lsl #6
     9a0:	04020000 	streq	r0, [r2], #-0
     9a4:	00024507 	andeq	r4, r2, r7, lsl #10
     9a8:	05080200 	streq	r0, [r8, #-512]	; 0x200
     9ac:	00000474 	andeq	r0, r0, r4, ror r4
     9b0:	3b070802 	blcc	1c29c0 <__standby_start+0x1c29c0>
     9b4:	05000002 	streq	r0, [r0, #-2]
     9b8:	041a0304 	ldreq	r0, [sl], #-772	; 0x304
     9bc:	06000001 	streq	r0, [r0], -r1
     9c0:	00000ac4 	andeq	r0, r0, r4, asr #21
     9c4:	00531c03 	subseq	r1, r3, r3, lsl #24
     9c8:	02040000 	andeq	r0, r4, #0
     9cc:	0023021e 	eoreq	r0, r3, lr, lsl r2
     9d0:	000ea706 	andeq	sl, lr, r6, lsl #14
     9d4:	531d0300 	tstpl	sp, #0
     9d8:	04000000 	streq	r0, [r0], #-0
     9dc:	23021806 	movwcs	r1, #10246	; 0x2806
     9e0:	0acc0600 	beq	ff3021e8 <__bss_end+0xf2fe43c>
     9e4:	1e030000 	cdpne	0, 0, cr0, cr3, cr0, {0}
     9e8:	00000053 	andeq	r0, r0, r3, asr r0
     9ec:	02100804 	andseq	r0, r0, #262144	; 0x40000
     9f0:	dc060023 	stcle	0, cr0, [r6], {35}	; 0x23
     9f4:	0300000a 	movweq	r0, #10
     9f8:	0000531f 	andeq	r5, r0, pc, lsl r3
     9fc:	0f010400 	svceq	0x00010400
     a00:	06002302 	streq	r2, [r0], -r2, lsl #6
     a04:	00000ec5 	andeq	r0, r0, r5, asr #29
     a08:	00532003 	subseq	r2, r3, r3
     a0c:	07040000 	streq	r0, [r4, -r0]
     a10:	00230208 	eoreq	r0, r3, r8, lsl #4
     a14:	000be006 	andeq	lr, fp, r6
     a18:	53210300 	teqpl	r1, #0
     a1c:	04000000 	streq	r0, [r0], #-0
     a20:	23020503 	movwcs	r0, #9475	; 0x2503
     a24:	0ecf0600 	cdpeq	6, 12, cr0, cr15, cr0, {0}
     a28:	22030000 	andcs	r0, r3, #0
     a2c:	00000053 	andeq	r0, r0, r3, asr r0
     a30:	02010404 	andeq	r0, r1, #67108864	; 0x4000000
     a34:	71060023 	tstvc	r6, r3, lsr #32
     a38:	0300000e 	movweq	r0, #14
     a3c:	00005323 	andeq	r5, r0, r3, lsr #6
     a40:	00010400 	andeq	r0, r1, r0, lsl #8
     a44:	00002302 	andeq	r2, r0, r2, lsl #6
     a48:	18030407 	stmdane	r3, {r0, r1, r2, sl}
     a4c:	00000123 	andeq	r0, r0, r3, lsr #2
     a50:	0009a708 	andeq	sl, r9, r8, lsl #14
     a54:	53190300 	tstpl	r9, #0
     a58:	08000000 	stmdaeq	r0, {}	; <UNPREDICTABLE>
     a5c:	00001353 	andeq	r1, r0, r3, asr r3
     a60:	00732503 	rsbseq	r2, r3, r3, lsl #10
     a64:	03000000 	movweq	r0, #0
     a68:	00000e77 	andeq	r0, r0, r7, ror lr
     a6c:	01042603 	tsteq	r4, r3, lsl #12
     a70:	04050000 	streq	r0, [r5], #-0
     a74:	01bf3e03 			; <UNDEFINED> instruction: 0x01bf3e03
     a78:	42060000 	andmi	r0, r6, #0
     a7c:	03000010 	movweq	r0, #16
     a80:	00005340 	andeq	r5, r0, r0, asr #6
     a84:	1e020400 	cfcpysne	mvf0, mvf2
     a88:	06002302 	streq	r2, [r0], -r2, lsl #6
     a8c:	00000ea7 	andeq	r0, r0, r7, lsr #29
     a90:	00534103 	subseq	r4, r3, r3, lsl #2
     a94:	0a040000 	beq	100a9c <__standby_start+0x100a9c>
     a98:	00230214 	eoreq	r0, r3, r4, lsl r2
     a9c:	000b9406 	andeq	r9, fp, r6, lsl #8
     aa0:	53420300 	movtpl	r0, #8960	; 0x2300
     aa4:	04000000 	streq	r0, [r0], #-0
     aa8:	23021301 	movwcs	r1, #8961	; 0x2301
     aac:	0eb10600 	cdpeq	6, 11, cr0, cr1, cr0, {0}
     ab0:	43030000 	movwmi	r0, #12288	; 0x3000
     ab4:	00000053 	andeq	r0, r0, r3, asr r0
     ab8:	02100304 	andseq	r0, r0, #268435456	; 0x10000000
     abc:	be060023 	cdplt	0, 0, cr0, cr6, cr3, {1}
     ac0:	0300000c 	movweq	r0, #12
     ac4:	00005344 	andeq	r5, r0, r4, asr #6
     ac8:	0e020400 	cfcpyseq	mvf0, mvf2
     acc:	06002302 	streq	r2, [r0], -r2, lsl #6
     ad0:	00000ebb 			; <UNDEFINED> instruction: 0x00000ebb
     ad4:	00534503 	subseq	r4, r3, r3, lsl #10
     ad8:	0a040000 	beq	100ae0 <__standby_start+0x100ae0>
     adc:	00230204 	eoreq	r0, r3, r4, lsl #4
     ae0:	000b2b06 	andeq	r2, fp, r6, lsl #22
     ae4:	53460300 	movtpl	r0, #25344	; 0x6300
     ae8:	04000000 	streq	r0, [r0], #-0
     aec:	23020301 	movwcs	r0, #8961	; 0x2301
     af0:	0ec50600 	cdpeq	6, 12, cr0, cr5, cr0, {0}
     af4:	47030000 	strmi	r0, [r3, -r0]
     af8:	00000053 	andeq	r0, r0, r3, asr r0
     afc:	02000304 	andeq	r0, r0, #268435456	; 0x10000000
     b00:	07000023 	streq	r0, [r0, -r3, lsr #32]
     b04:	de3c0304 	cdple	3, 3, cr0, cr12, cr4, {0}
     b08:	08000001 	stmdaeq	r0, {r0}
     b0c:	000009a7 	andeq	r0, r0, r7, lsr #19
     b10:	00533d03 	subseq	r3, r3, r3, lsl #26
     b14:	53080000 	movwpl	r0, #32768	; 0x8000
     b18:	03000013 	movweq	r0, #19
     b1c:	00012e48 	andeq	r2, r1, r8, asr #28
     b20:	33030000 	movwcc	r0, #12288	; 0x3000
     b24:	0300000a 	movweq	r0, #10
     b28:	0001bf49 	andeq	fp, r1, r9, asr #30
     b2c:	09340900 	ldmdbeq	r4!, {r8, fp}
     b30:	03040000 	movweq	r0, #16384	; 0x4000
     b34:	00026d4f 	andeq	r6, r2, pc, asr #26
     b38:	0ea70600 	cdpeq	6, 10, cr0, cr7, cr0, {0}
     b3c:	51030000 	mrspl	r0, (UNDEF: 3)
     b40:	00000053 	andeq	r0, r0, r3, asr r0
     b44:	021c0404 	andseq	r0, ip, #67108864	; 0x4000000
     b48:	1b060023 	blne	180bdc <__standby_start+0x180bdc>
     b4c:	0300000d 	movweq	r0, #13
     b50:	00005352 	andeq	r5, r0, r2, asr r3
     b54:	1a020400 	bne	81b5c <__standby_start+0x81b5c>
     b58:	06002302 	streq	r2, [r0], -r2, lsl #6
     b5c:	00000c84 	andeq	r0, r0, r4, lsl #25
     b60:	00535303 	subseq	r5, r3, r3, lsl #6
     b64:	02040000 	andeq	r0, r4, #0
     b68:	00230218 	eoreq	r0, r3, r8, lsl r2
     b6c:	000e1406 	andeq	r1, lr, r6, lsl #8
     b70:	53540300 	cmppl	r4, #0
     b74:	04000000 	streq	r0, [r0], #-0
     b78:	23021602 	movwcs	r1, #9730	; 0x2602
     b7c:	0eb10600 	cdpeq	6, 11, cr0, cr1, cr0, {0}
     b80:	55030000 	strpl	r0, [r3, #-0]
     b84:	00000053 	andeq	r0, r0, r3, asr r0
     b88:	02140204 	andseq	r0, r4, #1073741824	; 0x40000000
     b8c:	f6060023 			; <UNDEFINED> instruction: 0xf6060023
     b90:	0300000d 	movweq	r0, #13
     b94:	00005356 	andeq	r5, r0, r6, asr r3
     b98:	12020400 	andne	r0, r2, #0
     b9c:	06002302 	streq	r2, [r0], -r2, lsl #6
     ba0:	00000ebb 			; <UNDEFINED> instruction: 0x00000ebb
     ba4:	00535703 	subseq	r5, r3, r3, lsl #14
     ba8:	12040000 	andne	r0, r4, #0
     bac:	00230200 	eoreq	r0, r3, r0, lsl #4
     bb0:	0fcd0300 	svceq	0x00cd0300
     bb4:	58030000 	stmdapl	r3, {}	; <UNPREDICTABLE>
     bb8:	000001e9 	andeq	r0, r0, r9, ror #3
     bbc:	5f030405 	svcpl	0x00030405
     bc0:	000002e7 	andeq	r0, r0, r7, ror #5
     bc4:	000b4c06 	andeq	r4, fp, r6, lsl #24
     bc8:	53610300 	cmnpl	r1, #0
     bcc:	04000000 	streq	r0, [r0], #-0
     bd0:	23021b05 	movwcs	r1, #11013	; 0x2b05
     bd4:	10390600 	eorsne	r0, r9, r0, lsl #12
     bd8:	62030000 	andvs	r0, r3, #0
     bdc:	00000053 	andeq	r0, r0, r3, asr r0
     be0:	02100b04 	andseq	r0, r0, #4096	; 0x1000
     be4:	51060023 	tstpl	r6, r3, lsr #32
     be8:	0300000b 	movweq	r0, #11
     bec:	00005363 	andeq	r5, r0, r3, ror #6
     bf0:	0e020400 	cfcpyseq	mvf0, mvf2
     bf4:	06002302 	streq	r2, [r0], -r2, lsl #6
     bf8:	00000eb1 			; <UNDEFINED> instruction: 0x00000eb1
     bfc:	00536403 	subseq	r6, r3, r3, lsl #8
     c00:	06040000 	streq	r0, [r4], -r0
     c04:	00230208 	eoreq	r0, r3, r8, lsl #4
     c08:	000b2d06 	andeq	r2, fp, r6, lsl #26
     c0c:	53650300 	cmnpl	r5, #0
     c10:	04000000 	streq	r0, [r0], #-0
     c14:	23020602 	movwcs	r0, #9730	; 0x2602
     c18:	0ebb0600 	cdpeq	6, 11, cr0, cr11, cr0, {0}
     c1c:	66030000 	strvs	r0, [r3], -r0
     c20:	00000053 	andeq	r0, r0, r3, asr r0
     c24:	02000604 	andeq	r0, r0, #4194304	; 0x400000
     c28:	07000023 	streq	r0, [r0, -r3, lsr #32]
     c2c:	065d0304 	ldrbeq	r0, [sp], -r4, lsl #6
     c30:	08000003 	stmdaeq	r0, {r0, r1}
     c34:	000009a7 	andeq	r0, r0, r7, lsr #19
     c38:	00535e03 	subseq	r5, r3, r3, lsl #28
     c3c:	53080000 	movwpl	r0, #32768	; 0x8000
     c40:	03000013 	movweq	r0, #19
     c44:	00027867 	andeq	r7, r2, r7, ror #16
     c48:	55030000 	strpl	r0, [r3, #-0]
     c4c:	0300000d 	movweq	r0, #13
     c50:	0002e768 	andeq	lr, r2, r8, ror #14
     c54:	0c2b0900 	stceq	9, cr0, [fp], #-0
     c58:	03040000 	movweq	r0, #16384	; 0x4000
     c5c:	0003406a 	andeq	r4, r3, sl, rrx
     c60:	101a0600 	andsne	r0, sl, r0, lsl #12
     c64:	6c030000 	stcvs	0, cr0, [r3], {-0}
     c68:	00000053 	andeq	r0, r0, r3, asr r0
     c6c:	02101004 	andseq	r1, r0, #4
     c70:	39060023 	stmdbcc	r6, {r0, r1, r5}
     c74:	03000010 	movweq	r0, #16
     c78:	0000536d 	andeq	r5, r0, sp, ror #6
     c7c:	00100400 	andseq	r0, r0, r0, lsl #8
     c80:	00002302 	andeq	r2, r0, r2, lsl #6
     c84:	000f4103 	andeq	r4, pc, r3, lsl #2
     c88:	116e0300 	cmnne	lr, r0, lsl #6
     c8c:	0a000003 	beq	ca0 <__standby_start+0xca0>
     c90:	00001097 	muleq	r0, r7, r0
     c94:	700302dc 	ldrdvc	r0, [r3], -ip
     c98:	00000b21 	andeq	r0, r0, r1, lsr #22
     c9c:	000be90b 	andeq	lr, fp, fp, lsl #18
     ca0:	21720300 	cmncs	r2, r0, lsl #6
     ca4:	0200000b 	andeq	r0, r0, #11
     ca8:	0e0b0023 	cdpeq	0, 0, cr0, cr11, cr3, {1}
     cac:	0300000c 	movweq	r0, #12
     cb0:	000b2673 	andeq	r2, fp, r3, ror r6
     cb4:	04230200 	strteq	r0, [r3], #-512	; 0x200
     cb8:	00108f0b 	andseq	r8, r0, fp, lsl #30
     cbc:	26740300 	ldrbtcs	r0, [r4], -r0, lsl #6
     cc0:	0200000b 	andeq	r0, r0, #11
     cc4:	b10b0823 	tstlt	fp, r3, lsr #16
     cc8:	0300000e 	movweq	r0, #14
     ccc:	000b2675 	andeq	r2, fp, r5, ror r6
     cd0:	0c230200 	sfmeq	f0, 4, [r3], #-0
     cd4:	000d430b 	andeq	r4, sp, fp, lsl #6
     cd8:	26760300 	ldrbtcs	r0, [r6], -r0, lsl #6
     cdc:	0200000b 	andeq	r0, r0, #11
     ce0:	bb0b1023 	bllt	2c4d74 <__standby_start+0x2c4d74>
     ce4:	0300000e 	movweq	r0, #14
     ce8:	000b2677 	andeq	r2, fp, r7, ror r6
     cec:	14230200 	strtne	r0, [r3], #-512	; 0x200
     cf0:	000a150b 	andeq	r1, sl, fp, lsl #10
     cf4:	26780300 	ldrbtcs	r0, [r8], -r0, lsl #6
     cf8:	0200000b 	andeq	r0, r0, #11
     cfc:	c50b1823 	strgt	r1, [fp, #-2083]	; 0x823
     d00:	0300000e 	movweq	r0, #14
     d04:	000b2679 	andeq	r2, fp, r9, ror r6
     d08:	1c230200 	sfmne	f0, 4, [r3], #-0
     d0c:	000e690b 	andeq	r6, lr, fp, lsl #18
     d10:	267a0300 	ldrbtcs	r0, [sl], -r0, lsl #6
     d14:	0200000b 	andeq	r0, r0, #11
     d18:	cf0b2023 	svcgt	0x000b2023
     d1c:	0300000e 	movweq	r0, #14
     d20:	000b267b 	andeq	r2, fp, fp, ror r6
     d24:	24230200 	strtcs	r0, [r3], #-512	; 0x200
     d28:	0009dd0b 	andeq	sp, r9, fp, lsl #26
     d2c:	267c0300 	ldrbtcs	r0, [ip], -r0, lsl #6
     d30:	0200000b 	andeq	r0, r0, #11
     d34:	d90b2823 	stmdble	fp, {r0, r1, r5, fp, sp}
     d38:	0300000e 	movweq	r0, #14
     d3c:	000b267d 	andeq	r2, fp, sp, ror r6
     d40:	2c230200 	sfmcs	f0, 4, [r3], #-0
     d44:	000e510b 	andeq	r5, lr, fp, lsl #2
     d48:	267e0300 	ldrbtcs	r0, [lr], -r0, lsl #6
     d4c:	0200000b 	andeq	r0, r0, #11
     d50:	e30b3023 	movw	r3, #45091	; 0xb023
     d54:	0300000e 	movweq	r0, #14
     d58:	000b267f 	andeq	r2, fp, pc, ror r6
     d5c:	34230200 	strtcc	r0, [r3], #-512	; 0x200
     d60:	000c230b 	andeq	r2, ip, fp, lsl #6
     d64:	26800300 	strcs	r0, [r0], r0, lsl #6
     d68:	0200000b 	andeq	r0, r0, #11
     d6c:	ed0b3823 	stc	8, cr3, [fp, #-140]	; 0xffffff74
     d70:	0300000e 	movweq	r0, #14
     d74:	000b2681 	andeq	r2, fp, r1, lsl #13
     d78:	3c230200 	sfmcc	f0, 4, [r3], #-0
     d7c:	000f2f0b 	andeq	r2, pc, fp, lsl #30
     d80:	26820300 	strcs	r0, [r2], r0, lsl #6
     d84:	0200000b 	andeq	r0, r0, #11
     d88:	c50b4023 	strgt	r4, [fp, #-35]	; 0x23
     d8c:	03000010 	movweq	r0, #16
     d90:	000b2683 	andeq	r2, fp, r3, lsl #13
     d94:	44230200 	strtmi	r0, [r3], #-512	; 0x200
     d98:	000a0c0b 	andeq	r0, sl, fp, lsl #24
     d9c:	26840300 	strcs	r0, [r4], r0, lsl #6
     da0:	0200000b 	andeq	r0, r0, #11
     da4:	a90b4823 	stmdbge	fp, {r0, r1, r5, fp, lr}
     da8:	0300000f 	movweq	r0, #15
     dac:	000b2685 	andeq	r2, fp, r5, lsl #13
     db0:	4c230200 	sfmmi	f0, 4, [r3], #-0
     db4:	000d4b0b 	andeq	r4, sp, fp, lsl #22
     db8:	2b860300 	blcs	fe1819c0 <__bss_end+0xe17dc14>
     dbc:	0200000b 	andeq	r0, r0, #11
     dc0:	1b0b5023 	blne	2d4e54 <__standby_start+0x2d4e54>
     dc4:	0300000d 	movweq	r0, #13
     dc8:	000b3087 	andeq	r3, fp, r7, lsl #1
     dcc:	54230200 	strtpl	r0, [r3], #-512	; 0x200
     dd0:	000ad40b 	andeq	sp, sl, fp, lsl #8
     dd4:	35880300 	strcc	r0, [r8, #768]	; 0x300
     dd8:	0200000b 	andeq	r0, r0, #11
     ddc:	8d0b5823 	stchi	8, cr5, [fp, #-140]	; 0xffffff74
     de0:	0300000e 	movweq	r0, #14
     de4:	000b2689 	andeq	r2, fp, r9, lsl #13
     de8:	5c230200 	sfmpl	f0, 4, [r3], #-0
     dec:	000bce0b 	andeq	ip, fp, fp, lsl #28
     df0:	268a0300 	strcs	r0, [sl], r0, lsl #6
     df4:	0200000b 	andeq	r0, r0, #11
     df8:	d70b6023 	strle	r6, [fp, -r3, lsr #32]
     dfc:	0300000b 	movweq	r0, #11
     e00:	000b268b 	andeq	r2, fp, fp, lsl #13
     e04:	64230200 	strtvs	r0, [r3], #-512	; 0x200
     e08:	00104c0b 	andseq	r4, r0, fp, lsl #24
     e0c:	268c0300 	strcs	r0, [ip], r0, lsl #6
     e10:	0200000b 	andeq	r0, r0, #11
     e14:	ad0b6823 	stcge	8, cr6, [fp, #-140]	; 0xffffff74
     e18:	0300000d 	movweq	r0, #13
     e1c:	000b268d 	andeq	r2, fp, sp, lsl #13
     e20:	6c230200 	sfmvs	f0, 4, [r3], #-0
     e24:	000ef70b 	andeq	pc, lr, fp, lsl #14
     e28:	4a8e0300 	bmi	fe381a30 <__bss_end+0xe37dc84>
     e2c:	0200000b 	andeq	r0, r0, #11
     e30:	bb0b7023 	bllt	2dcec4 <__standby_start+0x2dcec4>
     e34:	03000010 	movweq	r0, #16
     e38:	000b268f 	andeq	r2, fp, pc, lsl #13
     e3c:	78230200 	stmdavc	r3!, {r9}
     e40:	0009d10b 	andeq	sp, r9, fp, lsl #2
     e44:	26900300 	ldrcs	r0, [r0], r0, lsl #6
     e48:	0200000b 	andeq	r0, r0, #11
     e4c:	b50b7c23 	strlt	r7, [fp, #-3107]	; 0xc23
     e50:	03000010 	movweq	r0, #16
     e54:	000b2691 	muleq	fp, r1, r6
     e58:	80230300 	eorhi	r0, r3, r0, lsl #6
     e5c:	10550b01 	subsne	r0, r5, r1, lsl #22
     e60:	92030000 	andls	r0, r3, #0
     e64:	00000b26 	andeq	r0, r0, r6, lsr #22
     e68:	01842303 	orreq	r2, r4, r3, lsl #6
     e6c:	3064530c 	rsbcc	r5, r4, ip, lsl #6
     e70:	26930300 	ldrcs	r0, [r3], r0, lsl #6
     e74:	0300000b 	movweq	r0, #11
     e78:	0c018823 	stceq	8, cr8, [r1], {35}	; 0x23
     e7c:	00316453 	eorseq	r6, r1, r3, asr r4
     e80:	0b269403 	bleq	9a5e94 <__standby_start+0x9a5e94>
     e84:	23030000 	movwcs	r0, #12288	; 0x3000
     e88:	530c018c 	movwpl	r0, #49548	; 0xc18c
     e8c:	03003264 	movweq	r3, #612	; 0x264
     e90:	000b2695 	muleq	fp, r5, r6
     e94:	90230300 	eorls	r0, r3, r0, lsl #6
     e98:	10600b01 	rsbne	r0, r0, r1, lsl #22
     e9c:	96030000 	strls	r0, [r3], -r0
     ea0:	00000b4f 	andeq	r0, r0, pc, asr #22
     ea4:	01942303 	orrseq	r2, r4, r3, lsl #6
     ea8:	0073530c 	rsbseq	r5, r3, ip, lsl #6
     eac:	0b269703 	bleq	9a6ac0 <__standby_start+0x9a6ac0>
     eb0:	23030000 	movwcs	r0, #12288	; 0x3000
     eb4:	250b019c 	strcs	r0, [fp, #-412]	; 0x19c
     eb8:	0300000f 	movweq	r0, #15
     ebc:	000b2698 	muleq	fp, r8, r6
     ec0:	a0230300 	eorge	r0, r3, r0, lsl #6
     ec4:	0f2a0b01 	svceq	0x002a0b01
     ec8:	99030000 	stmdbls	r3, {}	; <UNPREDICTABLE>
     ecc:	00000b26 	andeq	r0, r0, r6, lsr #22
     ed0:	01a42303 			; <UNDEFINED> instruction: 0x01a42303
     ed4:	00106b0b 	andseq	r6, r0, fp, lsl #22
     ed8:	549a0300 	ldrpl	r0, [sl], #768	; 0x300
     edc:	0300000b 	movweq	r0, #11
     ee0:	0b01a823 	bleq	6af74 <__standby_start+0x6af74>
     ee4:	000009fd 	strdeq	r0, [r0], -sp
     ee8:	0b269b03 	bleq	9a7afc <__standby_start+0x9a7afc>
     eec:	23030000 	movwcs	r0, #12288	; 0x3000
     ef0:	020b01b0 	andeq	r0, fp, #44	; 0x2c
     ef4:	0300000a 	movweq	r0, #10
     ef8:	000b269c 	muleq	fp, ip, r6
     efc:	b4230300 	strtlt	r0, [r3], #-768	; 0x300
     f00:	0a070b01 	beq	1c3b0c <__standby_start+0x1c3b0c>
     f04:	9d030000 	stcls	0, cr0, [r3, #-0]
     f08:	00000b26 	andeq	r0, r0, r6, lsr #22
     f0c:	01b82303 			; <UNDEFINED> instruction: 0x01b82303
     f10:	000aa20b 	andeq	sl, sl, fp, lsl #4
     f14:	269e0300 	ldrcs	r0, [lr], r0, lsl #6
     f18:	0300000b 	movweq	r0, #11
     f1c:	0b01bc23 	bleq	6ffb0 <__standby_start+0x6ffb0>
     f20:	00000da4 	andeq	r0, r0, r4, lsr #27
     f24:	0b269f03 	bleq	9a8b38 <__standby_start+0x9a8b38>
     f28:	23030000 	movwcs	r0, #12288	; 0x3000
     f2c:	f20b01c0 	vrhadd.s8	q0, <illegal reg q13.5>, q0
     f30:	0300000c 	movweq	r0, #12
     f34:	000b59a0 	andeq	r5, fp, r0, lsr #19
     f38:	c4230300 	strtgt	r0, [r3], #-768	; 0x300
     f3c:	73550c01 	cmpvc	r5, #256	; 0x100
     f40:	a1030062 	tstge	r3, r2, rrx
     f44:	00000b26 	andeq	r0, r0, r6, lsr #22
     f48:	01cc2303 	biceq	r2, ip, r3, lsl #6
     f4c:	000fe90b 	andeq	lr, pc, fp, lsl #18
     f50:	26a20300 	strtcs	r0, [r2], r0, lsl #6
     f54:	0300000b 	movweq	r0, #11
     f58:	0b01d023 	bleq	74fec <__standby_start+0x74fec>
     f5c:	00000c42 	andeq	r0, r0, r2, asr #24
     f60:	0b6ea303 	bleq	1ba9b74 <__standby_start+0x1ba9b74>
     f64:	23030000 	movwcs	r0, #12288	; 0x3000
     f68:	830b01d4 	movwhi	r0, #45524	; 0xb1d4
     f6c:	03000010 	movweq	r0, #16
     f70:	000b26a4 	andeq	r2, fp, r4, lsr #13
     f74:	f0230300 			; <UNDEFINED> instruction: 0xf0230300
     f78:	0fc50b01 	svceq	0x00c50b01
     f7c:	a5030000 	strge	r0, [r3, #-0]
     f80:	00000b26 	andeq	r0, r0, r6, lsr #22
     f84:	01f42303 	mvnseq	r2, r3, lsl #6
     f88:	0010230b 	andseq	r2, r0, fp, lsl #6
     f8c:	26a60300 	strtcs	r0, [r6], r0, lsl #6
     f90:	0300000b 	movweq	r0, #11
     f94:	0b01f823 	bleq	7f028 <__standby_start+0x7f028>
     f98:	00000e22 	andeq	r0, r0, r2, lsr #28
     f9c:	0b26a703 	bleq	9aabb0 <__standby_start+0x9aabb0>
     fa0:	23030000 	movwcs	r0, #12288	; 0x3000
     fa4:	ed0b01fc 	stfs	f0, [fp, #-1008]	; 0xfffffc10
     fa8:	0300000d 	movweq	r0, #13
     fac:	000b26a8 	andeq	r2, fp, r8, lsr #13
     fb0:	80230300 	eorhi	r0, r3, r0, lsl #6
     fb4:	0bf10b02 	bleq	ffc43bc4 <__bss_end+0xfc3fe18>
     fb8:	a9030000 	stmdbge	r3, {}	; <UNPREDICTABLE>
     fbc:	00000b26 	andeq	r0, r0, r6, lsr #22
     fc0:	02842303 	addeq	r2, r4, #201326592	; 0xc000000
     fc4:	0009680b 	andeq	r6, r9, fp, lsl #16
     fc8:	26aa0300 	strtcs	r0, [sl], r0, lsl #6
     fcc:	0300000b 	movweq	r0, #11
     fd0:	0b028823 	bleq	a3064 <__standby_start+0xa3064>
     fd4:	00000a89 	andeq	r0, r0, r9, lsl #21
     fd8:	0b26ab03 	bleq	9abbec <__standby_start+0x9abbec>
     fdc:	23030000 	movwcs	r0, #12288	; 0x3000
     fe0:	740b028c 	strvc	r0, [fp], #-652	; 0x28c
     fe4:	03000009 	movweq	r0, #9
     fe8:	000b26ac 	andeq	r2, fp, ip, lsr #13
     fec:	90230300 	eorls	r0, r3, r0, lsl #6
     ff0:	09800b02 	stmibeq	r0, {r1, r8, r9, fp}
     ff4:	ad030000 	stcge	0, cr0, [r3, #-0]
     ff8:	00000b26 	andeq	r0, r0, r6, lsr #22
     ffc:	02942303 	addseq	r2, r4, #201326592	; 0xc000000
    1000:	0009c10b 	andeq	ip, r9, fp, lsl #2
    1004:	26ae0300 	strtcs	r0, [lr], r0, lsl #6
    1008:	0300000b 	movweq	r0, #11
    100c:	0b029823 	bleq	a70a0 <__standby_start+0xa70a0>
    1010:	000009c9 	andeq	r0, r0, r9, asr #19
    1014:	0b26af03 	bleq	9acc28 <__standby_start+0x9acc28>
    1018:	23030000 	movwcs	r0, #12288	; 0x3000
    101c:	4d0b029c 	sfmmi	f0, 4, [fp, #-624]	; 0xfffffd90
    1020:	0300000c 	movweq	r0, #12
    1024:	000b83b0 			; <UNDEFINED> instruction: 0x000b83b0
    1028:	a0230300 	eorge	r0, r3, r0, lsl #6
    102c:	0e950b02 	vfnmseq.f64	d0, d5, d2
    1030:	b1030000 	mrslt	r0, (UNDEF: 3)
    1034:	00000b26 	andeq	r0, r0, r6, lsr #22
    1038:	02b02303 	adcseq	r2, r0, #201326592	; 0xc000000
    103c:	000f190b 	andeq	r1, pc, fp, lsl #18
    1040:	26b20300 	ldrtcs	r0, [r2], r0, lsl #6
    1044:	0300000b 	movweq	r0, #11
    1048:	0b02b423 	bleq	ae0dc <__standby_start+0xae0dc>
    104c:	000009e5 	andeq	r0, r0, r5, ror #19
    1050:	0b26b303 	bleq	9adc64 <__standby_start+0x9adc64>
    1054:	23030000 	movwcs	r0, #12288	; 0x3000
    1058:	560c02b8 			; <UNDEFINED> instruction: 0x560c02b8
    105c:	b4030065 	strlt	r0, [r3], #-101	; 0x65
    1060:	00000b26 	andeq	r0, r0, r6, lsr #22
    1064:	02bc2303 	adcseq	r2, ip, #201326592	; 0xc000000
    1068:	000de00b 	andeq	lr, sp, fp
    106c:	26b50300 	ldrtcs	r0, [r5], r0, lsl #6
    1070:	0300000b 	movweq	r0, #11
    1074:	0c02c023 	stceq	0, cr12, [r2], {35}	; 0x23
    1078:	00737641 	rsbseq	r7, r3, r1, asr #12
    107c:	0b26b603 	bleq	9ae890 <__standby_start+0x9ae890>
    1080:	23030000 	movwcs	r0, #12288	; 0x3000
    1084:	f10b02c4 			; <UNDEFINED> instruction: 0xf10b02c4
    1088:	03000009 	movweq	r0, #9
    108c:	000b26b7 			; <UNDEFINED> instruction: 0x000b26b7
    1090:	c8230300 	stmdagt	r3!, {r8, r9}
    1094:	0c580b02 	mrrceq	11, 0, r0, r8, cr2
    1098:	b8030000 	stmdalt	r3, {}	; <UNPREDICTABLE>
    109c:	00000b26 	andeq	r0, r0, r6, lsr #22
    10a0:	02cc2303 	sbceq	r2, ip, #201326592	; 0xc000000
    10a4:	000cfd0b 	andeq	pc, ip, fp, lsl #26
    10a8:	26b90300 	ldrtcs	r0, [r9], r0, lsl #6
    10ac:	0300000b 	movweq	r0, #11
    10b0:	0b02d023 	bleq	b5144 <__standby_start+0xb5144>
    10b4:	00000f68 	andeq	r0, r0, r8, ror #30
    10b8:	0b26ba03 	bleq	9af8cc <__standby_start+0x9af8cc>
    10bc:	23030000 	movwcs	r0, #12288	; 0x3000
    10c0:	710b02d4 	ldrdvc	r0, [fp, -r4]
    10c4:	0300000a 	movweq	r0, #10
    10c8:	000b26bb 			; <UNDEFINED> instruction: 0x000b26bb
    10cc:	d8230300 	stmdale	r3!, {r8, r9}
    10d0:	0ab10b02 	beq	fec43ce0 <__bss_end+0xec3ff34>
    10d4:	bc030000 	stclt	0, cr0, [r3], {-0}
    10d8:	00000b26 	andeq	r0, r0, r6, lsr #22
    10dc:	02dc2303 	sbcseq	r2, ip, #201326592	; 0xc000000
    10e0:	000a7d0b 	andeq	r7, sl, fp, lsl #26
    10e4:	26bd0300 	ldrtcs	r0, [sp], r0, lsl #6
    10e8:	0300000b 	movweq	r0, #11
    10ec:	0b02e023 	bleq	b9180 <__standby_start+0xb9180>
    10f0:	00000c63 	andeq	r0, r0, r3, ror #24
    10f4:	0b26be03 	bleq	9b0908 <__standby_start+0x9b0908>
    10f8:	23030000 	movwcs	r0, #12288	; 0x3000
    10fc:	010b02e4 	smlatteq	fp, r4, r2, r0
    1100:	0300000f 	movweq	r0, #15
    1104:	000b26bf 			; <UNDEFINED> instruction: 0x000b26bf
    1108:	e8230300 	stmda	r3!, {r8, r9}
    110c:	0f0d0b02 	svceq	0x000d0b02
    1110:	c0030000 	andgt	r0, r3, r0
    1114:	00000b26 	andeq	r0, r0, r6, lsr #22
    1118:	02ec2303 	rsceq	r2, ip, #201326592	; 0xc000000
    111c:	000c6e0b 	andeq	r6, ip, fp, lsl #28
    1120:	88c10300 	stmiahi	r1, {r8, r9}^
    1124:	0300000b 	movweq	r0, #11
    1128:	0b02f023 	bleq	bd1bc <__standby_start+0xbd1bc>
    112c:	00001076 	andeq	r1, r0, r6, ror r0
    1130:	0b26c203 	bleq	9b1944 <__standby_start+0x9b1944>
    1134:	23030000 	movwcs	r0, #12288	; 0x3000
    1138:	600b0380 	andvs	r0, fp, r0, lsl #7
    113c:	0300000b 	movweq	r0, #11
    1140:	000b26c3 	andeq	r2, fp, r3, asr #13
    1144:	84230300 	strthi	r0, [r3], #-768	; 0x300
    1148:	0b6c0b03 	bleq	1b03d5c <__standby_start+0x1b03d5c>
    114c:	c4030000 	strgt	r0, [r3], #-0
    1150:	00000b26 	andeq	r0, r0, r6, lsr #22
    1154:	03882303 	orreq	r2, r8, #201326592	; 0xc000000
    1158:	000b780b 	andeq	r7, fp, fp, lsl #16
    115c:	26c50300 	strbcs	r0, [r5], r0, lsl #6
    1160:	0300000b 	movweq	r0, #11
    1164:	0b038c23 	bleq	e41f8 <__standby_start+0xe41f8>
    1168:	00000c79 	andeq	r0, r0, r9, ror ip
    116c:	0b8dc603 	bleq	fe372980 <__bss_end+0xe36ebd4>
    1170:	23030000 	movwcs	r0, #12288	; 0x3000
    1174:	8c0b0390 	stchi	3, cr0, [fp], {144}	; 0x90
    1178:	0300000b 	movweq	r0, #11
    117c:	000b26c7 	andeq	r2, fp, r7, asr #13
    1180:	a0230300 	eorge	r0, r3, r0, lsl #6
    1184:	0b340b03 	bleq	d03d98 <__standby_start+0xd03d98>
    1188:	c8030000 	stmdagt	r3, {}	; <UNPREDICTABLE>
    118c:	00000b26 	andeq	r0, r0, r6, lsr #22
    1190:	03a42303 			; <UNDEFINED> instruction: 0x03a42303
    1194:	000d710b 	andeq	r7, sp, fp, lsl #2
    1198:	26c90300 	strbcs	r0, [r9], r0, lsl #6
    119c:	0300000b 	movweq	r0, #11
    11a0:	0b03a823 	bleq	eb234 <__standby_start+0xeb234>
    11a4:	00000bb6 			; <UNDEFINED> instruction: 0x00000bb6
    11a8:	0b26ca03 	bleq	9b39bc <__standby_start+0x9b39bc>
    11ac:	23030000 	movwcs	r0, #12288	; 0x3000
    11b0:	c20b03ac 	andgt	r0, fp, #-1342177278	; 0xb0000002
    11b4:	0300000b 	movweq	r0, #11
    11b8:	000b26cb 	andeq	r2, fp, fp, asr #13
    11bc:	b0230300 	eorlt	r0, r3, r0, lsl #6
    11c0:	0d230b03 	fstmdbxeq	r3!, {d0}	;@ Deprecated
    11c4:	cc030000 	stcgt	0, cr0, [r3], {-0}
    11c8:	00000ba2 	andeq	r0, r0, r2, lsr #23
    11cc:	03b42303 			; <UNDEFINED> instruction: 0x03b42303
    11d0:	0009bb0b 	andeq	fp, r9, fp, lsl #22
    11d4:	26cd0300 	strbcs	r0, [sp], r0, lsl #6
    11d8:	0300000b 	movweq	r0, #11
    11dc:	0b03c023 	bleq	f1270 <__standby_start+0xf1270>
    11e0:	00000c17 	andeq	r0, r0, r7, lsl ip
    11e4:	0bb7ce03 	bleq	fedf49f8 <__bss_end+0xedf0c4c>
    11e8:	23030000 	movwcs	r0, #12288	; 0x3000
    11ec:	840b03c4 	strhi	r0, [fp], #-964	; 0x3c4
    11f0:	0300000b 	movweq	r0, #11
    11f4:	000bbccf 	andeq	fp, fp, pc, asr #25
    11f8:	80230300 	eorhi	r0, r3, r0, lsl #6
    11fc:	0dca0b04 	vstreq	d16, [sl, #16]
    1200:	d0030000 	andle	r0, r3, r0
    1204:	00000b26 	andeq	r0, r0, r6, lsr #22
    1208:	04842303 	streq	r2, [r4], #771	; 0x303
    120c:	00102d0b 	andseq	r2, r0, fp, lsl #26
    1210:	26d10300 	ldrbcs	r0, [r1], r0, lsl #6
    1214:	0300000b 	movweq	r0, #11
    1218:	0b048823 	bleq	1232ac <__standby_start+0x1232ac>
    121c:	00000ff5 	strdeq	r0, [r0], -r5
    1220:	0b26d203 	bleq	9b5a34 <__standby_start+0x9b5a34>
    1224:	23030000 	movwcs	r0, #12288	; 0x3000
    1228:	e40b048c 	str	r0, [fp], #-1164	; 0x48c
    122c:	0300000a 	movweq	r0, #10
    1230:	000bc1d3 	ldrdeq	ip, [fp], -r3
    1234:	90230300 	eorls	r0, r3, r0, lsl #6
    1238:	0cc90b04 	vstmiaeq	r9, {d16-d17}
    123c:	d5030000 	strle	r0, [r3, #-0]
    1240:	00000bd6 	ldrdeq	r0, [r0], -r6
    1244:	04a02303 	strteq	r2, [r0], #771	; 0x303
    1248:	000a510b 	andeq	r5, sl, fp, lsl #2
    124c:	26d60300 	ldrbcs	r0, [r6], r0, lsl #6
    1250:	0300000b 	movweq	r0, #11
    1254:	0b04a423 	bleq	12a2e8 <__standby_start+0x12a2e8>
    1258:	000009ad 	andeq	r0, r0, sp, lsr #19
    125c:	0b26d703 	bleq	9b6e70 <__standby_start+0x9b6e70>
    1260:	23030000 	movwcs	r0, #12288	; 0x3000
    1264:	e80b04a8 	stmda	fp, {r3, r5, r7, sl}
    1268:	0300000c 	movweq	r0, #12
    126c:	000b26d8 	ldrdeq	r2, [fp], -r8
    1270:	ac230300 	stcge	3, cr0, [r3], #-0
    1274:	0b9e0b04 	bleq	fe783e8c <__bss_end+0xe7800e0>
    1278:	d9030000 	stmdble	r3, {}	; <UNPREDICTABLE>
    127c:	00000b26 	andeq	r0, r0, r6, lsr #22
    1280:	04b02303 	ldrteq	r2, [r0], #771	; 0x303
    1284:	000f5a0b 	andeq	r5, pc, fp, lsl #20
    1288:	26da0300 	ldrbcs	r0, [sl], r0, lsl #6
    128c:	0300000b 	movweq	r0, #11
    1290:	0b04b423 	bleq	12e324 <__standby_start+0x12e324>
    1294:	000010a7 	andeq	r1, r0, r7, lsr #1
    1298:	0b26db03 	bleq	9b7eac <__standby_start+0x9b7eac>
    129c:	23030000 	movwcs	r0, #12288	; 0x3000
    12a0:	200b04b8 			; <UNDEFINED> instruction: 0x200b04b8
    12a4:	0300000b 	movweq	r0, #11
    12a8:	000b26dc 	ldrdeq	r2, [fp], -ip
    12ac:	bc230300 	stclt	3, cr0, [r3], #-0
    12b0:	0ba90b04 	bleq	fea43ec8 <__bss_end+0xea4011c>
    12b4:	dd030000 	stcle	0, cr0, [r3, #-0]
    12b8:	00000b26 	andeq	r0, r0, r6, lsr #22
    12bc:	04c02303 	strbeq	r2, [r0], #771	; 0x303
    12c0:	000a960b 	andeq	r9, sl, fp, lsl #12
    12c4:	26de0300 	ldrbcs	r0, [lr], r0, lsl #6
    12c8:	0300000b 	movweq	r0, #11
    12cc:	0b04c423 	bleq	132360 <__standby_start+0x132360>
    12d0:	00000e0a 	andeq	r0, r0, sl, lsl #28
    12d4:	0b26df03 	bleq	9b8ee8 <__standby_start+0x9b8ee8>
    12d8:	23030000 	movwcs	r0, #12288	; 0x3000
    12dc:	430b04c8 	movwmi	r0, #46280	; 0xb4c8
    12e0:	0300000e 	movweq	r0, #14
    12e4:	000b26e0 	andeq	r2, fp, r0, ror #13
    12e8:	cc230300 	stcgt	3, cr0, [r3], #-0
    12ec:	0aa90b04 	beq	fea43f04 <__bss_end+0xea40158>
    12f0:	e2030000 	and	r0, r3, #0
    12f4:	00000b26 	andeq	r0, r0, r6, lsr #22
    12f8:	04d02303 	ldrbeq	r2, [r0], #771	; 0x303
    12fc:	000e010b 	andeq	r0, lr, fp, lsl #2
    1300:	26e30300 	strbtcs	r0, [r3], r0, lsl #6
    1304:	0300000b 	movweq	r0, #11
    1308:	0b04d423 	bleq	13639c <__standby_start+0x13639c>
    130c:	00000af0 	strdeq	r0, [r0], -r0	; <UNPREDICTABLE>
    1310:	0bdbe503 	bleq	ff6fa724 <__bss_end+0xf6f6978>
    1314:	23030000 	movwcs	r0, #12288	; 0x3000
    1318:	5c0b04d8 	cfstrspl	mvf0, [fp], {216}	; 0xd8
    131c:	0300000e 	movweq	r0, #14
    1320:	000b26e6 	andeq	r2, fp, r6, ror #13
    1324:	e0230300 	eor	r0, r3, r0, lsl #6
    1328:	0afc0b04 	beq	fff03f40 <__bss_end+0xff00194>
    132c:	e7030000 	str	r0, [r3, -r0]
    1330:	00000be0 	andeq	r0, r0, r0, ror #23
    1334:	04e42303 	strbteq	r2, [r4], #771	; 0x303
    1338:	000ab70b 	andeq	fp, sl, fp, lsl #14
    133c:	26e80300 	strbtcs	r0, [r8], r0, lsl #6
    1340:	0300000b 	movweq	r0, #11
    1344:	0b04f023 	bleq	13d3d8 <__standby_start+0x13d3d8>
    1348:	00000b08 	andeq	r0, r0, r8, lsl #22
    134c:	0be5e903 	bleq	ff97b760 <__bss_end+0xf9779b4>
    1350:	23030000 	movwcs	r0, #12288	; 0x3000
    1354:	960b04f4 			; <UNDEFINED> instruction: 0x960b04f4
    1358:	0300000d 	movweq	r0, #13
    135c:	000b26ea 	andeq	r2, fp, sl, ror #13
    1360:	80230300 	eorhi	r0, r3, r0, lsl #6
    1364:	0e2f0b05 	vmuleq.f64	d0, d15, d5
    1368:	ec030000 	stc	0, cr0, [r3], {-0}
    136c:	00000b26 	andeq	r0, r0, r6, lsr #22
    1370:	05842303 	streq	r2, [r4, #771]	; 0x303
    1374:	000d2e0b 	andeq	r2, sp, fp, lsl #28
    1378:	26ed0300 	strbtcs	r0, [sp], r0, lsl #6
    137c:	0300000b 	movweq	r0, #11
    1380:	0b058823 	bleq	163414 <__standby_start+0x163414>
    1384:	00000dd3 	ldrdeq	r0, [r0], -r3
    1388:	0b26ee03 	bleq	9bcb9c <__standby_start+0x9bcb9c>
    138c:	23030000 	movwcs	r0, #12288	; 0x3000
    1390:	740b058c 	strvc	r0, [fp], #-1420	; 0x58c
    1394:	0300000f 	movweq	r0, #15
    1398:	000b26ef 	andeq	r2, fp, pc, ror #13
    139c:	90230300 	eorls	r0, r3, r0, lsl #6
    13a0:	0b140b05 	bleq	503fbc <__standby_start+0x503fbc>
    13a4:	f0030000 			; <UNDEFINED> instruction: 0xf0030000
    13a8:	00000bea 	andeq	r0, r0, sl, ror #23
    13ac:	05942303 	ldreq	r2, [r4, #771]	; 0x303
    13b0:	000db60b 	andeq	fp, sp, fp, lsl #12
    13b4:	26f10300 	ldrbtcs	r0, [r1], r0, lsl #6
    13b8:	0300000b 	movweq	r0, #11
    13bc:	0b05a423 	bleq	16a450 <__standby_start+0x16a450>
    13c0:	00001005 	andeq	r1, r0, r5
    13c4:	0b26f203 	bleq	9bdbd8 <__standby_start+0x9bdbd8>
    13c8:	23030000 	movwcs	r0, #12288	; 0x3000
    13cc:	4e0b05a8 	cfsh32mi	mvfx0, mvfx11, #-40
    13d0:	03000009 	movweq	r0, #9
    13d4:	000b26f3 	strdeq	r2, [fp], -r3
    13d8:	ac230300 	stcge	3, cr0, [r3], #-0
    13dc:	0fb30b05 	svceq	0x00b30b05
    13e0:	f4030000 	vst4.8	{d0-d3}, [r3], r0
    13e4:	00000b26 	andeq	r0, r0, r6, lsr #22
    13e8:	05b02303 	ldreq	r2, [r0, #771]!	; 0x303
    13ec:	00095b0b 	andeq	r5, r9, fp, lsl #22
    13f0:	eff50300 	svc	0x00f50300
    13f4:	0300000b 	movweq	r0, #11
    13f8:	0b05b423 	bleq	16e48c <__standby_start+0x16e48c>
    13fc:	00000d78 	andeq	r0, r0, r8, ror sp
    1400:	0b26f703 	bleq	9bf014 <__standby_start+0x9bf014>
    1404:	23030000 	movwcs	r0, #12288	; 0x3000
    1408:	820b05c0 	andhi	r0, fp, #805306368	; 0x30000000
    140c:	0300000d 	movweq	r0, #13
    1410:	000b26f8 	strdeq	r2, [fp], -r8
    1414:	c4230300 	strtgt	r0, [r3], #-768	; 0x300
    1418:	0d8c0b05 	vstreq	d0, [ip, #20]
    141c:	f9030000 			; <UNDEFINED> instruction: 0xf9030000
    1420:	00000b26 	andeq	r0, r0, r6, lsr #22
    1424:	05c82303 	strbeq	r2, [r8, #771]	; 0x303
    1428:	000cd20b 	andeq	sp, ip, fp, lsl #4
    142c:	26fa0300 	ldrbtcs	r0, [sl], r0, lsl #6
    1430:	0300000b 	movweq	r0, #11
    1434:	0b05cc23 	bleq	1744c8 <__standby_start+0x1744c8>
    1438:	00000e9d 	muleq	r0, sp, lr
    143c:	0b26fb03 	bleq	9c0050 <__standby_start+0x9c0050>
    1440:	23030000 	movwcs	r0, #12288	; 0x3000
    1444:	dd0b05d0 	cfstr32le	mvfx0, [fp, #-832]	; 0xfffffcc0
    1448:	0300000c 	movweq	r0, #12
    144c:	000b26fc 	strdeq	r2, [fp], -ip
    1450:	d4230300 	strtle	r0, [r3], #-768	; 0x300
    1454:	0b560b05 	bleq	1584070 <__standby_start+0x1584070>
    1458:	fd030000 	stc2	0, cr0, [r3, #-0]
    145c:	00000b26 	andeq	r0, r0, r6, lsr #22
    1460:	05d82303 	ldrbeq	r2, [r8, #771]	; 0x303
    1464:	01230d00 	teqeq	r3, r0, lsl #26
    1468:	530d0000 	movwpl	r0, #53248	; 0xd000
    146c:	0d000000 	stceq	0, cr0, [r0, #-0]
    1470:	000001de 	ldrdeq	r0, [r0], -lr
    1474:	00026d0d 	andeq	r6, r2, sp, lsl #26
    1478:	03060d00 	movweq	r0, #27904	; 0x6d00
    147c:	530e0000 	movwpl	r0, #57344	; 0xe000
    1480:	4a000000 	bmi	1488 <__standby_start+0x1488>
    1484:	0f00000b 	svceq	0x0000000b
    1488:	0000005e 	andeq	r0, r0, lr, asr r0
    148c:	3a0d0001 	bcc	341498 <__standby_start+0x341498>
    1490:	0d00000b 	stceq	0, cr0, [r0, #-44]	; 0xffffffd4
    1494:	00000b3a 	andeq	r0, r0, sl, lsr fp
    1498:	000b3a0d 	andeq	r3, fp, sp, lsl #20
    149c:	0b3a0d00 	bleq	e848a4 <__standby_start+0xe848a4>
    14a0:	530e0000 	movwpl	r0, #57344	; 0xe000
    14a4:	6e000000 	cdpvs	0, 0, cr0, cr0, cr0, {0}
    14a8:	0f00000b 	svceq	0x0000000b
    14ac:	0000005e 	andeq	r0, r0, lr, asr r0
    14b0:	5e0d0006 	cdppl	0, 0, cr0, cr13, cr6, {0}
    14b4:	0e00000b 	cdpeq	0, 0, cr0, cr0, cr11, {0}
    14b8:	00000053 	andeq	r0, r0, r3, asr r0
    14bc:	00000b83 	andeq	r0, r0, r3, lsl #23
    14c0:	00005e0f 	andeq	r5, r0, pc, lsl #28
    14c4:	0d000300 	stceq	3, cr0, [r0, #-0]
    14c8:	00000b73 	andeq	r0, r0, r3, ror fp
    14cc:	000b730d 	andeq	r7, fp, sp, lsl #6
    14d0:	0b730d00 	bleq	1cc48d8 <__standby_start+0x1cc48d8>
    14d4:	530e0000 	movwpl	r0, #57344	; 0xe000
    14d8:	a2000000 	andge	r0, r0, #0
    14dc:	0f00000b 	svceq	0x0000000b
    14e0:	0000005e 	andeq	r0, r0, lr, asr r0
    14e4:	920d0002 	andls	r0, sp, #2
    14e8:	0e00000b 	cdpeq	0, 0, cr0, cr0, cr11, {0}
    14ec:	00000053 	andeq	r0, r0, r3, asr r0
    14f0:	00000bb7 			; <UNDEFINED> instruction: 0x00000bb7
    14f4:	00005e0f 	andeq	r5, r0, pc, lsl #28
    14f8:	0d000e00 	stceq	14, cr0, [r0, #-0]
    14fc:	00000ba7 	andeq	r0, r0, r7, lsr #23
    1500:	0003400d 	andeq	r4, r3, sp
    1504:	0b730d00 	bleq	1cc490c <__standby_start+0x1cc490c>
    1508:	530e0000 	movwpl	r0, #57344	; 0xe000
    150c:	d6000000 	strle	r0, [r0], -r0
    1510:	0f00000b 	svceq	0x0000000b
    1514:	0000005e 	andeq	r0, r0, lr, asr r0
    1518:	c60d0000 	strgt	r0, [sp], -r0
    151c:	0d00000b 	stceq	0, cr0, [r0, #-44]	; 0xffffffd4
    1520:	00000b3a 	andeq	r0, r0, sl, lsr fp
    1524:	000b920d 	andeq	r9, fp, sp, lsl #4
    1528:	0b920d00 	bleq	fe484930 <__bss_end+0xe480b84>
    152c:	730d0000 	movwvc	r0, #53248	; 0xd000
    1530:	0d00000b 	stceq	0, cr0, [r0, #-44]	; 0xffffffd4
    1534:	00000b92 	muleq	r0, r2, fp
    1538:	000f9703 	andeq	r9, pc, r3, lsl #14
    153c:	4bfe0300 	blmi	fff82144 <__bss_end+0xff7e398>
    1540:	10000003 	andne	r0, r0, r3
    1544:	000bf404 	andeq	pc, fp, r4, lsl #8
    1548:	08451100 	stmdaeq	r5, {r8, ip}^
    154c:	04040000 	streq	r0, [r4], #-0
    1550:	000c727a 	andeq	r7, ip, sl, ror r2
    1554:	06881200 	streq	r1, [r8], r0, lsl #4
    1558:	12000000 	andne	r0, r0, #0
    155c:	00000334 	andeq	r0, r0, r4, lsr r3
    1560:	07461201 	strbeq	r1, [r6, -r1, lsl #4]
    1564:	12020000 	andne	r0, r2, #0
    1568:	00000328 	andeq	r0, r0, r8, lsr #6
    156c:	042e1203 	strteq	r1, [lr], #-515	; 0x203
    1570:	12040000 	andne	r0, r4, #0
    1574:	00000695 	muleq	r0, r5, r6
    1578:	03e71205 	mvneq	r1, #1342177280	; 0x50000000
    157c:	12060000 	andne	r0, r6, #0
    1580:	0000082f 	andeq	r0, r0, pc, lsr #16
    1584:	04611207 	strbteq	r1, [r1], #-519	; 0x207
    1588:	12080000 	andne	r0, r8, #0
    158c:	000008d0 	ldrdeq	r0, [r0], -r0	; <UNPREDICTABLE>
    1590:	06231209 	strteq	r1, [r3], -r9, lsl #4
    1594:	120a0000 	andne	r0, sl, #0
    1598:	0000064b 	andeq	r0, r0, fp, asr #12
    159c:	083f120b 	ldmdaeq	pc!, {r0, r1, r3, r9, ip}	; <UNPREDICTABLE>
    15a0:	120c0000 	andne	r0, ip, #0
    15a4:	000007a0 	andeq	r0, r0, r0, lsr #15
    15a8:	0602120d 	streq	r1, [r2], -sp, lsl #4
    15ac:	120e0000 	andne	r0, lr, #0
    15b0:	000007ce 	andeq	r0, r0, lr, asr #15
    15b4:	0102000f 	tsteq	r2, pc
    15b8:	00079408 	andeq	r9, r7, r8, lsl #8
    15bc:	07040200 	streq	r0, [r4, -r0, lsl #4]
    15c0:	00000240 	andeq	r0, r0, r0, asr #4
    15c4:	8c140413 	cfldrshi	mvf0, [r4], {19}
    15c8:	01000009 	tsteq	r0, r9
    15cc:	01010347 	tsteq	r1, r7, asr #6
    15d0:	00000c9d 	muleq	r0, sp, ip
    15d4:	706d7415 	rsbvc	r7, sp, r5, lsl r4
    15d8:	034a0100 	movteq	r0, #41216	; 0xa100
    15dc:	00000053 	andeq	r0, r0, r3, asr r0
    15e0:	fd011600 	stc2	6, cr1, [r1, #-0]
    15e4:	0100000b 	tsteq	r0, fp
    15e8:	41010305 	tstmi	r1, r5, lsl #6
    15ec:	f8000000 			; <UNDEFINED> instruction: 0xf8000000
    15f0:	20f00003 	rscscs	r0, r0, r3
    15f4:	02f00004 	rscseq	r0, r0, #4
    15f8:	0116007d 	tsteq	r6, sp, ror r0
    15fc:	00000b3b 	andeq	r0, r0, fp, lsr fp
    1600:	01032101 	tsteq	r3, r1, lsl #2
    1604:	00000041 	andeq	r0, r0, r1, asr #32
    1608:	f0000420 			; <UNDEFINED> instruction: 0xf0000420
    160c:	f0000428 			; <UNDEFINED> instruction: 0xf0000428
    1610:	16007d02 	strne	r7, [r0], -r2, lsl #26
    1614:	000a1d01 	andeq	r1, sl, r1, lsl #26
    1618:	03310100 	teqeq	r1, #0
    161c:	00004101 	andeq	r4, r0, r1, lsl #2
    1620:	00042800 	andeq	r2, r4, r0, lsl #16
    1624:	000448f0 	strdeq	r4, [r4], -r0
    1628:	007d02f0 	ldrshteq	r0, [sp], #-32	; 0xffffffe0
    162c:	0d050117 	stfeqs	f0, [r5, #-92]	; 0xffffffa4
    1630:	5f010000 	svcpl	0x00010000
    1634:	00410103 	subeq	r0, r1, r3, lsl #2
    1638:	04480000 	strbeq	r0, [r8], #-0
    163c:	0480f000 	streq	pc, [r0], #0
    1640:	7d02f000 	stcvc	0, cr15, [r2, #-0]
    1644:	000d2a00 	andeq	r2, sp, r0, lsl #20
    1648:	0c821800 	stceq	8, cr1, [r2], {0}
    164c:	04480000 	strbeq	r0, [r8], #-0
    1650:	047cf000 	ldrbteq	pc, [ip], #-0	; <UNPREDICTABLE>
    1654:	6301f000 	movwvs	pc, #4096	; 0x1000	; <UNPREDICTABLE>
    1658:	04481903 	strbeq	r1, [r8], #-2307	; 0x903
    165c:	047cf000 	ldrbteq	pc, [ip], #-0	; <UNPREDICTABLE>
    1660:	901af000 	andsls	pc, sl, r0
    1664:	9700000c 	strls	r0, [r0, -ip]
    1668:	00000000 	andeq	r0, r0, r0
    166c:	011b0000 	tsteq	fp, r0
    1670:	00000375 	andeq	r0, r0, r5, ror r3
    1674:	01037001 	tsteq	r3, r1
    1678:	f0000480 			; <UNDEFINED> instruction: 0xf0000480
    167c:	f00004a0 			; <UNDEFINED> instruction: 0xf00004a0
    1680:	1c007d02 	stcne	13, cr7, [r0], {2}
    1684:	00000f1e 	andeq	r0, r0, lr, lsl pc
    1688:	0c801e01 	stceq	14, cr1, [r0], {1}
    168c:	03050000 	movweq	r0, #20480	; 0x5000
    1690:	f0003a10 			; <UNDEFINED> instruction: 0xf0003a10
    1694:	000f3a1c 	andeq	r3, pc, ip, lsl sl	; <UNPREDICTABLE>
    1698:	ff210100 			; <UNDEFINED> instruction: 0xff210100
    169c:	0500000b 	streq	r0, [r0, #-11]
    16a0:	003a1403 	eorseq	r1, sl, r3, lsl #8
    16a4:	0a5e1cf0 	beq	1788a6c <__standby_start+0x1788a6c>
    16a8:	2a010000 	bcs	416b0 <__standby_start+0x416b0>
    16ac:	00000123 	andeq	r0, r0, r3, lsr #2
    16b0:	3a1c0305 	bcc	7022cc <__standby_start+0x7022cc>
    16b4:	821cf000 	andshi	pc, ip, #0
    16b8:	0100000f 	tsteq	r0, pc
    16bc:	0001de2b 	andeq	sp, r1, fp, lsr #28
    16c0:	18030500 	stmdane	r3, {r8, sl}
    16c4:	00f0003a 	rscseq	r0, r0, sl, lsr r0
    16c8:	000000d3 	ldrdeq	r0, [r0], -r3
    16cc:	04340002 	ldrteq	r0, [r4], #-2
    16d0:	01040000 	mrseq	r0, (UNDEF: 4)
    16d4:	000003f4 	strdeq	r0, [r0], -r4
    16d8:	0010ef01 	andseq	lr, r0, r1, lsl #30
    16dc:	00048200 	andeq	r8, r4, r0, lsl #4
    16e0:	0004a000 	andeq	sl, r4, r0
    16e4:	0004c0f0 	strdeq	ip, [r4], -r0
    16e8:	0002f0f0 	strdeq	pc, [r2], -r0
    16ec:	06010200 	streq	r0, [r1], -r0, lsl #4
    16f0:	0000078d 	andeq	r0, r0, sp, lsl #15
    16f4:	8b080102 	blhi	201b04 <__standby_start+0x201b04>
    16f8:	02000007 	andeq	r0, r0, #7
    16fc:	06410502 	strbeq	r0, [r1], -r2, lsl #10
    1700:	02020000 	andeq	r0, r2, #0
    1704:	00084d07 	andeq	r4, r8, r7, lsl #26
    1708:	0e1c0300 	cdpeq	3, 1, cr0, cr12, cr0, {0}
    170c:	12020000 	andne	r0, r2, #0
    1710:	0000004c 	andeq	r0, r0, ip, asr #32
    1714:	69050404 	stmdbvs	r5, {r2, sl}
    1718:	0200746e 	andeq	r7, r0, #1845493760	; 0x6e000000
    171c:	02450704 	subeq	r0, r5, #1048576	; 0x100000
    1720:	08020000 	stmdaeq	r2, {}	; <UNPREDICTABLE>
    1724:	00047405 	andeq	r7, r4, r5, lsl #8
    1728:	07080200 	streq	r0, [r8, -r0, lsl #4]
    172c:	0000023b 	andeq	r0, r0, fp, lsr r2
    1730:	94080102 	strls	r0, [r8], #-258	; 0x102
    1734:	02000007 	andeq	r0, r0, #7
    1738:	02400704 	subeq	r0, r0, #1048576	; 0x100000
    173c:	01050000 	mrseq	r0, (UNDEF: 5)
    1740:	0000111b 	andeq	r1, r0, fp, lsl r1
    1744:	41012301 	tstmi	r1, r1, lsl #6
    1748:	a0000000 	andge	r0, r0, r0
    174c:	a8f00004 	ldmge	r0!, {r2}^
    1750:	02f00004 	rscseq	r0, r0, #4
    1754:	0105007d 	tsteq	r5, sp, ror r0
    1758:	000010cd 	andeq	r1, r0, sp, asr #1
    175c:	41013601 	tstmi	r1, r1, lsl #12
    1760:	a8000000 	stmdage	r0, {}	; <UNPREDICTABLE>
    1764:	b0f00004 	rscslt	r0, r0, r4
    1768:	02f00004 	rscseq	r0, r0, #4
    176c:	0105007d 	tsteq	r5, sp, ror r0
    1770:	0000112b 	andeq	r1, r0, fp, lsr #2
    1774:	41014901 	tstmi	r1, r1, lsl #18
    1778:	b0000000 	andlt	r0, r0, r0
    177c:	b8f00004 	ldmlt	r0!, {r2}^
    1780:	02f00004 	rscseq	r0, r0, #4
    1784:	0105007d 	tsteq	r5, sp, ror r0
    1788:	000010dd 	ldrdeq	r1, [r0], -sp
    178c:	41015b01 	tstmi	r1, r1, lsl #22
    1790:	b8000000 	stmdalt	r0, {}	; <UNPREDICTABLE>
    1794:	c0f00004 	rscsgt	r0, r0, r4
    1798:	02f00004 	rscseq	r0, r0, #4
    179c:	f100007d 			; <UNDEFINED> instruction: 0xf100007d
    17a0:	02000001 	andeq	r0, r0, #1
    17a4:	00048200 	andeq	r8, r4, r0, lsl #4
    17a8:	f4010400 	vst3.8	{d0-d2}, [r1], r0
    17ac:	01000003 	tsteq	r0, r3
    17b0:	00001145 	andeq	r1, r0, r5, asr #2
    17b4:	00000482 	andeq	r0, r0, r2, lsl #9
    17b8:	f00004c0 			; <UNDEFINED> instruction: 0xf00004c0
    17bc:	f0000560 			; <UNDEFINED> instruction: 0xf0000560
    17c0:	00000388 	andeq	r0, r0, r8, lsl #7
    17c4:	8d060102 	stfhis	f0, [r6, #-8]
    17c8:	02000007 	andeq	r0, r0, #7
    17cc:	078b0801 	streq	r0, [fp, r1, lsl #16]
    17d0:	02020000 	andeq	r0, r2, #0
    17d4:	00064105 	andeq	r4, r6, r5, lsl #2
    17d8:	07020200 	streq	r0, [r2, -r0, lsl #4]
    17dc:	0000084d 	andeq	r0, r0, sp, asr #16
    17e0:	000e1c03 	andeq	r1, lr, r3, lsl #24
    17e4:	4c120200 	lfmmi	f0, 4, [r2], {-0}
    17e8:	04000000 	streq	r0, [r0], #-0
    17ec:	6e690504 	cdpvs	5, 6, cr0, cr9, cr4, {0}
    17f0:	3a030074 	bcc	c19c8 <__standby_start+0xc19c8>
    17f4:	02000004 	andeq	r0, r0, #4
    17f8:	00005e13 	andeq	r5, r0, r3, lsl lr
    17fc:	07040200 	streq	r0, [r4, -r0, lsl #4]
    1800:	00000245 	andeq	r0, r0, r5, asr #4
    1804:	74050802 	strvc	r0, [r5], #-2050	; 0x802
    1808:	02000004 	andeq	r0, r0, #4
    180c:	023b0708 	eorseq	r0, fp, #2097152	; 0x200000
    1810:	53050000 	movwpl	r0, #20480	; 0x5000
    1814:	06000000 	streq	r0, [r0], -r0
    1818:	00000845 	andeq	r0, r0, r5, asr #16
    181c:	e57a0404 	ldrb	r0, [sl, #-1028]!	; 0x404
    1820:	07000000 	streq	r0, [r0, -r0]
    1824:	00000688 	andeq	r0, r0, r8, lsl #13
    1828:	03340700 	teqeq	r4, #0
    182c:	07010000 	streq	r0, [r1, -r0]
    1830:	00000746 	andeq	r0, r0, r6, asr #14
    1834:	03280702 	teqeq	r8, #524288	; 0x80000
    1838:	07030000 	streq	r0, [r3, -r0]
    183c:	0000042e 	andeq	r0, r0, lr, lsr #8
    1840:	06950704 	ldreq	r0, [r5], r4, lsl #14
    1844:	07050000 	streq	r0, [r5, -r0]
    1848:	000003e7 	andeq	r0, r0, r7, ror #7
    184c:	082f0706 	stmdaeq	pc!, {r1, r2, r8, r9, sl}	; <UNPREDICTABLE>
    1850:	07070000 	streq	r0, [r7, -r0]
    1854:	00000461 	andeq	r0, r0, r1, ror #8
    1858:	08d00708 	ldmeq	r0, {r3, r8, r9, sl}^
    185c:	07090000 	streq	r0, [r9, -r0]
    1860:	00000623 	andeq	r0, r0, r3, lsr #12
    1864:	064b070a 	strbeq	r0, [fp], -sl, lsl #14
    1868:	070b0000 	streq	r0, [fp, -r0]
    186c:	0000083f 	andeq	r0, r0, pc, lsr r8
    1870:	07a0070c 	streq	r0, [r0, ip, lsl #14]!
    1874:	070d0000 	streq	r0, [sp, -r0]
    1878:	00000602 	andeq	r0, r0, r2, lsl #12
    187c:	07ce070e 	strbeq	r0, [lr, lr, lsl #14]
    1880:	000f0000 	andeq	r0, pc, r0
    1884:	94080102 	strls	r0, [r8], #-258	; 0x102
    1888:	02000007 	andeq	r0, r0, #7
    188c:	02400704 	subeq	r0, r0, #1048576	; 0x100000
    1890:	d0080000 	andle	r0, r8, r0
    1894:	14000011 	strne	r0, [r0], #-17
    1898:	01461703 	cmpeq	r6, r3, lsl #14
    189c:	b4090000 	strlt	r0, [r9], #-0
    18a0:	03000011 	movweq	r0, #17
    18a4:	0000731a 	andeq	r7, r0, sl, lsl r3
    18a8:	00230200 	eoreq	r0, r3, r0, lsl #4
    18ac:	0011f609 	andseq	pc, r1, r9, lsl #12
    18b0:	731b0300 	tstvc	fp, #0
    18b4:	02000000 	andeq	r0, r0, #0
    18b8:	01090423 	tsteq	r9, r3, lsr #8
    18bc:	03000012 	movweq	r0, #18
    18c0:	0000731c 	andeq	r7, r0, ip, lsl r3
    18c4:	08230200 	stmdaeq	r3!, {r9}
    18c8:	00119509 	andseq	r9, r1, r9, lsl #10
    18cc:	731d0300 	tstvc	sp, #0
    18d0:	02000000 	andeq	r0, r0, #0
    18d4:	a1090c23 	tstge	r9, r3, lsr #24
    18d8:	03000011 	movweq	r0, #17
    18dc:	0000731e 	andeq	r7, r0, lr, lsl r3
    18e0:	10230200 	eorne	r0, r3, r0, lsl #4
    18e4:	11e20300 	mvnne	r0, r0, lsl #6
    18e8:	1f030000 	svcne	0x00030000
    18ec:	000000f3 	strdeq	r0, [r0], -r3
    18f0:	121d010a 	andsne	r0, sp, #-2147483646	; 0x80000002
    18f4:	27010000 	strcs	r0, [r1, -r0]
    18f8:	00004101 	andeq	r4, r0, r1, lsl #2
    18fc:	0004c000 	andeq	ip, r4, r0
    1900:	000518f0 	strdeq	r1, [r5], -r0
    1904:	0000c5f0 	strdeq	ip, [r0], -r0
    1908:	72010b00 	andvc	r0, r1, #0
    190c:	01000011 	tsteq	r0, r1, lsl r0
    1910:	00410145 	subeq	r0, r1, r5, asr #2
    1914:	05180000 	ldreq	r0, [r8, #-0]
    1918:	0538f000 	ldreq	pc, [r8, #-0]!
    191c:	7d02f000 	stcvc	0, cr15, [r2, #-0]
    1920:	83010b00 	movwhi	r0, #6912	; 0x1b00
    1924:	01000011 	tsteq	r0, r1, lsl r0
    1928:	00410158 	subeq	r0, r1, r8, asr r1
    192c:	05380000 	ldreq	r0, [r8, #-0]!
    1930:	0560f000 	strbeq	pc, [r0, #-0]!	; <UNPREDICTABLE>
    1934:	7d02f000 	stcvc	0, cr15, [r2, #-0]
    1938:	11ad0c00 			; <UNDEFINED> instruction: 0x11ad0c00
    193c:	14010000 	strne	r0, [r1], #-0
    1940:	000001ab 	andeq	r0, r0, fp, lsr #3
    1944:	3a200305 	bcc	802560 <__standby_start+0x802560>
    1948:	040df000 	streq	pc, [sp], #-0
    194c:	00000146 	andeq	r0, r0, r6, asr #2
    1950:	0011c80c 	andseq	ip, r1, ip, lsl #16
    1954:	53150100 	tstpl	r5, #0
    1958:	05000000 	streq	r0, [r0, #-0]
    195c:	003a2403 	eorseq	r2, sl, r3, lsl #8
    1960:	12150cf0 	andsne	r0, r5, #61440	; 0xf000
    1964:	15010000 	strne	r0, [r1, #-0]
    1968:	00000053 	andeq	r0, r0, r3, asr r0
    196c:	3a280305 	bcc	a02588 <__standby_start+0xa02588>
    1970:	3d0ef000 	stccc	0, cr15, [lr, #-0]
    1974:	01000011 	tsteq	r0, r1, lsl r0
    1978:	00005315 	andeq	r5, r0, r5, lsl r3
    197c:	120c0e00 	andne	r0, ip, #0
    1980:	15010000 	strne	r0, [r1, #-0]
    1984:	00000053 	andeq	r0, r0, r3, asr r0
    1988:	0011bf0e 	andseq	fp, r1, lr, lsl #30
    198c:	53150100 	tstpl	r5, #0
    1990:	00000000 	andeq	r0, r0, r0
    1994:	000003b5 			; <UNDEFINED> instruction: 0x000003b5
    1998:	05490002 	strbeq	r0, [r9, #-2]
    199c:	01040000 	mrseq	r0, (UNDEF: 4)
    19a0:	000003f4 	strdeq	r0, [r0], -r4
    19a4:	00129801 	andseq	r9, r2, r1, lsl #16
    19a8:	00048200 	andeq	r8, r4, r0, lsl #4
    19ac:	00056000 	andeq	r6, r5, r0
    19b0:	0007b8f0 	strdeq	fp, [r7], -r0
    19b4:	00046ef0 	strdeq	r6, [r4], -r0
    19b8:	06010200 	streq	r0, [r1], -r0, lsl #4
    19bc:	0000078d 	andeq	r0, r0, sp, lsl #15
    19c0:	00136803 	andseq	r6, r3, r3, lsl #16
    19c4:	370f0200 	strcc	r0, [pc, -r0, lsl #4]
    19c8:	02000000 	andeq	r0, r0, #0
    19cc:	078b0801 	streq	r0, [fp, r1, lsl #16]
    19d0:	02020000 	andeq	r0, r2, #0
    19d4:	00064105 	andeq	r4, r6, r5, lsl #2
    19d8:	07020200 	streq	r0, [r2, -r0, lsl #4]
    19dc:	0000084d 	andeq	r0, r0, sp, asr #16
    19e0:	000e1c03 	andeq	r1, lr, r3, lsl #24
    19e4:	57120200 	ldrpl	r0, [r2, -r0, lsl #4]
    19e8:	04000000 	streq	r0, [r0], #-0
    19ec:	6e690504 	cdpvs	5, 6, cr0, cr9, cr4, {0}
    19f0:	3a030074 	bcc	c1bc8 <__standby_start+0xc1bc8>
    19f4:	02000004 	andeq	r0, r0, #4
    19f8:	00006913 	andeq	r6, r0, r3, lsl r9
    19fc:	07040200 	streq	r0, [r4, -r0, lsl #4]
    1a00:	00000245 	andeq	r0, r0, r5, asr #4
    1a04:	74050802 	strvc	r0, [r5], #-2050	; 0x802
    1a08:	02000004 	andeq	r0, r0, #4
    1a0c:	023b0708 	eorseq	r0, fp, #2097152	; 0x200000
    1a10:	45050000 	strmi	r0, [r5, #-0]
    1a14:	04000008 	streq	r0, [r0], #-8
    1a18:	00eb7a03 	rsceq	r7, fp, r3, lsl #20
    1a1c:	88060000 	stmdahi	r6, {}	; <UNPREDICTABLE>
    1a20:	00000006 	andeq	r0, r0, r6
    1a24:	00033406 	andeq	r3, r3, r6, lsl #8
    1a28:	46060100 	strmi	r0, [r6], -r0, lsl #2
    1a2c:	02000007 	andeq	r0, r0, #7
    1a30:	00032806 	andeq	r2, r3, r6, lsl #16
    1a34:	2e060300 	cdpcs	3, 0, cr0, cr6, cr0, {0}
    1a38:	04000004 	streq	r0, [r0], #-4
    1a3c:	00069506 	andeq	r9, r6, r6, lsl #10
    1a40:	e7060500 	str	r0, [r6, -r0, lsl #10]
    1a44:	06000003 	streq	r0, [r0], -r3
    1a48:	00082f06 	andeq	r2, r8, r6, lsl #30
    1a4c:	61060700 	tstvs	r6, r0, lsl #14
    1a50:	08000004 	stmdaeq	r0, {r2}
    1a54:	0008d006 	andeq	sp, r8, r6
    1a58:	23060900 	movwcs	r0, #26880	; 0x6900
    1a5c:	0a000006 	beq	1a7c <__standby_start+0x1a7c>
    1a60:	00064b06 	andeq	r4, r6, r6, lsl #22
    1a64:	3f060b00 	svccc	0x00060b00
    1a68:	0c000008 	stceq	0, cr0, [r0], {8}
    1a6c:	0007a006 	andeq	sl, r7, r6
    1a70:	02060d00 	andeq	r0, r6, #0
    1a74:	0e000006 	cdpeq	0, 0, cr0, cr0, cr6, {0}
    1a78:	0007ce06 	andeq	ip, r7, r6, lsl #28
    1a7c:	02000f00 	andeq	r0, r0, #0
    1a80:	07940801 	ldreq	r0, [r4, r1, lsl #16]
    1a84:	04020000 	streq	r0, [r2], #-0
    1a88:	00024007 	andeq	r4, r2, r7
    1a8c:	133d0500 	teqne	sp, #0
    1a90:	04040000 	streq	r0, [r4], #-0
    1a94:	00013017 	andeq	r3, r1, r7, lsl r0
    1a98:	123a0600 	eorsne	r0, sl, #0
    1a9c:	06000000 	streq	r0, [r0], -r0
    1aa0:	0000124a 	andeq	r1, r0, sl, asr #4
    1aa4:	125a0601 	subsne	r0, sl, #1048576	; 0x100000
    1aa8:	06020000 	streq	r0, [r2], -r0
    1aac:	000012ea 	andeq	r1, r0, sl, ror #5
    1ab0:	12f90603 	rscsne	r0, r9, #3145728	; 0x300000
    1ab4:	06040000 	streq	r0, [r4], -r0
    1ab8:	00001308 	andeq	r1, r0, r8, lsl #6
    1abc:	13170605 	tstne	r7, #5242880	; 0x500000
    1ac0:	00060000 	andeq	r0, r6, r0
    1ac4:	00137707 	andseq	r7, r3, r7, lsl #14
    1ac8:	48041c00 	stmdami	r4, {sl, fp, ip}
    1acc:	0000019e 	muleq	r0, lr, r1
    1ad0:	00646908 	rsbeq	r6, r4, r8, lsl #18
    1ad4:	00f94904 	rscseq	r4, r9, r4, lsl #18
    1ad8:	23020000 	movwcs	r0, #8192	; 0x2000
    1adc:	12e30900 	rscne	r0, r3, #0
    1ae0:	4a040000 	bmi	101ae8 <__standby_start+0x101ae8>
    1ae4:	00000057 	andeq	r0, r0, r7, asr r0
    1ae8:	09042302 	stmdbeq	r4, {r1, r8, r9, sp}
    1aec:	00001289 	andeq	r1, r0, r9, lsl #5
    1af0:	00574b04 	subseq	r4, r7, r4, lsl #22
    1af4:	23020000 	movwcs	r0, #8192	; 0x2000
    1af8:	12900908 	addsne	r0, r0, #131072	; 0x20000
    1afc:	4c040000 	stcmi	0, cr0, [r4], {-0}
    1b00:	00000057 	andeq	r0, r0, r7, asr r0
    1b04:	090c2302 	stmdbeq	ip, {r1, r8, r9, sp}
    1b08:	000012db 	ldrdeq	r1, [r0], -fp
    1b0c:	00574d04 	subseq	r4, r7, r4, lsl #26
    1b10:	23020000 	movwcs	r0, #8192	; 0x2000
    1b14:	136d0910 	cmnne	sp, #262144	; 0x40000
    1b18:	4e040000 	cdpmi	0, 0, cr0, cr4, cr0, {0}
    1b1c:	00000057 	andeq	r0, r0, r7, asr r0
    1b20:	09142302 	ldmdbeq	r4, {r1, r8, r9, sp}
    1b24:	0000134e 	andeq	r1, r0, lr, asr #6
    1b28:	00574f04 	subseq	r4, r7, r4, lsl #30
    1b2c:	23020000 	movwcs	r0, #8192	; 0x2000
    1b30:	8a050018 	bhi	141b98 <__standby_start+0x141b98>
    1b34:	04000013 	streq	r0, [r0], #-19
    1b38:	01b72905 			; <UNDEFINED> instruction: 0x01b72905
    1b3c:	33060000 	movwcc	r0, #24576	; 0x6000
    1b40:	00000013 	andeq	r0, r0, r3, lsl r0
    1b44:	00139806 	andseq	r9, r3, r6, lsl #16
    1b48:	0a000100 	beq	1f50 <__standby_start+0x1f50>
    1b4c:	00001380 	andeq	r1, r0, r0, lsl #7
    1b50:	e6012c01 	str	r2, [r1], -r1, lsl #24
    1b54:	03000001 	movweq	r0, #1
    1b58:	000001e6 	andeq	r0, r0, r6, ror #3
    1b5c:	0064690b 	rsbeq	r6, r4, fp, lsl #18
    1b60:	00572c01 	subseq	r2, r7, r1, lsl #24
    1b64:	720c0000 	andvc	r0, ip, #0
    1b68:	2e010069 	cdpcs	0, 0, cr0, cr1, cr9, {3}
    1b6c:	000001e6 	andeq	r0, r0, r6, ror #3
    1b70:	0100690c 	tsteq	r0, ip, lsl #18
    1b74:	0000572f 	andeq	r5, r0, pc, lsr #14
    1b78:	040d0000 	streq	r0, [sp], #-0
    1b7c:	00000130 	andeq	r0, r0, r0, lsr r1
    1b80:	00122e0a 	andseq	r2, r2, sl, lsl #28
    1b84:	01150100 	tsteq	r5, r0, lsl #2
    1b88:	00000057 	andeq	r0, r0, r7, asr r0
    1b8c:	00021403 	andeq	r1, r2, r3, lsl #8
    1b90:	12700e00 	rsbsne	r0, r0, #0
    1b94:	15010000 	strne	r0, [r1, #-0]
    1b98:	000001e6 	andeq	r0, r0, r6, ror #3
    1b9c:	0012d30e 	andseq	sp, r2, lr, lsl #6
    1ba0:	4c150100 	ldfmis	f0, [r5], {-0}
    1ba4:	00000000 	andeq	r0, r0, r0
    1ba8:	1275010f 	rsbsne	r0, r5, #-1073741821	; 0xc0000003
    1bac:	48010000 	stmdami	r1, {}	; <UNPREDICTABLE>
    1bb0:	00056001 	andeq	r6, r5, r1
    1bb4:	000700f0 	strdeq	r0, [r7], -r0	; <UNPREDICTABLE>
    1bb8:	0000e5f0 	strdeq	lr, [r0], -r0
    1bbc:	0002dd00 	andeq	sp, r2, r0, lsl #26
    1bc0:	13261000 	teqne	r6, #0
    1bc4:	48010000 	stmdami	r1, {}	; <UNPREDICTABLE>
    1bc8:	000000f9 	strdeq	r0, [r0], -r9
    1bcc:	00000111 	andeq	r0, r0, r1, lsl r1
    1bd0:	0012d310 	andseq	sp, r2, r0, lsl r3
    1bd4:	4c480100 	stfmie	f0, [r8], {-0}
    1bd8:	45000000 	strmi	r0, [r0, #-0]
    1bdc:	11000001 	tstne	r0, r1
    1be0:	00001270 	andeq	r1, r0, r0, ror r2
    1be4:	01e64a01 	mvneq	r4, r1, lsl #20
    1be8:	01790000 	cmneq	r9, r0
    1bec:	76120000 	ldrvc	r0, [r2], -r0
    1bf0:	01006c61 	tsteq	r0, r1, ror #24
    1bf4:	00002c4b 	andeq	r2, r0, fp, asr #24
    1bf8:	00019900 	andeq	r9, r1, r0, lsl #18
    1bfc:	05581100 	ldrbeq	r1, [r8, #-256]	; 0x100
    1c00:	4b010000 	blmi	41c08 <__standby_start+0x41c08>
    1c04:	0000002c 	andeq	r0, r0, ip, lsr #32
    1c08:	00000201 	andeq	r0, r0, r1, lsl #4
    1c0c:	00132b11 	andseq	r2, r3, r1, lsl fp
    1c10:	2c4b0100 	stfcse	f0, [fp], {-0}
    1c14:	14000000 	strne	r0, [r0], #-0
    1c18:	13000002 	movwne	r0, #2
    1c1c:	000001b7 			; <UNDEFINED> instruction: 0x000001b7
    1c20:	f0000560 			; <UNDEFINED> instruction: 0xf0000560
    1c24:	00000088 	andeq	r0, r0, r8, lsl #1
    1c28:	02bc4d01 	adcseq	r4, ip, #64	; 0x40
    1c2c:	c8140000 	ldmdagt	r4, {}	; <UNPREDICTABLE>
    1c30:	34000001 	strcc	r0, [r0], #-1
    1c34:	15000002 	strne	r0, [r0, #-2]
    1c38:	000000a8 	andeq	r0, r0, r8, lsr #1
    1c3c:	0001d216 	andeq	sp, r1, r6, lsl r2
    1c40:	00026800 	andeq	r6, r2, r0, lsl #16
    1c44:	01dc1600 	bicseq	r1, ip, r0, lsl #12
    1c48:	029b0000 	addseq	r0, fp, #0
    1c4c:	00000000 	andeq	r0, r0, r0
    1c50:	0001ec17 	andeq	lr, r1, r7, lsl ip
    1c54:	0005b000 	andeq	fp, r5, r0
    1c58:	0005c8f0 	strdeq	ip, [r5], -r0
    1c5c:	145201f0 	ldrbne	r0, [r2], #-496	; 0x1f0
    1c60:	00000208 	andeq	r0, r0, r8, lsl #4
    1c64:	000002c6 	andeq	r0, r0, r6, asr #5
    1c68:	0001fd18 	andeq	pc, r1, r8, lsl sp	; <UNPREDICTABLE>
    1c6c:	00540100 	subseq	r0, r4, r0, lsl #2
    1c70:	c7011900 	strgt	r1, [r1, -r0, lsl #18]
    1c74:	01000012 	tsteq	r0, r2, lsl r0
    1c78:	005e0189 	subseq	r0, lr, r9, lsl #3
    1c7c:	07000000 	streq	r0, [r0, -r0]
    1c80:	07b8f000 	ldreq	pc, [r8, r0]!
    1c84:	02eff000 	rsceq	pc, pc, #0
    1c88:	03710000 	cmneq	r1, #0
    1c8c:	26100000 	ldrcs	r0, [r0], -r0
    1c90:	01000013 	tsteq	r0, r3, lsl r0
    1c94:	0000f989 	andeq	pc, r0, r9, lsl #19
    1c98:	00031b00 	andeq	r1, r3, r0, lsl #22
    1c9c:	12701100 	rsbsne	r1, r0, #0
    1ca0:	8b010000 	blhi	41ca8 <__standby_start+0x41ca8>
    1ca4:	000001e6 	andeq	r0, r0, r6, ror #3
    1ca8:	00000339 	andeq	r0, r0, r9, lsr r3
    1cac:	6c617612 	stclvs	6, cr7, [r1], #-72	; 0xffffffb8
    1cb0:	2c8c0100 	stfcss	f0, [ip], {0}
    1cb4:	59000000 	stmdbpl	r0, {}	; <UNPREDICTABLE>
    1cb8:	1a000003 	bne	1ccc <__standby_start+0x1ccc>
    1cbc:	00000558 	andeq	r0, r0, r8, asr r5
    1cc0:	002c8c01 	eoreq	r8, ip, r1, lsl #24
    1cc4:	310c0000 	mrscc	r0, (UNDEF: 12)
    1cc8:	24061875 	strcs	r1, [r6], #-2165	; 0x875
    1ccc:	14751c31 	ldrbtne	r1, [r5], #-3121	; 0xc31
    1cd0:	1b9f2406 	blne	fe7cacf0 <__bss_end+0xe7c6f44>
    1cd4:	000001b7 			; <UNDEFINED> instruction: 0x000001b7
    1cd8:	f0000700 			; <UNDEFINED> instruction: 0xf0000700
    1cdc:	000000c8 	andeq	r0, r0, r8, asr #1
    1ce0:	c8148e01 	ldmdagt	r4, {r0, r9, sl, fp, pc}
    1ce4:	83000001 	movwhi	r0, #1
    1ce8:	15000003 	strne	r0, [r0, #-3]
    1cec:	000000e8 	andeq	r0, r0, r8, ror #1
    1cf0:	0001d216 	andeq	sp, r1, r6, lsl r2
    1cf4:	0003a100 	andeq	sl, r3, r0, lsl #2
    1cf8:	01dc1600 	bicseq	r1, ip, r0, lsl #12
    1cfc:	03d40000 	bicseq	r0, r4, #0
    1d00:	00000000 	andeq	r0, r0, r0
    1d04:	00571c00 	subseq	r1, r7, r0, lsl #24
    1d08:	03810000 	orreq	r0, r1, #0
    1d0c:	691d0000 	ldmdbvs	sp, {}	; <UNPREDICTABLE>
    1d10:	0f000000 	svceq	0x00000000
    1d14:	13581a00 	cmpne	r8, #0
    1d18:	1d010000 	stcne	0, cr0, [r1, #-0]
    1d1c:	00000392 	muleq	r0, r2, r3
    1d20:	36800305 	strcc	r0, [r0], r5, lsl #6
    1d24:	711ef000 	tstvc	lr, r0
    1d28:	1c000003 	stcne	0, cr0, [r0], {3}
    1d2c:	00000130 	andeq	r0, r0, r0, lsr r1
    1d30:	000003a7 	andeq	r0, r0, r7, lsr #7
    1d34:	0000691d 	andeq	r6, r0, sp, lsl r9
    1d38:	1a000500 	bne	3140 <__standby_start+0x3140>
    1d3c:	0000126a 	andeq	r1, r0, sl, ror #4
    1d40:	03972301 	orrseq	r2, r7, #67108864	; 0x4000000
    1d44:	03050000 	movweq	r0, #20480	; 0x5000
    1d48:	f0003940 			; <UNDEFINED> instruction: 0xf0003940
    1d4c:	00033500 	andeq	r3, r3, r0, lsl #10
    1d50:	de000200 	cdple	2, 0, cr0, cr0, cr0, {0}
    1d54:	04000006 	streq	r0, [r0], #-6
    1d58:	0003f401 	andeq	pc, r3, r1, lsl #8
    1d5c:	13d40100 	bicsne	r0, r4, #0
    1d60:	04820000 	streq	r0, [r2], #0
    1d64:	07b80000 	ldreq	r0, [r8, r0]!
    1d68:	0b00f000 	bleq	3dd70 <__standby_start+0x3dd70>
    1d6c:	05b1f000 	ldreq	pc, [r1, #0]!
    1d70:	01020000 	mrseq	r0, (UNDEF: 2)
    1d74:	00078d06 	andeq	r8, r7, r6, lsl #26
    1d78:	13680300 	cmnne	r8, #0
    1d7c:	0f020000 	svceq	0x00020000
    1d80:	00000037 	andeq	r0, r0, r7, lsr r0
    1d84:	8b080102 	blhi	202194 <__standby_start+0x202194>
    1d88:	02000007 	andeq	r0, r0, #7
    1d8c:	06410502 	strbeq	r0, [r1], -r2, lsl #10
    1d90:	02020000 	andeq	r0, r2, #0
    1d94:	00084d07 	andeq	r4, r8, r7, lsl #26
    1d98:	0e1c0300 	cdpeq	3, 1, cr0, cr12, cr0, {0}
    1d9c:	12020000 	andne	r0, r2, #0
    1da0:	00000057 	andeq	r0, r0, r7, asr r0
    1da4:	69050404 	stmdbvs	r5, {r2, sl}
    1da8:	0300746e 	movweq	r7, #1134	; 0x46e
    1dac:	0000043a 	andeq	r0, r0, sl, lsr r4
    1db0:	00691302 	rsbeq	r1, r9, r2, lsl #6
    1db4:	04020000 	streq	r0, [r2], #-0
    1db8:	00024507 	andeq	r4, r2, r7, lsl #10
    1dbc:	05080200 	streq	r0, [r8, #-512]	; 0x200
    1dc0:	00000474 	andeq	r0, r0, r4, ror r4
    1dc4:	3b070802 	blcc	1c3dd4 <__standby_start+0x1c3dd4>
    1dc8:	05000002 	streq	r0, [r0, #-2]
    1dcc:	00000845 	andeq	r0, r0, r5, asr #16
    1dd0:	eb7a0404 	bl	1e82de8 <__standby_start+0x1e82de8>
    1dd4:	06000000 	streq	r0, [r0], -r0
    1dd8:	00000688 	andeq	r0, r0, r8, lsl #13
    1ddc:	03340600 	teqeq	r4, #0
    1de0:	06010000 	streq	r0, [r1], -r0
    1de4:	00000746 	andeq	r0, r0, r6, asr #14
    1de8:	03280602 	teqeq	r8, #2097152	; 0x200000
    1dec:	06030000 	streq	r0, [r3], -r0
    1df0:	0000042e 	andeq	r0, r0, lr, lsr #8
    1df4:	06950604 	ldreq	r0, [r5], r4, lsl #12
    1df8:	06050000 	streq	r0, [r5], -r0
    1dfc:	000003e7 	andeq	r0, r0, r7, ror #7
    1e00:	082f0606 	stmdaeq	pc!, {r1, r2, r9, sl}	; <UNPREDICTABLE>
    1e04:	06070000 	streq	r0, [r7], -r0
    1e08:	00000461 	andeq	r0, r0, r1, ror #8
    1e0c:	08d00608 	ldmeq	r0, {r3, r9, sl}^
    1e10:	06090000 	streq	r0, [r9], -r0
    1e14:	00000623 	andeq	r0, r0, r3, lsr #12
    1e18:	064b060a 	strbeq	r0, [fp], -sl, lsl #12
    1e1c:	060b0000 	streq	r0, [fp], -r0
    1e20:	0000083f 	andeq	r0, r0, pc, lsr r8
    1e24:	07a0060c 	streq	r0, [r0, ip, lsl #12]!
    1e28:	060d0000 	streq	r0, [sp], -r0
    1e2c:	00000602 	andeq	r0, r0, r2, lsl #12
    1e30:	07ce060e 	strbeq	r0, [lr, lr, lsl #12]
    1e34:	000f0000 	andeq	r0, pc, r0
    1e38:	94080102 	strls	r0, [r8], #-258	; 0x102
    1e3c:	02000007 	andeq	r0, r0, #7
    1e40:	02400704 	subeq	r0, r0, #1048576	; 0x100000
    1e44:	87070000 	strhi	r0, [r7, -r0]
    1e48:	24000014 	strcs	r0, [r0], #-20
    1e4c:	01841903 	orreq	r1, r4, r3, lsl #18
    1e50:	be080000 	cdplt	0, 0, cr0, cr8, cr0, {0}
    1e54:	03000013 	movweq	r0, #19
    1e58:	0001841b 	andeq	r8, r1, fp, lsl r4
    1e5c:	00230200 	eoreq	r0, r3, r0, lsl #4
    1e60:	00140108 	andseq	r0, r4, r8, lsl #2
    1e64:	841c0300 	ldrhi	r0, [ip], #-768	; 0x300
    1e68:	02000001 	andeq	r0, r0, #1
    1e6c:	6d080423 	cfstrsvs	mvf0, [r8, #-140]	; 0xffffff74
    1e70:	03000014 	movweq	r0, #20
    1e74:	0001841d 	andeq	r8, r1, sp, lsl r4
    1e78:	08230200 	stmdaeq	r3!, {r9}
    1e7c:	00147608 	andseq	r7, r4, r8, lsl #12
    1e80:	841e0300 	ldrhi	r0, [lr], #-768	; 0x300
    1e84:	02000001 	andeq	r0, r0, #1
    1e88:	0c080c23 	stceq	12, cr0, [r8], {35}	; 0x23
    1e8c:	03000014 	movweq	r0, #20
    1e90:	0001841f 	andeq	r8, r1, pc, lsl r4
    1e94:	10230200 	eorne	r0, r3, r0, lsl #4
    1e98:	0014bf08 	andseq	fp, r4, r8, lsl #30
    1e9c:	84200300 	strthi	r0, [r0], #-768	; 0x300
    1ea0:	02000001 	andeq	r0, r0, #1
    1ea4:	17081423 	strne	r1, [r8, -r3, lsr #8]
    1ea8:	03000014 	movweq	r0, #20
    1eac:	00018421 	andeq	r8, r1, r1, lsr #8
    1eb0:	18230200 	stmdane	r3!, {r9}
    1eb4:	00149d08 	andseq	r9, r4, r8, lsl #26
    1eb8:	84220300 	strthi	r0, [r2], #-768	; 0x300
    1ebc:	02000001 	andeq	r0, r0, #1
    1ec0:	7e081c23 	cdpvc	12, 0, cr1, cr8, cr3, {1}
    1ec4:	03000014 	movweq	r0, #20
    1ec8:	00018423 	andeq	r8, r1, r3, lsr #8
    1ecc:	20230200 	eorcs	r0, r3, r0, lsl #4
    1ed0:	00690900 	rsbeq	r0, r9, r0, lsl #18
    1ed4:	a5030000 	strge	r0, [r3, #-0]
    1ed8:	03000014 	movweq	r0, #20
    1edc:	0000f925 	andeq	pc, r0, r5, lsr #18
    1ee0:	138a0500 	orrne	r0, sl, #0
    1ee4:	03040000 	movweq	r0, #16384	; 0x4000
    1ee8:	0001ad29 	andeq	sl, r1, r9, lsr #26
    1eec:	13330600 	teqne	r3, #0
    1ef0:	06000000 	streq	r0, [r0], -r0
    1ef4:	00001398 	muleq	r0, r8, r3
    1ef8:	210a0001 	tstcs	sl, r1
    1efc:	01000014 	tsteq	r0, r4, lsl r0
    1f00:	00570165 	subseq	r0, r7, r5, ror #2
    1f04:	d5010000 	strle	r0, [r1, #-0]
    1f08:	0b000001 	bleq	1f14 <__standby_start+0x1f14>
    1f0c:	00001494 	muleq	r0, r4, r4
    1f10:	00696701 	rsbeq	r6, r9, r1, lsl #14
    1f14:	340b0000 	strcc	r0, [fp], #-0
    1f18:	01000025 	tsteq	r0, r5, lsr #32
    1f1c:	00006968 	andeq	r6, r0, r8, ror #18
    1f20:	010c0000 	mrseq	r0, (UNDEF: 12)
    1f24:	00001454 	andeq	r1, r0, r4, asr r4
    1f28:	4c012e01 	stcmi	14, cr2, [r1], {1}
    1f2c:	b8000000 	stmdalt	r0, {}	; <UNPREDICTABLE>
    1f30:	04f00007 	ldrbteq	r0, [r0], #7
    1f34:	02f00008 	rscseq	r0, r0, #8
    1f38:	0201007d 	andeq	r0, r1, #125	; 0x7d
    1f3c:	440d0000 	strmi	r0, [sp], #-0
    1f40:	01000014 	tsteq	r0, r4, lsl r0
    1f44:	0000572e 	andeq	r5, r0, lr, lsr #14
    1f48:	0003ff00 	andeq	pc, r3, r0, lsl #30
    1f4c:	010e0000 	mrseq	r0, (UNDEF: 14)
    1f50:	00001433 	andeq	r1, r0, r3, lsr r4
    1f54:	4c014901 	stcmi	9, cr4, [r1], {1}
    1f58:	04000000 	streq	r0, [r0], #-0
    1f5c:	4cf00008 	ldclmi	0, cr0, [r0], #32
    1f60:	12f00008 	rscsne	r0, r0, #8
    1f64:	0f000004 	svceq	0x00000004
    1f68:	0013c801 	andseq	ip, r3, r1, lsl #16
    1f6c:	01970100 	orrseq	r0, r7, r0, lsl #2
    1f70:	0000004c 	andeq	r0, r0, ip, asr #32
    1f74:	f000084c 			; <UNDEFINED> instruction: 0xf000084c
    1f78:	f0000b00 			; <UNDEFINED> instruction: 0xf0000b00
    1f7c:	00000432 	andeq	r0, r0, r2, lsr r4
    1f80:	000002d3 	ldrdeq	r0, [r0], -r3
    1f84:	00706f10 	rsbseq	r6, r0, r0, lsl pc
    1f88:	01949701 	orrseq	r9, r4, r1, lsl #14
    1f8c:	04520000 	ldrbeq	r0, [r2], #-0
    1f90:	c20d0000 	andgt	r0, sp, #0
    1f94:	01000013 	tsteq	r0, r3, lsl r0
    1f98:	00002c97 	muleq	r0, r7, ip
    1f9c:	00047000 	andeq	r7, r4, r0
    1fa0:	13ab0d00 			; <UNDEFINED> instruction: 0x13ab0d00
    1fa4:	97010000 	strls	r0, [r1, -r0]
    1fa8:	0000002c 	andeq	r0, r0, ip, lsr #32
    1fac:	00000483 	andeq	r0, r0, r3, lsl #9
    1fb0:	0013630d 	andseq	r6, r3, sp, lsl #6
    1fb4:	d3970100 	orrsle	r0, r7, #0
    1fb8:	96000002 	strls	r0, [r0], -r2
    1fbc:	11000004 	tstne	r0, r4
    1fc0:	0000144a 	andeq	r1, r0, sl, asr #8
    1fc4:	00379901 	eorseq	r9, r7, r1, lsl #18
    1fc8:	04b40000 	ldrteq	r0, [r4], #0
    1fcc:	34110000 	ldrcc	r0, [r1], #-0
    1fd0:	01000025 	tsteq	r0, r5, lsr #32
    1fd4:	0000699a 	muleq	r0, sl, r9
    1fd8:	00051400 	andeq	r1, r5, r0, lsl #8
    1fdc:	65721200 	ldrbvs	r1, [r2, #-512]!	; 0x200
    1fe0:	9b010074 	blls	421b8 <__standby_start+0x421b8>
    1fe4:	00000057 	andeq	r0, r0, r7, asr r0
    1fe8:	00000673 	andeq	r0, r0, r3, ror r6
    1fec:	0013a213 	andseq	sl, r3, r3, lsl r2
    1ff0:	01180100 	tsteq	r8, r0, lsl #2
    1ff4:	f0000a24 			; <UNDEFINED> instruction: 0xf0000a24
    1ff8:	0001ad14 	andeq	sl, r1, r4, lsl sp
    1ffc:	000a2400 	andeq	r2, sl, r0, lsl #8
    2000:	000108f0 	strdeq	r0, [r1], -r0	; <UNPREDICTABLE>
    2004:	011b0100 	tsteq	fp, r0, lsl #2
    2008:	00012815 	andeq	r2, r1, r5, lsl r8
    200c:	01be1600 			; <UNDEFINED> instruction: 0x01be1600
    2010:	52010000 	andpl	r0, r1, #0
    2014:	0001c917 	andeq	ip, r1, r7, lsl r9
    2018:	0006ab00 	andeq	sl, r6, r0, lsl #22
    201c:	00000000 	andeq	r0, r0, r0
    2020:	002c0418 	eoreq	r0, ip, r8, lsl r4
    2024:	e9190000 	ldmdb	r9, {}	; <UNPREDICTABLE>
    2028:	e9000002 	stmdb	r0, {r1}
    202c:	1a000002 	bne	203c <__standby_start+0x203c>
    2030:	00000069 	andeq	r0, r0, r9, rrx
    2034:	04180002 	ldreq	r0, [r8], #-2
    2038:	00000189 	andeq	r0, r0, r9, lsl #3
    203c:	0014c81b 	andseq	ip, r4, fp, lsl r8
    2040:	00160100 	andseq	r0, r6, r0, lsl #2
    2044:	05000003 	streq	r0, [r0, #-3]
    2048:	0036c003 	eorseq	ip, r6, r3
    204c:	02d91cf0 	sbcseq	r1, r9, #61440	; 0xf000
    2050:	b11b0000 	tstlt	fp, r0
    2054:	01000013 	tsteq	r0, r3, lsl r0
    2058:	00005e1c 	andeq	r5, r0, ip, lsl lr
    205c:	30030500 	andcc	r0, r3, r0, lsl #10
    2060:	1bf0003a 	blne	ffc02150 <__bss_end+0xfbfe3a4>
    2064:	000014b2 			; <UNDEFINED> instruction: 0x000014b2
    2068:	005e1d01 	subseq	r1, lr, r1, lsl #26
    206c:	03050000 	movweq	r0, #20480	; 0x5000
    2070:	f0003a34 			; <UNDEFINED> instruction: 0xf0003a34
    2074:	0014651b 	andseq	r6, r4, fp, lsl r5
    2078:	e91e0100 	ldmdb	lr, {r8}
    207c:	05000002 	streq	r0, [r0, #-2]
    2080:	003a2c03 	eorseq	r2, sl, r3, lsl #24
    2084:	00f200f0 	ldrshteq	r0, [r2], #0
    2088:	00020000 	andeq	r0, r2, r0
    208c:	0000085d 	andeq	r0, r0, sp, asr r8
    2090:	03f40104 	mvnseq	r0, #1
    2094:	d5010000 	strle	r0, [r1, #-0]
    2098:	82000014 	andhi	r0, r0, #20
    209c:	00000004 	andeq	r0, r0, r4
    20a0:	20f0000b 	rscscs	r0, r0, fp
    20a4:	47f0000b 	ldrbmi	r0, [r0, fp]!
    20a8:	02000007 	andeq	r0, r0, #7
    20ac:	078d0601 	streq	r0, [sp, r1, lsl #12]
    20b0:	01020000 	mrseq	r0, (UNDEF: 2)
    20b4:	00078b08 	andeq	r8, r7, r8, lsl #22
    20b8:	05020200 	streq	r0, [r2, #-512]	; 0x200
    20bc:	00000641 	andeq	r0, r0, r1, asr #12
    20c0:	4d070202 	sfmmi	f0, 4, [r7, #-8]
    20c4:	03000008 	movweq	r0, #8
    20c8:	00000e1c 	andeq	r0, r0, ip, lsl lr
    20cc:	004c1202 	subeq	r1, ip, r2, lsl #4
    20d0:	04040000 	streq	r0, [r4], #-0
    20d4:	746e6905 	strbtvc	r6, [lr], #-2309	; 0x905
    20d8:	043a0300 	ldrteq	r0, [sl], #-768	; 0x300
    20dc:	13020000 	movwne	r0, #8192	; 0x2000
    20e0:	0000005e 	andeq	r0, r0, lr, asr r0
    20e4:	45070402 	strmi	r0, [r7, #-1026]	; 0x402
    20e8:	02000002 	andeq	r0, r0, #2
    20ec:	04740508 	ldrbteq	r0, [r4], #-1288	; 0x508
    20f0:	08020000 	stmdaeq	r2, {}	; <UNPREDICTABLE>
    20f4:	00023b07 	andeq	r3, r2, r7, lsl #22
    20f8:	08010200 	stmdaeq	r1, {r9}
    20fc:	00000794 	muleq	r0, r4, r7
    2100:	40070402 	andmi	r0, r7, r2, lsl #8
    2104:	05000002 	streq	r0, [r0, #-2]
    2108:	00154801 	andseq	r4, r5, r1, lsl #16
    210c:	01260100 	teqeq	r6, r0, lsl #2
    2110:	00000041 	andeq	r0, r0, r1, asr #32
    2114:	f0000b00 			; <UNDEFINED> instruction: 0xf0000b00
    2118:	f0000b08 			; <UNDEFINED> instruction: 0xf0000b08
    211c:	05007d02 	streq	r7, [r0, #-3330]	; 0xd02
    2120:	00150201 	andseq	r0, r5, r1, lsl #4
    2124:	01370100 	teqeq	r7, r0, lsl #2
    2128:	00000041 	andeq	r0, r0, r1, asr #32
    212c:	f0000b08 			; <UNDEFINED> instruction: 0xf0000b08
    2130:	f0000b10 			; <UNDEFINED> instruction: 0xf0000b10
    2134:	06007d02 	streq	r7, [r0], -r2, lsl #26
    2138:	00151301 	andseq	r1, r5, r1, lsl #6
    213c:	014b0100 	mrseq	r0, (UNDEF: 91)
    2140:	00000041 	andeq	r0, r0, r1, asr #32
    2144:	f0000b10 			; <UNDEFINED> instruction: 0xf0000b10
    2148:	f0000b18 			; <UNDEFINED> instruction: 0xf0000b18
    214c:	dd007d02 	stcle	13, cr7, [r0, #-8]
    2150:	07000000 	streq	r0, [r0, -r0]
    2154:	000005df 	ldrdeq	r0, [r0], -pc	; <UNPREDICTABLE>
    2158:	00534b01 	subseq	r4, r3, r1, lsl #22
    215c:	07220000 	streq	r0, [r2, -r0]!
    2160:	05000000 	streq	r0, [r0, #-0]
    2164:	00153001 	andseq	r3, r5, r1
    2168:	015e0100 	cmpeq	lr, r0, lsl #2
    216c:	00000041 	andeq	r0, r0, r1, asr #32
    2170:	f0000b18 			; <UNDEFINED> instruction: 0xf0000b18
    2174:	f0000b20 			; <UNDEFINED> instruction: 0xf0000b20
    2178:	00007d02 	andeq	r7, r0, r2, lsl #26
    217c:	000003dd 	ldrdeq	r0, [r0], -sp
    2180:	08d30002 	ldmeq	r3, {r1}^
    2184:	01040000 	mrseq	r0, (UNDEF: 4)
    2188:	000003f4 	strdeq	r0, [r0], -r4
    218c:	00165501 	andseq	r5, r6, r1, lsl #10
    2190:	00048200 	andeq	r8, r4, r0, lsl #4
    2194:	000b2000 	andeq	r2, fp, r0
    2198:	000e98f0 	strdeq	r9, [lr], -r0
    219c:	0007e0f0 	strdeq	lr, [r7], -r0
    21a0:	06010200 	streq	r0, [r1], -r0, lsl #4
    21a4:	0000078d 	andeq	r0, r0, sp, lsl #15
    21a8:	8b080102 	blhi	2025b8 <__standby_start+0x2025b8>
    21ac:	02000007 	andeq	r0, r0, #7
    21b0:	06410502 	strbeq	r0, [r1], -r2, lsl #10
    21b4:	02020000 	andeq	r0, r2, #0
    21b8:	00084d07 	andeq	r4, r8, r7, lsl #26
    21bc:	05040300 	streq	r0, [r4, #-768]	; 0x300
    21c0:	00746e69 	rsbseq	r6, r4, r9, ror #28
    21c4:	00043a04 	andeq	r3, r4, r4, lsl #20
    21c8:	53130300 	tstpl	r3, #0
    21cc:	02000000 	andeq	r0, r0, #0
    21d0:	02450704 	subeq	r0, r5, #1048576	; 0x100000
    21d4:	08020000 	stmdaeq	r2, {}	; <UNPREDICTABLE>
    21d8:	00047405 	andeq	r7, r4, r5, lsl #8
    21dc:	07080200 	streq	r0, [r8, -r0, lsl #4]
    21e0:	0000023b 	andeq	r0, r0, fp, lsr r2
    21e4:	0016b105 	andseq	fp, r6, r5, lsl #2
    21e8:	1d020400 	cfstrsne	mvf0, [r2, #-0]
    21ec:	000000ca 	andeq	r0, r0, sl, asr #1
    21f0:	0015b006 	andseq	fp, r5, r6
    21f4:	481f0200 	ldmdami	pc, {r9}	; <UNPREDICTABLE>
    21f8:	04000000 	streq	r0, [r0], #-0
    21fc:	23021808 	movwcs	r1, #10248	; 0x2808
    2200:	162b0600 	strtne	r0, [fp], -r0, lsl #12
    2204:	20020000 	andcs	r0, r2, r0
    2208:	00000048 	andeq	r0, r0, r8, asr #32
    220c:	02100804 	andseq	r0, r0, #262144	; 0x40000
    2210:	59060023 	stmdbpl	r6, {r0, r1, r5}
    2214:	02000015 	andeq	r0, r0, #21
    2218:	00004821 	andeq	r4, r0, r1, lsr #16
    221c:	0e020400 	cfcpyseq	mvf0, mvf2
    2220:	06002302 	streq	r2, [r0], -r2, lsl #6
    2224:	00001039 	andeq	r1, r0, r9, lsr r0
    2228:	00482202 	subeq	r2, r8, r2, lsl #4
    222c:	0d040000 	stceq	0, cr0, [r4, #-0]
    2230:	00230201 	eoreq	r0, r3, r1, lsl #4
    2234:	0016f506 	andseq	pc, r6, r6, lsl #10
    2238:	48230200 	stmdami	r3!, {r9}
    223c:	04000000 	streq	r0, [r0], #-0
    2240:	23020001 	movwcs	r0, #8193	; 0x2001
    2244:	04070000 	streq	r0, [r7], #-0
    2248:	00e91b02 	rsceq	r1, r9, r2, lsl #22
    224c:	a7080000 	strge	r0, [r8, -r0]
    2250:	02000009 	andeq	r0, r0, #9
    2254:	0000481c 	andeq	r4, r0, ip, lsl r8
    2258:	13530800 	cmpne	r3, #0
    225c:	26020000 	strcs	r0, [r2], -r0
    2260:	00000068 	andeq	r0, r0, r8, rrx
    2264:	16df0400 	ldrbne	r0, [pc], r0, lsl #8
    2268:	27020000 	strcs	r0, [r2, -r0]
    226c:	000000ca 	andeq	r0, r0, sl, asr #1
    2270:	00004809 	andeq	r4, r0, r9, lsl #16
    2274:	08450a00 	stmdaeq	r5, {r9, fp}^
    2278:	04040000 	streq	r0, [r4], #-0
    227c:	0001667a 	andeq	r6, r1, sl, ror r6
    2280:	06880b00 	streq	r0, [r8], r0, lsl #22
    2284:	0b000000 	bleq	228c <__standby_start+0x228c>
    2288:	00000334 	andeq	r0, r0, r4, lsr r3
    228c:	07460b01 	strbeq	r0, [r6, -r1, lsl #22]
    2290:	0b020000 	bleq	82298 <__standby_start+0x82298>
    2294:	00000328 	andeq	r0, r0, r8, lsr #6
    2298:	042e0b03 	strteq	r0, [lr], #-2819	; 0xb03
    229c:	0b040000 	bleq	1022a4 <__standby_start+0x1022a4>
    22a0:	00000695 	muleq	r0, r5, r6
    22a4:	03e70b05 	mvneq	r0, #5120	; 0x1400
    22a8:	0b060000 	bleq	1822b0 <__standby_start+0x1822b0>
    22ac:	0000082f 	andeq	r0, r0, pc, lsr #16
    22b0:	04610b07 	strbteq	r0, [r1], #-2823	; 0xb07
    22b4:	0b080000 	bleq	2022bc <__standby_start+0x2022bc>
    22b8:	000008d0 	ldrdeq	r0, [r0], -r0	; <UNPREDICTABLE>
    22bc:	06230b09 	strteq	r0, [r3], -r9, lsl #22
    22c0:	0b0a0000 	bleq	2822c8 <__standby_start+0x2822c8>
    22c4:	0000064b 	andeq	r0, r0, fp, asr #12
    22c8:	083f0b0b 	ldmdaeq	pc!, {r0, r1, r3, r8, r9, fp}	; <UNPREDICTABLE>
    22cc:	0b0c0000 	bleq	3022d4 <__standby_start+0x3022d4>
    22d0:	000007a0 	andeq	r0, r0, r0, lsr #15
    22d4:	06020b0d 	streq	r0, [r2], -sp, lsl #22
    22d8:	0b0e0000 	bleq	3822e0 <__standby_start+0x3822e0>
    22dc:	000007ce 	andeq	r0, r0, lr, asr #15
    22e0:	0102000f 	tsteq	r2, pc
    22e4:	00079408 	andeq	r9, r7, r8, lsl #8
    22e8:	07040200 	streq	r0, [r4, -r0, lsl #4]
    22ec:	00000240 	andeq	r0, r0, r0, asr #4
    22f0:	16c2010c 	strbne	r0, [r2], ip, lsl #2
    22f4:	0b010000 	bleq	422fc <__standby_start+0x422fc>
    22f8:	000b2001 	andeq	r2, fp, r1
    22fc:	000b40f0 	strdeq	r4, [fp], -r0
    2300:	000735f0 	strdeq	r3, [r7], -r0
    2304:	00019c00 	andeq	r9, r1, r0, lsl #24
    2308:	156e0d00 	strbne	r0, [lr, #-3328]!	; 0xd00
    230c:	0e010000 	cdpeq	0, 0, cr0, cr1, cr0, {0}
    2310:	000000f4 	strdeq	r0, [r0], -r4
    2314:	00749102 	rsbseq	r9, r4, r2, lsl #2
    2318:	15ce010e 	strbne	r0, [lr, #270]	; 0x10e
    231c:	19010000 	stmdbne	r1, {}	; <UNPREDICTABLE>
    2320:	000b4001 	andeq	r4, fp, r1
    2324:	000b44f0 	strdeq	r4, [fp], -r0
    2328:	007d02f0 	ldrshteq	r0, [sp], #-32	; 0xffffffe0
    232c:	1684010e 	strne	r0, [r4], lr, lsl #2
    2330:	29010000 	stmdbcs	r1, {}	; <UNPREDICTABLE>
    2334:	000b4401 	andeq	r4, fp, r1, lsl #8
    2338:	000b48f0 	strdeq	r4, [fp], -r0
    233c:	007d02f0 	ldrshteq	r0, [sp], #-32	; 0xffffffe0
    2340:	1600010e 	strne	r0, [r0], -lr, lsl #2
    2344:	38010000 	stmdacc	r1, {}	; <UNPREDICTABLE>
    2348:	000b4801 	andeq	r4, fp, r1, lsl #16
    234c:	000b6cf0 	strdeq	r6, [fp], -r0
    2350:	007d02f0 	ldrshteq	r0, [sp], #-32	; 0xffffffe0
    2354:	15b8010e 	ldrne	r0, [r8, #270]!	; 0x10e
    2358:	41010000 	mrsmi	r0, (UNDEF: 1)
    235c:	000b6c01 	andeq	r6, fp, r1, lsl #24
    2360:	000b90f0 	strdeq	r9, [fp], -r0
    2364:	007d02f0 	ldrshteq	r0, [sp], #-32	; 0xffffffe0
    2368:	15dc010c 	ldrbne	r0, [ip, #268]	; 0x10c
    236c:	4a010000 	bmi	42374 <__standby_start+0x42374>
    2370:	000b9001 	andeq	r9, fp, r1
    2374:	000c24f0 	strdeq	r2, [ip], -r0
    2378:	000755f0 	strdeq	r5, [r7], -r0
    237c:	00021300 	andeq	r1, r2, r0, lsl #6
    2380:	00690f00 	rsbeq	r0, r9, r0, lsl #30
    2384:	00414c01 	subeq	r4, r1, r1, lsl #24
    2388:	07750000 	ldrbeq	r0, [r5, -r0]!
    238c:	0e000000 	cdpeq	0, 0, cr0, cr0, cr0, {0}
    2390:	00169301 	andseq	r9, r6, r1, lsl #6
    2394:	01600100 	cmneq	r0, r0, lsl #2
    2398:	f0000c24 			; <UNDEFINED> instruction: 0xf0000c24
    239c:	f0000c28 			; <UNDEFINED> instruction: 0xf0000c28
    23a0:	0c007d02 	stceq	13, cr7, [r0], {2}
    23a4:	0016cf01 	andseq	ip, r6, r1, lsl #30
    23a8:	01650100 	cmneq	r5, r0, lsl #2
    23ac:	f0000c28 			; <UNDEFINED> instruction: 0xf0000c28
    23b0:	f0000cbc 			; <UNDEFINED> instruction: 0xf0000cbc
    23b4:	00000789 	andeq	r0, r0, r9, lsl #15
    23b8:	00000250 	andeq	r0, r0, r0, asr r2
    23bc:	6c617610 	stclvs	6, cr7, [r1], #-64	; 0xffffffc0
    23c0:	f4650100 	vld4.8	{d16,d18,d20,d22}, [r5], r0
    23c4:	b5000000 	strlt	r0, [r0, #-0]
    23c8:	00000007 	andeq	r0, r0, r7
    23cc:	16100111 			; <UNDEFINED> instruction: 0x16100111
    23d0:	79010000 	stmdbvc	r1, {}	; <UNPREDICTABLE>
    23d4:	00004801 	andeq	r4, r0, r1, lsl #16
    23d8:	000cbc00 	andeq	fp, ip, r0, lsl #24
    23dc:	000d10f0 	strdeq	r1, [sp], -r0
    23e0:	0007d4f0 	strdeq	sp, [r7], -r0
    23e4:	00027d00 	andeq	r7, r2, r0, lsl #26
    23e8:	61760f00 	cmnvs	r6, r0, lsl #30
    23ec:	7b01006c 	blvc	425a4 <__standby_start+0x425a4>
    23f0:	00000041 	andeq	r0, r0, r1, asr #32
    23f4:	000007f4 	strdeq	r0, [r0], -r4
    23f8:	33010c00 	movwcc	r0, #7168	; 0x1c00
    23fc:	01000016 	tsteq	r0, r6, lsl r0
    2400:	0d100189 	ldfeqs	f0, [r0, #-548]	; 0xfffffddc
    2404:	0d88f000 	stceq	0, cr15, [r8]
    2408:	081ef000 	ldmdaeq	lr, {ip, sp, lr, pc}
    240c:	02b30000 	adcseq	r0, r3, #0
    2410:	690f0000 	stmdbvs	pc, {}	; <UNPREDICTABLE>
    2414:	418b0100 	orrmi	r0, fp, r0, lsl #2
    2418:	3e000000 	cdpcc	0, 0, cr0, cr0, cr0, {0}
    241c:	0f000008 	svceq	0x00000008
    2420:	006c6176 	rsbeq	r6, ip, r6, ror r1
    2424:	00418c01 	subeq	r8, r1, r1, lsl #24
    2428:	085d0000 	ldmdaeq	sp, {}^	; <UNPREDICTABLE>
    242c:	0c000000 	stceq	0, cr0, [r0], {-0}
    2430:	00159201 	andseq	r9, r5, r1, lsl #4
    2434:	019f0100 	orrseq	r0, pc, r0, lsl #2
    2438:	f0000d88 			; <UNDEFINED> instruction: 0xf0000d88
    243c:	f0000e1c 			; <UNDEFINED> instruction: 0xf0000e1c
    2440:	00000887 	andeq	r0, r0, r7, lsl #17
    2444:	000002dc 	ldrdeq	r0, [r0], -ip
    2448:	6c617610 	stclvs	6, cr7, [r1], #-64	; 0xffffffc0
    244c:	f49f0100 			; <UNDEFINED> instruction: 0xf49f0100
    2450:	b3000000 	movwlt	r0, #0
    2454:	00000008 	andeq	r0, r0, r8
    2458:	15f8010e 	ldrbne	r0, [r8, #270]!	; 0x10e
    245c:	f7010000 			; <UNDEFINED> instruction: 0xf7010000
    2460:	000e1c01 	andeq	r1, lr, r1, lsl #24
    2464:	000e34f0 	strdeq	r3, [lr], -r0
    2468:	007d02f0 	ldrshteq	r0, [sp], #-32	; 0xffffffe0
    246c:	15610112 	strbne	r0, [r1, #-274]!	; 0x112
    2470:	ff010000 			; <UNDEFINED> instruction: 0xff010000
    2474:	000e3401 	andeq	r3, lr, r1, lsl #8
    2478:	000e4cf0 	strdeq	r4, [lr], -r0
    247c:	007d02f0 	ldrshteq	r0, [sp], #-32	; 0xffffffe0
    2480:	00000317 	andeq	r0, r0, r7, lsl r3
    2484:	00136313 	andseq	r6, r3, r3, lsl r3
    2488:	01010100 	mrseq	r0, (UNDEF: 17)
    248c:	00000048 	andeq	r0, r0, r8, asr #32
    2490:	14005201 	strne	r5, [r0], #-513	; 0x201
    2494:	00161f01 	andseq	r1, r6, r1, lsl #30
    2498:	010b0100 	mrseq	r0, (UNDEF: 27)
    249c:	000e4c01 	andeq	r4, lr, r1, lsl #24
    24a0:	000e64f0 	strdeq	r6, [lr], -r0
    24a4:	007d02f0 	ldrshteq	r0, [sp], #-32	; 0xffffffe0
    24a8:	0000033f 	andeq	r0, r0, pc, lsr r3
    24ac:	00136313 	andseq	r6, r3, r3, lsl r3
    24b0:	010d0100 	mrseq	r0, (UNDEF: 29)
    24b4:	00000048 	andeq	r0, r0, r8, asr #32
    24b8:	15005201 	strne	r5, [r0, #-513]	; 0x201
    24bc:	0015a801 	andseq	sl, r5, r1, lsl #16
    24c0:	011a0100 	tsteq	sl, r0, lsl #2
    24c4:	000e6401 	andeq	r6, lr, r1, lsl #8
    24c8:	000e98f0 	strdeq	r9, [lr], -r0
    24cc:	0008d2f0 	strdeq	sp, [r8], -r0
    24d0:	00037a00 	andeq	r7, r3, r0, lsl #20
    24d4:	756e1600 	strbvc	r1, [lr, #-1536]!	; 0x600
    24d8:	1a01006d 	bne	42694 <__standby_start+0x42694>
    24dc:	00004101 	andeq	r4, r0, r1, lsl #2
    24e0:	0008f200 	andeq	pc, r8, r0, lsl #4
    24e4:	13631700 	cmnne	r3, #0
    24e8:	1c010000 	stcne	0, cr0, [r1], {-0}
    24ec:	00004801 	andeq	r4, r0, r1, lsl #16
    24f0:	00090500 	andeq	r0, r9, r0, lsl #10
    24f4:	780d0000 	stmdavc	sp, {}	; <UNPREDICTABLE>
    24f8:	01000015 	tsteq	r0, r5, lsl r0
    24fc:	00038b34 	andeq	r8, r3, r4, lsr fp
    2500:	38030500 	stmdacc	r3, {r8, sl}
    2504:	18f0003a 	ldmne	r0!, {r1, r3, r4, r5}^
    2508:	00039104 	andeq	r9, r3, r4, lsl #2
    250c:	00e90900 	rsceq	r0, r9, r0, lsl #18
    2510:	830d0000 	movwhi	r0, #53248	; 0xd000
    2514:	01000015 	tsteq	r0, r5, lsl r0
    2518:	0000e935 	andeq	lr, r0, r5, lsr r9
    251c:	40030500 	andmi	r0, r3, r0, lsl #10
    2520:	0df0003a 	ldcleq	0, cr0, [r0, #232]!	; 0xe8
    2524:	000016a3 	andeq	r1, r0, r3, lsr #13
    2528:	038b3601 	orreq	r3, fp, #1048576	; 0x100000
    252c:	03050000 	movweq	r0, #20480	; 0x5000
    2530:	f0003a3c 			; <UNDEFINED> instruction: 0xf0003a3c
    2534:	0016430d 	andseq	r4, r6, sp, lsl #6
    2538:	e9370100 	ldmdb	r7!, {r8}
    253c:	05000000 	streq	r0, [r0, #-0]
    2540:	003a4403 	eorseq	r4, sl, r3, lsl #8
    2544:	15ed19f0 	strbne	r1, [sp, #2544]!	; 0x9f0
    2548:	09010000 	stmdbeq	r1, {}	; <UNPREDICTABLE>
    254c:	000003db 	ldrdeq	r0, [r0], -fp
    2550:	48030501 	stmdami	r3, {r0, r8, sl}
    2554:	09f0003a 	ldmibeq	r0!, {r1, r3, r4, r5}^
    2558:	00000041 	andeq	r0, r0, r1, asr #32
    255c:	0004f600 	andeq	pc, r4, r0, lsl #12
    2560:	65000200 	strvs	r0, [r0, #-512]	; 0x200
    2564:	0400000a 	streq	r0, [r0], #-10
    2568:	0003f401 	andeq	pc, r3, r1, lsl #8
    256c:	17300100 	ldrne	r0, [r0, -r0, lsl #2]!
    2570:	04820000 	streq	r0, [r2], #0
    2574:	0e980000 	cdpeq	0, 9, cr0, cr8, cr0, {0}
    2578:	1098f000 	addsne	pc, r8, r0
    257c:	092ff000 	stmdbeq	pc!, {ip, sp, lr, pc}	; <UNPREDICTABLE>
    2580:	01020000 	mrseq	r0, (UNDEF: 2)
    2584:	00078d06 	andeq	r8, r7, r6, lsl #26
    2588:	08010200 	stmdaeq	r1, {r9}
    258c:	0000078b 	andeq	r0, r0, fp, lsl #15
    2590:	41050202 	tstmi	r5, r2, lsl #4
    2594:	02000006 	andeq	r0, r0, #6
    2598:	084d0702 	stmdaeq	sp, {r1, r8, r9, sl}^
    259c:	1c030000 	stcne	0, cr0, [r3], {-0}
    25a0:	0200000e 	andeq	r0, r0, #14
    25a4:	00004c12 	andeq	r4, r0, r2, lsl ip
    25a8:	05040400 	streq	r0, [r4, #-1024]	; 0x400
    25ac:	00746e69 	rsbseq	r6, r4, r9, ror #28
    25b0:	00043a03 	andeq	r3, r4, r3, lsl #20
    25b4:	5e130200 	cdppl	2, 1, cr0, cr3, cr0, {0}
    25b8:	02000000 	andeq	r0, r0, #0
    25bc:	02450704 	subeq	r0, r5, #1048576	; 0x100000
    25c0:	08020000 	stmdaeq	r2, {}	; <UNPREDICTABLE>
    25c4:	00047405 	andeq	r7, r4, r5, lsl #8
    25c8:	07080200 	streq	r0, [r8, -r0, lsl #4]
    25cc:	0000023b 	andeq	r0, r0, fp, lsr r2
    25d0:	00025f05 	andeq	r5, r2, r5, lsl #30
    25d4:	14030400 	strne	r0, [r3], #-1024	; 0x400
    25d8:	00000098 	muleq	r0, r8, r0
    25dc:	00000006 	andeq	r0, r0, r6
    25e0:	47060100 	strmi	r0, [r6, -r0, lsl #2]
    25e4:	02000005 	andeq	r0, r0, #5
    25e8:	00025206 	andeq	r5, r2, r6, lsl #4
    25ec:	79060300 	stmdbvc	r6, {r8, r9}
    25f0:	05000002 	streq	r0, [r0, #-2]
    25f4:	08450500 	stmdaeq	r5, {r8, sl}^
    25f8:	04040000 	streq	r0, [r4], #-0
    25fc:	0001057a 	andeq	r0, r1, sl, ror r5
    2600:	06880600 	streq	r0, [r8], r0, lsl #12
    2604:	06000000 	streq	r0, [r0], -r0
    2608:	00000334 	andeq	r0, r0, r4, lsr r3
    260c:	07460601 	strbeq	r0, [r6, -r1, lsl #12]
    2610:	06020000 	streq	r0, [r2], -r0
    2614:	00000328 	andeq	r0, r0, r8, lsr #6
    2618:	042e0603 	strteq	r0, [lr], #-1539	; 0x603
    261c:	06040000 	streq	r0, [r4], -r0
    2620:	00000695 	muleq	r0, r5, r6
    2624:	03e70605 	mvneq	r0, #5242880	; 0x500000
    2628:	06060000 	streq	r0, [r6], -r0
    262c:	0000082f 	andeq	r0, r0, pc, lsr #16
    2630:	04610607 	strbteq	r0, [r1], #-1543	; 0x607
    2634:	06080000 	streq	r0, [r8], -r0
    2638:	000008d0 	ldrdeq	r0, [r0], -r0	; <UNPREDICTABLE>
    263c:	06230609 	strteq	r0, [r3], -r9, lsl #12
    2640:	060a0000 	streq	r0, [sl], -r0
    2644:	0000064b 	andeq	r0, r0, fp, asr #12
    2648:	083f060b 	ldmdaeq	pc!, {r0, r1, r3, r9, sl}	; <UNPREDICTABLE>
    264c:	060c0000 	streq	r0, [ip], -r0
    2650:	000007a0 	andeq	r0, r0, r0, lsr #15
    2654:	0602060d 	streq	r0, [r2], -sp, lsl #12
    2658:	060e0000 	streq	r0, [lr], -r0
    265c:	000007ce 	andeq	r0, r0, lr, asr #15
    2660:	0102000f 	tsteq	r2, pc
    2664:	00079408 	andeq	r9, r7, r8, lsl #8
    2668:	07040200 	streq	r0, [r4, -r0, lsl #4]
    266c:	00000240 	andeq	r0, r0, r0, asr #4
    2670:	18250107 	stmdane	r5!, {r0, r1, r2, r8}
    2674:	41010000 	mrsmi	r0, (UNDEF: 1)
    2678:	00005301 	andeq	r5, r0, r1, lsl #6
    267c:	01310100 	teqeq	r1, r0, lsl #2
    2680:	84080000 	strhi	r0, [r8], #-0
    2684:	01000002 	tsteq	r0, r2
    2688:	00005343 	andeq	r5, r0, r3, asr #6
    268c:	01090000 	mrseq	r0, (UNDEF: 9)
    2690:	00001834 	andeq	r1, r0, r4, lsr r8
    2694:	01010c01 	tsteq	r1, r1, lsl #24
    2698:	00000161 	andeq	r0, r0, r1, ror #2
    269c:	0017e20a 	andseq	lr, r7, sl, lsl #4
    26a0:	530c0100 	movwpl	r0, #49408	; 0xc100
    26a4:	0a000000 	beq	26ac <__standby_start+0x26ac>
    26a8:	00001799 	muleq	r0, r9, r7
    26ac:	00530c01 	subseq	r0, r3, r1, lsl #24
    26b0:	84080000 	strhi	r0, [r8], #-0
    26b4:	01000002 	tsteq	r0, r2
    26b8:	0000530f 	andeq	r5, r0, pc, lsl #6
    26bc:	6b0b0000 	blvs	2c26c4 <__standby_start+0x2c26c4>
    26c0:	01000018 	tsteq	r0, r8, lsl r0
    26c4:	005301b5 	ldrheq	r0, [r3], #-21	; 0xffffffeb
    26c8:	89010000 	stmdbhi	r1, {}	; <UNPREDICTABLE>
    26cc:	0a000001 	beq	26d8 <__standby_start+0x26d8>
    26d0:	00001326 	andeq	r1, r0, r6, lsr #6
    26d4:	0073b501 	rsbseq	fp, r3, r1, lsl #10
    26d8:	b6080000 	strlt	r0, [r8], -r0
    26dc:	01000017 	tsteq	r0, r7, lsl r0
    26e0:	00004cb7 			; <UNDEFINED> instruction: 0x00004cb7
    26e4:	310c0000 	mrscc	r0, (UNDEF: 12)
    26e8:	98000001 	stmdals	r0, {r0}
    26ec:	ccf0000e 	ldclgt	0, cr0, [r0], #56	; 0x38
    26f0:	02f0000e 	rscseq	r0, r0, #14
    26f4:	01b7007d 			; <UNDEFINED> instruction: 0x01b7007d
    26f8:	3f0d0000 	svccc	0x000d0000
    26fc:	23000001 	movwcs	r0, #1
    2700:	0e000009 	cdpeq	0, 0, cr0, cr0, cr9, {0}
    2704:	0000014a 	andeq	r0, r0, sl, asr #2
    2708:	550f5101 	strpl	r5, [pc, #-257]	; 260f <__standby_start+0x260f>
    270c:	36000001 	strcc	r0, [r0], -r1
    2710:	00000009 	andeq	r0, r0, r9
    2714:	17eb0110 			; <UNDEFINED> instruction: 0x17eb0110
    2718:	2c010000 	stccs	0, cr0, [r1], {-0}
    271c:	000ecc01 	andeq	ip, lr, r1, lsl #24
    2720:	000ee8f0 	strdeq	lr, [lr], -r0
    2724:	007d02f0 	ldrshteq	r0, [sp], #-32	; 0xffffffe0
    2728:	17610110 			; <UNDEFINED> instruction: 0x17610110
    272c:	36010000 	strcc	r0, [r1], -r0
    2730:	000ee801 	andeq	lr, lr, r1, lsl #16
    2734:	000f0cf0 	strdeq	r0, [pc], -r0	; <UNPREDICTABLE>
    2738:	007d02f0 	ldrshteq	r0, [sp], #-32	; 0xffffffe0
    273c:	0001130c 	andeq	r1, r1, ip, lsl #6
    2740:	000f0c00 	andeq	r0, pc, r0, lsl #24
    2744:	000f14f0 	strdeq	r1, [pc], -r0
    2748:	007d02f0 	ldrshteq	r0, [sp], #-32	; 0xffffffe0
    274c:	000001fb 	strdeq	r0, [r0], -fp
    2750:	00012511 	andeq	r2, r1, r1, lsl r5
    2754:	00500100 	subseq	r0, r0, r0, lsl #2
    2758:	17a80112 			; <UNDEFINED> instruction: 0x17a80112
    275c:	49010000 	stmdbmi	r1, {}	; <UNPREDICTABLE>
    2760:	000f1401 	andeq	r1, pc, r1, lsl #8
    2764:	000f24f0 	strdeq	r2, [pc], -r0
    2768:	007d02f0 	ldrshteq	r0, [sp], #-32	; 0xffffffe0
    276c:	00000223 	andeq	r0, r0, r3, lsr #4
    2770:	00028413 	andeq	r8, r2, r3, lsl r4
    2774:	534b0100 	movtpl	r0, #45312	; 0xb100
    2778:	7f000000 	svcvc	0x00000000
    277c:	00000009 	andeq	r0, r0, r9
    2780:	171d0114 			; <UNDEFINED> instruction: 0x171d0114
    2784:	54010000 	strpl	r0, [r1], #-0
    2788:	000f2401 	andeq	r2, pc, r1, lsl #8
    278c:	000f58f0 	strdeq	r5, [pc], -r0
    2790:	0009adf0 	strdeq	sl, [r9], -r0
    2794:	0002a500 	andeq	sl, r2, r0, lsl #10
    2798:	07e01300 	strbeq	r1, [r0, r0, lsl #6]!
    279c:	56010000 	strpl	r0, [r1], -r0
    27a0:	00000053 	andeq	r0, r0, r3, asr r0
    27a4:	000009cd 	andeq	r0, r0, sp, asr #19
    27a8:	646e6515 	strbtvs	r6, [lr], #-1301	; 0x515
    27ac:	53570100 	cmppl	r7, #0
    27b0:	e1000000 	mrs	r0, (UNDEF: 0)
    27b4:	16000009 	strne	r0, [r0], -r9
    27b8:	00000113 	andeq	r0, r0, r3, lsl r1
    27bc:	f0000f28 			; <UNDEFINED> instruction: 0xf0000f28
    27c0:	f0000f2c 			; <UNDEFINED> instruction: 0xf0000f2c
    27c4:	02815c01 	addeq	r5, r1, #256	; 0x100
    27c8:	28170000 	ldmdacs	r7, {}	; <UNPREDICTABLE>
    27cc:	2cf0000f 	ldclcs	0, cr0, [r0], #60	; 0x3c
    27d0:	0ff0000f 	svceq	0x00f0000f
    27d4:	00000125 	andeq	r0, r0, r5, lsr #2
    27d8:	000009f5 	strdeq	r0, [r0], -r5
    27dc:	13180000 	tstne	r8, #0
    27e0:	2c000001 	stccs	0, cr0, [r0], {1}
    27e4:	30f0000f 	rscscc	r0, r0, pc
    27e8:	01f0000f 	mvnseq	r0, pc
    27ec:	0f2c175d 	svceq	0x002c175d
    27f0:	0f30f000 	svceq	0x0030f000
    27f4:	250ff000 	strcs	pc, [pc, #-0]	; 27fc <__standby_start+0x27fc>
    27f8:	08000001 	stmdaeq	r0, {r0}
    27fc:	0000000a 	andeq	r0, r0, sl
    2800:	01140000 	tsteq	r4, r0
    2804:	00001775 	andeq	r1, r0, r5, ror r7
    2808:	58016601 	stmdapl	r1, {r0, r9, sl, sp, lr}
    280c:	e0f0000f 	rscs	r0, r0, pc
    2810:	1bf0000f 	blne	ffc02854 <__bss_end+0xfbfeaa8>
    2814:	9500000a 	strls	r0, [r0, #-10]
    2818:	19000003 	stmdbne	r0, {r0, r1}
    281c:	01007375 	tsteq	r0, r5, ror r3
    2820:	00005366 	andeq	r5, r0, r6, ror #6
    2824:	000a3b00 	andeq	r3, sl, r0, lsl #22
    2828:	17db1300 	ldrbne	r1, [fp, r0, lsl #6]
    282c:	68010000 	stmdavs	r1, {}	; <UNPREDICTABLE>
    2830:	00000053 	andeq	r0, r0, r3, asr r0
    2834:	00000a64 	andeq	r0, r0, r4, ror #20
    2838:	72756315 	rsbsvc	r6, r5, #1409286144	; 0x54000000
    283c:	53690100 	cmnpl	r9, #0
    2840:	94000000 	strls	r0, [r0], #-0
    2844:	1300000a 	movwne	r0, #10
    2848:	00001716 	andeq	r1, r0, r6, lsl r7
    284c:	00536a01 	subseq	r6, r3, r1, lsl #20
    2850:	0aca0000 	beq	ff282858 <__bss_end+0xf27eaac>
    2854:	fe130000 	cdp2	0, 1, cr0, cr3, cr0, {0}
    2858:	01000016 	tsteq	r0, r6, lsl r0
    285c:	0000536b 	andeq	r5, r0, fp, ror #6
    2860:	000af500 	andeq	pc, sl, r0, lsl #10
    2864:	756f1a00 	strbvc	r1, [pc, #-2560]!	; 1e6c <__standby_start+0x1e6c>
    2868:	9f010074 	svcls	0x00010074
    286c:	f0000f70 			; <UNDEFINED> instruction: 0xf0000f70
    2870:	00011316 	andeq	r1, r1, r6, lsl r3
    2874:	000f8400 	andeq	r8, pc, r0, lsl #8
    2878:	000f88f0 	strdeq	r8, [pc], -r0
    287c:	387601f0 	ldmdacc	r6!, {r4, r5, r6, r7, r8}^
    2880:	17000003 	strne	r0, [r0, -r3]
    2884:	f0000f84 			; <UNDEFINED> instruction: 0xf0000f84
    2888:	f0000f88 			; <UNDEFINED> instruction: 0xf0000f88
    288c:	00012511 	andeq	r2, r1, r1, lsl r5
    2890:	00530100 	subseq	r0, r3, r0, lsl #2
    2894:	01311600 	teqeq	r1, r0, lsl #12
    2898:	0fa80000 	svceq	0x00a80000
    289c:	0fc8f000 	svceq	0x00c8f000
    28a0:	7c01f000 	stcvc	0, cr15, [r1], {-0}
    28a4:	00000371 	andeq	r0, r0, r1, ror r3
    28a8:	00014a0d 	andeq	r4, r1, sp, lsl #20
    28ac:	000b2000 	andeq	r2, fp, r0
    28b0:	013f0d00 	teqeq	pc, r0, lsl #26
    28b4:	0b340000 	bleq	d028bc <__standby_start+0xd028bc>
    28b8:	a8170000 	ldmdage	r7, {}	; <UNPREDICTABLE>
    28bc:	c8f0000f 	ldmgt	r0!, {r0, r1, r2, r3}^
    28c0:	0ff0000f 	svceq	0x00f0000f
    28c4:	00000155 	andeq	r0, r0, r5, asr r1
    28c8:	00000b48 	andeq	r0, r0, r8, asr #22
    28cc:	13180000 	tstne	r8, #0
    28d0:	c8000001 	stmdagt	r0, {r0}
    28d4:	ccf0000f 	ldclgt	0, cr0, [r0], #60	; 0x3c
    28d8:	01f0000f 	mvnseq	r0, pc
    28dc:	0fc81780 	svceq	0x00c81780
    28e0:	0fccf000 	svceq	0x00ccf000
    28e4:	250ff000 	strcs	pc, [pc, #-0]	; 28ec <__standby_start+0x28ec>
    28e8:	6c000001 	stcvs	0, cr0, [r0], {1}
    28ec:	0000000b 	andeq	r0, r0, fp
    28f0:	01140000 	tsteq	r4, r0
    28f4:	0000170d 	andeq	r1, r0, sp, lsl #14
    28f8:	e001a901 	and	sl, r1, r1, lsl #18
    28fc:	14f0000f 	ldrbtne	r0, [r0], #15
    2900:	7ff00010 	svcvc	0x00f00010
    2904:	bd00000b 	stclt	0, cr0, [r0, #-44]	; 0xffffffd4
    2908:	19000003 	stmdbne	r0, {r0, r1}
    290c:	0100736d 	tsteq	r0, sp, ror #6
    2910:	000053a9 	andeq	r5, r0, r9, lsr #7
    2914:	000b9f00 	andeq	r9, fp, r0, lsl #30
    2918:	01120000 	tsteq	r2, r0
    291c:	00001858 	andeq	r1, r0, r8, asr r8
    2920:	1401cf01 	strne	ip, [r1], #-3841	; 0xf01
    2924:	40f00010 	rscsmi	r0, r0, r0, lsl r0
    2928:	02f00010 	rscseq	r0, r0, #16
    292c:	0401007d 	streq	r0, [r1], #-125	; 0x7d
    2930:	e21b0000 	ands	r0, fp, #0
    2934:	01000017 	tsteq	r0, r7, lsl r0
    2938:	000053cf 	andeq	r5, r0, pc, asr #7
    293c:	000bd500 	andeq	sp, fp, r0, lsl #10
    2940:	17991c00 	ldrne	r1, [r9, r0, lsl #24]
    2944:	cf010000 	svcgt	0x00010000
    2948:	00000053 	andeq	r0, r0, r3, asr r0
    294c:	84135101 	ldrhi	r5, [r3], #-257	; 0x101
    2950:	01000002 	tsteq	r0, r2
    2954:	000053d2 	ldrdeq	r5, [r0], -r2
    2958:	000be800 	andeq	lr, fp, r0, lsl #16
    295c:	01120000 	tsteq	r2, r0
    2960:	00001846 	andeq	r1, r0, r6, asr #16
    2964:	4001ed01 	andmi	lr, r1, r1, lsl #26
    2968:	6cf00010 	ldclvs	0, cr0, [r0], #64	; 0x40
    296c:	02f00010 	rscseq	r0, r0, #16
    2970:	044d007d 	strbeq	r0, [sp], #-125	; 0x7d
    2974:	261c0000 	ldrcs	r0, [ip], -r0
    2978:	01000013 	tsteq	r0, r3, lsl r0
    297c:	000073ed 	andeq	r7, r0, sp, ror #7
    2980:	13500100 	cmpne	r0, #0
    2984:	000017b6 			; <UNDEFINED> instruction: 0x000017b6
    2988:	0053f001 	subseq	pc, r3, r1
    298c:	0c310000 	ldceq	0, cr0, [r1], #-0
    2990:	61180000 	tstvs	r8, r0
    2994:	40000001 	andmi	r0, r0, r1
    2998:	54f00010 	ldrbtpl	r0, [r0], #16
    299c:	01f00010 	mvnseq	r0, r0, lsl r0
    29a0:	01720ef1 	ldrsheq	r0, [r2, #-225]!	; 0xffffff1f
    29a4:	50010000 	andpl	r0, r1, r0
    29a8:	011d0000 	tsteq	sp, r0
    29ac:	00001787 	andeq	r1, r0, r7, lsl #15
    29b0:	01010001 	tsteq	r1, r1
    29b4:	0000004c 	andeq	r0, r0, ip, asr #32
    29b8:	f000106c 			; <UNDEFINED> instruction: 0xf000106c
    29bc:	f0001098 			; <UNDEFINED> instruction: 0xf0001098
    29c0:	b5007d02 	strlt	r7, [r0, #-3330]	; 0xd02
    29c4:	1e000004 	cdpne	0, 0, cr0, cr0, cr4, {0}
    29c8:	00001326 	andeq	r1, r0, r6, lsr #6
    29cc:	73010001 	movwvc	r0, #4097	; 0x1001
    29d0:	45000000 	strmi	r0, [r0, #-0]
    29d4:	1f00000c 	svcne	0x0000000c
    29d8:	000017b6 			; <UNDEFINED> instruction: 0x000017b6
    29dc:	4c010201 	sfmmi	f0, 4, [r1], {1}
    29e0:	65000000 	strvs	r0, [r0, #-0]
    29e4:	1f00000c 	svcne	0x0000000c
    29e8:	000017fe 	strdeq	r1, [r0], -lr
    29ec:	4c010301 	stcmi	3, cr0, [r1], {1}
    29f0:	84000000 	strhi	r0, [r0], #-0
    29f4:	2000000c 	andcs	r0, r0, ip
    29f8:	00000161 	andeq	r0, r0, r1, ror #2
    29fc:	f000106c 			; <UNDEFINED> instruction: 0xf000106c
    2a00:	f0001080 			; <UNDEFINED> instruction: 0xf0001080
    2a04:	0d010401 	cfstrseq	mvf0, [r1, #-4]
    2a08:	00000172 	andeq	r0, r0, r2, ror r1
    2a0c:	00000c45 	andeq	r0, r0, r5, asr #24
    2a10:	dc210000 	stcle	0, cr0, [r1], #-0
    2a14:	01000020 	tsteq	r0, r0, lsr #32
    2a18:	00005305 	andeq	r5, r0, r5, lsl #6
    2a1c:	58030500 	stmdapl	r3, {r8, sl}
    2a20:	21f0003a 	mvnscs	r0, sl, lsr r0
    2a24:	0000177e 	andeq	r1, r0, lr, ror r7
    2a28:	00530601 	subseq	r0, r3, r1, lsl #12
    2a2c:	03050000 	movweq	r0, #20480	; 0x5000
    2a30:	f0003a54 			; <UNDEFINED> instruction: 0xf0003a54
    2a34:	00180821 	andseq	r0, r8, r1, lsr #16
    2a38:	53070100 	movwpl	r0, #28928	; 0x7100
    2a3c:	05000000 	streq	r0, [r0, #-0]
    2a40:	003a4c03 	eorseq	r4, sl, r3, lsl #24
    2a44:	17bc21f0 			; <UNDEFINED> instruction: 0x17bc21f0
    2a48:	08010000 	stmdaeq	r1, {}	; <UNPREDICTABLE>
    2a4c:	00000053 	andeq	r0, r0, r3, asr r0
    2a50:	3a500305 	bcc	140366c <__standby_start+0x140366c>
    2a54:	4b00f000 	blmi	3ea5c <__standby_start+0x3ea5c>
    2a58:	02000001 	andeq	r0, r0, #1
    2a5c:	000c5500 	andeq	r5, ip, r0, lsl #10
    2a60:	f4010400 	vst3.8	{d0-d2}, [r1], r0
    2a64:	01000003 	tsteq	r0, r3
    2a68:	000018c7 	andeq	r1, r0, r7, asr #17
    2a6c:	00000482 	andeq	r0, r0, r2, lsl #9
    2a70:	f00010a0 			; <UNDEFINED> instruction: 0xf00010a0
    2a74:	f0001140 			; <UNDEFINED> instruction: 0xf0001140
    2a78:	00000a66 	andeq	r0, r0, r6, ror #20
    2a7c:	45070402 	strmi	r0, [r7, #-1026]	; 0x402
    2a80:	02000002 	andeq	r0, r0, #2
    2a84:	07940801 	ldreq	r0, [r4, r1, lsl #16]
    2a88:	02020000 	andeq	r0, r2, #0
    2a8c:	00084d07 	andeq	r4, r8, r7, lsl #26
    2a90:	05040300 	streq	r0, [r4, #-768]	; 0x300
    2a94:	00746e69 	rsbseq	r6, r4, r9, ror #28
    2a98:	40070402 	andmi	r0, r7, r2, lsl #8
    2a9c:	02000002 	andeq	r0, r0, #2
    2aa0:	078b0801 	streq	r0, [fp, r1, lsl #16]
    2aa4:	01020000 	mrseq	r0, (UNDEF: 2)
    2aa8:	00078d06 	andeq	r8, r7, r6, lsl #26
    2aac:	05020200 	streq	r0, [r2, #-512]	; 0x200
    2ab0:	00000641 	andeq	r0, r0, r1, asr #12
    2ab4:	00043a04 	andeq	r3, r4, r4, lsl #20
    2ab8:	25130300 	ldrcs	r0, [r3, #-768]	; 0x300
    2abc:	02000000 	andeq	r0, r0, #0
    2ac0:	04740508 	ldrbteq	r0, [r4], #-1288	; 0x508
    2ac4:	08020000 	stmdaeq	r2, {}	; <UNPREDICTABLE>
    2ac8:	00023b07 	andeq	r3, r2, r7, lsl #22
    2acc:	188a0500 	stmne	sl, {r8, sl}
    2ad0:	02240000 	eoreq	r0, r4, #0
    2ad4:	0001004c 	andeq	r0, r1, ip, asr #32
    2ad8:	19020600 	stmdbne	r2, {r9, sl}
    2adc:	4e020000 	cdpmi	0, 0, cr0, cr2, cr0, {0}
    2ae0:	0000005d 	andeq	r0, r0, sp, asr r0
    2ae4:	07002302 	streq	r2, [r0, -r2, lsl #6]
    2ae8:	02007263 	andeq	r7, r0, #805306374	; 0x30000006
    2aec:	00005d50 	andeq	r5, r0, r0, asr sp
    2af0:	04230200 	strteq	r0, [r3], #-512	; 0x200
    2af4:	0018fd06 	andseq	pc, r8, r6, lsl #26
    2af8:	5d510200 	lfmpl	f0, 2, [r1, #-0]
    2afc:	02000000 	andeq	r0, r0, #0
    2b00:	07060823 	streq	r0, [r6, -r3, lsr #16]
    2b04:	02000019 	andeq	r0, r0, #25
    2b08:	00005d53 	andeq	r5, r0, r3, asr sp
    2b0c:	0c230200 	sfmeq	f0, 4, [r3], #-0
    2b10:	00189f06 	andseq	r9, r8, r6, lsl #30
    2b14:	5d540200 	lfmpl	f0, 2, [r4, #-0]
    2b18:	02000000 	andeq	r0, r0, #0
    2b1c:	99061023 	stmdbls	r6, {r0, r1, r5, ip}
    2b20:	02000018 	andeq	r0, r0, #24
    2b24:	00005d55 	andeq	r5, r0, r5, asr sp
    2b28:	14230200 	strtne	r0, [r3], #-512	; 0x200
    2b2c:	00189406 	andseq	r9, r8, r6, lsl #8
    2b30:	5d580200 	lfmpl	f0, 2, [r8, #-0]
    2b34:	02000000 	andeq	r0, r0, #0
    2b38:	f8061823 			; <UNDEFINED> instruction: 0xf8061823
    2b3c:	02000018 	andeq	r0, r0, #24
    2b40:	00005d5b 	andeq	r5, r0, fp, asr sp
    2b44:	1c230200 	sfmne	f0, 4, [r3], #-0
    2b48:	00187f06 	andseq	r7, r8, r6, lsl #30
    2b4c:	5d5c0200 	lfmpl	f0, 2, [ip, #-0]
    2b50:	02000000 	andeq	r0, r0, #0
    2b54:	08002023 	stmdaeq	r0, {r0, r1, r5, sp}
    2b58:	0018b801 	andseq	fp, r8, r1, lsl #16
    2b5c:	01070100 	mrseq	r0, (UNDEF: 23)
    2b60:	f00010a0 			; <UNDEFINED> instruction: 0xf00010a0
    2b64:	f00010dc 			; <UNDEFINED> instruction: 0xf00010dc
    2b68:	26007d02 	strcs	r7, [r0], -r2, lsl #26
    2b6c:	09000001 	stmdbeq	r0, {r0}
    2b70:	00001884 	andeq	r1, r0, r4, lsl #17
    2b74:	01260701 	teqeq	r6, r1, lsl #14
    2b78:	50010000 	andpl	r0, r1, r0
    2b7c:	76040a00 	strvc	r0, [r4], -r0, lsl #20
    2b80:	0b000000 	bleq	2b88 <__standby_start+0x2b88>
    2b84:	0018a601 	andseq	sl, r8, r1, lsl #12
    2b88:	011e0100 	tsteq	lr, r0, lsl #2
    2b8c:	f00010dc 			; <UNDEFINED> instruction: 0xf00010dc
    2b90:	f0001140 			; <UNDEFINED> instruction: 0xf0001140
    2b94:	09007d02 	stmdbeq	r0, {r1, r8, sl, fp, ip, sp, lr}
    2b98:	00001884 	andeq	r1, r0, r4, lsl #17
    2b9c:	01261e01 	teqeq	r6, r1, lsl #28
    2ba0:	50010000 	andpl	r0, r1, r0
    2ba4:	007d0000 	rsbseq	r0, sp, r0
    2ba8:	00020000 	andeq	r0, r2, r0
    2bac:	00000cfd 	strdeq	r0, [r0], -sp
    2bb0:	0b1a0104 	bleq	682fc8 <__standby_start+0x682fc8>
    2bb4:	11400000 	mrsne	r0, (UNDEF: 64)
    2bb8:	168cf000 	strne	pc, [ip], r0
    2bbc:	7261f000 	rsbvc	pc, r1, #0
    2bc0:	612f6863 	teqvs	pc, r3, ror #16
    2bc4:	6d2f6d72 	stcvs	13, cr6, [pc, #-456]!	; 2a04 <__standby_start+0x2a04>
    2bc8:	2d686361 	stclcs	3, cr6, [r8, #-388]!	; 0xfffffe7c
    2bcc:	786e7573 	stmdavc	lr!, {r0, r1, r4, r5, r6, r8, sl, ip, sp, lr}^
    2bd0:	6d702f69 	ldclvs	15, cr2, [r0, #-420]!	; 0xfffffe5c
    2bd4:	6174732f 	cmnvs	r4, pc, lsr #6
    2bd8:	7962646e 	stmdbvc	r2!, {r1, r2, r3, r5, r6, sl, sp, lr}^
    2bdc:	2e2f2e2f 	cdpcs	14, 2, cr2, cr15, cr15, {1}
    2be0:	656d2f2e 	strbvs	r2, [sp, #-3886]!	; 0xf2e
    2be4:	6d6d5f6d 	stclvs	15, cr5, [sp, #-436]!	; 0xfffffe4c
    2be8:	63705f75 	cmnvs	r0, #468	; 0x1d4
    2bec:	6d73615f 	ldfvse	f6, [r3, #-380]!	; 0xfffffe84
    2bf0:	2f00532e 	svccs	0x0000532e
    2bf4:	656d6f68 	strbvs	r6, [sp, #-3944]!	; 0xf68
    2bf8:	6d6f742f 	cfstrdvs	mvd7, [pc, #-188]!	; 2b44 <__standby_start+0x2b44>
    2bfc:	7362742f 	cmnvc	r2, #788529152	; 0x2f000000
    2c00:	6261745f 	rsbvs	r7, r1, #1593835520	; 0x5f000000
    2c04:	2f74656c 	svccs	0x0074656c
    2c08:	6863696c 	stmdavs	r3!, {r2, r3, r5, r6, r8, fp, sp, lr}^
    2c0c:	6c2f6565 	cfstr32vs	mvfx6, [pc], #-404	; 2a80 <__standby_start+0x2a80>
    2c10:	78756e69 	ldmdavc	r5!, {r0, r3, r5, r6, r9, sl, fp, sp, lr}^
    2c14:	342e332d 	strtcc	r3, [lr], #-813	; 0x32d
    2c18:	554e4700 	strbpl	r4, [lr, #-1792]	; 0x700
    2c1c:	20534120 	subscs	r4, r3, r0, lsr #2
    2c20:	32322e32 	eorscc	r2, r2, #800	; 0x320
    2c24:	b9800100 	stmiblt	r0, {r8}
    2c28:	02000011 	andeq	r0, r0, #17
    2c2c:	000d1100 	andeq	r1, sp, r0, lsl #2
    2c30:	f4010400 	vst3.8	{d0-d2}, [r1], r0
    2c34:	01000003 	tsteq	r0, r3
    2c38:	00001a72 	andeq	r1, r0, r2, ror sl
    2c3c:	00000482 	andeq	r0, r0, r2, lsl #9
    2c40:	f00016a0 			; <UNDEFINED> instruction: 0xf00016a0
    2c44:	f0001be4 			; <UNDEFINED> instruction: 0xf0001be4
    2c48:	00000ccf 	andeq	r0, r0, pc, asr #25
    2c4c:	8d060102 	stfhis	f0, [r6, #-8]
    2c50:	02000007 	andeq	r0, r0, #7
    2c54:	078b0801 	streq	r0, [fp, r1, lsl #16]
    2c58:	02020000 	andeq	r0, r2, #0
    2c5c:	00064105 	andeq	r4, r6, r5, lsl #2
    2c60:	07020200 	streq	r0, [r2, -r0, lsl #4]
    2c64:	0000084d 	andeq	r0, r0, sp, asr #16
    2c68:	000e1c03 	andeq	r1, lr, r3, lsl #24
    2c6c:	4c120200 	lfmmi	f0, 4, [r2], {-0}
    2c70:	04000000 	streq	r0, [r0], #-0
    2c74:	6e690504 	cdpvs	5, 6, cr0, cr9, cr4, {0}
    2c78:	3a030074 	bcc	c2e50 <__standby_start+0xc2e50>
    2c7c:	02000004 	andeq	r0, r0, #4
    2c80:	00005e13 	andeq	r5, r0, r3, lsl lr
    2c84:	07040200 	streq	r0, [r4, -r0, lsl #4]
    2c88:	00000245 	andeq	r0, r0, r5, asr #4
    2c8c:	74050802 	strvc	r0, [r5], #-2050	; 0x802
    2c90:	02000004 	andeq	r0, r0, #4
    2c94:	023b0708 	eorseq	r0, fp, #2097152	; 0x200000
    2c98:	04050000 	streq	r0, [r5], #-0
    2c9c:	01041a03 	tsteq	r4, r3, lsl #20
    2ca0:	c4060000 	strgt	r0, [r6], #-0
    2ca4:	0300000a 	movweq	r0, #10
    2ca8:	0000531c 	andeq	r5, r0, ip, lsl r3
    2cac:	1e020400 	cfcpysne	mvf0, mvf2
    2cb0:	06002302 	streq	r2, [r0], -r2, lsl #6
    2cb4:	00000ea7 	andeq	r0, r0, r7, lsr #29
    2cb8:	00531d03 	subseq	r1, r3, r3, lsl #26
    2cbc:	06040000 	streq	r0, [r4], -r0
    2cc0:	00230218 	eoreq	r0, r3, r8, lsl r2
    2cc4:	000acc06 	andeq	ip, sl, r6, lsl #24
    2cc8:	531e0300 	tstpl	lr, #0
    2ccc:	04000000 	streq	r0, [r0], #-0
    2cd0:	23021008 	movwcs	r1, #8200	; 0x2008
    2cd4:	0adc0600 	beq	ff7044dc <__bss_end+0xf700730>
    2cd8:	1f030000 	svcne	0x00030000
    2cdc:	00000053 	andeq	r0, r0, r3, asr r0
    2ce0:	020f0104 	andeq	r0, pc, #1
    2ce4:	c5060023 	strgt	r0, [r6, #-35]	; 0x23
    2ce8:	0300000e 	movweq	r0, #14
    2cec:	00005320 	andeq	r5, r0, r0, lsr #6
    2cf0:	08070400 	stmdaeq	r7, {sl}
    2cf4:	06002302 	streq	r2, [r0], -r2, lsl #6
    2cf8:	00000be0 	andeq	r0, r0, r0, ror #23
    2cfc:	00532103 	subseq	r2, r3, r3, lsl #2
    2d00:	03040000 	movweq	r0, #16384	; 0x4000
    2d04:	00230205 	eoreq	r0, r3, r5, lsl #4
    2d08:	000ecf06 	andeq	ip, lr, r6, lsl #30
    2d0c:	53220300 	teqpl	r2, #0
    2d10:	04000000 	streq	r0, [r0], #-0
    2d14:	23020104 	movwcs	r0, #8452	; 0x2104
    2d18:	0e710600 	cdpeq	6, 7, cr0, cr1, cr0, {0}
    2d1c:	23030000 	movwcs	r0, #12288	; 0x3000
    2d20:	00000053 	andeq	r0, r0, r3, asr r0
    2d24:	02000104 	andeq	r0, r0, #1
    2d28:	07000023 	streq	r0, [r0, -r3, lsr #32]
    2d2c:	23180304 	tstcs	r8, #268435456	; 0x10000000
    2d30:	08000001 	stmdaeq	r0, {r0}
    2d34:	000009a7 	andeq	r0, r0, r7, lsr #19
    2d38:	00531903 	subseq	r1, r3, r3, lsl #18
    2d3c:	53080000 	movwpl	r0, #32768	; 0x8000
    2d40:	03000013 	movweq	r0, #19
    2d44:	00007325 	andeq	r7, r0, r5, lsr #6
    2d48:	77030000 	strvc	r0, [r3, -r0]
    2d4c:	0300000e 	movweq	r0, #14
    2d50:	00010426 	andeq	r0, r1, r6, lsr #8
    2d54:	03040500 	movweq	r0, #17664	; 0x4500
    2d58:	0001bf3e 	andeq	fp, r1, lr, lsr pc
    2d5c:	10420600 	subne	r0, r2, r0, lsl #12
    2d60:	40030000 	andmi	r0, r3, r0
    2d64:	00000053 	andeq	r0, r0, r3, asr r0
    2d68:	021e0204 	andseq	r0, lr, #1073741824	; 0x40000000
    2d6c:	a7060023 	strge	r0, [r6, -r3, lsr #32]
    2d70:	0300000e 	movweq	r0, #14
    2d74:	00005341 	andeq	r5, r0, r1, asr #6
    2d78:	140a0400 	strne	r0, [sl], #-1024	; 0x400
    2d7c:	06002302 	streq	r2, [r0], -r2, lsl #6
    2d80:	00000b94 	muleq	r0, r4, fp
    2d84:	00534203 	subseq	r4, r3, r3, lsl #4
    2d88:	01040000 	mrseq	r0, (UNDEF: 4)
    2d8c:	00230213 	eoreq	r0, r3, r3, lsl r2
    2d90:	000eb106 	andeq	fp, lr, r6, lsl #2
    2d94:	53430300 	movtpl	r0, #13056	; 0x3300
    2d98:	04000000 	streq	r0, [r0], #-0
    2d9c:	23021003 	movwcs	r1, #8195	; 0x2003
    2da0:	0cbe0600 	ldceq	6, cr0, [lr]
    2da4:	44030000 	strmi	r0, [r3], #-0
    2da8:	00000053 	andeq	r0, r0, r3, asr r0
    2dac:	020e0204 	andeq	r0, lr, #1073741824	; 0x40000000
    2db0:	bb060023 	bllt	182e44 <__standby_start+0x182e44>
    2db4:	0300000e 	movweq	r0, #14
    2db8:	00005345 	andeq	r5, r0, r5, asr #6
    2dbc:	040a0400 	streq	r0, [sl], #-1024	; 0x400
    2dc0:	06002302 	streq	r2, [r0], -r2, lsl #6
    2dc4:	00000b2b 	andeq	r0, r0, fp, lsr #22
    2dc8:	00534603 	subseq	r4, r3, r3, lsl #12
    2dcc:	01040000 	mrseq	r0, (UNDEF: 4)
    2dd0:	00230203 	eoreq	r0, r3, r3, lsl #4
    2dd4:	000ec506 	andeq	ip, lr, r6, lsl #10
    2dd8:	53470300 	movtpl	r0, #29440	; 0x7300
    2ddc:	04000000 	streq	r0, [r0], #-0
    2de0:	23020003 	movwcs	r0, #8195	; 0x2003
    2de4:	04070000 	streq	r0, [r7], #-0
    2de8:	01de3c03 	bicseq	r3, lr, r3, lsl #24
    2dec:	a7080000 	strge	r0, [r8, -r0]
    2df0:	03000009 	movweq	r0, #9
    2df4:	0000533d 	andeq	r5, r0, sp, lsr r3
    2df8:	13530800 	cmpne	r3, #0
    2dfc:	48030000 	stmdami	r3, {}	; <UNPREDICTABLE>
    2e00:	0000012e 	andeq	r0, r0, lr, lsr #2
    2e04:	0a330300 	beq	cc3a0c <__standby_start+0xcc3a0c>
    2e08:	49030000 	stmdbmi	r3, {}	; <UNPREDICTABLE>
    2e0c:	000001bf 			; <UNDEFINED> instruction: 0x000001bf
    2e10:	00093409 	andeq	r3, r9, r9, lsl #8
    2e14:	4f030400 	svcmi	0x00030400
    2e18:	0000026d 	andeq	r0, r0, sp, ror #4
    2e1c:	000ea706 	andeq	sl, lr, r6, lsl #14
    2e20:	53510300 	cmppl	r1, #0
    2e24:	04000000 	streq	r0, [r0], #-0
    2e28:	23021c04 	movwcs	r1, #11268	; 0x2c04
    2e2c:	0d1b0600 	ldceq	6, cr0, [fp, #-0]
    2e30:	52030000 	andpl	r0, r3, #0
    2e34:	00000053 	andeq	r0, r0, r3, asr r0
    2e38:	021a0204 	andseq	r0, sl, #1073741824	; 0x40000000
    2e3c:	84060023 	strhi	r0, [r6], #-35	; 0x23
    2e40:	0300000c 	movweq	r0, #12
    2e44:	00005353 	andeq	r5, r0, r3, asr r3
    2e48:	18020400 	stmdane	r2, {sl}
    2e4c:	06002302 	streq	r2, [r0], -r2, lsl #6
    2e50:	00000e14 	andeq	r0, r0, r4, lsl lr
    2e54:	00535403 	subseq	r5, r3, r3, lsl #8
    2e58:	02040000 	andeq	r0, r4, #0
    2e5c:	00230216 	eoreq	r0, r3, r6, lsl r2
    2e60:	000eb106 	andeq	fp, lr, r6, lsl #2
    2e64:	53550300 	cmppl	r5, #0
    2e68:	04000000 	streq	r0, [r0], #-0
    2e6c:	23021402 	movwcs	r1, #9218	; 0x2402
    2e70:	0df60600 	ldcleq	6, cr0, [r6]
    2e74:	56030000 	strpl	r0, [r3], -r0
    2e78:	00000053 	andeq	r0, r0, r3, asr r0
    2e7c:	02120204 	andseq	r0, r2, #1073741824	; 0x40000000
    2e80:	bb060023 	bllt	182f14 <__standby_start+0x182f14>
    2e84:	0300000e 	movweq	r0, #14
    2e88:	00005357 	andeq	r5, r0, r7, asr r3
    2e8c:	00120400 	andseq	r0, r2, r0, lsl #8
    2e90:	00002302 	andeq	r2, r0, r2, lsl #6
    2e94:	000fcd03 	andeq	ip, pc, r3, lsl #26
    2e98:	e9580300 	ldmdb	r8, {r8, r9}^
    2e9c:	05000001 	streq	r0, [r0, #-1]
    2ea0:	e75f0304 	ldrb	r0, [pc, -r4, lsl #6]
    2ea4:	06000002 	streq	r0, [r0], -r2
    2ea8:	00000b4c 	andeq	r0, r0, ip, asr #22
    2eac:	00536103 	subseq	r6, r3, r3, lsl #2
    2eb0:	05040000 	streq	r0, [r4, #-0]
    2eb4:	0023021b 	eoreq	r0, r3, fp, lsl r2
    2eb8:	00103906 	andseq	r3, r0, r6, lsl #18
    2ebc:	53620300 	cmnpl	r2, #0
    2ec0:	04000000 	streq	r0, [r0], #-0
    2ec4:	2302100b 	movwcs	r1, #8203	; 0x200b
    2ec8:	0b510600 	bleq	14446d0 <__standby_start+0x14446d0>
    2ecc:	63030000 	movwvs	r0, #12288	; 0x3000
    2ed0:	00000053 	andeq	r0, r0, r3, asr r0
    2ed4:	020e0204 	andeq	r0, lr, #1073741824	; 0x40000000
    2ed8:	b1060023 	tstlt	r6, r3, lsr #32
    2edc:	0300000e 	movweq	r0, #14
    2ee0:	00005364 	andeq	r5, r0, r4, ror #6
    2ee4:	08060400 	stmdaeq	r6, {sl}
    2ee8:	06002302 	streq	r2, [r0], -r2, lsl #6
    2eec:	00000b2d 	andeq	r0, r0, sp, lsr #22
    2ef0:	00536503 	subseq	r6, r3, r3, lsl #10
    2ef4:	02040000 	andeq	r0, r4, #0
    2ef8:	00230206 	eoreq	r0, r3, r6, lsl #4
    2efc:	000ebb06 	andeq	fp, lr, r6, lsl #22
    2f00:	53660300 	cmnpl	r6, #0
    2f04:	04000000 	streq	r0, [r0], #-0
    2f08:	23020006 	movwcs	r0, #8198	; 0x2006
    2f0c:	04070000 	streq	r0, [r7], #-0
    2f10:	03065d03 	movweq	r5, #27907	; 0x6d03
    2f14:	a7080000 	strge	r0, [r8, -r0]
    2f18:	03000009 	movweq	r0, #9
    2f1c:	0000535e 	andeq	r5, r0, lr, asr r3
    2f20:	13530800 	cmpne	r3, #0
    2f24:	67030000 	strvs	r0, [r3, -r0]
    2f28:	00000278 	andeq	r0, r0, r8, ror r2
    2f2c:	0d550300 	ldcleq	3, cr0, [r5, #-0]
    2f30:	68030000 	stmdavs	r3, {}	; <UNPREDICTABLE>
    2f34:	000002e7 	andeq	r0, r0, r7, ror #5
    2f38:	000c2b09 	andeq	r2, ip, r9, lsl #22
    2f3c:	6a030400 	bvs	c3f44 <__standby_start+0xc3f44>
    2f40:	00000340 	andeq	r0, r0, r0, asr #6
    2f44:	00101a06 	andseq	r1, r0, r6, lsl #20
    2f48:	536c0300 	cmnpl	ip, #0
    2f4c:	04000000 	streq	r0, [r0], #-0
    2f50:	23021010 	movwcs	r1, #8208	; 0x2010
    2f54:	10390600 	eorsne	r0, r9, r0, lsl #12
    2f58:	6d030000 	stcvs	0, cr0, [r3, #-0]
    2f5c:	00000053 	andeq	r0, r0, r3, asr r0
    2f60:	02001004 	andeq	r1, r0, #4
    2f64:	03000023 	movweq	r0, #35	; 0x23
    2f68:	00000f41 	andeq	r0, r0, r1, asr #30
    2f6c:	03116e03 	tsteq	r1, #48	; 0x30
    2f70:	970a0000 	strls	r0, [sl, -r0]
    2f74:	dc000010 	stcle	0, cr0, [r0], {16}
    2f78:	21700302 	cmncs	r0, r2, lsl #6
    2f7c:	0b00000b 	bleq	2fb0 <__standby_start+0x2fb0>
    2f80:	00000be9 	andeq	r0, r0, r9, ror #23
    2f84:	0b217203 	bleq	85f798 <__standby_start+0x85f798>
    2f88:	23020000 	movwcs	r0, #8192	; 0x2000
    2f8c:	0c0e0b00 	stceq	11, cr0, [lr], {-0}
    2f90:	73030000 	movwvc	r0, #12288	; 0x3000
    2f94:	00000b26 	andeq	r0, r0, r6, lsr #22
    2f98:	0b042302 	bleq	10bba8 <__standby_start+0x10bba8>
    2f9c:	0000108f 	andeq	r1, r0, pc, lsl #1
    2fa0:	0b267403 	bleq	99ffb4 <__standby_start+0x99ffb4>
    2fa4:	23020000 	movwcs	r0, #8192	; 0x2000
    2fa8:	0eb10b08 	vmoveq.f64	d0, #24
    2fac:	75030000 	strvc	r0, [r3, #-0]
    2fb0:	00000b26 	andeq	r0, r0, r6, lsr #22
    2fb4:	0b0c2302 	bleq	30bbc4 <__standby_start+0x30bbc4>
    2fb8:	00000d43 	andeq	r0, r0, r3, asr #26
    2fbc:	0b267603 	bleq	9a07d0 <__standby_start+0x9a07d0>
    2fc0:	23020000 	movwcs	r0, #8192	; 0x2000
    2fc4:	0ebb0b10 	vmoveq.32	r0, d11[1]
    2fc8:	77030000 	strvc	r0, [r3, -r0]
    2fcc:	00000b26 	andeq	r0, r0, r6, lsr #22
    2fd0:	0b142302 	bleq	50bbe0 <__standby_start+0x50bbe0>
    2fd4:	00000a15 	andeq	r0, r0, r5, lsl sl
    2fd8:	0b267803 	bleq	9a0fec <__standby_start+0x9a0fec>
    2fdc:	23020000 	movwcs	r0, #8192	; 0x2000
    2fe0:	0ec50b18 	vdupeq.8	d5, r0
    2fe4:	79030000 	stmdbvc	r3, {}	; <UNPREDICTABLE>
    2fe8:	00000b26 	andeq	r0, r0, r6, lsr #22
    2fec:	0b1c2302 	bleq	70bbfc <__standby_start+0x70bbfc>
    2ff0:	00000e69 	andeq	r0, r0, r9, ror #28
    2ff4:	0b267a03 	bleq	9a1808 <__standby_start+0x9a1808>
    2ff8:	23020000 	movwcs	r0, #8192	; 0x2000
    2ffc:	0ecf0b20 	vdiveq.f64	d16, d15, d16
    3000:	7b030000 	blvc	c3008 <__standby_start+0xc3008>
    3004:	00000b26 	andeq	r0, r0, r6, lsr #22
    3008:	0b242302 	bleq	90bc18 <__standby_start+0x90bc18>
    300c:	000009dd 	ldrdeq	r0, [r0], -sp
    3010:	0b267c03 	bleq	9a2024 <__standby_start+0x9a2024>
    3014:	23020000 	movwcs	r0, #8192	; 0x2000
    3018:	0ed90b28 	vfnmseq.f64	d16, d9, d24
    301c:	7d030000 	stcvc	0, cr0, [r3, #-0]
    3020:	00000b26 	andeq	r0, r0, r6, lsr #22
    3024:	0b2c2302 	bleq	b0bc34 <__standby_start+0xb0bc34>
    3028:	00000e51 	andeq	r0, r0, r1, asr lr
    302c:	0b267e03 	bleq	9a2840 <__standby_start+0x9a2840>
    3030:	23020000 	movwcs	r0, #8192	; 0x2000
    3034:	0ee30b30 	mcreq	11, 7, r0, cr3, cr0, {1}
    3038:	7f030000 	svcvc	0x00030000
    303c:	00000b26 	andeq	r0, r0, r6, lsr #22
    3040:	0b342302 	bleq	d0bc50 <__standby_start+0xd0bc50>
    3044:	00000c23 	andeq	r0, r0, r3, lsr #24
    3048:	0b268003 	bleq	9a305c <__standby_start+0x9a305c>
    304c:	23020000 	movwcs	r0, #8192	; 0x2000
    3050:	0eed0b38 	mcreq	11, 7, r0, cr13, cr8, {1}
    3054:	81030000 	mrshi	r0, (UNDEF: 3)
    3058:	00000b26 	andeq	r0, r0, r6, lsr #22
    305c:	0b3c2302 	bleq	f0bc6c <__standby_start+0xf0bc6c>
    3060:	00000f2f 	andeq	r0, r0, pc, lsr #30
    3064:	0b268203 	bleq	9a3878 <__standby_start+0x9a3878>
    3068:	23020000 	movwcs	r0, #8192	; 0x2000
    306c:	10c50b40 	sbcne	r0, r5, r0, asr #22
    3070:	83030000 	movwhi	r0, #12288	; 0x3000
    3074:	00000b26 	andeq	r0, r0, r6, lsr #22
    3078:	0b442302 	bleq	110bc88 <__standby_start+0x110bc88>
    307c:	00000a0c 	andeq	r0, r0, ip, lsl #20
    3080:	0b268403 	bleq	9a4094 <__standby_start+0x9a4094>
    3084:	23020000 	movwcs	r0, #8192	; 0x2000
    3088:	0fa90b48 	svceq	0x00a90b48
    308c:	85030000 	strhi	r0, [r3, #-0]
    3090:	00000b26 	andeq	r0, r0, r6, lsr #22
    3094:	0b4c2302 	bleq	130bca4 <__standby_start+0x130bca4>
    3098:	00000d4b 	andeq	r0, r0, fp, asr #26
    309c:	0b2b8603 	bleq	ae48b0 <__standby_start+0xae48b0>
    30a0:	23020000 	movwcs	r0, #8192	; 0x2000
    30a4:	0d1b0b50 	vldreq	d0, [fp, #-320]	; 0xfffffec0
    30a8:	87030000 	strhi	r0, [r3, -r0]
    30ac:	00000b30 	andeq	r0, r0, r0, lsr fp
    30b0:	0b542302 	bleq	150bcc0 <__standby_start+0x150bcc0>
    30b4:	00000ad4 	ldrdeq	r0, [r0], -r4
    30b8:	0b358803 	bleq	d650cc <__standby_start+0xd650cc>
    30bc:	23020000 	movwcs	r0, #8192	; 0x2000
    30c0:	0e8d0b58 	mcreq	11, 4, r0, cr13, cr8, {2}
    30c4:	89030000 	stmdbhi	r3, {}	; <UNPREDICTABLE>
    30c8:	00000b26 	andeq	r0, r0, r6, lsr #22
    30cc:	0b5c2302 	bleq	170bcdc <__standby_start+0x170bcdc>
    30d0:	00000bce 	andeq	r0, r0, lr, asr #23
    30d4:	0b268a03 	bleq	9a58e8 <__standby_start+0x9a58e8>
    30d8:	23020000 	movwcs	r0, #8192	; 0x2000
    30dc:	0bd70b60 	bleq	ff5c5e64 <__bss_end+0xf5c20b8>
    30e0:	8b030000 	blhi	c30e8 <__standby_start+0xc30e8>
    30e4:	00000b26 	andeq	r0, r0, r6, lsr #22
    30e8:	0b642302 	bleq	190bcf8 <__standby_start+0x190bcf8>
    30ec:	0000104c 	andeq	r1, r0, ip, asr #32
    30f0:	0b268c03 	bleq	9a6104 <__standby_start+0x9a6104>
    30f4:	23020000 	movwcs	r0, #8192	; 0x2000
    30f8:	0dad0b68 	stceq	11, cr0, [sp, #416]!	; 0x1a0
    30fc:	8d030000 	stchi	0, cr0, [r3, #-0]
    3100:	00000b26 	andeq	r0, r0, r6, lsr #22
    3104:	0b6c2302 	bleq	1b0bd14 <__standby_start+0x1b0bd14>
    3108:	00000ef7 	strdeq	r0, [r0], -r7
    310c:	0b4a8e03 	bleq	12a6920 <__standby_start+0x12a6920>
    3110:	23020000 	movwcs	r0, #8192	; 0x2000
    3114:	10bb0b70 	adcsne	r0, fp, r0, ror fp
    3118:	8f030000 	svchi	0x00030000
    311c:	00000b26 	andeq	r0, r0, r6, lsr #22
    3120:	0b782302 	bleq	1e0bd30 <__standby_start+0x1e0bd30>
    3124:	000009d1 	ldrdeq	r0, [r0], -r1
    3128:	0b269003 	bleq	9a713c <__standby_start+0x9a713c>
    312c:	23020000 	movwcs	r0, #8192	; 0x2000
    3130:	10b50b7c 	adcsne	r0, r5, ip, ror fp
    3134:	91030000 	mrsls	r0, (UNDEF: 3)
    3138:	00000b26 	andeq	r0, r0, r6, lsr #22
    313c:	01802303 	orreq	r2, r0, r3, lsl #6
    3140:	0010550b 	andseq	r5, r0, fp, lsl #10
    3144:	26920300 	ldrcs	r0, [r2], r0, lsl #6
    3148:	0300000b 	movweq	r0, #11
    314c:	0c018423 	cfstrseq	mvf8, [r1], {35}	; 0x23
    3150:	00306453 	eorseq	r6, r0, r3, asr r4
    3154:	0b269303 	bleq	9a7d68 <__standby_start+0x9a7d68>
    3158:	23030000 	movwcs	r0, #12288	; 0x3000
    315c:	530c0188 	movwpl	r0, #49544	; 0xc188
    3160:	03003164 	movweq	r3, #356	; 0x164
    3164:	000b2694 	muleq	fp, r4, r6
    3168:	8c230300 	stchi	3, cr0, [r3], #-0
    316c:	64530c01 	ldrbvs	r0, [r3], #-3073	; 0xc01
    3170:	95030032 	strls	r0, [r3, #-50]	; 0x32
    3174:	00000b26 	andeq	r0, r0, r6, lsr #22
    3178:	01902303 	orrseq	r2, r0, r3, lsl #6
    317c:	0010600b 	andseq	r6, r0, fp
    3180:	4f960300 	svcmi	0x00960300
    3184:	0300000b 	movweq	r0, #11
    3188:	0c019423 	cfstrseq	mvf9, [r1], {35}	; 0x23
    318c:	03007353 	movweq	r7, #851	; 0x353
    3190:	000b2697 	muleq	fp, r7, r6
    3194:	9c230300 	stcls	3, cr0, [r3], #-0
    3198:	0f250b01 	svceq	0x00250b01
    319c:	98030000 	stmdals	r3, {}	; <UNPREDICTABLE>
    31a0:	00000b26 	andeq	r0, r0, r6, lsr #22
    31a4:	01a02303 	lsleq	r2, r3, #6
    31a8:	000f2a0b 	andeq	r2, pc, fp, lsl #20
    31ac:	26990300 	ldrcs	r0, [r9], r0, lsl #6
    31b0:	0300000b 	movweq	r0, #11
    31b4:	0b01a423 	bleq	6c248 <__standby_start+0x6c248>
    31b8:	0000106b 	andeq	r1, r0, fp, rrx
    31bc:	0b549a03 	bleq	15299d0 <__standby_start+0x15299d0>
    31c0:	23030000 	movwcs	r0, #12288	; 0x3000
    31c4:	fd0b01a8 	stc2	1, cr0, [fp, #-672]	; 0xfffffd60
    31c8:	03000009 	movweq	r0, #9
    31cc:	000b269b 	muleq	fp, fp, r6
    31d0:	b0230300 	eorlt	r0, r3, r0, lsl #6
    31d4:	0a020b01 	beq	85de0 <__standby_start+0x85de0>
    31d8:	9c030000 	stcls	0, cr0, [r3], {-0}
    31dc:	00000b26 	andeq	r0, r0, r6, lsr #22
    31e0:	01b42303 			; <UNDEFINED> instruction: 0x01b42303
    31e4:	000a070b 	andeq	r0, sl, fp, lsl #14
    31e8:	269d0300 	ldrcs	r0, [sp], r0, lsl #6
    31ec:	0300000b 	movweq	r0, #11
    31f0:	0b01b823 	bleq	71284 <__standby_start+0x71284>
    31f4:	00000aa2 	andeq	r0, r0, r2, lsr #21
    31f8:	0b269e03 	bleq	9aaa0c <__standby_start+0x9aaa0c>
    31fc:	23030000 	movwcs	r0, #12288	; 0x3000
    3200:	a40b01bc 	strge	r0, [fp], #-444	; 0x1bc
    3204:	0300000d 	movweq	r0, #13
    3208:	000b269f 	muleq	fp, pc, r6	; <UNPREDICTABLE>
    320c:	c0230300 	eorgt	r0, r3, r0, lsl #6
    3210:	0cf20b01 	fldmiaxeq	r2!, {d16-d15}	;@ Deprecated
    3214:	a0030000 	andge	r0, r3, r0
    3218:	00000b59 	andeq	r0, r0, r9, asr fp
    321c:	01c42303 	biceq	r2, r4, r3, lsl #6
    3220:	6273550c 	rsbsvs	r5, r3, #50331648	; 0x3000000
    3224:	26a10300 	strtcs	r0, [r1], r0, lsl #6
    3228:	0300000b 	movweq	r0, #11
    322c:	0b01cc23 	bleq	762c0 <__standby_start+0x762c0>
    3230:	00000fe9 	andeq	r0, r0, r9, ror #31
    3234:	0b26a203 	bleq	9aba48 <__standby_start+0x9aba48>
    3238:	23030000 	movwcs	r0, #12288	; 0x3000
    323c:	420b01d0 	andmi	r0, fp, #52	; 0x34
    3240:	0300000c 	movweq	r0, #12
    3244:	000b6ea3 	andeq	r6, fp, r3, lsr #29
    3248:	d4230300 	strtle	r0, [r3], #-768	; 0x300
    324c:	10830b01 	addne	r0, r3, r1, lsl #22
    3250:	a4030000 	strge	r0, [r3], #-0
    3254:	00000b26 	andeq	r0, r0, r6, lsr #22
    3258:	01f02303 	mvnseq	r2, r3, lsl #6
    325c:	000fc50b 	andeq	ip, pc, fp, lsl #10
    3260:	26a50300 	strtcs	r0, [r5], r0, lsl #6
    3264:	0300000b 	movweq	r0, #11
    3268:	0b01f423 	bleq	802fc <__standby_start+0x802fc>
    326c:	00001023 	andeq	r1, r0, r3, lsr #32
    3270:	0b26a603 	bleq	9aca84 <__standby_start+0x9aca84>
    3274:	23030000 	movwcs	r0, #12288	; 0x3000
    3278:	220b01f8 	andcs	r0, fp, #62	; 0x3e
    327c:	0300000e 	movweq	r0, #14
    3280:	000b26a7 	andeq	r2, fp, r7, lsr #13
    3284:	fc230300 	stc2	3, cr0, [r3], #-0
    3288:	0ded0b01 	stcleq	11, cr0, [sp, #4]!
    328c:	a8030000 	stmdage	r3, {}	; <UNPREDICTABLE>
    3290:	00000b26 	andeq	r0, r0, r6, lsr #22
    3294:	02802303 	addeq	r2, r0, #201326592	; 0xc000000
    3298:	000bf10b 	andeq	pc, fp, fp, lsl #2
    329c:	26a90300 	strtcs	r0, [r9], r0, lsl #6
    32a0:	0300000b 	movweq	r0, #11
    32a4:	0b028423 	bleq	a4338 <__standby_start+0xa4338>
    32a8:	00000968 	andeq	r0, r0, r8, ror #18
    32ac:	0b26aa03 	bleq	9adac0 <__standby_start+0x9adac0>
    32b0:	23030000 	movwcs	r0, #12288	; 0x3000
    32b4:	890b0288 	stmdbhi	fp, {r3, r7, r9}
    32b8:	0300000a 	movweq	r0, #10
    32bc:	000b26ab 	andeq	r2, fp, fp, lsr #13
    32c0:	8c230300 	stchi	3, cr0, [r3], #-0
    32c4:	09740b02 	ldmdbeq	r4!, {r1, r8, r9, fp}^
    32c8:	ac030000 	stcge	0, cr0, [r3], {-0}
    32cc:	00000b26 	andeq	r0, r0, r6, lsr #22
    32d0:	02902303 	addseq	r2, r0, #201326592	; 0xc000000
    32d4:	0009800b 	andeq	r8, r9, fp
    32d8:	26ad0300 	strtcs	r0, [sp], r0, lsl #6
    32dc:	0300000b 	movweq	r0, #11
    32e0:	0b029423 	bleq	a8374 <__standby_start+0xa8374>
    32e4:	000009c1 	andeq	r0, r0, r1, asr #19
    32e8:	0b26ae03 	bleq	9aeafc <__standby_start+0x9aeafc>
    32ec:	23030000 	movwcs	r0, #12288	; 0x3000
    32f0:	c90b0298 	stmdbgt	fp, {r3, r4, r7, r9}
    32f4:	03000009 	movweq	r0, #9
    32f8:	000b26af 	andeq	r2, fp, pc, lsr #13
    32fc:	9c230300 	stcls	3, cr0, [r3], #-0
    3300:	0c4d0b02 	mcrreq	11, 0, r0, sp, cr2
    3304:	b0030000 	andlt	r0, r3, r0
    3308:	00000b83 	andeq	r0, r0, r3, lsl #23
    330c:	02a02303 	adceq	r2, r0, #201326592	; 0xc000000
    3310:	000e950b 	andeq	r9, lr, fp, lsl #10
    3314:	26b10300 	ldrtcs	r0, [r1], r0, lsl #6
    3318:	0300000b 	movweq	r0, #11
    331c:	0b02b023 	bleq	af3b0 <__standby_start+0xaf3b0>
    3320:	00000f19 	andeq	r0, r0, r9, lsl pc
    3324:	0b26b203 	bleq	9afb38 <__standby_start+0x9afb38>
    3328:	23030000 	movwcs	r0, #12288	; 0x3000
    332c:	e50b02b4 	str	r0, [fp, #-692]	; 0x2b4
    3330:	03000009 	movweq	r0, #9
    3334:	000b26b3 			; <UNDEFINED> instruction: 0x000b26b3
    3338:	b8230300 	stmdalt	r3!, {r8, r9}
    333c:	65560c02 	ldrbvs	r0, [r6, #-3074]	; 0xc02
    3340:	26b40300 	ldrtcs	r0, [r4], r0, lsl #6
    3344:	0300000b 	movweq	r0, #11
    3348:	0b02bc23 	bleq	b23dc <__standby_start+0xb23dc>
    334c:	00000de0 	andeq	r0, r0, r0, ror #27
    3350:	0b26b503 	bleq	9b0764 <__standby_start+0x9b0764>
    3354:	23030000 	movwcs	r0, #12288	; 0x3000
    3358:	410c02c0 	smlabtmi	ip, r0, r2, r0
    335c:	03007376 	movweq	r7, #886	; 0x376
    3360:	000b26b6 			; <UNDEFINED> instruction: 0x000b26b6
    3364:	c4230300 	strtgt	r0, [r3], #-768	; 0x300
    3368:	09f10b02 	ldmibeq	r1!, {r1, r8, r9, fp}^
    336c:	b7030000 	strlt	r0, [r3, -r0]
    3370:	00000b26 	andeq	r0, r0, r6, lsr #22
    3374:	02c82303 	sbceq	r2, r8, #201326592	; 0xc000000
    3378:	000c580b 	andeq	r5, ip, fp, lsl #16
    337c:	26b80300 	ldrtcs	r0, [r8], r0, lsl #6
    3380:	0300000b 	movweq	r0, #11
    3384:	0b02cc23 	bleq	b6418 <__standby_start+0xb6418>
    3388:	00000cfd 	strdeq	r0, [r0], -sp
    338c:	0b26b903 	bleq	9b17a0 <__standby_start+0x9b17a0>
    3390:	23030000 	movwcs	r0, #12288	; 0x3000
    3394:	680b02d0 	stmdavs	fp, {r4, r6, r7, r9}
    3398:	0300000f 	movweq	r0, #15
    339c:	000b26ba 			; <UNDEFINED> instruction: 0x000b26ba
    33a0:	d4230300 	strtle	r0, [r3], #-768	; 0x300
    33a4:	0a710b02 	beq	1c45fb4 <__standby_start+0x1c45fb4>
    33a8:	bb030000 	bllt	c33b0 <__standby_start+0xc33b0>
    33ac:	00000b26 	andeq	r0, r0, r6, lsr #22
    33b0:	02d82303 	sbcseq	r2, r8, #201326592	; 0xc000000
    33b4:	000ab10b 	andeq	fp, sl, fp, lsl #2
    33b8:	26bc0300 	ldrtcs	r0, [ip], r0, lsl #6
    33bc:	0300000b 	movweq	r0, #11
    33c0:	0b02dc23 	bleq	ba454 <__standby_start+0xba454>
    33c4:	00000a7d 	andeq	r0, r0, sp, ror sl
    33c8:	0b26bd03 	bleq	9b27dc <__standby_start+0x9b27dc>
    33cc:	23030000 	movwcs	r0, #12288	; 0x3000
    33d0:	630b02e0 	movwvs	r0, #45792	; 0xb2e0
    33d4:	0300000c 	movweq	r0, #12
    33d8:	000b26be 			; <UNDEFINED> instruction: 0x000b26be
    33dc:	e4230300 	strt	r0, [r3], #-768	; 0x300
    33e0:	0f010b02 	svceq	0x00010b02
    33e4:	bf030000 	svclt	0x00030000
    33e8:	00000b26 	andeq	r0, r0, r6, lsr #22
    33ec:	02e82303 	rsceq	r2, r8, #201326592	; 0xc000000
    33f0:	000f0d0b 	andeq	r0, pc, fp, lsl #26
    33f4:	26c00300 	strbcs	r0, [r0], r0, lsl #6
    33f8:	0300000b 	movweq	r0, #11
    33fc:	0b02ec23 	bleq	be490 <__standby_start+0xbe490>
    3400:	00000c6e 	andeq	r0, r0, lr, ror #24
    3404:	0b88c103 	bleq	fe233818 <__bss_end+0xe22fa6c>
    3408:	23030000 	movwcs	r0, #12288	; 0x3000
    340c:	760b02f0 			; <UNDEFINED> instruction: 0x760b02f0
    3410:	03000010 	movweq	r0, #16
    3414:	000b26c2 	andeq	r2, fp, r2, asr #13
    3418:	80230300 	eorhi	r0, r3, r0, lsl #6
    341c:	0b600b03 	bleq	1806030 <__standby_start+0x1806030>
    3420:	c3030000 	movwgt	r0, #12288	; 0x3000
    3424:	00000b26 	andeq	r0, r0, r6, lsr #22
    3428:	03842303 	orreq	r2, r4, #201326592	; 0xc000000
    342c:	000b6c0b 	andeq	r6, fp, fp, lsl #24
    3430:	26c40300 	strbcs	r0, [r4], r0, lsl #6
    3434:	0300000b 	movweq	r0, #11
    3438:	0b038823 	bleq	e54cc <__standby_start+0xe54cc>
    343c:	00000b78 	andeq	r0, r0, r8, ror fp
    3440:	0b26c503 	bleq	9b4854 <__standby_start+0x9b4854>
    3444:	23030000 	movwcs	r0, #12288	; 0x3000
    3448:	790b038c 	stmdbvc	fp, {r2, r3, r7, r8, r9}
    344c:	0300000c 	movweq	r0, #12
    3450:	000b8dc6 	andeq	r8, fp, r6, asr #27
    3454:	90230300 	eorls	r0, r3, r0, lsl #6
    3458:	0b8c0b03 	bleq	fe30606c <__bss_end+0xe3022c0>
    345c:	c7030000 	strgt	r0, [r3, -r0]
    3460:	00000b26 	andeq	r0, r0, r6, lsr #22
    3464:	03a02303 	moveq	r2, #201326592	; 0xc000000
    3468:	000b340b 	andeq	r3, fp, fp, lsl #8
    346c:	26c80300 	strbcs	r0, [r8], r0, lsl #6
    3470:	0300000b 	movweq	r0, #11
    3474:	0b03a423 	bleq	ec508 <__standby_start+0xec508>
    3478:	00000d71 	andeq	r0, r0, r1, ror sp
    347c:	0b26c903 	bleq	9b5890 <__standby_start+0x9b5890>
    3480:	23030000 	movwcs	r0, #12288	; 0x3000
    3484:	b60b03a8 	strlt	r0, [fp], -r8, lsr #7
    3488:	0300000b 	movweq	r0, #11
    348c:	000b26ca 	andeq	r2, fp, sl, asr #13
    3490:	ac230300 	stcge	3, cr0, [r3], #-0
    3494:	0bc20b03 	bleq	ff0860a8 <__bss_end+0xf0822fc>
    3498:	cb030000 	blgt	c34a0 <__standby_start+0xc34a0>
    349c:	00000b26 	andeq	r0, r0, r6, lsr #22
    34a0:	03b02303 	movseq	r2, #201326592	; 0xc000000
    34a4:	000d230b 	andeq	r2, sp, fp, lsl #6
    34a8:	a2cc0300 	sbcge	r0, ip, #0
    34ac:	0300000b 	movweq	r0, #11
    34b0:	0b03b423 	bleq	f0544 <__standby_start+0xf0544>
    34b4:	000009bb 			; <UNDEFINED> instruction: 0x000009bb
    34b8:	0b26cd03 	bleq	9b68cc <__standby_start+0x9b68cc>
    34bc:	23030000 	movwcs	r0, #12288	; 0x3000
    34c0:	170b03c0 	strne	r0, [fp, -r0, asr #7]
    34c4:	0300000c 	movweq	r0, #12
    34c8:	000bb7ce 	andeq	fp, fp, lr, asr #15
    34cc:	c4230300 	strtgt	r0, [r3], #-768	; 0x300
    34d0:	0b840b03 	bleq	fe1060e4 <__bss_end+0xe102338>
    34d4:	cf030000 	svcgt	0x00030000
    34d8:	00000bbc 			; <UNDEFINED> instruction: 0x00000bbc
    34dc:	04802303 	streq	r2, [r0], #771	; 0x303
    34e0:	000dca0b 	andeq	ip, sp, fp, lsl #20
    34e4:	26d00300 	ldrbcs	r0, [r0], r0, lsl #6
    34e8:	0300000b 	movweq	r0, #11
    34ec:	0b048423 	bleq	124580 <__standby_start+0x124580>
    34f0:	0000102d 	andeq	r1, r0, sp, lsr #32
    34f4:	0b26d103 	bleq	9b7908 <__standby_start+0x9b7908>
    34f8:	23030000 	movwcs	r0, #12288	; 0x3000
    34fc:	f50b0488 			; <UNDEFINED> instruction: 0xf50b0488
    3500:	0300000f 	movweq	r0, #15
    3504:	000b26d2 	ldrdeq	r2, [fp], -r2	; <UNPREDICTABLE>
    3508:	8c230300 	stchi	3, cr0, [r3], #-0
    350c:	0ae40b04 	beq	ff906124 <__bss_end+0xf902378>
    3510:	d3030000 	movwle	r0, #12288	; 0x3000
    3514:	00000bc1 	andeq	r0, r0, r1, asr #23
    3518:	04902303 	ldreq	r2, [r0], #771	; 0x303
    351c:	000cc90b 	andeq	ip, ip, fp, lsl #18
    3520:	d6d50300 	ldrble	r0, [r5], r0, lsl #6
    3524:	0300000b 	movweq	r0, #11
    3528:	0b04a023 	bleq	12b5bc <__standby_start+0x12b5bc>
    352c:	00000a51 	andeq	r0, r0, r1, asr sl
    3530:	0b26d603 	bleq	9b8d44 <__standby_start+0x9b8d44>
    3534:	23030000 	movwcs	r0, #12288	; 0x3000
    3538:	ad0b04a4 	cfstrsge	mvf0, [fp, #-656]	; 0xfffffd70
    353c:	03000009 	movweq	r0, #9
    3540:	000b26d7 	ldrdeq	r2, [fp], -r7
    3544:	a8230300 	stmdage	r3!, {r8, r9}
    3548:	0ce80b04 	vstmiaeq	r8!, {d16-d17}
    354c:	d8030000 	stmdale	r3, {}	; <UNPREDICTABLE>
    3550:	00000b26 	andeq	r0, r0, r6, lsr #22
    3554:	04ac2303 	strteq	r2, [ip], #771	; 0x303
    3558:	000b9e0b 	andeq	r9, fp, fp, lsl #28
    355c:	26d90300 	ldrbcs	r0, [r9], r0, lsl #6
    3560:	0300000b 	movweq	r0, #11
    3564:	0b04b023 	bleq	12f5f8 <__standby_start+0x12f5f8>
    3568:	00000f5a 	andeq	r0, r0, sl, asr pc
    356c:	0b26da03 	bleq	9b9d80 <__standby_start+0x9b9d80>
    3570:	23030000 	movwcs	r0, #12288	; 0x3000
    3574:	a70b04b4 			; <UNDEFINED> instruction: 0xa70b04b4
    3578:	03000010 	movweq	r0, #16
    357c:	000b26db 	ldrdeq	r2, [fp], -fp
    3580:	b8230300 	stmdalt	r3!, {r8, r9}
    3584:	0b200b04 	bleq	80619c <__standby_start+0x80619c>
    3588:	dc030000 	stcle	0, cr0, [r3], {-0}
    358c:	00000b26 	andeq	r0, r0, r6, lsr #22
    3590:	04bc2303 	ldrteq	r2, [ip], #771	; 0x303
    3594:	000ba90b 	andeq	sl, fp, fp, lsl #18
    3598:	26dd0300 	ldrbcs	r0, [sp], r0, lsl #6
    359c:	0300000b 	movweq	r0, #11
    35a0:	0b04c023 	bleq	133634 <__standby_start+0x133634>
    35a4:	00000a96 	muleq	r0, r6, sl
    35a8:	0b26de03 	bleq	9badbc <__standby_start+0x9badbc>
    35ac:	23030000 	movwcs	r0, #12288	; 0x3000
    35b0:	0a0b04c4 	beq	2c48c8 <__standby_start+0x2c48c8>
    35b4:	0300000e 	movweq	r0, #14
    35b8:	000b26df 	ldrdeq	r2, [fp], -pc	; <UNPREDICTABLE>
    35bc:	c8230300 	stmdagt	r3!, {r8, r9}
    35c0:	0e430b04 	vmlaeq.f64	d16, d3, d4
    35c4:	e0030000 	and	r0, r3, r0
    35c8:	00000b26 	andeq	r0, r0, r6, lsr #22
    35cc:	04cc2303 	strbeq	r2, [ip], #771	; 0x303
    35d0:	000aa90b 	andeq	sl, sl, fp, lsl #18
    35d4:	26e20300 	strbtcs	r0, [r2], r0, lsl #6
    35d8:	0300000b 	movweq	r0, #11
    35dc:	0b04d023 	bleq	137670 <__standby_start+0x137670>
    35e0:	00000e01 	andeq	r0, r0, r1, lsl #28
    35e4:	0b26e303 	bleq	9bc1f8 <__standby_start+0x9bc1f8>
    35e8:	23030000 	movwcs	r0, #12288	; 0x3000
    35ec:	f00b04d4 			; <UNDEFINED> instruction: 0xf00b04d4
    35f0:	0300000a 	movweq	r0, #10
    35f4:	000bdbe5 	andeq	sp, fp, r5, ror #23
    35f8:	d8230300 	stmdale	r3!, {r8, r9}
    35fc:	0e5c0b04 	vnmlseq.f64	d16, d12, d4
    3600:	e6030000 	str	r0, [r3], -r0
    3604:	00000b26 	andeq	r0, r0, r6, lsr #22
    3608:	04e02303 	strbteq	r2, [r0], #771	; 0x303
    360c:	000afc0b 	andeq	pc, sl, fp, lsl #24
    3610:	e0e70300 	rsc	r0, r7, r0, lsl #6
    3614:	0300000b 	movweq	r0, #11
    3618:	0b04e423 	bleq	13c6ac <__standby_start+0x13c6ac>
    361c:	00000ab7 			; <UNDEFINED> instruction: 0x00000ab7
    3620:	0b26e803 	bleq	9bd634 <__standby_start+0x9bd634>
    3624:	23030000 	movwcs	r0, #12288	; 0x3000
    3628:	080b04f0 	stmdaeq	fp, {r4, r5, r6, r7, sl}
    362c:	0300000b 	movweq	r0, #11
    3630:	000be5e9 	andeq	lr, fp, r9, ror #11
    3634:	f4230300 	vld2.8	{d0-d3}, [r3], r0
    3638:	0d960b04 	vldreq	d0, [r6, #16]
    363c:	ea030000 	b	c3644 <__standby_start+0xc3644>
    3640:	00000b26 	andeq	r0, r0, r6, lsr #22
    3644:	05802303 	streq	r2, [r0, #771]	; 0x303
    3648:	000e2f0b 	andeq	r2, lr, fp, lsl #30
    364c:	26ec0300 	strbtcs	r0, [ip], r0, lsl #6
    3650:	0300000b 	movweq	r0, #11
    3654:	0b058423 	bleq	1646e8 <__standby_start+0x1646e8>
    3658:	00000d2e 	andeq	r0, r0, lr, lsr #26
    365c:	0b26ed03 	bleq	9bea70 <__standby_start+0x9bea70>
    3660:	23030000 	movwcs	r0, #12288	; 0x3000
    3664:	d30b0588 	movwle	r0, #46472	; 0xb588
    3668:	0300000d 	movweq	r0, #13
    366c:	000b26ee 	andeq	r2, fp, lr, ror #13
    3670:	8c230300 	stchi	3, cr0, [r3], #-0
    3674:	0f740b05 	svceq	0x00740b05
    3678:	ef030000 	svc	0x00030000
    367c:	00000b26 	andeq	r0, r0, r6, lsr #22
    3680:	05902303 	ldreq	r2, [r0, #771]	; 0x303
    3684:	000b140b 	andeq	r1, fp, fp, lsl #8
    3688:	eaf00300 	b	ffc04290 <__bss_end+0xfc004e4>
    368c:	0300000b 	movweq	r0, #11
    3690:	0b059423 	bleq	168724 <__standby_start+0x168724>
    3694:	00000db6 			; <UNDEFINED> instruction: 0x00000db6
    3698:	0b26f103 	bleq	9bfaac <__standby_start+0x9bfaac>
    369c:	23030000 	movwcs	r0, #12288	; 0x3000
    36a0:	050b05a4 	streq	r0, [fp, #-1444]	; 0x5a4
    36a4:	03000010 	movweq	r0, #16
    36a8:	000b26f2 	strdeq	r2, [fp], -r2	; <UNPREDICTABLE>
    36ac:	a8230300 	stmdage	r3!, {r8, r9}
    36b0:	094e0b05 	stmdbeq	lr, {r0, r2, r8, r9, fp}^
    36b4:	f3030000 	vhadd.u8	d0, d3, d0
    36b8:	00000b26 	andeq	r0, r0, r6, lsr #22
    36bc:	05ac2303 	streq	r2, [ip, #771]!	; 0x303
    36c0:	000fb30b 	andeq	fp, pc, fp, lsl #6
    36c4:	26f40300 	ldrbtcs	r0, [r4], r0, lsl #6
    36c8:	0300000b 	movweq	r0, #11
    36cc:	0b05b023 	bleq	16f760 <__standby_start+0x16f760>
    36d0:	0000095b 	andeq	r0, r0, fp, asr r9
    36d4:	0beff503 	bleq	ffc00ae8 <__bss_end+0xfbfcd3c>
    36d8:	23030000 	movwcs	r0, #12288	; 0x3000
    36dc:	780b05b4 	stmdavc	fp, {r2, r4, r5, r7, r8, sl}
    36e0:	0300000d 	movweq	r0, #13
    36e4:	000b26f7 	strdeq	r2, [fp], -r7
    36e8:	c0230300 	eorgt	r0, r3, r0, lsl #6
    36ec:	0d820b05 	vstreq	d0, [r2, #20]
    36f0:	f8030000 			; <UNDEFINED> instruction: 0xf8030000
    36f4:	00000b26 	andeq	r0, r0, r6, lsr #22
    36f8:	05c42303 	strbeq	r2, [r4, #771]	; 0x303
    36fc:	000d8c0b 	andeq	r8, sp, fp, lsl #24
    3700:	26f90300 	ldrbtcs	r0, [r9], r0, lsl #6
    3704:	0300000b 	movweq	r0, #11
    3708:	0b05c823 	bleq	17579c <__standby_start+0x17579c>
    370c:	00000cd2 	ldrdeq	r0, [r0], -r2
    3710:	0b26fa03 	bleq	9c1f24 <__standby_start+0x9c1f24>
    3714:	23030000 	movwcs	r0, #12288	; 0x3000
    3718:	9d0b05cc 	cfstr32ls	mvfx0, [fp, #-816]	; 0xfffffcd0
    371c:	0300000e 	movweq	r0, #14
    3720:	000b26fb 	strdeq	r2, [fp], -fp
    3724:	d0230300 	eorle	r0, r3, r0, lsl #6
    3728:	0cdd0b05 	fldmiaxeq	sp, {d16-d17}	;@ Deprecated
    372c:	fc030000 	stc2	0, cr0, [r3], {-0}
    3730:	00000b26 	andeq	r0, r0, r6, lsr #22
    3734:	05d42303 	ldrbeq	r2, [r4, #771]	; 0x303
    3738:	000b560b 	andeq	r5, fp, fp, lsl #12
    373c:	26fd0300 	ldrbtcs	r0, [sp], r0, lsl #6
    3740:	0300000b 	movweq	r0, #11
    3744:	0005d823 	andeq	sp, r5, r3, lsr #16
    3748:	0001230d 	andeq	r2, r1, sp, lsl #6
    374c:	00530d00 	subseq	r0, r3, r0, lsl #26
    3750:	de0d0000 	cdple	0, 0, cr0, cr13, cr0, {0}
    3754:	0d000001 	stceq	0, cr0, [r0, #-4]
    3758:	0000026d 	andeq	r0, r0, sp, ror #4
    375c:	0003060d 	andeq	r0, r3, sp, lsl #12
    3760:	00530e00 	subseq	r0, r3, r0, lsl #28
    3764:	0b4a0000 	bleq	128376c <__standby_start+0x128376c>
    3768:	5e0f0000 	cdppl	0, 0, cr0, cr15, cr0, {0}
    376c:	01000000 	mrseq	r0, (UNDEF: 0)
    3770:	0b3a0d00 	bleq	e86b78 <__standby_start+0xe86b78>
    3774:	3a0d0000 	bcc	34377c <__standby_start+0x34377c>
    3778:	0d00000b 	stceq	0, cr0, [r0, #-44]	; 0xffffffd4
    377c:	00000b3a 	andeq	r0, r0, sl, lsr fp
    3780:	000b3a0d 	andeq	r3, fp, sp, lsl #20
    3784:	00530e00 	subseq	r0, r3, r0, lsl #28
    3788:	0b6e0000 	bleq	1b83790 <__standby_start+0x1b83790>
    378c:	5e0f0000 	cdppl	0, 0, cr0, cr15, cr0, {0}
    3790:	06000000 	streq	r0, [r0], -r0
    3794:	0b5e0d00 	bleq	1786b9c <__standby_start+0x1786b9c>
    3798:	530e0000 	movwpl	r0, #57344	; 0xe000
    379c:	83000000 	movwhi	r0, #0
    37a0:	0f00000b 	svceq	0x0000000b
    37a4:	0000005e 	andeq	r0, r0, lr, asr r0
    37a8:	730d0003 	movwvc	r0, #53251	; 0xd003
    37ac:	0d00000b 	stceq	0, cr0, [r0, #-44]	; 0xffffffd4
    37b0:	00000b73 	andeq	r0, r0, r3, ror fp
    37b4:	000b730d 	andeq	r7, fp, sp, lsl #6
    37b8:	00530e00 	subseq	r0, r3, r0, lsl #28
    37bc:	0ba20000 	bleq	fe8837c4 <__bss_end+0xe87fa18>
    37c0:	5e0f0000 	cdppl	0, 0, cr0, cr15, cr0, {0}
    37c4:	02000000 	andeq	r0, r0, #0
    37c8:	0b920d00 	bleq	fe486bd0 <__bss_end+0xe482e24>
    37cc:	530e0000 	movwpl	r0, #57344	; 0xe000
    37d0:	b7000000 	strlt	r0, [r0, -r0]
    37d4:	0f00000b 	svceq	0x0000000b
    37d8:	0000005e 	andeq	r0, r0, lr, asr r0
    37dc:	a70d000e 	strge	r0, [sp, -lr]
    37e0:	0d00000b 	stceq	0, cr0, [r0, #-44]	; 0xffffffd4
    37e4:	00000340 	andeq	r0, r0, r0, asr #6
    37e8:	000b730d 	andeq	r7, fp, sp, lsl #6
    37ec:	00530e00 	subseq	r0, r3, r0, lsl #28
    37f0:	0bd60000 	bleq	ff5837f8 <__bss_end+0xf57fa4c>
    37f4:	5e0f0000 	cdppl	0, 0, cr0, cr15, cr0, {0}
    37f8:	00000000 	andeq	r0, r0, r0
    37fc:	0bc60d00 	bleq	ff186c04 <__bss_end+0xf182e58>
    3800:	3a0d0000 	bcc	343808 <__standby_start+0x343808>
    3804:	0d00000b 	stceq	0, cr0, [r0, #-44]	; 0xffffffd4
    3808:	00000b92 	muleq	r0, r2, fp
    380c:	000b920d 	andeq	r9, fp, sp, lsl #4
    3810:	0b730d00 	bleq	1cc6c18 <__standby_start+0x1cc6c18>
    3814:	920d0000 	andls	r0, sp, #0
    3818:	0300000b 	movweq	r0, #11
    381c:	00000f97 	muleq	r0, r7, pc	; <UNPREDICTABLE>
    3820:	034bfe03 	movteq	pc, #48643	; 0xbe03	; <UNPREDICTABLE>
    3824:	04100000 	ldreq	r0, [r0], #-0
    3828:	00000bf4 	strdeq	r0, [r0], -r4
    382c:	00084511 	andeq	r4, r8, r1, lsl r5
    3830:	7a040400 	bvc	104838 <__standby_start+0x104838>
    3834:	00000c72 	andeq	r0, r0, r2, ror ip
    3838:	00068812 	andeq	r8, r6, r2, lsl r8
    383c:	34120000 	ldrcc	r0, [r2], #-0
    3840:	01000003 	tsteq	r0, r3
    3844:	00074612 	andeq	r4, r7, r2, lsl r6
    3848:	28120200 	ldmdacs	r2, {r9}
    384c:	03000003 	movweq	r0, #3
    3850:	00042e12 	andeq	r2, r4, r2, lsl lr
    3854:	95120400 	ldrls	r0, [r2, #-1024]	; 0x400
    3858:	05000006 	streq	r0, [r0, #-6]
    385c:	0003e712 	andeq	lr, r3, r2, lsl r7
    3860:	2f120600 	svccs	0x00120600
    3864:	07000008 	streq	r0, [r0, -r8]
    3868:	00046112 	andeq	r6, r4, r2, lsl r1
    386c:	d0120800 	andsle	r0, r2, r0, lsl #16
    3870:	09000008 	stmdbeq	r0, {r3}
    3874:	00062312 	andeq	r2, r6, r2, lsl r3
    3878:	4b120a00 	blmi	486080 <__standby_start+0x486080>
    387c:	0b000006 	bleq	389c <__standby_start+0x389c>
    3880:	00083f12 	andeq	r3, r8, r2, lsl pc
    3884:	a0120c00 	andsge	r0, r2, r0, lsl #24
    3888:	0d000007 	stceq	0, cr0, [r0, #-28]	; 0xffffffe4
    388c:	00060212 	andeq	r0, r6, r2, lsl r2
    3890:	ce120e00 	cdpgt	14, 1, cr0, cr2, cr0, {0}
    3894:	0f000007 	svceq	0x00000007
    3898:	08010200 	stmdaeq	r1, {r9}
    389c:	00000794 	muleq	r0, r4, r7
    38a0:	40070402 	andmi	r0, r7, r2, lsl #8
    38a4:	13000002 	movwne	r0, #2
    38a8:	0000190e 	andeq	r1, r0, lr, lsl #18
    38ac:	53011101 	movwpl	r1, #4353	; 0x1101
    38b0:	01000000 	mrseq	r0, (UNDEF: 0)
    38b4:	00000ce8 	andeq	r0, r0, r8, ror #25
    38b8:	001a2d14 	andseq	r2, sl, r4, lsl sp
    38bc:	53110100 	tstpl	r1, #0
    38c0:	15000000 	strne	r0, [r0, #-0]
    38c4:	0000198d 	andeq	r1, r0, sp, lsl #19
    38c8:	00531301 	subseq	r1, r3, r1, lsl #6
    38cc:	e9150000 	ldmdb	r5, {}	; <UNPREDICTABLE>
    38d0:	01000019 	tsteq	r0, r9, lsl r0
    38d4:	00005314 	andeq	r5, r0, r4, lsl r3
    38d8:	65721600 	ldrbvs	r1, [r2, #-1536]!	; 0x600
    38dc:	16010067 	strne	r0, [r1], -r7, rrx
    38e0:	00000ce8 	andeq	r0, r0, r8, ror #25
    38e4:	001a1115 	andseq	r1, sl, r5, lsl r1
    38e8:	ff170100 			; <UNDEFINED> instruction: 0xff170100
    38ec:	1500000b 	strne	r0, [r0, #-11]
    38f0:	00001aa3 	andeq	r1, r0, r3, lsr #21
    38f4:	03061801 	movweq	r1, #26625	; 0x6801
    38f8:	df150000 	svcle	0x00150000
    38fc:	01000005 	tsteq	r0, r5
    3900:	0000531a 	andeq	r5, r0, sl, lsl r3
    3904:	00691600 	rsbeq	r1, r9, r0, lsl #12
    3908:	00531b01 	subseq	r1, r3, r1, lsl #22
    390c:	10000000 	andne	r0, r0, r0
    3910:	000cee04 	andeq	lr, ip, r4, lsl #28
    3914:	005e0d00 	subseq	r0, lr, r0, lsl #26
    3918:	b4170000 	ldrlt	r0, [r7], #-0
    391c:	01000019 	tsteq	r0, r9, lsl r0
    3920:	0101015b 	tsteq	r1, fp, asr r1
    3924:	00000d0c 	andeq	r0, r0, ip, lsl #26
    3928:	01006318 	tsteq	r0, r8, lsl r3
    392c:	0c72015b 	ldfeqe	f0, [r2], #-364	; 0xfffffe94
    3930:	19000000 	stmdbne	r0, {}	; <UNPREDICTABLE>
    3934:	00001aac 	andeq	r1, r0, ip, lsr #21
    3938:	01016701 	tsteq	r1, r1, lsl #14
    393c:	00000c72 	andeq	r0, r0, r2, ror ip
    3940:	000d2b01 	andeq	r2, sp, r1, lsl #22
    3944:	0be41a00 	bleq	ff90a14c <__bss_end+0xf9063a0>
    3948:	69010000 	stmdbvs	r1, {}	; <UNPREDICTABLE>
    394c:	00005301 	andeq	r5, r0, r1, lsl #6
    3950:	011b0000 	tsteq	fp, r0
    3954:	00001a19 	andeq	r1, r0, r9, lsl sl
    3958:	01019801 	tsteq	r1, r1, lsl #16
    395c:	36011b01 	strcc	r1, [r1], -r1, lsl #22
    3960:	0100001a 	tsteq	r0, sl, lsl r0
    3964:	0101019f 			; <UNDEFINED> instruction: 0x0101019f
    3968:	0019d917 	andseq	sp, r9, r7, lsl r9
    396c:	01c50100 	biceq	r0, r5, r0, lsl #2
    3970:	0d5a0101 	ldfeqe	f0, [sl, #-4]
    3974:	63180000 	tstvs	r8, #0
    3978:	01c50100 	biceq	r0, r5, r0, lsl #2
    397c:	00000c72 	andeq	r0, r0, r2, ror ip
    3980:	196b1900 	stmdbne	fp!, {r8, fp, ip}^
    3984:	d1010000 	mrsle	r0, (UNDEF: 1)
    3988:	0c720101 	ldfeqe	f0, [r2], #-4
    398c:	79010000 	stmdbvc	r1, {}	; <UNPREDICTABLE>
    3990:	1a00000d 	bne	39cc <__standby_start+0x39cc>
    3994:	00000be4 	andeq	r0, r0, r4, ror #23
    3998:	5301d301 	movwpl	sp, #4865	; 0x1301
    399c:	00000000 	andeq	r0, r0, r0
    39a0:	0019321c 	andseq	r3, r9, ip, lsl r2
    39a4:	01d90100 	bicseq	r0, r9, r0, lsl #2
    39a8:	f00016a0 			; <UNDEFINED> instruction: 0xf00016a0
    39ac:	f0001748 			; <UNDEFINED> instruction: 0xf0001748
    39b0:	00000ca3 	andeq	r0, r0, r3, lsr #25
    39b4:	00000de7 	andeq	r0, r0, r7, ror #27
    39b8:	001a2d1d 	andseq	r2, sl, sp, lsl sp
    39bc:	53d90100 	bicspl	r0, r9, #0
    39c0:	c3000000 	movwgt	r0, #0
    39c4:	1d00000c 	stcne	0, cr0, [r0, #-48]	; 0xffffffd0
    39c8:	000019f6 	strdeq	r1, [r0], -r6
    39cc:	0053d901 	subseq	sp, r3, r1, lsl #18
    39d0:	0ce10000 	stcleq	0, cr0, [r1]
    39d4:	691e0000 	ldmdbvs	lr, {}	; <UNPREDICTABLE>
    39d8:	53db0100 	bicspl	r0, fp, #0
    39dc:	00000000 	andeq	r0, r0, r0
    39e0:	6765721f 			; <UNDEFINED> instruction: 0x6765721f
    39e4:	e8dc0100 	ldm	ip, {r8}^
    39e8:	ff00000c 			; <UNDEFINED> instruction: 0xff00000c
    39ec:	2000000c 	andcs	r0, r0, ip
    39f0:	000019ca 	andeq	r1, r0, sl, asr #19
    39f4:	0053dd01 	subseq	sp, r3, r1, lsl #26
    39f8:	0d3a0000 	ldceq	0, cr0, [sl, #-0]
    39fc:	1d200000 	stcne	0, cr0, [r0, #-0]
    3a00:	01000019 	tsteq	r0, r9, lsl r0
    3a04:	000053de 	ldrdeq	r5, [r0], -lr
    3a08:	000d5a00 	andeq	r5, sp, r0, lsl #20
    3a0c:	80210000 	eorhi	r0, r1, r0
    3a10:	4800000c 	stmdami	r0, {r2, r3}
    3a14:	f4f00017 			; <UNDEFINED> instruction: 0xf4f00017
    3a18:	85f00017 	ldrbhi	r0, [r0, #23]!
    3a1c:	8400000d 	strhi	r0, [r0], #-13
    3a20:	2200000e 	andcs	r0, r0, #14
    3a24:	00000c91 	muleq	r0, r1, ip
    3a28:	00000da5 	andeq	r0, r0, r5, lsr #27
    3a2c:	000c9c23 	andeq	r9, ip, r3, lsr #24
    3a30:	000dc300 	andeq	ip, sp, r0, lsl #6
    3a34:	0ca72300 	stceq	3, cr2, [r7]
    3a38:	0de20000 	stcleq	0, cr0, [r2]
    3a3c:	b2230000 	eorlt	r0, r3, #0
    3a40:	0c00000c 	stceq	0, cr0, [r0], {12}
    3a44:	2300000e 	movwcs	r0, #14
    3a48:	00000cbd 			; <UNDEFINED> instruction: 0x00000cbd
    3a4c:	00000e40 	andeq	r0, r0, r0, asr #28
    3a50:	000cc823 	andeq	ip, ip, r3, lsr #16
    3a54:	000e5f00 	andeq	r5, lr, r0, lsl #30
    3a58:	0cd32400 	cfldrdeq	mvd2, [r3], {0}
    3a5c:	24000000 	strcs	r0, [r0], #-0
    3a60:	00000cde 	ldrdeq	r0, [r0], -lr
    3a64:	0c802500 	cfstr32eq	mvfx2, [r0], {0}
    3a68:	17840000 	strne	r0, [r4, r0]
    3a6c:	0148f000 	mrseq	pc, (UNDEF: 72)	; <UNPREDICTABLE>
    3a70:	11010000 	mrsne	r0, (UNDEF: 1)
    3a74:	00016026 	andeq	r6, r1, r6, lsr #32
    3a78:	0c9c2700 	ldceq	7, cr2, [ip], {0}
    3a7c:	a7270000 	strge	r0, [r7, -r0]!
    3a80:	2800000c 	stmdacs	r0, {r2, r3}
    3a84:	00000cb2 			; <UNDEFINED> instruction: 0x00000cb2
    3a88:	8e8885d8 	mcrhi	5, 4, r8, cr8, cr8, {6}
    3a8c:	0cbd277f 	ldceq	7, cr2, [sp], #508	; 0x1fc
    3a90:	c8270000 	stmdagt	r7!, {}	; <UNPREDICTABLE>
    3a94:	2900000c 	stmdbcs	r0, {r2, r3}
    3a98:	00000c91 	muleq	r0, r1, ip
    3a9c:	000cd324 	andeq	sp, ip, r4, lsr #6
    3aa0:	de240000 	cdple	0, 2, cr0, cr4, cr0, {0}
    3aa4:	0000000c 	andeq	r0, r0, ip
    3aa8:	2a000000 	bcs	3ab0 <__standby_start+0x3ab0>
    3aac:	001ac201 	andseq	ip, sl, r1, lsl #4
    3ab0:	01070100 	mrseq	r0, (UNDEF: 23)
    3ab4:	0017f401 	andseq	pc, r7, r1, lsl #8
    3ab8:	001834f0 			; <UNDEFINED> instruction: 0x001834f0
    3abc:	007d02f0 	ldrshteq	r0, [sp], #-32	; 0xffffffe0
    3ac0:	00000eae 	andeq	r0, r0, lr, lsr #29
    3ac4:	000d362b 	andeq	r3, sp, fp, lsr #12
    3ac8:	00182400 	andseq	r2, r8, r0, lsl #8
    3acc:	00182cf0 			; <UNDEFINED> instruction: 0x00182cf0
    3ad0:	011401f0 			; <UNDEFINED> instruction: 0x011401f0
    3ad4:	7b012c00 	blvc	4eadc <__standby_start+0x4eadc>
    3ad8:	01000019 	tsteq	r0, r9, lsl r0
    3adc:	3401013f 	strcc	r0, [r1], #-319	; 0x13f
    3ae0:	b8f00018 	ldmlt	r0!, {r3, r4}^
    3ae4:	72f00018 	rscsvc	r0, r0, #24
    3ae8:	1800000e 	stmdane	r0, {r1, r2, r3}
    3aec:	2d00000f 	stccs	0, cr0, [r0, #-60]	; 0xffffffc4
    3af0:	000019f6 	strdeq	r1, [r0], -r6
    3af4:	53013f01 	movwpl	r3, #7937	; 0x1f01
    3af8:	92000000 	andls	r0, r0, #0
    3afc:	2e00000e 	cdpcs	0, 0, cr0, cr0, cr14, {0}
    3b00:	01006664 	tsteq	r0, r4, ror #12
    3b04:	00530141 	subseq	r0, r3, r1, asr #2
    3b08:	0eb00000 	cdpeq	0, 11, cr0, cr0, cr0, {0}
    3b0c:	6c2e0000 	stcvs	0, cr0, [lr], #-0
    3b10:	01007263 	tsteq	r0, r3, ror #4
    3b14:	00530142 	subseq	r0, r3, r2, asr #2
    3b18:	0ed30000 	cdpeq	0, 13, cr0, cr3, cr0, {0}
    3b1c:	e92f0000 	stmdb	pc!, {}	; <UNPREDICTABLE>
    3b20:	01000019 	tsteq	r0, r9, lsl r0
    3b24:	00530143 	subseq	r0, r3, r3, asr #2
    3b28:	0ef20000 	cdpeq	0, 15, cr0, cr2, cr0, {0}
    3b2c:	2b300000 	blcs	c03b34 <__standby_start+0xc03b34>
    3b30:	7000000d 	andvc	r0, r0, sp
    3b34:	78f00018 	ldmvc	r0!, {r3, r4}^
    3b38:	01000001 	tsteq	r0, r1
    3b3c:	31000157 	tstcc	r0, r7, asr r1
    3b40:	0019a201 	andseq	sl, r9, r1, lsl #4
    3b44:	01700100 	cmneq	r0, r0, lsl #2
    3b48:	00004101 	andeq	r4, r0, r1, lsl #2
    3b4c:	0018b800 	andseq	fp, r8, r0, lsl #16
    3b50:	001968f0 			; <UNDEFINED> instruction: 0x001968f0
    3b54:	000f20f0 	strdeq	r2, [pc], -r0
    3b58:	000f7b00 	andeq	r7, pc, r0, lsl #22
    3b5c:	1b502d00 	blne	140ef64 <__standby_start+0x140ef64>
    3b60:	70010000 	andvc	r0, r1, r0
    3b64:	000f7b01 	andeq	r7, pc, r1, lsl #22
    3b68:	000f4000 	andeq	r4, pc, r0
    3b6c:	0cf33200 	lfmeq	f3, 2, [r3]
    3b70:	18dc0000 	ldmne	ip, {}^	; <UNPREDICTABLE>
    3b74:	0190f000 	orrseq	pc, r0, r0
    3b78:	7e010000 	cdpvc	0, 0, cr0, cr1, cr0, {0}
    3b7c:	000f6001 	andeq	r6, pc, r1
    3b80:	0d012900 	stceq	9, cr2, [r1, #-0]
    3b84:	33000000 	movwcc	r0, #0
    3b88:	00000cf3 	strdeq	r0, [r0], -r3
    3b8c:	f00018f8 			; <UNDEFINED> instruction: 0xf00018f8
    3b90:	f0001920 			; <UNDEFINED> instruction: 0xf0001920
    3b94:	22018001 	andcs	r8, r1, #1
    3b98:	00000d01 	andeq	r0, r0, r1, lsl #26
    3b9c:	00000f6b 	andeq	r0, r0, fp, ror #30
    3ba0:	04100000 	ldreq	r0, [r0], #-0
    3ba4:	00000f81 	andeq	r0, r0, r1, lsl #31
    3ba8:	000c7234 	andeq	r7, ip, r4, lsr r2
    3bac:	4a013100 	bmi	4ffb4 <__standby_start+0x4ffb4>
    3bb0:	0100001a 	tsteq	r0, sl, lsl r0
    3bb4:	53010186 	movwpl	r0, #4486	; 0x1186
    3bb8:	68000000 	stmdavs	r0, {}	; <UNPREDICTABLE>
    3bbc:	f4f00019 			; <UNDEFINED> instruction: 0xf4f00019
    3bc0:	7ef00019 	mrcvc	0, 7, r0, cr0, cr9, {0}
    3bc4:	fd00000f 	stc2	0, cr0, [r0, #-60]	; 0xffffffc4
    3bc8:	3500000f 	strcc	r0, [r0, #-15]
    3bcc:	00667562 	rsbeq	r7, r6, r2, ror #10
    3bd0:	fd018601 	stc2	6, cr8, [r1, #-4]
    3bd4:	9e00000f 	cdpls	0, 0, cr0, cr0, cr15, {0}
    3bd8:	3600000f 	strcc	r0, [r0], -pc
    3bdc:	8601006e 	strhi	r0, [r1], -lr, rrx
    3be0:	00005301 	andeq	r5, r0, r1, lsl #6
    3be4:	2e510100 	rdfcss	f0, f1, f0
    3be8:	88010069 	stmdahi	r1, {r0, r3, r5, r6}
    3bec:	00005301 	andeq	r5, r0, r1, lsl #6
    3bf0:	000fb100 	andeq	fp, pc, r0, lsl #2
    3bf4:	00632e00 	rsbeq	r2, r3, r0, lsl #28
    3bf8:	72018901 	andvc	r8, r1, #16384	; 0x4000
    3bfc:	dc00000c 	stcle	0, cr0, [r0], {12}
    3c00:	3700000f 	strcc	r0, [r0, -pc]
    3c04:	00000d0c 	andeq	r0, r0, ip, lsl #26
    3c08:	f0001994 			; <UNDEFINED> instruction: 0xf0001994
    3c0c:	000001b0 			; <UNDEFINED> instruction: 0x000001b0
    3c10:	26019001 	strcs	r9, [r1], -r1
    3c14:	000001d8 	ldrdeq	r0, [r0], -r8
    3c18:	000d1e23 	andeq	r1, sp, r3, lsr #28
    3c1c:	000ffc00 	andeq	pc, pc, r0, lsl #24
    3c20:	00000000 	andeq	r0, r0, r0
    3c24:	0c720410 	cfldrdeq	mvd0, [r2], #-64	; 0xffffffc0
    3c28:	2b380000 	blcs	e03c30 <__standby_start+0xe03c30>
    3c2c:	f400000d 	vst4.8	{d0-d3}, [r0]!
    3c30:	08f00019 	ldmeq	r0!, {r0, r3, r4}^
    3c34:	02f0001a 	rscseq	r0, r0, #26
    3c38:	3638007d 			; <UNDEFINED> instruction: 0x3638007d
    3c3c:	0800000d 	stmdaeq	r0, {r0, r2, r3}
    3c40:	1cf0001a 	ldclne	0, cr0, [r0], #104	; 0x68
    3c44:	02f0001a 	rscseq	r0, r0, #26
    3c48:	012c007d 	teqeq	ip, sp, ror r0
    3c4c:	0000194e 	andeq	r1, r0, lr, asr #18
    3c50:	0101a501 	tsteq	r1, r1, lsl #10
    3c54:	f0001a1c 			; <UNDEFINED> instruction: 0xf0001a1c
    3c58:	f0001aa8 			; <UNDEFINED> instruction: 0xf0001aa8
    3c5c:	00001027 	andeq	r1, r0, r7, lsr #32
    3c60:	0000108d 	andeq	r1, r0, sp, lsl #1
    3c64:	0019f62d 	andseq	pc, r9, sp, lsr #12
    3c68:	01a50100 			; <UNDEFINED> instruction: 0x01a50100
    3c6c:	00000053 	andeq	r0, r0, r3, asr r0
    3c70:	00001047 	andeq	r1, r0, r7, asr #32
    3c74:	0019e92f 	andseq	lr, r9, pc, lsr #18
    3c78:	01a80100 			; <UNDEFINED> instruction: 0x01a80100
    3c7c:	00000053 	andeq	r0, r0, r3, asr r0
    3c80:	00001065 	andeq	r1, r0, r5, rrx
    3c84:	0066642e 	rsbeq	r6, r6, lr, lsr #8
    3c88:	5301a901 	movwpl	sl, #6401	; 0x1901
    3c8c:	93000000 	movwls	r0, #0
    3c90:	2e000010 	mcrcs	0, 0, r0, cr0, cr0, {0}
    3c94:	0072636c 	rsbseq	r6, r2, ip, ror #6
    3c98:	5301aa01 	movwpl	sl, #6657	; 0x1a01
    3c9c:	b6000000 	strlt	r0, [r0], -r0
    3ca0:	2b000010 	blcs	3ce8 <__standby_start+0x3ce8>
    3ca4:	00000d2b 	andeq	r0, r0, fp, lsr #26
    3ca8:	f0001aa0 			; <UNDEFINED> instruction: 0xf0001aa0
    3cac:	f0001aa4 			; <UNDEFINED> instruction: 0xf0001aa4
    3cb0:	0001bf01 	andeq	fp, r1, r1, lsl #30
    3cb4:	19960131 	ldmibne	r6, {r0, r4, r5, r8}
    3cb8:	e6010000 	str	r0, [r1], -r0
    3cbc:	00410101 	subeq	r0, r1, r1, lsl #2
    3cc0:	1aa80000 	bne	fea03cc8 <__bss_end+0xe9fff1c>
    3cc4:	1b58f000 	blne	163fccc <__standby_start+0x163fccc>
    3cc8:	10d5f000 	sbcsne	pc, r5, r0
    3ccc:	10f00000 	rscsne	r0, r0, r0
    3cd0:	502d0000 	eorpl	r0, sp, r0
    3cd4:	0100001b 	tsteq	r0, fp, lsl r0
    3cd8:	0f7b01e6 	svceq	0x007b01e6
    3cdc:	10f50000 	rscsne	r0, r5, r0
    3ce0:	41320000 	teqmi	r2, r0
    3ce4:	cc00000d 	stcgt	0, cr0, [r0], {13}
    3ce8:	00f0001a 	rscseq	r0, r0, sl, lsl r0
    3cec:	01000002 	tsteq	r0, r2
    3cf0:	10d501f4 	ldrshne	r0, [r5], #20
    3cf4:	4f290000 	svcmi	0x00290000
    3cf8:	0000000d 	andeq	r0, r0, sp
    3cfc:	000d4133 	andeq	r4, sp, r3, lsr r1
    3d00:	001ae800 	andseq	lr, sl, r0, lsl #16
    3d04:	001b10f0 	ldrsheq	r1, [fp], -r0
    3d08:	01f601f0 	ldrsheq	r0, [r6, #16]!
    3d0c:	000d4f22 	andeq	r4, sp, r2, lsr #30
    3d10:	00112000 	andseq	r2, r1, r0
    3d14:	31000000 	mrscc	r0, (UNDEF: 0)
    3d18:	00194201 	andseq	r4, r9, r1, lsl #4
    3d1c:	01fd0100 	mvnseq	r0, r0, lsl #2
    3d20:	00005301 	andeq	r5, r0, r1, lsl #6
    3d24:	001b5800 	andseq	r5, fp, r0, lsl #16
    3d28:	001be4f0 			; <UNDEFINED> instruction: 0x001be4f0
    3d2c:	001133f0 			; <UNDEFINED> instruction: 0x001133f0
    3d30:	00116700 	andseq	r6, r1, r0, lsl #14
    3d34:	75623500 	strbvc	r3, [r2, #-1280]!	; 0x500
    3d38:	fd010066 	stc2	0, cr0, [r1, #-408]	; 0xfffffe68
    3d3c:	000ffd01 	andeq	pc, pc, r1, lsl #26
    3d40:	00115300 	andseq	r5, r1, r0, lsl #6
    3d44:	006e3600 	rsbeq	r3, lr, r0, lsl #12
    3d48:	5301fd01 	movwpl	pc, #7425	; 0x1d01	; <UNPREDICTABLE>
    3d4c:	01000000 	mrseq	r0, (UNDEF: 0)
    3d50:	00692e51 	rsbeq	r2, r9, r1, asr lr
    3d54:	5301ff01 	movwpl	pc, #7937	; 0x1f01	; <UNPREDICTABLE>
    3d58:	66000000 	strvs	r0, [r0], -r0
    3d5c:	2e000011 	mcrcs	0, 0, r0, cr0, cr1, {0}
    3d60:	00010063 	andeq	r0, r1, r3, rrx
    3d64:	000c7202 	andeq	r7, ip, r2, lsl #4
    3d68:	00119100 	andseq	r9, r1, r0, lsl #2
    3d6c:	0d5a3700 	ldcleq	7, cr3, [sl, #-0]
    3d70:	1b840000 	blne	fe103d78 <__bss_end+0xe0fffcc>
    3d74:	0220f000 	eoreq	pc, r0, #0
    3d78:	07010000 	streq	r0, [r1, -r0]
    3d7c:	02482602 	subeq	r2, r8, #2097152	; 0x200000
    3d80:	6c230000 	stcvs	0, cr0, [r3], #-0
    3d84:	b100000d 	tstlt	r0, sp
    3d88:	00000011 	andeq	r0, r0, r1, lsl r0
    3d8c:	ce390000 	cdpgt	0, 3, cr0, cr9, cr0, {0}
    3d90:	0100001a 	tsteq	r0, sl, lsl r0
    3d94:	0000530a 	andeq	r5, r0, sl, lsl #6
    3d98:	60030500 	andvs	r0, r3, r0, lsl #10
    3d9c:	39f0003a 	ldmibcc	r0!, {r1, r3, r4, r5}^
    3da0:	00001a5c 	andeq	r1, r0, ip, asr sl
    3da4:	00530b01 	subseq	r0, r3, r1, lsl #22
    3da8:	03050000 	movweq	r0, #20480	; 0x5000
    3dac:	f0003a64 			; <UNDEFINED> instruction: 0xf0003a64
    3db0:	00195a39 	andseq	r5, r9, r9, lsr sl
    3db4:	530c0100 	movwpl	r0, #49408	; 0xc100
    3db8:	05000000 	streq	r0, [r0, #-0]
    3dbc:	003a5c03 	eorseq	r5, sl, r3, lsl #24
    3dc0:	19fe39f0 	ldmibne	lr!, {r4, r5, r6, r7, r8, fp, ip, sp}^
    3dc4:	0d010000 	stceq	0, cr0, [r1, #-0]
    3dc8:	00000053 	andeq	r0, r0, r3, asr r0
    3dcc:	3a6c0305 	bcc	1b049e8 <__standby_start+0x1b049e8>
    3dd0:	ef39f000 	svc	0x0039f000
    3dd4:	01000019 	tsteq	r0, r9, lsl r0
    3dd8:	0000530e 	andeq	r5, r0, lr, lsl #6
    3ddc:	68030500 	stmdavs	r3, {r8, sl}
    3de0:	00f0003a 	rscseq	r0, r0, sl, lsr r0
    3de4:	00000840 	andeq	r0, r0, r0, asr #16
    3de8:	102d0002 	eorne	r0, sp, r2
    3dec:	01040000 	mrseq	r0, (UNDEF: 4)
    3df0:	000003f4 	strdeq	r0, [r0], -r4
    3df4:	001b8c01 	andseq	r8, fp, r1, lsl #24
    3df8:	00048200 	andeq	r8, r4, r0, lsl #4
    3dfc:	001be400 	andseq	lr, fp, r0, lsl #8
    3e00:	0023d0f0 	strdeq	sp, [r3], -r0	; <UNPREDICTABLE>
    3e04:	000edcf0 	strdeq	sp, [lr], -r0
    3e08:	06010200 	streq	r0, [r1], -r0, lsl #4
    3e0c:	0000078d 	andeq	r0, r0, sp, lsl #15
    3e10:	8b080102 	blhi	204220 <__standby_start+0x204220>
    3e14:	02000007 	andeq	r0, r0, #7
    3e18:	06410502 	strbeq	r0, [r1], -r2, lsl #10
    3e1c:	02020000 	andeq	r0, r2, #0
    3e20:	00084d07 	andeq	r4, r8, r7, lsl #26
    3e24:	0e1c0300 	cdpeq	3, 1, cr0, cr12, cr0, {0}
    3e28:	12020000 	andne	r0, r2, #0
    3e2c:	0000004c 	andeq	r0, r0, ip, asr #32
    3e30:	69050404 	stmdbvs	r5, {r2, sl}
    3e34:	0200746e 	andeq	r7, r0, #1845493760	; 0x6e000000
    3e38:	02450704 	subeq	r0, r5, #1048576	; 0x100000
    3e3c:	08020000 	stmdaeq	r2, {}	; <UNPREDICTABLE>
    3e40:	00047405 	andeq	r7, r4, r5, lsl #8
    3e44:	07080200 	streq	r0, [r8, -r0, lsl #4]
    3e48:	0000023b 	andeq	r0, r0, fp, lsr r2
    3e4c:	001ae303 	andseq	lr, sl, r3, lsl #6
    3e50:	53180200 	tstpl	r8, #0
    3e54:	05000000 	streq	r0, [r0, #-0]
    3e58:	00000845 	andeq	r0, r0, r5, asr #16
    3e5c:	e07a0404 	rsbs	r0, sl, r4, lsl #8
    3e60:	06000000 	streq	r0, [r0], -r0
    3e64:	00000688 	andeq	r0, r0, r8, lsl #13
    3e68:	03340600 	teqeq	r4, #0
    3e6c:	06010000 	streq	r0, [r1], -r0
    3e70:	00000746 	andeq	r0, r0, r6, asr #14
    3e74:	03280602 	teqeq	r8, #2097152	; 0x200000
    3e78:	06030000 	streq	r0, [r3], -r0
    3e7c:	0000042e 	andeq	r0, r0, lr, lsr #8
    3e80:	06950604 	ldreq	r0, [r5], r4, lsl #12
    3e84:	06050000 	streq	r0, [r5], -r0
    3e88:	000003e7 	andeq	r0, r0, r7, ror #7
    3e8c:	082f0606 	stmdaeq	pc!, {r1, r2, r9, sl}	; <UNPREDICTABLE>
    3e90:	06070000 	streq	r0, [r7], -r0
    3e94:	00000461 	andeq	r0, r0, r1, ror #8
    3e98:	08d00608 	ldmeq	r0, {r3, r9, sl}^
    3e9c:	06090000 	streq	r0, [r9], -r0
    3ea0:	00000623 	andeq	r0, r0, r3, lsr #12
    3ea4:	064b060a 	strbeq	r0, [fp], -sl, lsl #12
    3ea8:	060b0000 	streq	r0, [fp], -r0
    3eac:	0000083f 	andeq	r0, r0, pc, lsr r8
    3eb0:	07a0060c 	streq	r0, [r0, ip, lsl #12]!
    3eb4:	060d0000 	streq	r0, [sp], -r0
    3eb8:	00000602 	andeq	r0, r0, r2, lsl #12
    3ebc:	07ce060e 	strbeq	r0, [lr, lr, lsl #12]
    3ec0:	000f0000 	andeq	r0, pc, r0
    3ec4:	94080102 	strls	r0, [r8], #-258	; 0x102
    3ec8:	02000007 	andeq	r0, r0, #7
    3ecc:	02400704 	subeq	r0, r0, #1048576	; 0x100000
    3ed0:	04070000 	streq	r0, [r7], #-0
    3ed4:	001b7d03 	andseq	r7, fp, r3, lsl #26
    3ed8:	fb280300 	blx	a04ae2 <__standby_start+0xa04ae2>
    3edc:	08000000 	stmdaeq	r0, {}	; <UNPREDICTABLE>
    3ee0:	00001afe 	strdeq	r1, [r0], -lr
    3ee4:	15000504 	strne	r0, [r0, #-1284]	; 0x504
    3ee8:	09000001 	stmdbeq	r0, {r0}
    3eec:	00001b3e 	andeq	r1, r0, lr, lsr fp
    3ef0:	000000ee 	andeq	r0, r0, lr, ror #1
    3ef4:	01002302 	tsteq	r0, r2, lsl #6
    3ef8:	1b000300 	blne	4b00 <__standby_start+0x4b00>
    3efc:	66030000 	strvs	r0, [r3], -r0
    3f00:	000000f0 	strdeq	r0, [r0], -r0	; <UNPREDICTABLE>
    3f04:	001bbd0a 	andseq	fp, fp, sl, lsl #26
    3f08:	015b0100 	cmpeq	fp, r0, lsl #2
    3f0c:	0000015e 	andeq	r0, r0, lr, asr r1
    3f10:	00015e01 	andeq	r5, r1, r1, lsl #28
    3f14:	1b5f0b00 	blne	17c6b1c <__standby_start+0x17c6b1c>
    3f18:	5b010000 	blpl	43f20 <__standby_start+0x43f20>
    3f1c:	0000015e 	andeq	r0, r0, lr, asr r1
    3f20:	6372730c 	cmnvs	r2, #805306368	; 0x30000000
    3f24:	645b0100 	ldrbvs	r0, [fp], #-256	; 0x100
    3f28:	0b000001 	bleq	3f34 <__standby_start+0x3f34>
    3f2c:	0000182e 	andeq	r1, r0, lr, lsr #16
    3f30:	00685b01 	rsbeq	r5, r8, r1, lsl #22
    3f34:	740d0000 	strvc	r0, [sp], #-0
    3f38:	0100706d 	tsteq	r0, sp, rrx
    3f3c:	00015e5d 	andeq	r5, r1, sp, asr lr
    3f40:	040e0000 	streq	r0, [lr], #-0
    3f44:	000000e0 	andeq	r0, r0, r0, ror #1
    3f48:	016a040e 	cmneq	sl, lr, lsl #8
    3f4c:	e00f0000 	and	r0, pc, r0
    3f50:	0a000000 	beq	3f58 <__standby_start+0x3f58>
    3f54:	00001b43 	andeq	r1, r0, r3, asr #22
    3f58:	68011d01 	stmdavs	r1, {r0, r8, sl, fp, ip}
    3f5c:	01000000 	mrseq	r0, (UNDEF: 0)
    3f60:	00000194 	muleq	r0, r4, r1
    3f64:	0100730c 	tsteq	r0, ip, lsl #6
    3f68:	0001641d 	andeq	r6, r1, sp, lsl r4
    3f6c:	63730d00 	cmnvs	r3, #0
    3f70:	641f0100 	ldrvs	r0, [pc], #-256	; 3f78 <__standby_start+0x3f78>
    3f74:	00000001 	andeq	r0, r0, r1
    3f78:	001b570a 	andseq	r5, fp, sl, lsl #14
    3f7c:	012e0100 	teqeq	lr, r0, lsl #2
    3f80:	0000015e 	andeq	r0, r0, lr, asr r1
    3f84:	0001c701 	andeq	ip, r1, r1, lsl #14
    3f88:	1b5f0b00 	blne	17c6b90 <__standby_start+0x17c6b90>
    3f8c:	2e010000 	cdpcs	0, 0, cr0, cr1, cr0, {0}
    3f90:	0000015e 	andeq	r0, r0, lr, asr r1
    3f94:	6372730c 	cmnvs	r2, #805306368	; 0x30000000
    3f98:	642e0100 	strtvs	r0, [lr], #-256	; 0x100
    3f9c:	0d000001 	stceq	0, cr0, [r0, #-4]
    3fa0:	00706d74 	rsbseq	r6, r0, r4, ror sp
    3fa4:	015e3001 	cmpeq	lr, r1
    3fa8:	0a000000 	beq	3fb0 <__standby_start+0x3fb0>
    3fac:	00001b28 	andeq	r1, r0, r8, lsr #22
    3fb0:	5e019f01 	cdppl	15, 0, cr9, cr1, cr1, {0}
    3fb4:	01000001 	tsteq	r0, r1
    3fb8:	0000022d 	andeq	r0, r0, sp, lsr #4
    3fbc:	0002840b 	andeq	r8, r2, fp, lsl #8
    3fc0:	4c9f0100 	ldfmis	f0, [pc], {0}
    3fc4:	0b000000 	bleq	3fcc <__standby_start+0x3fcc>
    3fc8:	00001b50 	andeq	r1, r0, r0, asr fp
    3fcc:	015e9f01 	cmpeq	lr, r1, lsl #30
    3fd0:	380b0000 	stmdacc	fp, {}	; <UNPREDICTABLE>
    3fd4:	0100001b 	tsteq	r0, fp, lsl r0
    3fd8:	00004c9f 	muleq	r0, pc, ip	; <UNPREDICTABLE>
    3fdc:	1b2d1000 	blne	b47fe4 <__standby_start+0xb47fe4>
    3fe0:	a1010000 	mrsge	r0, (UNDEF: 1)
    3fe4:	0000022d 	andeq	r0, r0, sp, lsr #4
    3fe8:	001b1810 	andseq	r1, fp, r0, lsl r8
    3fec:	4ca20100 	stfmis	f0, [r2]
    3ff0:	0d000000 	stceq	0, cr0, [r0, #-0]
    3ff4:	a3010069 	movwge	r0, #4201	; 0x1069
    3ff8:	0000004c 	andeq	r0, r0, ip, asr #32
    3ffc:	01006a0d 	tsteq	r0, sp, lsl #20
    4000:	00004ca4 	andeq	r4, r0, r4, lsr #25
    4004:	1b4a1000 	blne	128800c <__standby_start+0x128800c>
    4008:	a5010000 	strge	r0, [r1, #-0]
    400c:	0000023d 	andeq	r0, r0, sp, lsr r2
    4010:	00e01100 	rsceq	r1, r0, r0, lsl #2
    4014:	023d0000 	eorseq	r0, sp, #0
    4018:	53120000 	tstpl	r2, #0
    401c:	0f000000 	svceq	0x00000000
    4020:	00e01100 	rsceq	r1, r0, r0, lsl #2
    4024:	024d0000 	subeq	r0, sp, #0
    4028:	53120000 	tstpl	r2, #0
    402c:	10000000 	andne	r0, r0, r0
    4030:	1ade1300 	bne	ff788c38 <__bss_end+0xf784e8c>
    4034:	ce010000 	cdpgt	0, 0, cr0, cr1, cr0, {0}
    4038:	00015e01 	andeq	r5, r1, r1, lsl #28
    403c:	001be400 	andseq	lr, fp, r0, lsl #8
    4040:	001ca0f0 	ldrsheq	sl, [ip], -r0
    4044:	0011dcf0 			; <UNDEFINED> instruction: 0x0011dcf0
    4048:	0002ce00 	andeq	ip, r2, r0, lsl #28
    404c:	02841400 	addeq	r1, r4, #0
    4050:	ce010000 	cdpgt	0, 0, cr0, cr1, cr0, {0}
    4054:	00000053 	andeq	r0, r0, r3, asr r0
    4058:	00001209 	andeq	r1, r0, r9, lsl #4
    405c:	001b5014 	andseq	r5, fp, r4, lsl r0
    4060:	5ece0100 	polple	f0, f6, f0
    4064:	3d000001 	stccc	0, cr0, [r0, #-4]
    4068:	14000012 	strne	r0, [r0], #-18
    406c:	00001b38 	andeq	r1, r0, r8, lsr fp
    4070:	004cce01 	subeq	ip, ip, r1, lsl #28
    4074:	125b0000 	subsne	r0, fp, #0
    4078:	2d150000 	ldccs	0, cr0, [r5, #-0]
    407c:	0100001b 	tsteq	r0, fp, lsl r0
    4080:	00022dd0 	ldrdeq	r2, [r2], -r0
    4084:	50910200 	addspl	r0, r1, r0, lsl #4
    4088:	01006916 	tsteq	r0, r6, lsl r9
    408c:	00004cd1 	ldrdeq	r4, [r0], -r1
    4090:	00127900 	andseq	r7, r2, r0, lsl #18
    4094:	006a1600 	rsbeq	r1, sl, r0, lsl #12
    4098:	004cd201 	subeq	sp, ip, r1, lsl #4
    409c:	12a20000 	adcne	r0, r2, #0
    40a0:	4a150000 	bmi	5440a8 <__standby_start+0x5440a8>
    40a4:	0100001b 	tsteq	r0, fp, lsl r0
    40a8:	00023dd3 	ldrdeq	r3, [r2], -r3	; <UNPREDICTABLE>
    40ac:	bc910300 	ldclt	3, cr0, [r1], {0}
    40b0:	6417007f 	ldrvs	r0, [r7], #-127	; 0x7f
    40b4:	0100001b 	tsteq	r0, fp, lsl r0
    40b8:	4101016a 	tstmi	r1, sl, ror #2
    40bc:	a0000000 	andge	r0, r0, r0
    40c0:	48f0001c 	ldmmi	r0!, {r2, r3, r4}^
    40c4:	b6f0001d 	usatlt	r0, #16, sp
    40c8:	66000012 			; <UNDEFINED> instruction: 0x66000012
    40cc:	18000003 	stmdane	r0, {r0, r1}
    40d0:	00001b50 	andeq	r1, r0, r0, asr fp
    40d4:	5e016a01 	vmlapl.f32	s12, s2, s2
    40d8:	e2000001 	and	r0, r0, #1
    40dc:	19000012 	stmdbne	r0, {r1, r4}
    40e0:	006e656c 	rsbeq	r6, lr, ip, ror #10
    40e4:	41016a01 	tstmi	r1, r1, lsl #20
    40e8:	00000000 	andeq	r0, r0, r0
    40ec:	18000013 	stmdane	r0, {r0, r1, r4}
    40f0:	00001b6a 	andeq	r1, r0, sl, ror #22
    40f4:	41016a01 	tstmi	r1, r1, lsl #20
    40f8:	1e000000 	cdpne	0, 0, cr0, cr0, cr0, {0}
    40fc:	1a000013 	bne	4150 <__standby_start+0x4150>
    4100:	00001af6 	strdeq	r1, [r0], -r6
    4104:	3d016e01 	stccc	14, cr6, [r1, #-4]
    4108:	02000002 	andeq	r0, r0, #2
    410c:	201b5c91 	mulscs	fp, r1, ip
    4110:	dc000001 	stcle	0, cr0, [r0], {1}
    4114:	70f0001c 	rscsvc	r0, r0, ip, lsl r0
    4118:	01000002 	tsteq	r0, r2
    411c:	471c0172 			; <UNDEFINED> instruction: 0x471c0172
    4120:	3c000001 	stccc	0, cr0, [r0], {1}
    4124:	1c000013 	stcne	0, cr0, [r0], {19}
    4128:	0000013c 	andeq	r0, r0, ip, lsr r1
    412c:	00001372 	andeq	r1, r0, r2, ror r3
    4130:	0001311c 	andeq	r3, r1, ip, lsl r1
    4134:	00139400 	andseq	r9, r3, r0, lsl #8
    4138:	02881d00 	addeq	r1, r8, #0
    413c:	521e0000 	andspl	r0, lr, #0
    4140:	f4000001 	vst4.8	{d0-d3}, [r0], r1
    4144:	00000013 	andeq	r0, r0, r3, lsl r0
    4148:	c71f0000 	ldrgt	r0, [pc, -r0]
    414c:	48000001 	stmdami	r0, {r0}
    4150:	30f0001d 	rscscc	r0, r0, sp, lsl r0
    4154:	07f0001e 			; <UNDEFINED> instruction: 0x07f0001e
    4158:	bf000014 	svclt	0x00000014
    415c:	1c000003 	stcne	0, cr0, [r0], {3}
    4160:	000001d8 	ldrdeq	r0, [r0], -r8
    4164:	00001434 	andeq	r1, r0, r4, lsr r4
    4168:	0001e31c 	andeq	lr, r1, ip, lsl r3
    416c:	00146800 	andseq	r6, r4, r0, lsl #16
    4170:	01f92000 	mvnseq	r2, r0
    4174:	91020000 	mrsls	r0, (UNDEF: 2)
    4178:	02041e58 	andeq	r1, r4, #1408	; 0x580
    417c:	14860000 	strne	r0, [r6], #0
    4180:	0f1e0000 	svceq	0x001e0000
    4184:	b1000002 	tstlt	r0, r2
    4188:	1e000014 	mcrne	0, 0, r0, cr0, cr4, {0}
    418c:	00000218 	andeq	r0, r0, r8, lsl r2
    4190:	000014e6 	andeq	r1, r0, r6, ror #9
    4194:	00022120 	andeq	r2, r2, r0, lsr #2
    4198:	44910200 	ldrmi	r0, [r1], #512	; 0x200
    419c:	0001ee21 	andeq	lr, r1, r1, lsr #28
    41a0:	22000a00 	andcs	r0, r0, #0
    41a4:	001b2101 	andseq	r2, fp, r1, lsl #2
    41a8:	01040100 	mrseq	r0, (UNDEF: 20)
    41ac:	00004101 	andeq	r4, r0, r1, lsl #2
    41b0:	001e3000 	andseq	r3, lr, r0
    41b4:	002100f0 	strdeq	r0, [r1], -r0	; <UNPREDICTABLE>
    41b8:	001505f0 			; <UNDEFINED> instruction: 0x001505f0
    41bc:	0005f000 	andeq	pc, r5, r0
    41c0:	1aef1800 	bne	ffbca1c8 <__bss_end+0xfbc641c>
    41c4:	04010000 	streq	r0, [r1], #-0
    41c8:	00016401 	andeq	r6, r1, r1, lsl #8
    41cc:	00153e00 	andseq	r3, r5, r0, lsl #28
    41d0:	331a2300 	tstcc	sl, #0
    41d4:	0100001b 	tsteq	r0, fp, lsl r0
    41d8:	01150106 	tsteq	r5, r6, lsl #2
    41dc:	91020000 	mrsls	r0, (UNDEF: 2)
    41e0:	1b501a4c 	blne	140ab18 <__standby_start+0x140ab18>
    41e4:	07010000 	streq	r0, [r1, -r0]
    41e8:	00022d01 	andeq	r2, r2, r1, lsl #26
    41ec:	bc910300 	ldclt	3, cr0, [r1], {0}
    41f0:	1b5e247f 	blne	178d3f4 <__standby_start+0x178d3f4>
    41f4:	08010000 	stmdaeq	r1, {}	; <UNPREDICTABLE>
    41f8:	00015e01 	andeq	r5, r1, r1, lsl #28
    41fc:	00158100 	andseq	r8, r5, r0, lsl #2
    4200:	1aea2400 	bne	ffa8d208 <__bss_end+0xfa8945c>
    4204:	09010000 	stmdbeq	r1, {}	; <UNPREDICTABLE>
    4208:	00015e01 	andeq	r5, r1, r1, lsl #28
    420c:	0015f300 	andseq	pc, r5, r0, lsl #6
    4210:	1b6a2400 	blne	1a8d218 <__standby_start+0x1a8d218>
    4214:	0a010000 	beq	4421c <__standby_start+0x4421c>
    4218:	00004101 	andeq	r4, r0, r1, lsl #2
    421c:	00160900 	andseq	r0, r6, r0, lsl #18
    4220:	656c2500 	strbvs	r2, [ip, #-1280]!	; 0x500
    4224:	0b01006e 	bleq	443e4 <__standby_start+0x443e4>
    4228:	00004101 	andeq	r4, r0, r1, lsl #2
    422c:	00162700 	andseq	r2, r6, r0, lsl #14
    4230:	016f2600 	cmneq	pc, r0, lsl #12
    4234:	1f500000 	svcne	0x00500000
    4238:	1f70f000 	svcne	0x0070f000
    423c:	3c01f000 	stccc	0, cr15, [r1], {-0}
    4240:	00047e01 	andeq	r7, r4, r1, lsl #28
    4244:	01801c00 	orreq	r1, r0, r0, lsl #24
    4248:	167d0000 	ldrbtne	r0, [sp], -r0
    424c:	50270000 	eorpl	r0, r7, r0
    4250:	70f0001f 	rscsvc	r0, r0, pc, lsl r0
    4254:	1ef0001f 	mrcne	0, 7, r0, cr0, cr15, {0}
    4258:	00000189 	andeq	r0, r0, r9, lsl #3
    425c:	00001690 	muleq	r0, r0, r6
    4260:	94260000 	strtls	r0, [r6], #-0
    4264:	8c000001 	stchi	0, cr0, [r0], {1}
    4268:	9cf0001f 	ldclls	0, cr0, [r0], #124	; 0x7c
    426c:	01f0001f 	mvnseq	r0, pc, lsl r0
    4270:	04b8013e 	ldrteq	r0, [r8], #318	; 0x13e
    4274:	b01c0000 	andslt	r0, ip, r0
    4278:	bb000001 	bllt	4284 <__standby_start+0x4284>
    427c:	1c000016 	stcne	0, cr0, [r0], {22}
    4280:	000001a5 	andeq	r0, r0, r5, lsr #3
    4284:	000016ce 	andeq	r1, r0, lr, asr #13
    4288:	001f8c27 	andseq	r8, pc, r7, lsr #24
    428c:	001f9cf0 			; <UNDEFINED> instruction: 0x001f9cf0
    4290:	01bb1ef0 			; <UNDEFINED> instruction: 0x01bb1ef0
    4294:	16ec0000 	strbtne	r0, [ip], r0
    4298:	00000000 	andeq	r0, r0, r0
    429c:	00019426 	andeq	r9, r1, r6, lsr #8
    42a0:	001fbc00 	andseq	fp, pc, r0, lsl #24
    42a4:	001fccf0 			; <UNDEFINED> instruction: 0x001fccf0
    42a8:	014c01f0 	strdeq	r0, [ip, #-16]
    42ac:	000004f2 	strdeq	r0, [r0], -r2
    42b0:	0001b01c 	andeq	fp, r1, ip, lsl r0
    42b4:	0016ff00 	andseq	pc, r6, r0, lsl #30
    42b8:	01a51c00 			; <UNDEFINED> instruction: 0x01a51c00
    42bc:	17150000 	ldrne	r0, [r5, -r0]
    42c0:	bc270000 	stclt	0, cr0, [r7], #-0
    42c4:	ccf0001f 	ldclgt	0, cr0, [r0], #124	; 0x7c
    42c8:	1ef0001f 	mrcne	0, 7, r0, cr0, cr15, {0}
    42cc:	000001bb 			; <UNDEFINED> instruction: 0x000001bb
    42d0:	00001733 	andeq	r1, r0, r3, lsr r7
    42d4:	6f260000 	svcvs	0x00260000
    42d8:	cc000001 	stcgt	0, cr0, [r0], {1}
    42dc:	ecf0001f 	ldcl	0, cr0, [r0], #124	; 0x7c
    42e0:	01f0001f 	mvnseq	r0, pc, lsl r0
    42e4:	051f014d 	ldreq	r0, [pc, #-333]	; 419f <__standby_start+0x419f>
    42e8:	80280000 	eorhi	r0, r8, r0
    42ec:	27000001 	strcs	r0, [r0, -r1]
    42f0:	f0001fcc 			; <UNDEFINED> instruction: 0xf0001fcc
    42f4:	f0001fec 			; <UNDEFINED> instruction: 0xf0001fec
    42f8:	0001891e 	andeq	r8, r1, lr, lsl r9
    42fc:	00174600 	andseq	r4, r7, r0, lsl #12
    4300:	26000000 	strcs	r0, [r0], -r0
    4304:	0000016f 	andeq	r0, r0, pc, ror #2
    4308:	f0002010 			; <UNDEFINED> instruction: 0xf0002010
    430c:	f0002030 			; <UNDEFINED> instruction: 0xf0002030
    4310:	50013201 	andpl	r3, r1, r1, lsl #4
    4314:	1c000005 	stcne	0, cr0, [r0], {5}
    4318:	00000180 	andeq	r0, r0, r0, lsl #3
    431c:	00001774 	andeq	r1, r0, r4, ror r7
    4320:	00201027 	eoreq	r1, r0, r7, lsr #32
    4324:	002030f0 	strdeq	r3, [r0], -r0	; <UNPREDICTABLE>
    4328:	01891ef0 	strdeq	r1, [r9, r0]
    432c:	17870000 	strne	r0, [r7, r0]
    4330:	00000000 	andeq	r0, r0, r0
    4334:	00019426 	andeq	r9, r1, r6, lsr #8
    4338:	00204c00 	eoreq	r4, r0, r0, lsl #24
    433c:	00205cf0 	strdeq	r5, [r0], -r0	; <UNPREDICTABLE>
    4340:	013401f0 			; <UNDEFINED> instruction: 0x013401f0
    4344:	0000058a 	andeq	r0, r0, sl, lsl #11
    4348:	0001b01c 	andeq	fp, r1, ip, lsl r0
    434c:	0017b200 	andseq	fp, r7, r0, lsl #4
    4350:	01a51c00 			; <UNDEFINED> instruction: 0x01a51c00
    4354:	17c50000 	strbne	r0, [r5, r0]
    4358:	4c270000 	stcmi	0, cr0, [r7], #-0
    435c:	5cf00020 	ldclpl	0, cr0, [r0], #128	; 0x80
    4360:	1ef00020 	cdpne	0, 15, cr0, cr0, cr0, {1}
    4364:	000001bb 			; <UNDEFINED> instruction: 0x000001bb
    4368:	000017e3 	andeq	r1, r0, r3, ror #15
    436c:	6f260000 	svcvs	0x00260000
    4370:	a8000001 	stmdage	r0, {r0}
    4374:	c8f00020 	ldmgt	r0!, {r5}^
    4378:	01f00020 	mvnseq	r0, r0, lsr #32
    437c:	05b90127 	ldreq	r0, [r9, #295]!	; 0x127
    4380:	80290000 	eorhi	r0, r9, r0
    4384:	01000001 	tsteq	r0, r1
    4388:	20a82756 	adccs	r2, r8, r6, asr r7
    438c:	20c8f000 	sbccs	pc, r8, r0
    4390:	891ef000 	ldmdbhi	lr, {ip, sp, lr, pc}
    4394:	f6000001 			; <UNDEFINED> instruction: 0xf6000001
    4398:	00000017 	andeq	r0, r0, r7, lsl r0
    439c:	01942a00 	orrseq	r2, r4, r0, lsl #20
    43a0:	20e40000 	rsccs	r0, r4, r0
    43a4:	20f4f000 	rscscs	pc, r4, r0
    43a8:	2901f000 	stmdbcs	r1, {ip, sp, lr, pc}
    43ac:	01b01c01 	lslseq	r1, r1, #24
    43b0:	18210000 	stmdane	r1!, {}	; <UNPREDICTABLE>
    43b4:	a51c0000 	ldrge	r0, [ip, #-0]
    43b8:	34000001 	strcc	r0, [r0], #-1
    43bc:	27000018 	smladcs	r0, r8, r0, r0
    43c0:	f00020e4 			; <UNDEFINED> instruction: 0xf00020e4
    43c4:	f00020f4 			; <UNDEFINED> instruction: 0xf00020f4
    43c8:	0001bb1e 	andeq	fp, r1, lr, lsl fp
    43cc:	00185200 	andseq	r5, r8, r0, lsl #4
    43d0:	00000000 	andeq	r0, r0, r0
    43d4:	1b700122 	blne	1c04864 <__standby_start+0x1c04864>
    43d8:	79010000 	stmdbvc	r1, {}	; <UNPREDICTABLE>
    43dc:	00410101 	subeq	r0, r1, r1, lsl #2
    43e0:	21000000 	mrscs	r0, (UNDEF: 0)
    43e4:	23d0f000 	bicscs	pc, r0, #0
    43e8:	1865f000 	stmdane	r5!, {ip, sp, lr, pc}^
    43ec:	08210000 	stmdaeq	r1!, {}	; <UNPREDICTABLE>
    43f0:	ef180000 	svc	0x00180000
    43f4:	0100001a 	tsteq	r0, sl, lsl r0
    43f8:	01640179 	smceq	16409	; 0x4019
    43fc:	189e0000 	ldmne	lr, {}	; <UNPREDICTABLE>
    4400:	1a230000 	bne	8c4408 <__standby_start+0x8c4408>
    4404:	00001b33 	andeq	r1, r0, r3, lsr fp
    4408:	15017b01 	strne	r7, [r1, #-2817]	; 0xb01
    440c:	02000001 	andeq	r0, r0, #1
    4410:	501a4c91 	mulspl	sl, r1, ip
    4414:	0100001b 	tsteq	r0, fp, lsl r0
    4418:	022d017c 	eoreq	r0, sp, #31
    441c:	91030000 	mrsls	r0, (UNDEF: 3)
    4420:	5e247fbc 	mcrpl	15, 1, r7, cr4, cr12, {5}
    4424:	0100001b 	tsteq	r0, fp, lsl r0
    4428:	015e017d 	cmpeq	lr, sp, ror r1
    442c:	18e10000 	stmiane	r1!, {}^	; <UNPREDICTABLE>
    4430:	ea240000 	b	904438 <__standby_start+0x904438>
    4434:	0100001a 	tsteq	r0, sl, lsl r0
    4438:	015e017e 	cmpeq	lr, lr, ror r1
    443c:	19530000 	ldmdbne	r3, {}^	; <UNPREDICTABLE>
    4440:	6a240000 	bvs	904448 <__standby_start+0x904448>
    4444:	0100001b 	tsteq	r0, fp, lsl r0
    4448:	0041017f 	subeq	r0, r1, pc, ror r1
    444c:	19690000 	stmdbne	r9!, {}^	; <UNPREDICTABLE>
    4450:	6c250000 	stcvs	0, cr0, [r5], #-0
    4454:	01006e65 	tsteq	r0, r5, ror #28
    4458:	00410180 	subeq	r0, r1, r0, lsl #3
    445c:	19870000 	stmibne	r7, {}	; <UNPREDICTABLE>
    4460:	6f260000 	svcvs	0x00260000
    4464:	20000001 	andcs	r0, r0, r1
    4468:	40f00022 	rscsmi	r0, r0, r2, lsr #32
    446c:	01f00022 	mvnseq	r0, r2, lsr #32
    4470:	06af01b1 			; <UNDEFINED> instruction: 0x06af01b1
    4474:	801c0000 	andshi	r0, ip, r0
    4478:	dd000001 	stcle	0, cr0, [r0, #-4]
    447c:	27000019 	smladcs	r0, r9, r0, r0
    4480:	f0002220 			; <UNDEFINED> instruction: 0xf0002220
    4484:	f0002240 			; <UNDEFINED> instruction: 0xf0002240
    4488:	0001891e 	andeq	r8, r1, lr, lsl r9
    448c:	0019f000 	andseq	pc, r9, r0
    4490:	26000000 	strcs	r0, [r0], -r0
    4494:	00000194 	muleq	r0, r4, r1
    4498:	f000225c 			; <UNDEFINED> instruction: 0xf000225c
    449c:	f000226c 			; <UNDEFINED> instruction: 0xf000226c
    44a0:	e901b301 	stmdb	r1, {r0, r8, r9, ip, sp, pc}
    44a4:	1c000006 	stcne	0, cr0, [r0], {6}
    44a8:	000001b0 			; <UNDEFINED> instruction: 0x000001b0
    44ac:	00001a1b 	andeq	r1, r0, fp, lsl sl
    44b0:	0001a51c 	andeq	sl, r1, ip, lsl r5
    44b4:	001a2e00 	andseq	r2, sl, r0, lsl #28
    44b8:	225c2700 	subscs	r2, ip, #0
    44bc:	226cf000 	rsbcs	pc, ip, #0
    44c0:	bb1ef000 	bllt	7c04c8 <__standby_start+0x7c04c8>
    44c4:	4c000001 	stcmi	0, cr0, [r0], {1}
    44c8:	0000001a 	andeq	r0, r0, sl, lsl r0
    44cc:	01942600 	orrseq	r2, r4, r0, lsl #12
    44d0:	228c0000 	addcs	r0, ip, #0
    44d4:	229cf000 	addscs	pc, ip, #0
    44d8:	c101f000 	mrsgt	pc, (UNDEF: 1)	; <UNPREDICTABLE>
    44dc:	00072301 	andeq	r2, r7, r1, lsl #6
    44e0:	01b01c00 	lslseq	r1, r0, #24
    44e4:	1a5f0000 	bne	17c44ec <__standby_start+0x17c44ec>
    44e8:	a51c0000 	ldrge	r0, [ip, #-0]
    44ec:	75000001 	strvc	r0, [r0, #-1]
    44f0:	2700001a 	smladcs	r0, sl, r0, r0
    44f4:	f000228c 			; <UNDEFINED> instruction: 0xf000228c
    44f8:	f000229c 			; <UNDEFINED> instruction: 0xf000229c
    44fc:	0001bb1e 	andeq	fp, r1, lr, lsl fp
    4500:	001a9300 	andseq	r9, sl, r0, lsl #6
    4504:	26000000 	strcs	r0, [r0], -r0
    4508:	0000016f 	andeq	r0, r0, pc, ror #2
    450c:	f000229c 			; <UNDEFINED> instruction: 0xf000229c
    4510:	f00022bc 			; <UNDEFINED> instruction: 0xf00022bc
    4514:	5001c201 	andpl	ip, r1, r1, lsl #4
    4518:	28000007 	stmdacs	r0, {r0, r1, r2}
    451c:	00000180 	andeq	r0, r0, r0, lsl #3
    4520:	00229c27 	eoreq	r9, r2, r7, lsr #24
    4524:	0022bcf0 	strdeq	fp, [r2], -r0	; <UNPREDICTABLE>
    4528:	01891ef0 	strdeq	r1, [r9, r0]
    452c:	1aa60000 	bne	fe984534 <__bss_end+0xe980788>
    4530:	00000000 	andeq	r0, r0, r0
    4534:	00016f26 	andeq	r6, r1, r6, lsr #30
    4538:	0022e000 	eoreq	lr, r2, r0
    453c:	002300f0 	strdeq	r0, [r3], -r0	; <UNPREDICTABLE>
    4540:	01a701f0 	strdeq	r0, [r7, r0]!	; <UNPREDICTABLE>
    4544:	00000781 	andeq	r0, r0, r1, lsl #15
    4548:	0001801c 	andeq	r8, r1, ip, lsl r0
    454c:	001ad400 	andseq	sp, sl, r0, lsl #8
    4550:	22e02700 	rsccs	r2, r0, #0
    4554:	2300f000 	movwcs	pc, #0	; <UNPREDICTABLE>
    4558:	891ef000 	ldmdbhi	lr, {ip, sp, lr, pc}
    455c:	e7000001 	str	r0, [r0, -r1]
    4560:	0000001a 	andeq	r0, r0, sl, lsl r0
    4564:	01942600 	orrseq	r2, r4, r0, lsl #12
    4568:	231c0000 	tstcs	ip, #0
    456c:	232cf000 	msrcs	CPSR_fs, #0
    4570:	a901f000 	stmdbge	r1, {ip, sp, lr, pc}
    4574:	0007bb01 	andeq	fp, r7, r1, lsl #22
    4578:	01b01c00 	lslseq	r1, r0, #24
    457c:	1b120000 	blne	484584 <__standby_start+0x484584>
    4580:	a51c0000 	ldrge	r0, [ip, #-0]
    4584:	25000001 	strcs	r0, [r0, #-1]
    4588:	2700001b 	smladcs	r0, fp, r0, r0
    458c:	f000231c 			; <UNDEFINED> instruction: 0xf000231c
    4590:	f000232c 			; <UNDEFINED> instruction: 0xf000232c
    4594:	0001bb1e 	andeq	fp, r1, lr, lsl fp
    4598:	001b4300 	andseq	r4, fp, r0, lsl #6
    459c:	26000000 	strcs	r0, [r0], -r0
    45a0:	0000016f 	andeq	r0, r0, pc, ror #2
    45a4:	f0002378 			; <UNDEFINED> instruction: 0xf0002378
    45a8:	f0002398 			; <UNDEFINED> instruction: 0xf0002398
    45ac:	ea019c01 	b	6b5b8 <__standby_start+0x6b5b8>
    45b0:	29000007 	stmdbcs	r0, {r0, r1, r2}
    45b4:	00000180 	andeq	r0, r0, r0, lsl #3
    45b8:	78275601 	stmdavc	r7!, {r0, r9, sl, ip, lr}
    45bc:	98f00023 	ldmls	r0!, {r0, r1, r5}^
    45c0:	1ef00023 	cdpne	0, 15, cr0, cr0, cr3, {1}
    45c4:	00000189 	andeq	r0, r0, r9, lsl #3
    45c8:	00001b56 	andeq	r1, r0, r6, asr fp
    45cc:	942a0000 	strtls	r0, [sl], #-0
    45d0:	b4000001 	strlt	r0, [r0], #-1
    45d4:	c4f00023 	ldrbtgt	r0, [r0], #35	; 0x23
    45d8:	01f00023 	mvnseq	r0, r3, lsr #32
    45dc:	b01c019e 	mulslt	ip, lr, r1
    45e0:	81000001 	tsthi	r0, r1
    45e4:	1c00001b 	stcne	0, cr0, [r0], {27}
    45e8:	000001a5 	andeq	r0, r0, r5, lsr #3
    45ec:	00001b94 	muleq	r0, r4, fp
    45f0:	0023b427 	eoreq	fp, r3, r7, lsr #8
    45f4:	0023c4f0 	strdeq	ip, [r3], -r0	; <UNPREDICTABLE>
    45f8:	01bb1ef0 			; <UNDEFINED> instruction: 0x01bb1ef0
    45fc:	1bb20000 	blne	fec84604 <__bss_end+0xec80858>
    4600:	00000000 	andeq	r0, r0, r0
    4604:	00e01100 	rsceq	r1, r0, r0, lsl #2
    4608:	08310000 	ldmdaeq	r1!, {}	; <UNPREDICTABLE>
    460c:	53120000 	tstpl	r2, #0
    4610:	ff000000 			; <UNDEFINED> instruction: 0xff000000
    4614:	1b081a00 	blne	20ae1c <__standby_start+0x20ae1c>
    4618:	03010000 	movweq	r0, #4096	; 0x1000
    461c:	00082101 	andeq	r2, r8, r1, lsl #2
    4620:	70030500 	andvc	r0, r3, r0, lsl #10
    4624:	00f0003a 	rscseq	r0, r0, sl, lsr r0
    4628:	00000079 	andeq	r0, r0, r9, ror r0
    462c:	124e0002 	subne	r0, lr, #2
    4630:	01040000 	mrseq	r0, (UNDEF: 4)
    4634:	0000122a 	andeq	r1, r0, sl, lsr #4
    4638:	f00023d0 			; <UNDEFINED> instruction: 0xf00023d0
    463c:	f00025ac 			; <UNDEFINED> instruction: 0xf00025ac
    4640:	68637261 	stmdavs	r3!, {r0, r5, r6, r9, ip, sp, lr}^
    4644:	6d72612f 	ldfvse	f6, [r2, #-188]!	; 0xffffff44
    4648:	63616d2f 	cmnvs	r1, #3008	; 0xbc0
    464c:	75732d68 	ldrbvc	r2, [r3, #-3432]!	; 0xd68
    4650:	2f69786e 	svccs	0x0069786e
    4654:	732f6d70 	teqvc	pc, #7168	; 0x1c00
    4658:	646e6174 	strbtvs	r6, [lr], #-372	; 0x174
    465c:	2e2f7962 	cdpcs	9, 2, cr7, cr15, cr2, {3}
    4660:	2f2e2e2f 	svccs	0x002e2e2f
    4664:	5f6d656d 	svcpl	0x006d656d
    4668:	6c766964 	ldclvs	9, cr6, [r6], #-400	; 0xfffffe70
    466c:	532e6269 	teqpl	lr, #-1879048186	; 0x90000006
    4670:	6f682f00 	svcvs	0x00682f00
    4674:	742f656d 	strtvc	r6, [pc], #-1389	; 467c <__standby_start+0x467c>
    4678:	742f6d6f 	strtvc	r6, [pc], #-3439	; 4680 <__standby_start+0x4680>
    467c:	745f7362 	ldrbvc	r7, [pc], #-866	; 4684 <__standby_start+0x4684>
    4680:	656c6261 	strbvs	r6, [ip, #-609]!	; 0x261
    4684:	696c2f74 	stmdbvs	ip!, {r2, r4, r5, r6, r8, r9, sl, fp, sp}^
    4688:	65656863 	strbvs	r6, [r5, #-2147]!	; 0x863
    468c:	6e696c2f 	cdpvs	12, 6, cr6, cr9, cr15, {1}
    4690:	332d7875 	teqcc	sp, #7667712	; 0x750000
    4694:	4700342e 	strmi	r3, [r0, -lr, lsr #8]
    4698:	4120554e 	teqmi	r0, lr, asr #10
    469c:	2e322053 	mrccs	0, 1, r2, cr2, cr3, {2}
    46a0:	01003232 	tsteq	r0, r2, lsr r2
    46a4:	0000f680 	andeq	pc, r0, r0, lsl #13
    46a8:	62000200 	andvs	r0, r0, #0
    46ac:	04000012 	streq	r0, [r0], #-18
    46b0:	0003f401 	andeq	pc, r3, r1, lsl #8
    46b4:	1bfe0100 	blne	fff84abc <__bss_end+0xff80d10>
    46b8:	04820000 	streq	r0, [r2], #0
    46bc:	25ac0000 	strcs	r0, [ip, #0]!
    46c0:	2604f000 	strcs	pc, [r4], -r0
    46c4:	12d9f000 	sbcsne	pc, r9, #0
    46c8:	01020000 	mrseq	r0, (UNDEF: 2)
    46cc:	00078d06 	andeq	r8, r7, r6, lsl #26
    46d0:	08010200 	stmdaeq	r1, {r9}
    46d4:	0000078b 	andeq	r0, r0, fp, lsl #15
    46d8:	41050202 	tstmi	r5, r2, lsl #4
    46dc:	02000006 	andeq	r0, r0, #6
    46e0:	084d0702 	stmdaeq	sp, {r1, r8, r9, sl}^
    46e4:	1c030000 	stcne	0, cr0, [r3], {-0}
    46e8:	0200000e 	andeq	r0, r0, #14
    46ec:	00004c12 	andeq	r4, r0, r2, lsl ip
    46f0:	05040400 	streq	r0, [r4, #-1024]	; 0x400
    46f4:	00746e69 	rsbseq	r6, r4, r9, ror #28
    46f8:	00043a03 	andeq	r3, r4, r3, lsl #20
    46fc:	5e130200 	cdppl	2, 1, cr0, cr3, cr0, {0}
    4700:	02000000 	andeq	r0, r0, #0
    4704:	02450704 	subeq	r0, r5, #1048576	; 0x100000
    4708:	08020000 	stmdaeq	r2, {}	; <UNPREDICTABLE>
    470c:	00047405 	andeq	r7, r4, r5, lsl #8
    4710:	07080200 	streq	r0, [r8, -r0, lsl #4]
    4714:	0000023b 	andeq	r0, r0, fp, lsr r2
    4718:	94080102 	strls	r0, [r8], #-258	; 0x102
    471c:	02000007 	andeq	r0, r0, #7
    4720:	02400704 	subeq	r0, r0, #1048576	; 0x100000
    4724:	01050000 	mrseq	r0, (UNDEF: 5)
    4728:	00001bd6 	ldrdeq	r1, [r0], -r6
    472c:	ac010301 	stcge	3, cr0, [r1], {1}
    4730:	b8f00025 	ldmlt	r0!, {r0, r2, r5}^
    4734:	02f00025 	rscseq	r0, r0, #37	; 0x25
    4738:	0106007d 	tsteq	r6, sp, ror r0
    473c:	00001bea 	andeq	r1, r0, sl, ror #23
    4740:	53010801 	movwpl	r0, #6145	; 0x1801
    4744:	b8000000 	stmdalt	r0, {}	; <UNPREDICTABLE>
    4748:	04f00025 	ldrbteq	r0, [r0], #37	; 0x25
    474c:	02f00026 	rscseq	r0, r0, #38	; 0x26
    4750:	e107007d 	tst	r7, sp, ror r0
    4754:	0100001b 	tsteq	r0, fp, lsl r0
    4758:	00005308 	andeq	r5, r0, r8, lsl #6
    475c:	001bc500 	andseq	ip, fp, r0, lsl #10
    4760:	1bcd0700 	blne	ff346368 <__bss_end+0xf3425bc>
    4764:	08010000 	stmdaeq	r1, {}	; <UNPREDICTABLE>
    4768:	00000053 	andeq	r0, r0, r3, asr r0
    476c:	00001bd8 	ldrdeq	r1, [r0], -r8
    4770:	001bf708 	andseq	pc, fp, r8, lsl #14
    4774:	530a0100 	movwpl	r0, #41216	; 0xa100
    4778:	eb000000 	bl	4780 <__standby_start+0x4780>
    477c:	0800001b 	stmdaeq	r0, {r0, r1, r3, r4}
    4780:	00001bc5 	andeq	r1, r0, r5, asr #23
    4784:	00530b01 	subseq	r0, r3, r1, lsl #22
    4788:	1c230000 	stcne	0, cr0, [r3], #-0
    478c:	71080000 	mrsvc	r0, (UNDEF: 8)
    4790:	01000013 	tsteq	r0, r3, lsl r0
    4794:	0000410c 	andeq	r4, r0, ip, lsl #2
    4798:	001c4d00 	andseq	r4, ip, r0, lsl #26
    479c:	cd000000 	stcgt	0, cr0, [r0, #-0]
    47a0:	02000002 	andeq	r0, r0, #2
    47a4:	0012e300 	andseq	lr, r2, r0, lsl #6
    47a8:	f4010400 	vst3.8	{d0-d2}, [r1], r0
    47ac:	01000003 	tsteq	r0, r3
    47b0:	00001c30 	andeq	r1, r0, r0, lsr ip
    47b4:	00000482 	andeq	r0, r0, r2, lsl #9
    47b8:	f0002604 			; <UNDEFINED> instruction: 0xf0002604
    47bc:	f00027a0 			; <UNDEFINED> instruction: 0xf00027a0
    47c0:	00001361 	andeq	r1, r0, r1, ror #6
    47c4:	8d060102 	stfhis	f0, [r6, #-8]
    47c8:	02000007 	andeq	r0, r0, #7
    47cc:	078b0801 	streq	r0, [fp, r1, lsl #16]
    47d0:	02020000 	andeq	r0, r2, #0
    47d4:	00064105 	andeq	r4, r6, r5, lsl #2
    47d8:	07020200 	streq	r0, [r2, -r0, lsl #4]
    47dc:	0000084d 	andeq	r0, r0, sp, asr #16
    47e0:	000e1c03 	andeq	r1, lr, r3, lsl #24
    47e4:	4c120200 	lfmmi	f0, 4, [r2], {-0}
    47e8:	04000000 	streq	r0, [r0], #-0
    47ec:	6e690504 	cdpvs	5, 6, cr0, cr9, cr4, {0}
    47f0:	3a030074 	bcc	c49c8 <__standby_start+0xc49c8>
    47f4:	02000004 	andeq	r0, r0, #4
    47f8:	00005e13 	andeq	r5, r0, r3, lsl lr
    47fc:	07040200 	streq	r0, [r4, -r0, lsl #4]
    4800:	00000245 	andeq	r0, r0, r5, asr #4
    4804:	74050802 	strvc	r0, [r5], #-2050	; 0x802
    4808:	02000004 	andeq	r0, r0, #4
    480c:	023b0708 	eorseq	r0, fp, #2097152	; 0x200000
    4810:	53050000 	movwpl	r0, #20480	; 0x5000
    4814:	06000000 	streq	r0, [r0], -r0
    4818:	0000062e 	andeq	r0, r0, lr, lsr #12
    481c:	29180304 	ldmdbcs	r8, {r2, r8, r9}
    4820:	07000001 	streq	r0, [r0, -r1]
    4824:	000001c4 	andeq	r0, r0, r4, asr #3
    4828:	01d60732 	bicseq	r0, r6, r2, lsr r7
    482c:	07330000 	ldreq	r0, [r3, -r0]!
    4830:	000005ee 	andeq	r0, r0, lr, ror #11
    4834:	06a10700 	strteq	r0, [r1], r0, lsl #14
    4838:	00ca0000 	sbceq	r0, sl, r0
    483c:	00022207 	andeq	r2, r2, r7, lsl #4
    4840:	0700c000 	streq	ip, [r0, -r0]
    4844:	000005a1 	andeq	r0, r0, r1, lsr #11
    4848:	0d0700d1 	stceq	0, cr0, [r7, #-836]	; 0xfffffcbc
    484c:	00000000 	andeq	r0, r0, r0
    4850:	0002c207 	andeq	ip, r2, r7, lsl #4
    4854:	d1070000 	mrsle	r0, (UNDEF: 7)
    4858:	00000002 	andeq	r0, r0, r2
    485c:	0000be07 	andeq	fp, r0, r7, lsl #28
    4860:	0700e700 	streq	lr, [r0, -r0, lsl #14]
    4864:	000004f2 	strdeq	r0, [r0], -r2
    4868:	060700e8 	streq	r0, [r7], -r8, ror #1
    486c:	ea000005 	b	4888 <__standby_start+0x4888>
    4870:	051a0700 	ldreq	r0, [sl, #-1792]	; 0x700
    4874:	07000000 	streq	r0, [r0, -r0]
    4878:	0000003d 	andeq	r0, r0, sp, lsr r0
    487c:	510700e9 	smlattpl	r7, r9, r0, r0
    4880:	00000000 	andeq	r0, r0, r0
    4884:	00006507 	andeq	r6, r0, r7, lsl #10
    4888:	04070000 	streq	r0, [r7], #-0
    488c:	00000001 	andeq	r0, r0, r1
    4890:	00011507 	andeq	r1, r1, r7, lsl #10
    4894:	26072f00 	strcs	r2, [r7], -r0, lsl #30
    4898:	00000001 	andeq	r0, r0, r1
    489c:	00013707 	andeq	r3, r1, r7, lsl #14
    48a0:	48070000 	stmdami	r7, {}	; <UNPREDICTABLE>
    48a4:	00000001 	andeq	r0, r0, r1
    48a8:	00015907 	andeq	r5, r1, r7, lsl #18
    48ac:	6a070000 	bvs	1c48b4 <__standby_start+0x1c48b4>
    48b0:	31000001 	tstcc	r0, r1
    48b4:	00017b07 	andeq	r7, r1, r7, lsl #22
    48b8:	07018400 	streq	r8, [r1, -r0, lsl #8]
    48bc:	0000018c 	andeq	r0, r0, ip, lsl #3
    48c0:	019d0700 	orrseq	r0, sp, r0, lsl #14
    48c4:	00000000 	andeq	r0, r0, r0
    48c8:	00084506 	andeq	r4, r8, r6, lsl #10
    48cc:	7a040400 	bvc	1058d4 <__standby_start+0x1058d4>
    48d0:	00000196 	muleq	r0, r6, r1
    48d4:	00068807 	andeq	r8, r6, r7, lsl #16
    48d8:	34070000 	strcc	r0, [r7], #-0
    48dc:	01000003 	tsteq	r0, r3
    48e0:	00074607 	andeq	r4, r7, r7, lsl #12
    48e4:	28070200 	stmdacs	r7, {r9}
    48e8:	03000003 	movweq	r0, #3
    48ec:	00042e07 	andeq	r2, r4, r7, lsl #28
    48f0:	95070400 	strls	r0, [r7, #-1024]	; 0x400
    48f4:	05000006 	streq	r0, [r0, #-6]
    48f8:	0003e707 	andeq	lr, r3, r7, lsl #14
    48fc:	2f070600 	svccs	0x00070600
    4900:	07000008 	streq	r0, [r0, -r8]
    4904:	00046107 	andeq	r6, r4, r7, lsl #2
    4908:	d0070800 	andle	r0, r7, r0, lsl #16
    490c:	09000008 	stmdbeq	r0, {r3}
    4910:	00062307 	andeq	r2, r6, r7, lsl #6
    4914:	4b070a00 	blmi	1c711c <__standby_start+0x1c711c>
    4918:	0b000006 	bleq	4938 <__standby_start+0x4938>
    491c:	00083f07 	andeq	r3, r8, r7, lsl #30
    4920:	a0070c00 	andge	r0, r7, r0, lsl #24
    4924:	0d000007 	stceq	0, cr0, [r0, #-28]	; 0xffffffe4
    4928:	00060207 	andeq	r0, r6, r7, lsl #4
    492c:	ce070e00 	cdpgt	14, 0, cr0, cr7, cr0, {0}
    4930:	0f000007 	svceq	0x00000007
    4934:	08010200 	stmdaeq	r1, {r9}
    4938:	00000794 	muleq	r0, r4, r7
    493c:	40070402 	andmi	r0, r7, r2, lsl #8
    4940:	08000002 	stmdaeq	r0, {r1}
    4944:	72010904 	andvc	r0, r1, #65536	; 0x10000
    4948:	0100001c 	tsteq	r0, ip, lsl r0
    494c:	00410122 	subeq	r0, r1, r2, lsr #2
    4950:	26040000 	strcs	r0, [r4], -r0
    4954:	2694f000 	ldrcs	pc, [r4], r0
    4958:	1c77f000 	ldclne	0, cr15, [r7], #-0
    495c:	01d10000 	bicseq	r0, r1, r0
    4960:	690a0000 	stmdbvs	sl, {}	; <UNPREDICTABLE>
    4964:	53240100 	teqpl	r4, #0
    4968:	97000000 	strls	r0, [r0, -r0]
    496c:	0000001c 	andeq	r0, r0, ip, lsl r0
    4970:	1c650109 	stfnee	f0, [r5], #-36	; 0xffffffdc
    4974:	57010000 	strpl	r0, [r1, -r0]
    4978:	00004101 	andeq	r4, r0, r1, lsl #2
    497c:	00269400 	eoreq	r9, r6, r0, lsl #8
    4980:	0026e8f0 	strdeq	lr, [r6], -r0	; <UNPREDICTABLE>
    4984:	001cb6f0 			; <UNDEFINED> instruction: 0x001cb6f0
    4988:	00020b00 	andeq	r0, r2, r0, lsl #22
    498c:	00690a00 	rsbeq	r0, r9, r0, lsl #20
    4990:	004c5901 	subeq	r5, ip, r1, lsl #18
    4994:	1cd60000 	ldclne	0, cr0, [r6], {0}
    4998:	970b0000 	strls	r0, [fp, -r0]
    499c:	0100001c 	tsteq	r0, ip, lsl r0
    49a0:	0000735a 	andeq	r7, r0, sl, asr r3
    49a4:	001cf500 	andseq	pc, ip, r0, lsl #10
    49a8:	010c0000 	mrseq	r0, (UNDEF: 12)
    49ac:	00001c7f 	andeq	r1, r0, pc, ror ip
    49b0:	41017101 	tstmi	r1, r1, lsl #2
    49b4:	e8000000 	stmda	r0, {}	; <UNPREDICTABLE>
    49b8:	44f00026 	ldrbtmi	r0, [r0], #38	; 0x26
    49bc:	02f00027 	rscseq	r0, r0, #39	; 0x27
    49c0:	0255007d 	subseq	r0, r5, #125	; 0x7d
    49c4:	730d0000 	movwvc	r0, #53248	; 0xd000
    49c8:	01006372 	tsteq	r0, r2, ror r3
    49cc:	00007871 	andeq	r7, r0, r1, ror r8
    49d0:	001d2000 	andseq	r2, sp, r0
    49d4:	1cc00b00 	vstmiane	r0, {d16-d15}
    49d8:	73010000 	movwvc	r0, #4096	; 0x1000
    49dc:	00000053 	andeq	r0, r0, r3, asr r0
    49e0:	00001d3e 	andeq	r1, r0, lr, lsr sp
    49e4:	001ca20b 	andseq	sl, ip, fp, lsl #4
    49e8:	53740100 	cmnpl	r4, #0
    49ec:	71000000 	mrsvc	r0, (UNDEF: 0)
    49f0:	0000001d 	andeq	r0, r0, sp, lsl r0
    49f4:	1cb2010c 	ldfnes	f0, [r2], #48	; 0x30
    49f8:	93010000 	movwls	r0, #4096	; 0x1000
    49fc:	00004101 	andeq	r4, r0, r1, lsl #2
    4a00:	00274400 	eoreq	r4, r7, r0, lsl #8
    4a04:	0027a0f0 	strdeq	sl, [r7], -r0	; <UNPREDICTABLE>
    4a08:	007d02f0 	ldrshteq	r0, [sp], #-32	; 0xffffffe0
    4a0c:	000002ae 	andeq	r0, r0, lr, lsr #5
    4a10:	6372730d 	cmnvs	r2, #872415232	; 0x34000000
    4a14:	78930100 	ldmvc	r3, {r8}
    4a18:	a2000000 	andge	r0, r0, #0
    4a1c:	0b00001d 	bleq	4a98 <__standby_start+0x4a98>
    4a20:	00001c5e 	andeq	r1, r0, lr, asr ip
    4a24:	00419501 	subeq	r9, r1, r1, lsl #10
    4a28:	1dc00000 	stclne	0, cr0, [r0]
    4a2c:	c00b0000 	andgt	r0, fp, r0
    4a30:	0100001c 	tsteq	r0, ip, lsl r0
    4a34:	00005396 	muleq	r0, r6, r3
    4a38:	001de000 	andseq	lr, sp, r0
    4a3c:	1ca20b00 	vstmiane	r2!, {d0-d-1}
    4a40:	97010000 	strls	r0, [r1, -r0]
    4a44:	00000053 	andeq	r0, r0, r3, asr r0
    4a48:	00001e1f 	andeq	r1, r0, pc, lsl lr
    4a4c:	1ca90e00 	stcne	14, cr0, [r9]
    4a50:	14010000 	strne	r0, [r1], #-0
    4a54:	000001a4 	andeq	r0, r0, r4, lsr #3
    4a58:	3b700305 	blcc	1c05674 <__standby_start+0x1c05674>
    4a5c:	8e0ef000 	cdphi	0, 0, cr15, cr14, cr0, {0}
    4a60:	0100001c 	tsteq	r0, ip, lsl r0
    4a64:	0001a415 	andeq	sl, r1, r5, lsl r4
    4a68:	74030500 	strvc	r0, [r3], #-1280	; 0x500
    4a6c:	00f0003b 	rscseq	r0, r0, fp, lsr r0
    4a70:	00000166 	andeq	r0, r0, r6, ror #2
    4a74:	13ae0002 			; <UNDEFINED> instruction: 0x13ae0002
    4a78:	01040000 	mrseq	r0, (UNDEF: 4)
    4a7c:	000003f4 	strdeq	r0, [r0], -r4
    4a80:	001cd801 	andseq	sp, ip, r1, lsl #16
    4a84:	00048200 	andeq	r8, r4, r0, lsl #4
    4a88:	0027a000 	eoreq	sl, r7, r0
    4a8c:	002840f0 	strdeq	r4, [r8], -r0	; <UNPREDICTABLE>
    4a90:	001488f0 			; <UNDEFINED> instruction: 0x001488f0
    4a94:	06010200 	streq	r0, [r1], -r0, lsl #4
    4a98:	0000078d 	andeq	r0, r0, sp, lsl #15
    4a9c:	8b080102 	blhi	204eac <__standby_start+0x204eac>
    4aa0:	02000007 	andeq	r0, r0, #7
    4aa4:	06410502 	strbeq	r0, [r1], -r2, lsl #10
    4aa8:	02020000 	andeq	r0, r2, #0
    4aac:	00084d07 	andeq	r4, r8, r7, lsl #26
    4ab0:	0e1c0300 	cdpeq	3, 1, cr0, cr12, cr0, {0}
    4ab4:	12020000 	andne	r0, r2, #0
    4ab8:	0000004c 	andeq	r0, r0, ip, asr #32
    4abc:	69050404 	stmdbvs	r5, {r2, sl}
    4ac0:	0300746e 	movweq	r7, #1134	; 0x46e
    4ac4:	0000043a 	andeq	r0, r0, sl, lsr r4
    4ac8:	005e1302 	subseq	r1, lr, r2, lsl #6
    4acc:	04020000 	streq	r0, [r2], #-0
    4ad0:	00024507 	andeq	r4, r2, r7, lsl #10
    4ad4:	05080200 	streq	r0, [r8, #-512]	; 0x200
    4ad8:	00000474 	andeq	r0, r0, r4, ror r4
    4adc:	3b070802 	blcc	1c6aec <__standby_start+0x1c6aec>
    4ae0:	05000002 	streq	r0, [r0, #-2]
    4ae4:	00001d08 	andeq	r1, r0, r8, lsl #26
    4ae8:	16030320 	strne	r0, [r3], -r0, lsr #6
    4aec:	0000008f 	andeq	r0, r0, pc, lsl #1
    4af0:	001d3306 	andseq	r3, sp, r6, lsl #6
    4af4:	8f170300 	svchi	0x00170300
    4af8:	02000000 	andeq	r0, r0, #0
    4afc:	07000023 	streq	r0, [r0, -r3, lsr #32]
    4b00:	00000053 	andeq	r0, r0, r3, asr r0
    4b04:	0000009f 	muleq	r0, pc, r0	; <UNPREDICTABLE>
    4b08:	00005e08 	andeq	r5, r0, r8, lsl #28
    4b0c:	0200c700 	andeq	ip, r0, #0
    4b10:	07940801 	ldreq	r0, [r4, r1, lsl #16]
    4b14:	04020000 	streq	r0, [r2], #-0
    4b18:	00024007 	andeq	r4, r2, r7
    4b1c:	41010900 	tstmi	r1, r0, lsl #18
    4b20:	0100001d 	tsteq	r0, sp, lsl r0
    4b24:	0041010f 	subeq	r0, r1, pc, lsl #2
    4b28:	27a00000 	strcs	r0, [r0, r0]!
    4b2c:	27ccf000 	strbcs	pc, [ip, r0]	; <UNPREDICTABLE>
    4b30:	7d02f000 	stcvc	0, cr15, [r2, #-0]
    4b34:	0000e600 	andeq	lr, r0, r0, lsl #12
    4b38:	1d070a00 	vstrne	s0, [r7, #-0]
    4b3c:	0f010000 	svceq	0x00010000
    4b40:	000000e6 	andeq	r0, r0, r6, ror #1
    4b44:	00001e50 	andeq	r1, r0, r0, asr lr
    4b48:	0100690b 	tsteq	r0, fp, lsl #18
    4b4c:	00004c11 	andeq	r4, r0, r1, lsl ip
    4b50:	001e7000 	andseq	r7, lr, r0
    4b54:	040c0000 	streq	r0, [ip], #-0
    4b58:	00000073 	andeq	r0, r0, r3, ror r0
    4b5c:	1cc70109 	stfnee	f0, [r7], {9}
    4b60:	25010000 	strcs	r0, [r1, #-0]
    4b64:	00004101 	andeq	r4, r0, r1, lsl #2
    4b68:	0027cc00 	eoreq	ip, r7, r0, lsl #24
    4b6c:	0027f8f0 	strdeq	pc, [r7], -r0	; <UNPREDICTABLE>
    4b70:	007d02f0 	ldrshteq	r0, [sp], #-32	; 0xffffffe0
    4b74:	00000125 	andeq	r0, r0, r5, lsr #2
    4b78:	001d070a 	andseq	r0, sp, sl, lsl #14
    4b7c:	e6250100 	strt	r0, [r5], -r0, lsl #2
    4b80:	84000000 	strhi	r0, [r0], #-0
    4b84:	0b00001e 	bleq	4c04 <__standby_start+0x4c04>
    4b88:	27010069 	strcs	r0, [r1, -r9, rrx]
    4b8c:	0000004c 	andeq	r0, r0, ip, asr #32
    4b90:	00001ea4 	andeq	r1, r0, r4, lsr #29
    4b94:	13010d00 	movwne	r0, #7424	; 0x1d00
    4b98:	0100001d 	tsteq	r0, sp, lsl r0
    4b9c:	27f80139 			; <UNDEFINED> instruction: 0x27f80139
    4ba0:	2840f000 	stmdacs	r0, {ip, sp, lr, pc}^
    4ba4:	7d02f000 	stcvc	0, cr15, [r2, #-0]
    4ba8:	1a2d0a00 	bne	b473b0 <__standby_start+0xb473b0>
    4bac:	39010000 	stmdbcc	r1, {}	; <UNPREDICTABLE>
    4bb0:	00000053 	andeq	r0, r0, r3, asr r0
    4bb4:	00001eb8 			; <UNDEFINED> instruction: 0x00001eb8
    4bb8:	001d230e 	andseq	r2, sp, lr, lsl #6
    4bbc:	533b0100 	teqpl	fp, #0
    4bc0:	05000000 	streq	r0, [r0, #-0]
    4bc4:	003b7803 	eorseq	r7, fp, r3, lsl #16
    4bc8:	1d4f0ff0 	stclne	15, cr0, [pc, #-960]	; 4810 <__standby_start+0x4810>
    4bcc:	3c010000 	stccc	0, cr0, [r1], {-0}
    4bd0:	00000053 	andeq	r0, r0, r3, asr r0
    4bd4:	00001ecb 	andeq	r1, r0, fp, asr #29
    4bd8:	04880000 	streq	r0, [r8], #0
    4bdc:	00020000 	andeq	r0, r2, r0
    4be0:	00001488 	andeq	r1, r0, r8, lsl #9
    4be4:	03f40104 	mvnseq	r0, #1
    4be8:	4a010000 	bmi	44bf0 <__standby_start+0x44bf0>
    4bec:	8200001f 	andhi	r0, r0, #31
    4bf0:	40000004 	andmi	r0, r0, r4
    4bf4:	28f00028 	ldmcs	r0!, {r3, r5}^
    4bf8:	36f0002a 	ldrbtcc	r0, [r0], sl, lsr #32
    4bfc:	02000015 	andeq	r0, r0, #21
    4c00:	078d0601 	streq	r0, [sp, r1, lsl #12]
    4c04:	01020000 	mrseq	r0, (UNDEF: 2)
    4c08:	00078b08 	andeq	r8, r7, r8, lsl #22
    4c0c:	05020200 	streq	r0, [r2, #-512]	; 0x200
    4c10:	00000641 	andeq	r0, r0, r1, asr #12
    4c14:	4d070202 	sfmmi	f0, 4, [r7, #-8]
    4c18:	03000008 	movweq	r0, #8
    4c1c:	00000e1c 	andeq	r0, r0, ip, lsl lr
    4c20:	004c1202 	subeq	r1, ip, r2, lsl #4
    4c24:	04040000 	streq	r0, [r4], #-0
    4c28:	746e6905 	strbtvc	r6, [lr], #-2309	; 0x905
    4c2c:	043a0300 	ldrteq	r0, [sl], #-768	; 0x300
    4c30:	13020000 	movwne	r0, #8192	; 0x2000
    4c34:	0000005e 	andeq	r0, r0, lr, asr r0
    4c38:	45070402 	strmi	r0, [r7, #-1026]	; 0x402
    4c3c:	02000002 	andeq	r0, r0, #2
    4c40:	04740508 	ldrbteq	r0, [r4], #-1288	; 0x508
    4c44:	08020000 	stmdaeq	r2, {}	; <UNPREDICTABLE>
    4c48:	00023b07 	andeq	r3, r2, r7, lsl #22
    4c4c:	00530500 	subseq	r0, r3, r0, lsl #10
    4c50:	53060000 	movwpl	r0, #24576	; 0x6000
    4c54:	88000000 	stmdahi	r0, {}	; <UNPREDICTABLE>
    4c58:	07000000 	streq	r0, [r0, -r0]
    4c5c:	0000005e 	andeq	r0, r0, lr, asr r0
    4c60:	53060001 	movwpl	r0, #24577	; 0x6001
    4c64:	98000000 	stmdals	r0, {}	; <UNPREDICTABLE>
    4c68:	07000000 	streq	r0, [r0, -r0]
    4c6c:	0000005e 	andeq	r0, r0, lr, asr r0
    4c70:	b9080003 	stmdblt	r8, {r0, r1}
    4c74:	bc00001e 	stclt	0, cr0, [r0], {30}
    4c78:	02b61503 	adcseq	r1, r6, #12582912	; 0xc00000
    4c7c:	7a090000 	bvc	244c84 <__standby_start+0x244c84>
    4c80:	0300001d 	movweq	r0, #29
    4c84:	00007318 	andeq	r7, r0, r8, lsl r3
    4c88:	00230200 	eoreq	r0, r3, r0, lsl #4
    4c8c:	001f1709 	andseq	r1, pc, r9, lsl #14
    4c90:	73190300 	tstvc	r9, #0
    4c94:	02000000 	andeq	r0, r0, #0
    4c98:	a7090423 	strge	r0, [r9, -r3, lsr #8]
    4c9c:	0300000e 	movweq	r0, #14
    4ca0:	0002b61a 	andeq	fp, r2, sl, lsl r6
    4ca4:	08230200 	stmdaeq	r3!, {r9}
    4ca8:	001f8a09 	andseq	r8, pc, r9, lsl #20
    4cac:	731c0300 	tstvc	ip, #0
    4cb0:	02000000 	andeq	r0, r0, #0
    4cb4:	81091023 	tsthi	r9, r3, lsr #32
    4cb8:	0300001d 	movweq	r0, #29
    4cbc:	0000731d 	andeq	r7, r0, sp, lsl r3
    4cc0:	14230200 	strtne	r0, [r3], #-512	; 0x200
    4cc4:	001daf09 	andseq	sl, sp, r9, lsl #30
    4cc8:	731e0300 	tstvc	lr, #0
    4ccc:	02000000 	andeq	r0, r0, #0
    4cd0:	b1091823 	tstlt	r9, r3, lsr #16
    4cd4:	0300000e 	movweq	r0, #14
    4cd8:	0000731f 	andeq	r7, r0, pc, lsl r3
    4cdc:	1c230200 	sfmne	f0, 4, [r3], #-0
    4ce0:	001da709 	andseq	sl, sp, r9, lsl #14
    4ce4:	73210300 	teqvc	r1, #0
    4ce8:	02000000 	andeq	r0, r0, #0
    4cec:	eb092023 	bl	24cd80 <__standby_start+0x24cd80>
    4cf0:	0300001e 	movweq	r0, #30
    4cf4:	00007322 	andeq	r7, r0, r2, lsr #6
    4cf8:	24230200 	strtcs	r0, [r3], #-512	; 0x200
    4cfc:	001f1e09 	andseq	r1, pc, r9, lsl #28
    4d00:	73230300 	teqvc	r3, #0
    4d04:	02000000 	andeq	r0, r0, #0
    4d08:	bb092823 	bllt	24ed9c <__standby_start+0x24ed9c>
    4d0c:	0300000e 	movweq	r0, #14
    4d10:	00007324 	andeq	r7, r0, r4, lsr #6
    4d14:	2c230200 	sfmcs	f0, 4, [r3], #-0
    4d18:	001e4309 	andseq	r4, lr, r9, lsl #6
    4d1c:	73260300 	teqvc	r6, #0
    4d20:	02000000 	andeq	r0, r0, #0
    4d24:	c2093023 	andgt	r3, r9, #35	; 0x23
    4d28:	0300001d 	movweq	r0, #29
    4d2c:	00007327 	andeq	r7, r0, r7, lsr #6
    4d30:	34230200 	strtcc	r0, [r3], #-512	; 0x200
    4d34:	001ddd09 	andseq	sp, sp, r9, lsl #26
    4d38:	73280300 	teqvc	r8, #0
    4d3c:	02000000 	andeq	r0, r0, #0
    4d40:	c5093823 	strgt	r3, [r9, #-2083]	; 0x823
    4d44:	0300000e 	movweq	r0, #14
    4d48:	00007329 	andeq	r7, r0, r9, lsr #6
    4d4c:	3c230200 	sfmcc	f0, 4, [r3], #-0
    4d50:	001f0809 	andseq	r0, pc, r9, lsl #16
    4d54:	732b0300 	teqvc	fp, #0
    4d58:	02000000 	andeq	r0, r0, #0
    4d5c:	29094023 	stmdbcs	r9, {r0, r1, r5, lr}
    4d60:	0300001f 	movweq	r0, #31
    4d64:	0000732c 	andeq	r7, r0, ip, lsr #6
    4d68:	44230200 	strtmi	r0, [r3], #-512	; 0x200
    4d6c:	000ecf09 	andeq	ip, lr, r9, lsl #30
    4d70:	bb2d0300 	bllt	b45978 <__standby_start+0xb45978>
    4d74:	02000002 	andeq	r0, r0, #2
    4d78:	92094823 	andls	r4, r9, #2293760	; 0x230000
    4d7c:	0300001f 	movweq	r0, #31
    4d80:	0000732f 	andeq	r7, r0, pc, lsr #6
    4d84:	50230200 	eorpl	r0, r3, r0, lsl #4
    4d88:	001e0a09 	andseq	r0, lr, r9, lsl #20
    4d8c:	73300300 	teqvc	r0, #0
    4d90:	02000000 	andeq	r0, r0, #0
    4d94:	15095423 	strne	r5, [r9, #-1059]	; 0x423
    4d98:	0300001e 	movweq	r0, #30
    4d9c:	00007331 	andeq	r7, r0, r1, lsr r3
    4da0:	58230200 	stmdapl	r3!, {r9}
    4da4:	000ed909 	andeq	sp, lr, r9, lsl #18
    4da8:	73320300 	teqvc	r2, #0
    4dac:	02000000 	andeq	r0, r0, #0
    4db0:	ba095c23 	blt	25be44 <__standby_start+0x25be44>
    4db4:	0300001d 	movweq	r0, #29
    4db8:	00007334 	andeq	r7, r0, r4, lsr r3
    4dbc:	60230200 	eorvs	r0, r3, r0, lsl #4
    4dc0:	001ee009 	andseq	lr, lr, r9
    4dc4:	73350300 	teqvc	r5, #0
    4dc8:	02000000 	andeq	r0, r0, #0
    4dcc:	78096423 	stmdavc	r9, {r0, r1, r5, sl, sp, lr}
    4dd0:	0300001f 	movweq	r0, #31
    4dd4:	00007336 	andeq	r7, r0, r6, lsr r3
    4dd8:	68230200 	stmdavs	r3!, {r9}
    4ddc:	000ee309 	andeq	lr, lr, r9, lsl #6
    4de0:	d0370300 	eorsle	r0, r7, r0, lsl #6
    4de4:	02000002 	andeq	r0, r0, #2
    4de8:	10096c23 	andne	r6, r9, r3, lsr #24
    4dec:	0300001f 	movweq	r0, #31
    4df0:	00007339 	andeq	r7, r0, r9, lsr r3
    4df4:	80230300 	eorhi	r0, r3, r0, lsl #6
    4df8:	1f420901 	svcne	0x00420901
    4dfc:	3a030000 	bcc	c4e04 <__standby_start+0xc4e04>
    4e00:	00000073 	andeq	r0, r0, r3, ror r0
    4e04:	01842303 	orreq	r2, r4, r3, lsl #6
    4e08:	001d7209 	andseq	r7, sp, r9, lsl #4
    4e0c:	733b0300 	teqvc	fp, #0
    4e10:	03000000 	movweq	r0, #0
    4e14:	09018823 	stmdbeq	r1, {r0, r1, r5, fp, pc}
    4e18:	00001f01 	andeq	r1, r0, r1, lsl #30
    4e1c:	00733c03 	rsbseq	r3, r3, r3, lsl #24
    4e20:	23030000 	movwcs	r0, #12288	; 0x3000
    4e24:	ed09018c 	stfs	f0, [r9, #-560]	; 0xfffffdd0
    4e28:	0300000e 	movweq	r0, #14
    4e2c:	0002d53f 	andeq	sp, r2, pc, lsr r5
    4e30:	90230300 	eorls	r0, r3, r0, lsl #6
    4e34:	1e950901 	cdpne	9, 9, cr0, cr5, cr1, {0}
    4e38:	42030000 	andmi	r0, r3, #0
    4e3c:	00000073 	andeq	r0, r0, r3, ror r0
    4e40:	01a02303 	lsleq	r2, r3, #6
    4e44:	001d6409 	andseq	r6, sp, r9, lsl #8
    4e48:	73430300 	movtvc	r0, #13056	; 0x3300
    4e4c:	03000000 	movweq	r0, #0
    4e50:	0901a423 	stmdbeq	r1, {r0, r1, r5, sl, sp, pc}
    4e54:	00001e39 	andeq	r1, r0, r9, lsr lr
    4e58:	02da4403 	sbcseq	r4, sl, #50331648	; 0x3000000
    4e5c:	23030000 	movwcs	r0, #12288	; 0x3000
    4e60:	8c0901a8 	stfhis	f0, [r9], {168}	; 0xa8
    4e64:	0300001d 	movweq	r0, #29
    4e68:	00007347 	andeq	r7, r0, r7, asr #6
    4e6c:	b0230300 	eorlt	r0, r3, r0, lsl #6
    4e70:	1f340901 	svcne	0x00340901
    4e74:	48030000 	stmdami	r3, {}	; <UNPREDICTABLE>
    4e78:	00000073 	andeq	r0, r0, r3, ror r0
    4e7c:	01b42303 			; <UNDEFINED> instruction: 0x01b42303
    4e80:	001e4b09 	andseq	r4, lr, r9, lsl #22
    4e84:	73490300 	movtvc	r0, #37632	; 0x9300
    4e88:	03000000 	movweq	r0, #0
    4e8c:	0001b823 	andeq	fp, r1, r3, lsr #16
    4e90:	00007805 	andeq	r7, r0, r5, lsl #16
    4e94:	00780500 	rsbseq	r0, r8, r0, lsl #10
    4e98:	53060000 	movwpl	r0, #24576	; 0x6000
    4e9c:	d0000000 	andle	r0, r0, r0
    4ea0:	07000002 	streq	r0, [r0, -r2]
    4ea4:	0000005e 	andeq	r0, r0, lr, asr r0
    4ea8:	c0050004 	andgt	r0, r5, r4
    4eac:	05000002 	streq	r0, [r0, #-2]
    4eb0:	00000088 	andeq	r0, r0, r8, lsl #1
    4eb4:	00007805 	andeq	r7, r0, r5, lsl #16
    4eb8:	1dcd0300 	stclne	3, cr0, [sp]
    4ebc:	4b030000 	blmi	c4ec4 <__standby_start+0xc4ec4>
    4ec0:	00000098 	muleq	r0, r8, r0
    4ec4:	0008450a 	andeq	r4, r8, sl, lsl #10
    4ec8:	7a040400 	bvc	105ed0 <__standby_start+0x105ed0>
    4ecc:	00000357 	andeq	r0, r0, r7, asr r3
    4ed0:	0006880b 	andeq	r8, r6, fp, lsl #16
    4ed4:	340b0000 	strcc	r0, [fp], #-0
    4ed8:	01000003 	tsteq	r0, r3
    4edc:	0007460b 	andeq	r4, r7, fp, lsl #12
    4ee0:	280b0200 	stmdacs	fp, {r9}
    4ee4:	03000003 	movweq	r0, #3
    4ee8:	00042e0b 	andeq	r2, r4, fp, lsl #28
    4eec:	950b0400 	strls	r0, [fp, #-1024]	; 0x400
    4ef0:	05000006 	streq	r0, [r0, #-6]
    4ef4:	0003e70b 	andeq	lr, r3, fp, lsl #14
    4ef8:	2f0b0600 	svccs	0x000b0600
    4efc:	07000008 	streq	r0, [r0, -r8]
    4f00:	0004610b 	andeq	r6, r4, fp, lsl #2
    4f04:	d00b0800 	andle	r0, fp, r0, lsl #16
    4f08:	09000008 	stmdbeq	r0, {r3}
    4f0c:	0006230b 	andeq	r2, r6, fp, lsl #6
    4f10:	4b0b0a00 	blmi	2c7718 <__standby_start+0x2c7718>
    4f14:	0b000006 	bleq	4f34 <__standby_start+0x4f34>
    4f18:	00083f0b 	andeq	r3, r8, fp, lsl #30
    4f1c:	a00b0c00 	andge	r0, fp, r0, lsl #24
    4f20:	0d000007 	stceq	0, cr0, [r0, #-28]	; 0xffffffe4
    4f24:	0006020b 	andeq	r0, r6, fp, lsl #4
    4f28:	ce0b0e00 	cdpgt	14, 0, cr0, cr11, cr0, {0}
    4f2c:	0f000007 	svceq	0x00000007
    4f30:	08010200 	stmdaeq	r1, {r9}
    4f34:	00000794 	muleq	r0, r4, r7
    4f38:	40070402 	andmi	r0, r7, r2, lsl #8
    4f3c:	0c000002 	stceq	0, cr0, [r0], {2}
    4f40:	001f9a01 	andseq	r9, pc, r1, lsl #20
    4f44:	01110100 	tsteq	r1, r0, lsl #2
    4f48:	00000041 	andeq	r0, r0, r1, asr #32
    4f4c:	f0002840 			; <UNDEFINED> instruction: 0xf0002840
    4f50:	f00028a0 			; <UNDEFINED> instruction: 0xf00028a0
    4f54:	91007d02 	tstls	r0, r2, lsl #26
    4f58:	0d000003 	stceq	0, cr0, [r0, #-12]
    4f5c:	00001ef6 	strdeq	r1, [r0], -r6
    4f60:	03911101 	orrseq	r1, r1, #1073741824	; 0x40000000
    4f64:	1edf0000 	cdpne	0, 13, cr0, cr15, cr0, {0}
    4f68:	0e000000 	cdpeq	0, 0, cr0, cr0, cr0, {0}
    4f6c:	0002df04 	andeq	sp, r2, r4, lsl #30
    4f70:	a9010c00 	stmdbge	r1, {sl, fp}
    4f74:	0100001e 	tsteq	r0, lr, lsl r0
    4f78:	0041012f 	subeq	r0, r1, pc, lsr #2
    4f7c:	28a00000 	stmiacs	r0!, {}	; <UNPREDICTABLE>
    4f80:	28f0f000 	ldmcs	r0!, {ip, sp, lr, pc}^
    4f84:	7d02f000 	stcvc	0, cr15, [r2, #-0]
    4f88:	0003c300 	andeq	ip, r3, r0, lsl #6
    4f8c:	1ef60d00 	cdpne	13, 15, cr0, cr6, cr0, {0}
    4f90:	2f010000 	svccs	0x00010000
    4f94:	00000391 	muleq	r0, r1, r3
    4f98:	00001efd 	strdeq	r1, [r0], -sp
    4f9c:	88010f00 	stmdahi	r1, {r8, r9, sl, fp}
    4fa0:	0100001e 	tsteq	r0, lr, lsl r0
    4fa4:	00410149 	subeq	r0, r1, r9, asr #2
    4fa8:	28f00000 	ldmcs	r0!, {}^	; <UNPREDICTABLE>
    4fac:	2928f000 	stmdbcs	r8!, {ip, sp, lr, pc}
    4fb0:	7d02f000 	stcvc	0, cr15, [r2, #-0]
    4fb4:	fd010f00 	stc2	15, cr0, [r1, #-0]
    4fb8:	0100001d 	tsteq	r0, sp, lsl r0
    4fbc:	00410161 	subeq	r0, r1, r1, ror #2
    4fc0:	29280000 	stmdbcs	r8!, {}	; <UNPREDICTABLE>
    4fc4:	2950f000 	ldmdbcs	r0, {ip, sp, lr, pc}^
    4fc8:	7d02f000 	stcvc	0, cr15, [r2, #-0]
    4fcc:	70011000 	andvc	r1, r1, r0
    4fd0:	0100001e 	tsteq	r0, lr, lsl r0
    4fd4:	29500179 	ldmdbcs	r0, {r0, r3, r4, r5, r6, r8}^
    4fd8:	2998f000 	ldmibcs	r8, {ip, sp, lr, pc}
    4fdc:	7d02f000 	stcvc	0, cr15, [r2, #-0]
    4fe0:	c7011000 	strgt	r1, [r1, -r0]
    4fe4:	0100001e 	tsteq	r0, lr, lsl r0
    4fe8:	2998019a 	ldmibcs	r8, {r1, r3, r4, r7, r8}
    4fec:	29d8f000 	ldmibcs	r8, {ip, sp, lr, pc}^
    4ff0:	7d02f000 	stcvc	0, cr15, [r2, #-0]
    4ff4:	9b010c00 	blls	47ffc <__standby_start+0x47ffc>
    4ff8:	0100001d 	tsteq	r0, sp, lsl r0
    4ffc:	004101b5 	strheq	r0, [r1], #-21	; 0xffffffeb
    5000:	29d80000 	ldmibcs	r8, {}^	; <UNPREDICTABLE>
    5004:	2a28f000 	bcs	a4100c <__standby_start+0xa4100c>
    5008:	7d02f000 	stcvc	0, cr15, [r2, #-0]
    500c:	00044700 	andeq	r4, r4, r0, lsl #14
    5010:	1ea20d00 	cdpne	13, 10, cr0, cr2, cr0, {0}
    5014:	b5010000 	strlt	r0, [r1, #-0]
    5018:	00000053 	andeq	r0, r0, r3, asr r0
    501c:	00001f1b 	andeq	r1, r0, fp, lsl pc
    5020:	1f831100 	svcne	0x00831100
    5024:	03010000 	movweq	r0, #4096	; 0x1000
    5028:	00000391 	muleq	r0, r1, r3
    502c:	3b7c0305 	blcc	1f05c48 <__standby_start+0x1f05c48>
    5030:	2011f000 	andscs	pc, r1, r0
    5034:	0100001e 	tsteq	r0, lr, lsl r0
    5038:	00005304 	andeq	r5, r0, r4, lsl #6
    503c:	80030500 	andhi	r0, r3, r0, lsl #10
    5040:	11f0003b 	mvnsne	r0, fp, lsr r0
    5044:	00001e5a 	andeq	r1, r0, sl, asr lr
    5048:	00530401 	subseq	r0, r3, r1, lsl #8
    504c:	03050000 	movweq	r0, #20480	; 0x5000
    5050:	f0003b84 			; <UNDEFINED> instruction: 0xf0003b84
    5054:	001de811 	andseq	lr, sp, r1, lsl r8
    5058:	53040100 	movwpl	r0, #16640	; 0x4100
    505c:	05000000 	streq	r0, [r0, #-0]
    5060:	003b8803 	eorseq	r8, fp, r3, lsl #16
    5064:	01b600f0 	ldrsheq	r0, [r6, r0]!	; <UNPREDICTABLE>
    5068:	00020000 	andeq	r0, r2, r0
    506c:	0000157a 	andeq	r1, r0, sl, ror r5
    5070:	03f40104 	mvnseq	r0, #1
    5074:	db010000 	blle	4507c <__standby_start+0x4507c>
    5078:	8200001f 	andhi	r0, r0, #31
    507c:	28000004 	stmdacs	r0, {r2}
    5080:	80f0002a 	rscshi	r0, r0, sl, lsr #32
    5084:	38f0002a 	ldmcc	r0!, {r1, r3, r5}^
    5088:	02000016 	andeq	r0, r0, #22
    508c:	078d0601 	streq	r0, [sp, r1, lsl #12]
    5090:	01020000 	mrseq	r0, (UNDEF: 2)
    5094:	00078b08 	andeq	r8, r7, r8, lsl #22
    5098:	05020200 	streq	r0, [r2, #-512]	; 0x200
    509c:	00000641 	andeq	r0, r0, r1, asr #12
    50a0:	4d070202 	sfmmi	f0, 4, [r7, #-8]
    50a4:	03000008 	movweq	r0, #8
    50a8:	00000e1c 	andeq	r0, r0, ip, lsl lr
    50ac:	004c1202 	subeq	r1, ip, r2, lsl #4
    50b0:	04040000 	streq	r0, [r4], #-0
    50b4:	746e6905 	strbtvc	r6, [lr], #-2309	; 0x905
    50b8:	043a0300 	ldrteq	r0, [sl], #-768	; 0x300
    50bc:	13020000 	movwne	r0, #8192	; 0x2000
    50c0:	0000005e 	andeq	r0, r0, lr, asr r0
    50c4:	45070402 	strmi	r0, [r7, #-1026]	; 0x402
    50c8:	02000002 	andeq	r0, r0, #2
    50cc:	04740508 	ldrbteq	r0, [r4], #-1288	; 0x508
    50d0:	08020000 	stmdaeq	r2, {}	; <UNPREDICTABLE>
    50d4:	00023b07 	andeq	r3, r2, r7, lsl #22
    50d8:	00530500 	subseq	r0, r3, r0, lsl #10
    50dc:	53060000 	movwpl	r0, #24576	; 0x6000
    50e0:	88000000 	stmdahi	r0, {}	; <UNPREDICTABLE>
    50e4:	07000000 	streq	r0, [r0, -r0]
    50e8:	0000005e 	andeq	r0, r0, lr, asr r0
    50ec:	37080006 	strcc	r0, [r8, -r6]
    50f0:	24000020 	strcs	r0, [r0], #-32
    50f4:	00bf1503 	adcseq	r1, pc, r3, lsl #10
    50f8:	43090000 	movwmi	r0, #36864	; 0x9000
    50fc:	03006c74 	movweq	r6, #3188	; 0xc74
    5100:	00007318 	andeq	r7, r0, r8, lsl r3
    5104:	00230200 	eoreq	r0, r3, r0, lsl #4
    5108:	000ea70a 	andeq	sl, lr, sl, lsl #14
    510c:	bf190300 	svclt	0x00190300
    5110:	02000000 	andeq	r0, r0, #0
    5114:	a70a0423 	strge	r0, [sl, -r3, lsr #8]
    5118:	0300001f 	movweq	r0, #31
    511c:	0000731b 	andeq	r7, r0, fp, lsl r3
    5120:	20230200 	eorcs	r0, r3, r0, lsl #4
    5124:	00780500 	rsbseq	r0, r8, r0, lsl #10
    5128:	16030000 	strne	r0, [r3], -r0
    512c:	03000020 	movweq	r0, #32
    5130:	0000881d 	andeq	r8, r0, sp, lsl r8
    5134:	08450b00 	stmdaeq	r5, {r8, r9, fp}^
    5138:	04040000 	streq	r0, [r4], #-0
    513c:	00013c7a 	andeq	r3, r1, sl, ror ip
    5140:	06880c00 	streq	r0, [r8], r0, lsl #24
    5144:	0c000000 	stceq	0, cr0, [r0], {-0}
    5148:	00000334 	andeq	r0, r0, r4, lsr r3
    514c:	07460c01 	strbeq	r0, [r6, -r1, lsl #24]
    5150:	0c020000 	stceq	0, cr0, [r2], {-0}
    5154:	00000328 	andeq	r0, r0, r8, lsr #6
    5158:	042e0c03 	strteq	r0, [lr], #-3075	; 0xc03
    515c:	0c040000 	stceq	0, cr0, [r4], {-0}
    5160:	00000695 	muleq	r0, r5, r6
    5164:	03e70c05 	mvneq	r0, #1280	; 0x500
    5168:	0c060000 	stceq	0, cr0, [r6], {-0}
    516c:	0000082f 	andeq	r0, r0, pc, lsr #16
    5170:	04610c07 	strbteq	r0, [r1], #-3079	; 0xc07
    5174:	0c080000 	stceq	0, cr0, [r8], {-0}
    5178:	000008d0 	ldrdeq	r0, [r0], -r0	; <UNPREDICTABLE>
    517c:	06230c09 	strteq	r0, [r3], -r9, lsl #24
    5180:	0c0a0000 	stceq	0, cr0, [sl], {-0}
    5184:	0000064b 	andeq	r0, r0, fp, asr #12
    5188:	083f0c0b 	ldmdaeq	pc!, {r0, r1, r3, sl, fp}	; <UNPREDICTABLE>
    518c:	0c0c0000 	stceq	0, cr0, [ip], {-0}
    5190:	000007a0 	andeq	r0, r0, r0, lsr #15
    5194:	06020c0d 	streq	r0, [r2], -sp, lsl #24
    5198:	0c0e0000 	stceq	0, cr0, [lr], {-0}
    519c:	000007ce 	andeq	r0, r0, lr, asr #15
    51a0:	0102000f 	tsteq	r2, pc
    51a4:	00079408 	andeq	r9, r7, r8, lsl #8
    51a8:	07040200 	streq	r0, [r4, -r0, lsl #4]
    51ac:	00000240 	andeq	r0, r0, r0, asr #4
    51b0:	1fb8010d 	svcne	0x00b8010d
    51b4:	11010000 	mrsne	r0, (UNDEF: 1)
    51b8:	00004101 	andeq	r4, r0, r1, lsl #2
    51bc:	002a2800 	eoreq	r2, sl, r0, lsl #16
    51c0:	002a58f0 	strdeq	r5, [sl], -r0	; <UNPREDICTABLE>
    51c4:	007d02f0 	ldrshteq	r0, [sp], #-32	; 0xffffffe0
    51c8:	00000176 	andeq	r0, r0, r6, ror r1
    51cc:	0020290e 	eoreq	r2, r0, lr, lsl #18
    51d0:	76110100 	ldrvc	r0, [r1], -r0, lsl #2
    51d4:	2e000001 	cdpcs	0, 0, cr0, cr0, cr1, {0}
    51d8:	0000001f 	andeq	r0, r0, pc, lsl r0
    51dc:	00c4040f 	sbceq	r0, r4, pc, lsl #8
    51e0:	010d0000 	mrseq	r0, (UNDEF: 13)
    51e4:	00001fc8 	andeq	r1, r0, r8, asr #31
    51e8:	41012a01 	tstmi	r1, r1, lsl #20
    51ec:	58000000 	stmdapl	r0, {}	; <UNPREDICTABLE>
    51f0:	80f0002a 	rscshi	r0, r0, sl, lsr #32
    51f4:	02f0002a 	rscseq	r0, r0, #42	; 0x2a
    51f8:	01a8007d 			; <UNDEFINED> instruction: 0x01a8007d
    51fc:	290e0000 	stmdbcs	lr, {}	; <UNPREDICTABLE>
    5200:	01000020 	tsteq	r0, r0, lsr #32
    5204:	0001762a 	andeq	r7, r1, sl, lsr #12
    5208:	001f4c00 	andseq	r4, pc, r0, lsl #24
    520c:	0c100000 	ldceq	0, cr0, [r0], {-0}
    5210:	01000020 	tsteq	r0, r0, lsr #32
    5214:	00017604 	andeq	r7, r1, r4, lsl #12
    5218:	8c030500 	cfstr32hi	mvfx0, [r3], {-0}
    521c:	00f0003b 	rscseq	r0, r0, fp, lsr r0
    5220:	0000107f 	andeq	r1, r0, pc, ror r0
    5224:	164f0002 	strbne	r0, [pc], -r2
    5228:	01040000 	mrseq	r0, (UNDEF: 4)
    522c:	000003f4 	strdeq	r0, [r0], -r4
    5230:	00204801 	eoreq	r4, r0, r1, lsl #16
    5234:	00048200 	andeq	r8, r4, r0, lsl #4
    5238:	002a8000 	eoreq	r8, sl, r0
    523c:	002e24f0 	strdeq	r2, [lr], -r0	; <UNPREDICTABLE>
    5240:	0016edf0 			; <UNDEFINED> instruction: 0x0016edf0
    5244:	06010200 	streq	r0, [r1], -r0, lsl #4
    5248:	0000078d 	andeq	r0, r0, sp, lsl #15
    524c:	00136803 	andseq	r6, r3, r3, lsl #16
    5250:	370f0200 	strcc	r0, [pc, -r0, lsl #4]
    5254:	02000000 	andeq	r0, r0, #0
    5258:	078b0801 	streq	r0, [fp, r1, lsl #16]
    525c:	02020000 	andeq	r0, r2, #0
    5260:	00064105 	andeq	r4, r6, r5, lsl #2
    5264:	07020200 	streq	r0, [r2, -r0, lsl #4]
    5268:	0000084d 	andeq	r0, r0, sp, asr #16
    526c:	000e1c03 	andeq	r1, lr, r3, lsl #24
    5270:	57120200 	ldrpl	r0, [r2, -r0, lsl #4]
    5274:	04000000 	streq	r0, [r0], #-0
    5278:	6e690504 	cdpvs	5, 6, cr0, cr9, cr4, {0}
    527c:	3a030074 	bcc	c5454 <__standby_start+0xc5454>
    5280:	02000004 	andeq	r0, r0, #4
    5284:	00006913 	andeq	r6, r0, r3, lsl r9
    5288:	07040200 	streq	r0, [r4, -r0, lsl #4]
    528c:	00000245 	andeq	r0, r0, r5, asr #4
    5290:	74050802 	strvc	r0, [r5], #-2050	; 0x802
    5294:	02000004 	andeq	r0, r0, #4
    5298:	023b0708 	eorseq	r0, fp, #2097152	; 0x200000
    529c:	04050000 	streq	r0, [r5], #-0
    52a0:	010f1a03 	tsteq	pc, r3, lsl #20
    52a4:	c4060000 	strgt	r0, [r6], #-0
    52a8:	0300000a 	movweq	r0, #10
    52ac:	00005e1c 	andeq	r5, r0, ip, lsl lr
    52b0:	1e020400 	cfcpysne	mvf0, mvf2
    52b4:	06002302 	streq	r2, [r0], -r2, lsl #6
    52b8:	00000ea7 	andeq	r0, r0, r7, lsr #29
    52bc:	005e1d03 	subseq	r1, lr, r3, lsl #26
    52c0:	06040000 	streq	r0, [r4], -r0
    52c4:	00230218 	eoreq	r0, r3, r8, lsl r2
    52c8:	000acc06 	andeq	ip, sl, r6, lsl #24
    52cc:	5e1e0300 	cdppl	3, 1, cr0, cr14, cr0, {0}
    52d0:	04000000 	streq	r0, [r0], #-0
    52d4:	23021008 	movwcs	r1, #8200	; 0x2008
    52d8:	0adc0600 	beq	ff706ae0 <__bss_end+0xf702d34>
    52dc:	1f030000 	svcne	0x00030000
    52e0:	0000005e 	andeq	r0, r0, lr, asr r0
    52e4:	020f0104 	andeq	r0, pc, #1
    52e8:	c5060023 	strgt	r0, [r6, #-35]	; 0x23
    52ec:	0300000e 	movweq	r0, #14
    52f0:	00005e20 	andeq	r5, r0, r0, lsr #28
    52f4:	08070400 	stmdaeq	r7, {sl}
    52f8:	06002302 	streq	r2, [r0], -r2, lsl #6
    52fc:	00000be0 	andeq	r0, r0, r0, ror #23
    5300:	005e2103 	subseq	r2, lr, r3, lsl #2
    5304:	03040000 	movweq	r0, #16384	; 0x4000
    5308:	00230205 	eoreq	r0, r3, r5, lsl #4
    530c:	000ecf06 	andeq	ip, lr, r6, lsl #30
    5310:	5e220300 	cdppl	3, 2, cr0, cr2, cr0, {0}
    5314:	04000000 	streq	r0, [r0], #-0
    5318:	23020104 	movwcs	r0, #8452	; 0x2104
    531c:	0e710600 	cdpeq	6, 7, cr0, cr1, cr0, {0}
    5320:	23030000 	movwcs	r0, #12288	; 0x3000
    5324:	0000005e 	andeq	r0, r0, lr, asr r0
    5328:	02000104 	andeq	r0, r0, #1
    532c:	07000023 	streq	r0, [r0, -r3, lsr #32]
    5330:	2e180304 	cdpcs	3, 1, cr0, cr8, cr4, {0}
    5334:	08000001 	stmdaeq	r0, {r0}
    5338:	000009a7 	andeq	r0, r0, r7, lsr #19
    533c:	005e1903 	subseq	r1, lr, r3, lsl #18
    5340:	53080000 	movwpl	r0, #32768	; 0x8000
    5344:	03000013 	movweq	r0, #19
    5348:	00007e25 	andeq	r7, r0, r5, lsr #28
    534c:	77030000 	strvc	r0, [r3, -r0]
    5350:	0300000e 	movweq	r0, #14
    5354:	00010f26 	andeq	r0, r1, r6, lsr #30
    5358:	03040500 	movweq	r0, #17664	; 0x4500
    535c:	0001ca3e 	andeq	ip, r1, lr, lsr sl
    5360:	10420600 	subne	r0, r2, r0, lsl #12
    5364:	40030000 	andmi	r0, r3, r0
    5368:	0000005e 	andeq	r0, r0, lr, asr r0
    536c:	021e0204 	andseq	r0, lr, #1073741824	; 0x40000000
    5370:	a7060023 	strge	r0, [r6, -r3, lsr #32]
    5374:	0300000e 	movweq	r0, #14
    5378:	00005e41 	andeq	r5, r0, r1, asr #28
    537c:	140a0400 	strne	r0, [sl], #-1024	; 0x400
    5380:	06002302 	streq	r2, [r0], -r2, lsl #6
    5384:	00000b94 	muleq	r0, r4, fp
    5388:	005e4203 	subseq	r4, lr, r3, lsl #4
    538c:	01040000 	mrseq	r0, (UNDEF: 4)
    5390:	00230213 	eoreq	r0, r3, r3, lsl r2
    5394:	000eb106 	andeq	fp, lr, r6, lsl #2
    5398:	5e430300 	cdppl	3, 4, cr0, cr3, cr0, {0}
    539c:	04000000 	streq	r0, [r0], #-0
    53a0:	23021003 	movwcs	r1, #8195	; 0x2003
    53a4:	0cbe0600 	ldceq	6, cr0, [lr]
    53a8:	44030000 	strmi	r0, [r3], #-0
    53ac:	0000005e 	andeq	r0, r0, lr, asr r0
    53b0:	020e0204 	andeq	r0, lr, #1073741824	; 0x40000000
    53b4:	bb060023 	bllt	185448 <__standby_start+0x185448>
    53b8:	0300000e 	movweq	r0, #14
    53bc:	00005e45 	andeq	r5, r0, r5, asr #28
    53c0:	040a0400 	streq	r0, [sl], #-1024	; 0x400
    53c4:	06002302 	streq	r2, [r0], -r2, lsl #6
    53c8:	00000b2b 	andeq	r0, r0, fp, lsr #22
    53cc:	005e4603 	subseq	r4, lr, r3, lsl #12
    53d0:	01040000 	mrseq	r0, (UNDEF: 4)
    53d4:	00230203 	eoreq	r0, r3, r3, lsl #4
    53d8:	000ec506 	andeq	ip, lr, r6, lsl #10
    53dc:	5e470300 	cdppl	3, 4, cr0, cr7, cr0, {0}
    53e0:	04000000 	streq	r0, [r0], #-0
    53e4:	23020003 	movwcs	r0, #8195	; 0x2003
    53e8:	04070000 	streq	r0, [r7], #-0
    53ec:	01e93c03 	mvneq	r3, r3, lsl #24
    53f0:	a7080000 	strge	r0, [r8, -r0]
    53f4:	03000009 	movweq	r0, #9
    53f8:	00005e3d 	andeq	r5, r0, sp, lsr lr
    53fc:	13530800 	cmpne	r3, #0
    5400:	48030000 	stmdami	r3, {}	; <UNPREDICTABLE>
    5404:	00000139 	andeq	r0, r0, r9, lsr r1
    5408:	0a330300 	beq	cc6010 <__standby_start+0xcc6010>
    540c:	49030000 	stmdbmi	r3, {}	; <UNPREDICTABLE>
    5410:	000001ca 	andeq	r0, r0, sl, asr #3
    5414:	00093409 	andeq	r3, r9, r9, lsl #8
    5418:	4f030400 	svcmi	0x00030400
    541c:	00000278 	andeq	r0, r0, r8, ror r2
    5420:	000ea706 	andeq	sl, lr, r6, lsl #14
    5424:	5e510300 	cdppl	3, 5, cr0, cr1, cr0, {0}
    5428:	04000000 	streq	r0, [r0], #-0
    542c:	23021c04 	movwcs	r1, #11268	; 0x2c04
    5430:	0d1b0600 	ldceq	6, cr0, [fp, #-0]
    5434:	52030000 	andpl	r0, r3, #0
    5438:	0000005e 	andeq	r0, r0, lr, asr r0
    543c:	021a0204 	andseq	r0, sl, #1073741824	; 0x40000000
    5440:	84060023 	strhi	r0, [r6], #-35	; 0x23
    5444:	0300000c 	movweq	r0, #12
    5448:	00005e53 	andeq	r5, r0, r3, asr lr
    544c:	18020400 	stmdane	r2, {sl}
    5450:	06002302 	streq	r2, [r0], -r2, lsl #6
    5454:	00000e14 	andeq	r0, r0, r4, lsl lr
    5458:	005e5403 	subseq	r5, lr, r3, lsl #8
    545c:	02040000 	andeq	r0, r4, #0
    5460:	00230216 	eoreq	r0, r3, r6, lsl r2
    5464:	000eb106 	andeq	fp, lr, r6, lsl #2
    5468:	5e550300 	cdppl	3, 5, cr0, cr5, cr0, {0}
    546c:	04000000 	streq	r0, [r0], #-0
    5470:	23021402 	movwcs	r1, #9218	; 0x2402
    5474:	0df60600 	ldcleq	6, cr0, [r6]
    5478:	56030000 	strpl	r0, [r3], -r0
    547c:	0000005e 	andeq	r0, r0, lr, asr r0
    5480:	02120204 	andseq	r0, r2, #1073741824	; 0x40000000
    5484:	bb060023 	bllt	185518 <__standby_start+0x185518>
    5488:	0300000e 	movweq	r0, #14
    548c:	00005e57 	andeq	r5, r0, r7, asr lr
    5490:	00120400 	andseq	r0, r2, r0, lsl #8
    5494:	00002302 	andeq	r2, r0, r2, lsl #6
    5498:	000fcd03 	andeq	ip, pc, r3, lsl #26
    549c:	f4580300 			; <UNDEFINED> instruction: 0xf4580300
    54a0:	05000001 	streq	r0, [r0, #-1]
    54a4:	f25f0304 	vcgt.s16	d16, d15, d4
    54a8:	06000002 	streq	r0, [r0], -r2
    54ac:	00000b4c 	andeq	r0, r0, ip, asr #22
    54b0:	005e6103 	subseq	r6, lr, r3, lsl #2
    54b4:	05040000 	streq	r0, [r4, #-0]
    54b8:	0023021b 	eoreq	r0, r3, fp, lsl r2
    54bc:	00103906 	andseq	r3, r0, r6, lsl #18
    54c0:	5e620300 	cdppl	3, 6, cr0, cr2, cr0, {0}
    54c4:	04000000 	streq	r0, [r0], #-0
    54c8:	2302100b 	movwcs	r1, #8203	; 0x200b
    54cc:	0b510600 	bleq	1446cd4 <__standby_start+0x1446cd4>
    54d0:	63030000 	movwvs	r0, #12288	; 0x3000
    54d4:	0000005e 	andeq	r0, r0, lr, asr r0
    54d8:	020e0204 	andeq	r0, lr, #1073741824	; 0x40000000
    54dc:	b1060023 	tstlt	r6, r3, lsr #32
    54e0:	0300000e 	movweq	r0, #14
    54e4:	00005e64 	andeq	r5, r0, r4, ror #28
    54e8:	08060400 	stmdaeq	r6, {sl}
    54ec:	06002302 	streq	r2, [r0], -r2, lsl #6
    54f0:	00000b2d 	andeq	r0, r0, sp, lsr #22
    54f4:	005e6503 	subseq	r6, lr, r3, lsl #10
    54f8:	02040000 	andeq	r0, r4, #0
    54fc:	00230206 	eoreq	r0, r3, r6, lsl #4
    5500:	000ebb06 	andeq	fp, lr, r6, lsl #22
    5504:	5e660300 	cdppl	3, 6, cr0, cr6, cr0, {0}
    5508:	04000000 	streq	r0, [r0], #-0
    550c:	23020006 	movwcs	r0, #8198	; 0x2006
    5510:	04070000 	streq	r0, [r7], #-0
    5514:	03115d03 	tsteq	r1, #192	; 0xc0
    5518:	a7080000 	strge	r0, [r8, -r0]
    551c:	03000009 	movweq	r0, #9
    5520:	00005e5e 	andeq	r5, r0, lr, asr lr
    5524:	13530800 	cmpne	r3, #0
    5528:	67030000 	strvs	r0, [r3, -r0]
    552c:	00000283 	andeq	r0, r0, r3, lsl #5
    5530:	0d550300 	ldcleq	3, cr0, [r5, #-0]
    5534:	68030000 	stmdavs	r3, {}	; <UNPREDICTABLE>
    5538:	000002f2 	strdeq	r0, [r0], -r2
    553c:	000c2b09 	andeq	r2, ip, r9, lsl #22
    5540:	6a030400 	bvs	c6548 <__standby_start+0xc6548>
    5544:	0000034b 	andeq	r0, r0, fp, asr #6
    5548:	00101a06 	andseq	r1, r0, r6, lsl #20
    554c:	5e6c0300 	cdppl	3, 6, cr0, cr12, cr0, {0}
    5550:	04000000 	streq	r0, [r0], #-0
    5554:	23021010 	movwcs	r1, #8208	; 0x2010
    5558:	10390600 	eorsne	r0, r9, r0, lsl #12
    555c:	6d030000 	stcvs	0, cr0, [r3, #-0]
    5560:	0000005e 	andeq	r0, r0, lr, asr r0
    5564:	02001004 	andeq	r1, r0, #4
    5568:	03000023 	movweq	r0, #35	; 0x23
    556c:	00000f41 	andeq	r0, r0, r1, asr #30
    5570:	031c6e03 	tsteq	ip, #48	; 0x30
    5574:	970a0000 	strls	r0, [sl, -r0]
    5578:	dc000010 	stcle	0, cr0, [r0], {16}
    557c:	2c700302 	ldclcs	3, cr0, [r0], #-8
    5580:	0b00000b 	bleq	55b4 <__standby_start+0x55b4>
    5584:	00000be9 	andeq	r0, r0, r9, ror #23
    5588:	0b2c7203 	bleq	b21d9c <__standby_start+0xb21d9c>
    558c:	23020000 	movwcs	r0, #8192	; 0x2000
    5590:	0c0e0b00 	stceq	11, cr0, [lr], {-0}
    5594:	73030000 	movwvc	r0, #12288	; 0x3000
    5598:	00000b31 	andeq	r0, r0, r1, lsr fp
    559c:	0b042302 	bleq	10e1ac <__standby_start+0x10e1ac>
    55a0:	0000108f 	andeq	r1, r0, pc, lsl #1
    55a4:	0b317403 	bleq	c625b8 <__standby_start+0xc625b8>
    55a8:	23020000 	movwcs	r0, #8192	; 0x2000
    55ac:	0eb10b08 	vmoveq.f64	d0, #24
    55b0:	75030000 	strvc	r0, [r3, #-0]
    55b4:	00000b31 	andeq	r0, r0, r1, lsr fp
    55b8:	0b0c2302 	bleq	30e1c8 <__standby_start+0x30e1c8>
    55bc:	00000d43 	andeq	r0, r0, r3, asr #26
    55c0:	0b317603 	bleq	c62dd4 <__standby_start+0xc62dd4>
    55c4:	23020000 	movwcs	r0, #8192	; 0x2000
    55c8:	0ebb0b10 	vmoveq.32	r0, d11[1]
    55cc:	77030000 	strvc	r0, [r3, -r0]
    55d0:	00000b31 	andeq	r0, r0, r1, lsr fp
    55d4:	0b142302 	bleq	50e1e4 <__standby_start+0x50e1e4>
    55d8:	00000a15 	andeq	r0, r0, r5, lsl sl
    55dc:	0b317803 	bleq	c635f0 <__standby_start+0xc635f0>
    55e0:	23020000 	movwcs	r0, #8192	; 0x2000
    55e4:	0ec50b18 	vdupeq.8	d5, r0
    55e8:	79030000 	stmdbvc	r3, {}	; <UNPREDICTABLE>
    55ec:	00000b31 	andeq	r0, r0, r1, lsr fp
    55f0:	0b1c2302 	bleq	70e200 <__standby_start+0x70e200>
    55f4:	00000e69 	andeq	r0, r0, r9, ror #28
    55f8:	0b317a03 	bleq	c63e0c <__standby_start+0xc63e0c>
    55fc:	23020000 	movwcs	r0, #8192	; 0x2000
    5600:	0ecf0b20 	vdiveq.f64	d16, d15, d16
    5604:	7b030000 	blvc	c560c <__standby_start+0xc560c>
    5608:	00000b31 	andeq	r0, r0, r1, lsr fp
    560c:	0b242302 	bleq	90e21c <__standby_start+0x90e21c>
    5610:	000009dd 	ldrdeq	r0, [r0], -sp
    5614:	0b317c03 	bleq	c64628 <__standby_start+0xc64628>
    5618:	23020000 	movwcs	r0, #8192	; 0x2000
    561c:	0ed90b28 	vfnmseq.f64	d16, d9, d24
    5620:	7d030000 	stcvc	0, cr0, [r3, #-0]
    5624:	00000b31 	andeq	r0, r0, r1, lsr fp
    5628:	0b2c2302 	bleq	b0e238 <__standby_start+0xb0e238>
    562c:	00000e51 	andeq	r0, r0, r1, asr lr
    5630:	0b317e03 	bleq	c64e44 <__standby_start+0xc64e44>
    5634:	23020000 	movwcs	r0, #8192	; 0x2000
    5638:	0ee30b30 	mcreq	11, 7, r0, cr3, cr0, {1}
    563c:	7f030000 	svcvc	0x00030000
    5640:	00000b31 	andeq	r0, r0, r1, lsr fp
    5644:	0b342302 	bleq	d0e254 <__standby_start+0xd0e254>
    5648:	00000c23 	andeq	r0, r0, r3, lsr #24
    564c:	0b318003 	bleq	c65660 <__standby_start+0xc65660>
    5650:	23020000 	movwcs	r0, #8192	; 0x2000
    5654:	0eed0b38 	mcreq	11, 7, r0, cr13, cr8, {1}
    5658:	81030000 	mrshi	r0, (UNDEF: 3)
    565c:	00000b31 	andeq	r0, r0, r1, lsr fp
    5660:	0b3c2302 	bleq	f0e270 <__standby_start+0xf0e270>
    5664:	00000f2f 	andeq	r0, r0, pc, lsr #30
    5668:	0b318203 	bleq	c65e7c <__standby_start+0xc65e7c>
    566c:	23020000 	movwcs	r0, #8192	; 0x2000
    5670:	10c50b40 	sbcne	r0, r5, r0, asr #22
    5674:	83030000 	movwhi	r0, #12288	; 0x3000
    5678:	00000b31 	andeq	r0, r0, r1, lsr fp
    567c:	0b442302 	bleq	110e28c <__standby_start+0x110e28c>
    5680:	00000a0c 	andeq	r0, r0, ip, lsl #20
    5684:	0b318403 	bleq	c66698 <__standby_start+0xc66698>
    5688:	23020000 	movwcs	r0, #8192	; 0x2000
    568c:	0fa90b48 	svceq	0x00a90b48
    5690:	85030000 	strhi	r0, [r3, #-0]
    5694:	00000b31 	andeq	r0, r0, r1, lsr fp
    5698:	0b4c2302 	bleq	130e2a8 <__standby_start+0x130e2a8>
    569c:	00000d4b 	andeq	r0, r0, fp, asr #26
    56a0:	0b368603 	bleq	da6eb4 <__standby_start+0xda6eb4>
    56a4:	23020000 	movwcs	r0, #8192	; 0x2000
    56a8:	0d1b0b50 	vldreq	d0, [fp, #-320]	; 0xfffffec0
    56ac:	87030000 	strhi	r0, [r3, -r0]
    56b0:	00000b3b 	andeq	r0, r0, fp, lsr fp
    56b4:	0b542302 	bleq	150e2c4 <__standby_start+0x150e2c4>
    56b8:	00000ad4 	ldrdeq	r0, [r0], -r4
    56bc:	0b408803 	bleq	10276d0 <__standby_start+0x10276d0>
    56c0:	23020000 	movwcs	r0, #8192	; 0x2000
    56c4:	0e8d0b58 	mcreq	11, 4, r0, cr13, cr8, {2}
    56c8:	89030000 	stmdbhi	r3, {}	; <UNPREDICTABLE>
    56cc:	00000b31 	andeq	r0, r0, r1, lsr fp
    56d0:	0b5c2302 	bleq	170e2e0 <__standby_start+0x170e2e0>
    56d4:	00000bce 	andeq	r0, r0, lr, asr #23
    56d8:	0b318a03 	bleq	c67eec <__standby_start+0xc67eec>
    56dc:	23020000 	movwcs	r0, #8192	; 0x2000
    56e0:	0bd70b60 	bleq	ff5c8468 <__bss_end+0xf5c46bc>
    56e4:	8b030000 	blhi	c56ec <__standby_start+0xc56ec>
    56e8:	00000b31 	andeq	r0, r0, r1, lsr fp
    56ec:	0b642302 	bleq	190e2fc <__standby_start+0x190e2fc>
    56f0:	0000104c 	andeq	r1, r0, ip, asr #32
    56f4:	0b318c03 	bleq	c68708 <__standby_start+0xc68708>
    56f8:	23020000 	movwcs	r0, #8192	; 0x2000
    56fc:	0dad0b68 	stceq	11, cr0, [sp, #416]!	; 0x1a0
    5700:	8d030000 	stchi	0, cr0, [r3, #-0]
    5704:	00000b31 	andeq	r0, r0, r1, lsr fp
    5708:	0b6c2302 	bleq	1b0e318 <__standby_start+0x1b0e318>
    570c:	00000ef7 	strdeq	r0, [r0], -r7
    5710:	0b558e03 	bleq	1568f24 <__standby_start+0x1568f24>
    5714:	23020000 	movwcs	r0, #8192	; 0x2000
    5718:	10bb0b70 	adcsne	r0, fp, r0, ror fp
    571c:	8f030000 	svchi	0x00030000
    5720:	00000b31 	andeq	r0, r0, r1, lsr fp
    5724:	0b782302 	bleq	1e0e334 <__standby_start+0x1e0e334>
    5728:	000009d1 	ldrdeq	r0, [r0], -r1
    572c:	0b319003 	bleq	c69740 <__standby_start+0xc69740>
    5730:	23020000 	movwcs	r0, #8192	; 0x2000
    5734:	10b50b7c 	adcsne	r0, r5, ip, ror fp
    5738:	91030000 	mrsls	r0, (UNDEF: 3)
    573c:	00000b31 	andeq	r0, r0, r1, lsr fp
    5740:	01802303 	orreq	r2, r0, r3, lsl #6
    5744:	0010550b 	andseq	r5, r0, fp, lsl #10
    5748:	31920300 	orrscc	r0, r2, r0, lsl #6
    574c:	0300000b 	movweq	r0, #11
    5750:	0c018423 	cfstrseq	mvf8, [r1], {35}	; 0x23
    5754:	00306453 	eorseq	r6, r0, r3, asr r4
    5758:	0b319303 	bleq	c6a36c <__standby_start+0xc6a36c>
    575c:	23030000 	movwcs	r0, #12288	; 0x3000
    5760:	530c0188 	movwpl	r0, #49544	; 0xc188
    5764:	03003164 	movweq	r3, #356	; 0x164
    5768:	000b3194 	muleq	fp, r4, r1
    576c:	8c230300 	stchi	3, cr0, [r3], #-0
    5770:	64530c01 	ldrbvs	r0, [r3], #-3073	; 0xc01
    5774:	95030032 	strls	r0, [r3, #-50]	; 0x32
    5778:	00000b31 	andeq	r0, r0, r1, lsr fp
    577c:	01902303 	orrseq	r2, r0, r3, lsl #6
    5780:	0010600b 	andseq	r6, r0, fp
    5784:	5a960300 	bpl	fe58638c <__bss_end+0xe5825e0>
    5788:	0300000b 	movweq	r0, #11
    578c:	0c019423 	cfstrseq	mvf9, [r1], {35}	; 0x23
    5790:	03007353 	movweq	r7, #851	; 0x353
    5794:	000b3197 	muleq	fp, r7, r1
    5798:	9c230300 	stcls	3, cr0, [r3], #-0
    579c:	0f250b01 	svceq	0x00250b01
    57a0:	98030000 	stmdals	r3, {}	; <UNPREDICTABLE>
    57a4:	00000b31 	andeq	r0, r0, r1, lsr fp
    57a8:	01a02303 	lsleq	r2, r3, #6
    57ac:	000f2a0b 	andeq	r2, pc, fp, lsl #20
    57b0:	31990300 	orrscc	r0, r9, r0, lsl #6
    57b4:	0300000b 	movweq	r0, #11
    57b8:	0b01a423 	bleq	6e84c <__standby_start+0x6e84c>
    57bc:	0000106b 	andeq	r1, r0, fp, rrx
    57c0:	0b5f9a03 	bleq	17ebfd4 <__standby_start+0x17ebfd4>
    57c4:	23030000 	movwcs	r0, #12288	; 0x3000
    57c8:	fd0b01a8 	stc2	1, cr0, [fp, #-672]	; 0xfffffd60
    57cc:	03000009 	movweq	r0, #9
    57d0:	000b319b 	muleq	fp, fp, r1
    57d4:	b0230300 	eorlt	r0, r3, r0, lsl #6
    57d8:	0a020b01 	beq	883e4 <__standby_start+0x883e4>
    57dc:	9c030000 	stcls	0, cr0, [r3], {-0}
    57e0:	00000b31 	andeq	r0, r0, r1, lsr fp
    57e4:	01b42303 			; <UNDEFINED> instruction: 0x01b42303
    57e8:	000a070b 	andeq	r0, sl, fp, lsl #14
    57ec:	319d0300 	orrscc	r0, sp, r0, lsl #6
    57f0:	0300000b 	movweq	r0, #11
    57f4:	0b01b823 	bleq	73888 <__standby_start+0x73888>
    57f8:	00000aa2 	andeq	r0, r0, r2, lsr #21
    57fc:	0b319e03 	bleq	c6d010 <__standby_start+0xc6d010>
    5800:	23030000 	movwcs	r0, #12288	; 0x3000
    5804:	a40b01bc 	strge	r0, [fp], #-444	; 0x1bc
    5808:	0300000d 	movweq	r0, #13
    580c:	000b319f 	muleq	fp, pc, r1	; <UNPREDICTABLE>
    5810:	c0230300 	eorgt	r0, r3, r0, lsl #6
    5814:	0cf20b01 	fldmiaxeq	r2!, {d16-d15}	;@ Deprecated
    5818:	a0030000 	andge	r0, r3, r0
    581c:	00000b64 	andeq	r0, r0, r4, ror #22
    5820:	01c42303 	biceq	r2, r4, r3, lsl #6
    5824:	6273550c 	rsbsvs	r5, r3, #50331648	; 0x3000000
    5828:	31a10300 			; <UNDEFINED> instruction: 0x31a10300
    582c:	0300000b 	movweq	r0, #11
    5830:	0b01cc23 	bleq	788c4 <__standby_start+0x788c4>
    5834:	00000fe9 	andeq	r0, r0, r9, ror #31
    5838:	0b31a203 	bleq	c6e04c <__standby_start+0xc6e04c>
    583c:	23030000 	movwcs	r0, #12288	; 0x3000
    5840:	420b01d0 	andmi	r0, fp, #52	; 0x34
    5844:	0300000c 	movweq	r0, #12
    5848:	000b79a3 	andeq	r7, fp, r3, lsr #19
    584c:	d4230300 	strtle	r0, [r3], #-768	; 0x300
    5850:	10830b01 	addne	r0, r3, r1, lsl #22
    5854:	a4030000 	strge	r0, [r3], #-0
    5858:	00000b31 	andeq	r0, r0, r1, lsr fp
    585c:	01f02303 	mvnseq	r2, r3, lsl #6
    5860:	000fc50b 	andeq	ip, pc, fp, lsl #10
    5864:	31a50300 			; <UNDEFINED> instruction: 0x31a50300
    5868:	0300000b 	movweq	r0, #11
    586c:	0b01f423 	bleq	82900 <__standby_start+0x82900>
    5870:	00001023 	andeq	r1, r0, r3, lsr #32
    5874:	0b31a603 	bleq	c6f088 <__standby_start+0xc6f088>
    5878:	23030000 	movwcs	r0, #12288	; 0x3000
    587c:	220b01f8 	andcs	r0, fp, #62	; 0x3e
    5880:	0300000e 	movweq	r0, #14
    5884:	000b31a7 	andeq	r3, fp, r7, lsr #3
    5888:	fc230300 	stc2	3, cr0, [r3], #-0
    588c:	0ded0b01 	stcleq	11, cr0, [sp, #4]!
    5890:	a8030000 	stmdage	r3, {}	; <UNPREDICTABLE>
    5894:	00000b31 	andeq	r0, r0, r1, lsr fp
    5898:	02802303 	addeq	r2, r0, #201326592	; 0xc000000
    589c:	000bf10b 	andeq	pc, fp, fp, lsl #2
    58a0:	31a90300 			; <UNDEFINED> instruction: 0x31a90300
    58a4:	0300000b 	movweq	r0, #11
    58a8:	0b028423 	bleq	a693c <__standby_start+0xa693c>
    58ac:	00000968 	andeq	r0, r0, r8, ror #18
    58b0:	0b31aa03 	bleq	c700c4 <__standby_start+0xc700c4>
    58b4:	23030000 	movwcs	r0, #12288	; 0x3000
    58b8:	890b0288 	stmdbhi	fp, {r3, r7, r9}
    58bc:	0300000a 	movweq	r0, #10
    58c0:	000b31ab 	andeq	r3, fp, fp, lsr #3
    58c4:	8c230300 	stchi	3, cr0, [r3], #-0
    58c8:	09740b02 	ldmdbeq	r4!, {r1, r8, r9, fp}^
    58cc:	ac030000 	stcge	0, cr0, [r3], {-0}
    58d0:	00000b31 	andeq	r0, r0, r1, lsr fp
    58d4:	02902303 	addseq	r2, r0, #201326592	; 0xc000000
    58d8:	0009800b 	andeq	r8, r9, fp
    58dc:	31ad0300 			; <UNDEFINED> instruction: 0x31ad0300
    58e0:	0300000b 	movweq	r0, #11
    58e4:	0b029423 	bleq	aa978 <__standby_start+0xaa978>
    58e8:	000009c1 	andeq	r0, r0, r1, asr #19
    58ec:	0b31ae03 	bleq	c71100 <__standby_start+0xc71100>
    58f0:	23030000 	movwcs	r0, #12288	; 0x3000
    58f4:	c90b0298 	stmdbgt	fp, {r3, r4, r7, r9}
    58f8:	03000009 	movweq	r0, #9
    58fc:	000b31af 	andeq	r3, fp, pc, lsr #3
    5900:	9c230300 	stcls	3, cr0, [r3], #-0
    5904:	0c4d0b02 	mcrreq	11, 0, r0, sp, cr2
    5908:	b0030000 	andlt	r0, r3, r0
    590c:	00000b8e 	andeq	r0, r0, lr, lsl #23
    5910:	02a02303 	adceq	r2, r0, #201326592	; 0xc000000
    5914:	000e950b 	andeq	r9, lr, fp, lsl #10
    5918:	31b10300 			; <UNDEFINED> instruction: 0x31b10300
    591c:	0300000b 	movweq	r0, #11
    5920:	0b02b023 	bleq	b19b4 <__standby_start+0xb19b4>
    5924:	00000f19 	andeq	r0, r0, r9, lsl pc
    5928:	0b31b203 	bleq	c7213c <__standby_start+0xc7213c>
    592c:	23030000 	movwcs	r0, #12288	; 0x3000
    5930:	e50b02b4 	str	r0, [fp, #-692]	; 0x2b4
    5934:	03000009 	movweq	r0, #9
    5938:	000b31b3 			; <UNDEFINED> instruction: 0x000b31b3
    593c:	b8230300 	stmdalt	r3!, {r8, r9}
    5940:	65560c02 	ldrbvs	r0, [r6, #-3074]	; 0xc02
    5944:	31b40300 			; <UNDEFINED> instruction: 0x31b40300
    5948:	0300000b 	movweq	r0, #11
    594c:	0b02bc23 	bleq	b49e0 <__standby_start+0xb49e0>
    5950:	00000de0 	andeq	r0, r0, r0, ror #27
    5954:	0b31b503 	bleq	c72d68 <__standby_start+0xc72d68>
    5958:	23030000 	movwcs	r0, #12288	; 0x3000
    595c:	410c02c0 	smlabtmi	ip, r0, r2, r0
    5960:	03007376 	movweq	r7, #886	; 0x376
    5964:	000b31b6 			; <UNDEFINED> instruction: 0x000b31b6
    5968:	c4230300 	strtgt	r0, [r3], #-768	; 0x300
    596c:	09f10b02 	ldmibeq	r1!, {r1, r8, r9, fp}^
    5970:	b7030000 	strlt	r0, [r3, -r0]
    5974:	00000b31 	andeq	r0, r0, r1, lsr fp
    5978:	02c82303 	sbceq	r2, r8, #201326592	; 0xc000000
    597c:	000c580b 	andeq	r5, ip, fp, lsl #16
    5980:	31b80300 			; <UNDEFINED> instruction: 0x31b80300
    5984:	0300000b 	movweq	r0, #11
    5988:	0b02cc23 	bleq	b8a1c <__standby_start+0xb8a1c>
    598c:	00000cfd 	strdeq	r0, [r0], -sp
    5990:	0b31b903 	bleq	c73da4 <__standby_start+0xc73da4>
    5994:	23030000 	movwcs	r0, #12288	; 0x3000
    5998:	680b02d0 	stmdavs	fp, {r4, r6, r7, r9}
    599c:	0300000f 	movweq	r0, #15
    59a0:	000b31ba 			; <UNDEFINED> instruction: 0x000b31ba
    59a4:	d4230300 	strtle	r0, [r3], #-768	; 0x300
    59a8:	0a710b02 	beq	1c485b8 <__standby_start+0x1c485b8>
    59ac:	bb030000 	bllt	c59b4 <__standby_start+0xc59b4>
    59b0:	00000b31 	andeq	r0, r0, r1, lsr fp
    59b4:	02d82303 	sbcseq	r2, r8, #201326592	; 0xc000000
    59b8:	000ab10b 	andeq	fp, sl, fp, lsl #2
    59bc:	31bc0300 			; <UNDEFINED> instruction: 0x31bc0300
    59c0:	0300000b 	movweq	r0, #11
    59c4:	0b02dc23 	bleq	bca58 <__standby_start+0xbca58>
    59c8:	00000a7d 	andeq	r0, r0, sp, ror sl
    59cc:	0b31bd03 	bleq	c74de0 <__standby_start+0xc74de0>
    59d0:	23030000 	movwcs	r0, #12288	; 0x3000
    59d4:	630b02e0 	movwvs	r0, #45792	; 0xb2e0
    59d8:	0300000c 	movweq	r0, #12
    59dc:	000b31be 			; <UNDEFINED> instruction: 0x000b31be
    59e0:	e4230300 	strt	r0, [r3], #-768	; 0x300
    59e4:	0f010b02 	svceq	0x00010b02
    59e8:	bf030000 	svclt	0x00030000
    59ec:	00000b31 	andeq	r0, r0, r1, lsr fp
    59f0:	02e82303 	rsceq	r2, r8, #201326592	; 0xc000000
    59f4:	000f0d0b 	andeq	r0, pc, fp, lsl #26
    59f8:	31c00300 	biccc	r0, r0, r0, lsl #6
    59fc:	0300000b 	movweq	r0, #11
    5a00:	0b02ec23 	bleq	c0a94 <__standby_start+0xc0a94>
    5a04:	00000c6e 	andeq	r0, r0, lr, ror #24
    5a08:	0b93c103 	bleq	fe4f5e1c <__bss_end+0xe4f2070>
    5a0c:	23030000 	movwcs	r0, #12288	; 0x3000
    5a10:	760b02f0 			; <UNDEFINED> instruction: 0x760b02f0
    5a14:	03000010 	movweq	r0, #16
    5a18:	000b31c2 	andeq	r3, fp, r2, asr #3
    5a1c:	80230300 	eorhi	r0, r3, r0, lsl #6
    5a20:	0b600b03 	bleq	1808634 <__standby_start+0x1808634>
    5a24:	c3030000 	movwgt	r0, #12288	; 0x3000
    5a28:	00000b31 	andeq	r0, r0, r1, lsr fp
    5a2c:	03842303 	orreq	r2, r4, #201326592	; 0xc000000
    5a30:	000b6c0b 	andeq	r6, fp, fp, lsl #24
    5a34:	31c40300 	biccc	r0, r4, r0, lsl #6
    5a38:	0300000b 	movweq	r0, #11
    5a3c:	0b038823 	bleq	e7ad0 <__standby_start+0xe7ad0>
    5a40:	00000b78 	andeq	r0, r0, r8, ror fp
    5a44:	0b31c503 	bleq	c76e58 <__standby_start+0xc76e58>
    5a48:	23030000 	movwcs	r0, #12288	; 0x3000
    5a4c:	790b038c 	stmdbvc	fp, {r2, r3, r7, r8, r9}
    5a50:	0300000c 	movweq	r0, #12
    5a54:	000b98c6 	andeq	r9, fp, r6, asr #17
    5a58:	90230300 	eorls	r0, r3, r0, lsl #6
    5a5c:	0b8c0b03 	bleq	fe308670 <__bss_end+0xe3048c4>
    5a60:	c7030000 	strgt	r0, [r3, -r0]
    5a64:	00000b31 	andeq	r0, r0, r1, lsr fp
    5a68:	03a02303 	moveq	r2, #201326592	; 0xc000000
    5a6c:	000b340b 	andeq	r3, fp, fp, lsl #8
    5a70:	31c80300 	biccc	r0, r8, r0, lsl #6
    5a74:	0300000b 	movweq	r0, #11
    5a78:	0b03a423 	bleq	eeb0c <__standby_start+0xeeb0c>
    5a7c:	00000d71 	andeq	r0, r0, r1, ror sp
    5a80:	0b31c903 	bleq	c77e94 <__standby_start+0xc77e94>
    5a84:	23030000 	movwcs	r0, #12288	; 0x3000
    5a88:	b60b03a8 	strlt	r0, [fp], -r8, lsr #7
    5a8c:	0300000b 	movweq	r0, #11
    5a90:	000b31ca 	andeq	r3, fp, sl, asr #3
    5a94:	ac230300 	stcge	3, cr0, [r3], #-0
    5a98:	0bc20b03 	bleq	ff0886ac <__bss_end+0xf084900>
    5a9c:	cb030000 	blgt	c5aa4 <__standby_start+0xc5aa4>
    5aa0:	00000b31 	andeq	r0, r0, r1, lsr fp
    5aa4:	03b02303 	movseq	r2, #201326592	; 0xc000000
    5aa8:	000d230b 	andeq	r2, sp, fp, lsl #6
    5aac:	adcc0300 	stclge	3, cr0, [ip]
    5ab0:	0300000b 	movweq	r0, #11
    5ab4:	0b03b423 	bleq	f2b48 <__standby_start+0xf2b48>
    5ab8:	000009bb 			; <UNDEFINED> instruction: 0x000009bb
    5abc:	0b31cd03 	bleq	c78ed0 <__standby_start+0xc78ed0>
    5ac0:	23030000 	movwcs	r0, #12288	; 0x3000
    5ac4:	170b03c0 	strne	r0, [fp, -r0, asr #7]
    5ac8:	0300000c 	movweq	r0, #12
    5acc:	000bc2ce 	andeq	ip, fp, lr, asr #5
    5ad0:	c4230300 	strtgt	r0, [r3], #-768	; 0x300
    5ad4:	0b840b03 	bleq	fe1086e8 <__bss_end+0xe10493c>
    5ad8:	cf030000 	svcgt	0x00030000
    5adc:	00000bc7 	andeq	r0, r0, r7, asr #23
    5ae0:	04802303 	streq	r2, [r0], #771	; 0x303
    5ae4:	000dca0b 	andeq	ip, sp, fp, lsl #20
    5ae8:	31d00300 	bicscc	r0, r0, r0, lsl #6
    5aec:	0300000b 	movweq	r0, #11
    5af0:	0b048423 	bleq	126b84 <__standby_start+0x126b84>
    5af4:	0000102d 	andeq	r1, r0, sp, lsr #32
    5af8:	0b31d103 	bleq	c79f0c <__standby_start+0xc79f0c>
    5afc:	23030000 	movwcs	r0, #12288	; 0x3000
    5b00:	f50b0488 			; <UNDEFINED> instruction: 0xf50b0488
    5b04:	0300000f 	movweq	r0, #15
    5b08:	000b31d2 	ldrdeq	r3, [fp], -r2
    5b0c:	8c230300 	stchi	3, cr0, [r3], #-0
    5b10:	0ae40b04 	beq	ff908728 <__bss_end+0xf90497c>
    5b14:	d3030000 	movwle	r0, #12288	; 0x3000
    5b18:	00000bcc 	andeq	r0, r0, ip, asr #23
    5b1c:	04902303 	ldreq	r2, [r0], #771	; 0x303
    5b20:	000cc90b 	andeq	ip, ip, fp, lsl #18
    5b24:	e1d50300 	bics	r0, r5, r0, lsl #6
    5b28:	0300000b 	movweq	r0, #11
    5b2c:	0b04a023 	bleq	12dbc0 <__standby_start+0x12dbc0>
    5b30:	00000a51 	andeq	r0, r0, r1, asr sl
    5b34:	0b31d603 	bleq	c7b348 <__standby_start+0xc7b348>
    5b38:	23030000 	movwcs	r0, #12288	; 0x3000
    5b3c:	ad0b04a4 	cfstrsge	mvf0, [fp, #-656]	; 0xfffffd70
    5b40:	03000009 	movweq	r0, #9
    5b44:	000b31d7 	ldrdeq	r3, [fp], -r7
    5b48:	a8230300 	stmdage	r3!, {r8, r9}
    5b4c:	0ce80b04 	vstmiaeq	r8!, {d16-d17}
    5b50:	d8030000 	stmdale	r3, {}	; <UNPREDICTABLE>
    5b54:	00000b31 	andeq	r0, r0, r1, lsr fp
    5b58:	04ac2303 	strteq	r2, [ip], #771	; 0x303
    5b5c:	000b9e0b 	andeq	r9, fp, fp, lsl #28
    5b60:	31d90300 	bicscc	r0, r9, r0, lsl #6
    5b64:	0300000b 	movweq	r0, #11
    5b68:	0b04b023 	bleq	131bfc <__standby_start+0x131bfc>
    5b6c:	00000f5a 	andeq	r0, r0, sl, asr pc
    5b70:	0b31da03 	bleq	c7c384 <__standby_start+0xc7c384>
    5b74:	23030000 	movwcs	r0, #12288	; 0x3000
    5b78:	a70b04b4 			; <UNDEFINED> instruction: 0xa70b04b4
    5b7c:	03000010 	movweq	r0, #16
    5b80:	000b31db 	ldrdeq	r3, [fp], -fp
    5b84:	b8230300 	stmdalt	r3!, {r8, r9}
    5b88:	0b200b04 	bleq	8087a0 <__standby_start+0x8087a0>
    5b8c:	dc030000 	stcle	0, cr0, [r3], {-0}
    5b90:	00000b31 	andeq	r0, r0, r1, lsr fp
    5b94:	04bc2303 	ldrteq	r2, [ip], #771	; 0x303
    5b98:	000ba90b 	andeq	sl, fp, fp, lsl #18
    5b9c:	31dd0300 	bicscc	r0, sp, r0, lsl #6
    5ba0:	0300000b 	movweq	r0, #11
    5ba4:	0b04c023 	bleq	135c38 <__standby_start+0x135c38>
    5ba8:	00000a96 	muleq	r0, r6, sl
    5bac:	0b31de03 	bleq	c7d3c0 <__standby_start+0xc7d3c0>
    5bb0:	23030000 	movwcs	r0, #12288	; 0x3000
    5bb4:	0a0b04c4 	beq	2c6ecc <__standby_start+0x2c6ecc>
    5bb8:	0300000e 	movweq	r0, #14
    5bbc:	000b31df 	ldrdeq	r3, [fp], -pc	; <UNPREDICTABLE>
    5bc0:	c8230300 	stmdagt	r3!, {r8, r9}
    5bc4:	0e430b04 	vmlaeq.f64	d16, d3, d4
    5bc8:	e0030000 	and	r0, r3, r0
    5bcc:	00000b31 	andeq	r0, r0, r1, lsr fp
    5bd0:	04cc2303 	strbeq	r2, [ip], #771	; 0x303
    5bd4:	000aa90b 	andeq	sl, sl, fp, lsl #18
    5bd8:	31e20300 	mvncc	r0, r0, lsl #6
    5bdc:	0300000b 	movweq	r0, #11
    5be0:	0b04d023 	bleq	139c74 <__standby_start+0x139c74>
    5be4:	00000e01 	andeq	r0, r0, r1, lsl #28
    5be8:	0b31e303 	bleq	c7e7fc <__standby_start+0xc7e7fc>
    5bec:	23030000 	movwcs	r0, #12288	; 0x3000
    5bf0:	f00b04d4 			; <UNDEFINED> instruction: 0xf00b04d4
    5bf4:	0300000a 	movweq	r0, #10
    5bf8:	000be6e5 	andeq	lr, fp, r5, ror #13
    5bfc:	d8230300 	stmdale	r3!, {r8, r9}
    5c00:	0e5c0b04 	vnmlseq.f64	d16, d12, d4
    5c04:	e6030000 	str	r0, [r3], -r0
    5c08:	00000b31 	andeq	r0, r0, r1, lsr fp
    5c0c:	04e02303 	strbteq	r2, [r0], #771	; 0x303
    5c10:	000afc0b 	andeq	pc, sl, fp, lsl #24
    5c14:	ebe70300 	bl	ff9c681c <__bss_end+0xf9c2a70>
    5c18:	0300000b 	movweq	r0, #11
    5c1c:	0b04e423 	bleq	13ecb0 <__standby_start+0x13ecb0>
    5c20:	00000ab7 			; <UNDEFINED> instruction: 0x00000ab7
    5c24:	0b31e803 	bleq	c7fc38 <__standby_start+0xc7fc38>
    5c28:	23030000 	movwcs	r0, #12288	; 0x3000
    5c2c:	080b04f0 	stmdaeq	fp, {r4, r5, r6, r7, sl}
    5c30:	0300000b 	movweq	r0, #11
    5c34:	000bf0e9 	andeq	pc, fp, r9, ror #1
    5c38:	f4230300 	vld2.8	{d0-d3}, [r3], r0
    5c3c:	0d960b04 	vldreq	d0, [r6, #16]
    5c40:	ea030000 	b	c5c48 <__standby_start+0xc5c48>
    5c44:	00000b31 	andeq	r0, r0, r1, lsr fp
    5c48:	05802303 	streq	r2, [r0, #771]	; 0x303
    5c4c:	000e2f0b 	andeq	r2, lr, fp, lsl #30
    5c50:	31ec0300 	mvncc	r0, r0, lsl #6
    5c54:	0300000b 	movweq	r0, #11
    5c58:	0b058423 	bleq	166cec <__standby_start+0x166cec>
    5c5c:	00000d2e 	andeq	r0, r0, lr, lsr #26
    5c60:	0b31ed03 	bleq	c81074 <__standby_start+0xc81074>
    5c64:	23030000 	movwcs	r0, #12288	; 0x3000
    5c68:	d30b0588 	movwle	r0, #46472	; 0xb588
    5c6c:	0300000d 	movweq	r0, #13
    5c70:	000b31ee 	andeq	r3, fp, lr, ror #3
    5c74:	8c230300 	stchi	3, cr0, [r3], #-0
    5c78:	0f740b05 	svceq	0x00740b05
    5c7c:	ef030000 	svc	0x00030000
    5c80:	00000b31 	andeq	r0, r0, r1, lsr fp
    5c84:	05902303 	ldreq	r2, [r0, #771]	; 0x303
    5c88:	000b140b 	andeq	r1, fp, fp, lsl #8
    5c8c:	f5f00300 			; <UNDEFINED> instruction: 0xf5f00300
    5c90:	0300000b 	movweq	r0, #11
    5c94:	0b059423 	bleq	16ad28 <__standby_start+0x16ad28>
    5c98:	00000db6 			; <UNDEFINED> instruction: 0x00000db6
    5c9c:	0b31f103 	bleq	c820b0 <__standby_start+0xc820b0>
    5ca0:	23030000 	movwcs	r0, #12288	; 0x3000
    5ca4:	050b05a4 	streq	r0, [fp, #-1444]	; 0x5a4
    5ca8:	03000010 	movweq	r0, #16
    5cac:	000b31f2 	strdeq	r3, [fp], -r2
    5cb0:	a8230300 	stmdage	r3!, {r8, r9}
    5cb4:	094e0b05 	stmdbeq	lr, {r0, r2, r8, r9, fp}^
    5cb8:	f3030000 	vhadd.u8	d0, d3, d0
    5cbc:	00000b31 	andeq	r0, r0, r1, lsr fp
    5cc0:	05ac2303 	streq	r2, [ip, #771]!	; 0x303
    5cc4:	000fb30b 	andeq	fp, pc, fp, lsl #6
    5cc8:	31f40300 	mvnscc	r0, r0, lsl #6
    5ccc:	0300000b 	movweq	r0, #11
    5cd0:	0b05b023 	bleq	171d64 <__standby_start+0x171d64>
    5cd4:	0000095b 	andeq	r0, r0, fp, asr r9
    5cd8:	0bfaf503 	bleq	ffec30ec <__bss_end+0xfebf340>
    5cdc:	23030000 	movwcs	r0, #12288	; 0x3000
    5ce0:	780b05b4 	stmdavc	fp, {r2, r4, r5, r7, r8, sl}
    5ce4:	0300000d 	movweq	r0, #13
    5ce8:	000b31f7 	strdeq	r3, [fp], -r7
    5cec:	c0230300 	eorgt	r0, r3, r0, lsl #6
    5cf0:	0d820b05 	vstreq	d0, [r2, #20]
    5cf4:	f8030000 			; <UNDEFINED> instruction: 0xf8030000
    5cf8:	00000b31 	andeq	r0, r0, r1, lsr fp
    5cfc:	05c42303 	strbeq	r2, [r4, #771]	; 0x303
    5d00:	000d8c0b 	andeq	r8, sp, fp, lsl #24
    5d04:	31f90300 	mvnscc	r0, r0, lsl #6
    5d08:	0300000b 	movweq	r0, #11
    5d0c:	0b05c823 	bleq	177da0 <__standby_start+0x177da0>
    5d10:	00000cd2 	ldrdeq	r0, [r0], -r2
    5d14:	0b31fa03 	bleq	c84528 <__standby_start+0xc84528>
    5d18:	23030000 	movwcs	r0, #12288	; 0x3000
    5d1c:	9d0b05cc 	cfstr32ls	mvfx0, [fp, #-816]	; 0xfffffcd0
    5d20:	0300000e 	movweq	r0, #14
    5d24:	000b31fb 	strdeq	r3, [fp], -fp
    5d28:	d0230300 	eorle	r0, r3, r0, lsl #6
    5d2c:	0cdd0b05 	fldmiaxeq	sp, {d16-d17}	;@ Deprecated
    5d30:	fc030000 	stc2	0, cr0, [r3], {-0}
    5d34:	00000b31 	andeq	r0, r0, r1, lsr fp
    5d38:	05d42303 	ldrbeq	r2, [r4, #771]	; 0x303
    5d3c:	000b560b 	andeq	r5, fp, fp, lsl #12
    5d40:	31fd0300 	mvnscc	r0, r0, lsl #6
    5d44:	0300000b 	movweq	r0, #11
    5d48:	0005d823 	andeq	sp, r5, r3, lsr #16
    5d4c:	00012e0d 	andeq	r2, r1, sp, lsl #28
    5d50:	005e0d00 	subseq	r0, lr, r0, lsl #26
    5d54:	e90d0000 	stmdb	sp, {}	; <UNPREDICTABLE>
    5d58:	0d000001 	stceq	0, cr0, [r0, #-4]
    5d5c:	00000278 	andeq	r0, r0, r8, ror r2
    5d60:	0003110d 	andeq	r1, r3, sp, lsl #2
    5d64:	005e0e00 	subseq	r0, lr, r0, lsl #28
    5d68:	0b550000 	bleq	1545d70 <__standby_start+0x1545d70>
    5d6c:	690f0000 	stmdbvs	pc, {}	; <UNPREDICTABLE>
    5d70:	01000000 	mrseq	r0, (UNDEF: 0)
    5d74:	0b450d00 	bleq	114917c <__standby_start+0x114917c>
    5d78:	450d0000 	strmi	r0, [sp, #-0]
    5d7c:	0d00000b 	stceq	0, cr0, [r0, #-44]	; 0xffffffd4
    5d80:	00000b45 	andeq	r0, r0, r5, asr #22
    5d84:	000b450d 	andeq	r4, fp, sp, lsl #10
    5d88:	005e0e00 	subseq	r0, lr, r0, lsl #28
    5d8c:	0b790000 	bleq	1e45d94 <__standby_start+0x1e45d94>
    5d90:	690f0000 	stmdbvs	pc, {}	; <UNPREDICTABLE>
    5d94:	06000000 	streq	r0, [r0], -r0
    5d98:	0b690d00 	bleq	1a491a0 <__standby_start+0x1a491a0>
    5d9c:	5e0e0000 	cdppl	0, 0, cr0, cr14, cr0, {0}
    5da0:	8e000000 	cdphi	0, 0, cr0, cr0, cr0, {0}
    5da4:	0f00000b 	svceq	0x0000000b
    5da8:	00000069 	andeq	r0, r0, r9, rrx
    5dac:	7e0d0003 	cdpvc	0, 0, cr0, cr13, cr3, {0}
    5db0:	0d00000b 	stceq	0, cr0, [r0, #-44]	; 0xffffffd4
    5db4:	00000b7e 	andeq	r0, r0, lr, ror fp
    5db8:	000b7e0d 	andeq	r7, fp, sp, lsl #28
    5dbc:	005e0e00 	subseq	r0, lr, r0, lsl #28
    5dc0:	0bad0000 	bleq	feb45dc8 <__bss_end+0xeb4201c>
    5dc4:	690f0000 	stmdbvs	pc, {}	; <UNPREDICTABLE>
    5dc8:	02000000 	andeq	r0, r0, #0
    5dcc:	0b9d0d00 	bleq	fe7491d4 <__bss_end+0xe745428>
    5dd0:	5e0e0000 	cdppl	0, 0, cr0, cr14, cr0, {0}
    5dd4:	c2000000 	andgt	r0, r0, #0
    5dd8:	0f00000b 	svceq	0x0000000b
    5ddc:	00000069 	andeq	r0, r0, r9, rrx
    5de0:	b20d000e 	andlt	r0, sp, #14
    5de4:	0d00000b 	stceq	0, cr0, [r0, #-44]	; 0xffffffd4
    5de8:	0000034b 	andeq	r0, r0, fp, asr #6
    5dec:	000b7e0d 	andeq	r7, fp, sp, lsl #28
    5df0:	005e0e00 	subseq	r0, lr, r0, lsl #28
    5df4:	0be10000 	bleq	ff845dfc <__bss_end+0xf842050>
    5df8:	690f0000 	stmdbvs	pc, {}	; <UNPREDICTABLE>
    5dfc:	00000000 	andeq	r0, r0, r0
    5e00:	0bd10d00 	bleq	ff449208 <__bss_end+0xf44545c>
    5e04:	450d0000 	strmi	r0, [sp, #-0]
    5e08:	0d00000b 	stceq	0, cr0, [r0, #-44]	; 0xffffffd4
    5e0c:	00000b9d 	muleq	r0, sp, fp
    5e10:	000b9d0d 	andeq	r9, fp, sp, lsl #26
    5e14:	0b7e0d00 	bleq	1f8921c <__standby_start+0x1f8921c>
    5e18:	9d0d0000 	stcls	0, cr0, [sp, #-0]
    5e1c:	0300000b 	movweq	r0, #11
    5e20:	00000f97 	muleq	r0, r7, pc	; <UNPREDICTABLE>
    5e24:	0356fe03 	cmpeq	r6, #48	; 0x30
    5e28:	04100000 	ldreq	r0, [r0], #-0
    5e2c:	00000bff 	strdeq	r0, [r0], -pc	; <UNPREDICTABLE>
    5e30:	00218509 	eoreq	r8, r1, r9, lsl #10
    5e34:	18040800 	stmdane	r4, {fp}
    5e38:	00000c39 	andeq	r0, r0, r9, lsr ip
    5e3c:	0020870b 	eoreq	r8, r0, fp, lsl #14
    5e40:	5e190400 	cfmulspl	mvf0, mvf9, mvf0
    5e44:	02000000 	andeq	r0, r0, #0
    5e48:	040b0023 	streq	r0, [fp], #-35	; 0x23
    5e4c:	04000021 	streq	r0, [r0], #-33	; 0x21
    5e50:	00005e1a 	andeq	r5, r0, sl, lsl lr
    5e54:	04230200 	strteq	r0, [r3], #-512	; 0x200
    5e58:	219f0900 	orrscs	r0, pc, r0, lsl #18
    5e5c:	043c0000 	ldrteq	r0, [ip], #-0
    5e60:	000d181d 	andeq	r1, sp, sp, lsl r8
    5e64:	21b40b00 			; <UNDEFINED> instruction: 0x21b40b00
    5e68:	1e040000 	cdpne	0, 0, cr0, cr4, cr0, {0}
    5e6c:	0000005e 	andeq	r0, r0, lr, asr r0
    5e70:	0b002302 	bleq	ea80 <__standby_start+0xea80>
    5e74:	000021aa 	andeq	r2, r0, sl, lsr #3
    5e78:	005e1f04 	subseq	r1, lr, r4, lsl #30
    5e7c:	23020000 	movwcs	r0, #8192	; 0x2000
    5e80:	21100b04 	tstcs	r0, r4, lsl #22
    5e84:	20040000 	andcs	r0, r4, r0
    5e88:	0000005e 	andeq	r0, r0, lr, asr r0
    5e8c:	0b082302 	bleq	20ea9c <__standby_start+0x20ea9c>
    5e90:	000020ad 	andeq	r2, r0, sp, lsr #1
    5e94:	005e2b04 	subseq	r2, lr, r4, lsl #22
    5e98:	23020000 	movwcs	r0, #8192	; 0x2000
    5e9c:	0e010b0c 	vmlaeq.f64	d0, d1, d12
    5ea0:	2c040000 	stccs	0, cr0, [r4], {-0}
    5ea4:	0000005e 	andeq	r0, r0, lr, asr r0
    5ea8:	0b102302 	bleq	40eab8 <__standby_start+0x40eab8>
    5eac:	00000c0e 	andeq	r0, r0, lr, lsl #24
    5eb0:	005e2d04 	subseq	r2, lr, r4, lsl #26
    5eb4:	23020000 	movwcs	r0, #8192	; 0x2000
    5eb8:	0d430b14 	vstreq	d16, [r3, #-80]	; 0xffffffb0
    5ebc:	2e040000 	cdpcs	0, 0, cr0, cr4, cr0, {0}
    5ec0:	0000005e 	andeq	r0, r0, lr, asr r0
    5ec4:	0b182302 	bleq	60ead4 <__standby_start+0x60ead4>
    5ec8:	00000a15 	andeq	r0, r0, r5, lsl sl
    5ecc:	005e2f04 	subseq	r2, lr, r4, lsl #30
    5ed0:	23020000 	movwcs	r0, #8192	; 0x2000
    5ed4:	09dd0b1c 	ldmibeq	sp, {r2, r3, r4, r8, r9, fp}^
    5ed8:	30040000 	andcc	r0, r4, r0
    5edc:	0000005e 	andeq	r0, r0, lr, asr r0
    5ee0:	0b202302 	bleq	80eaf0 <__standby_start+0x80eaf0>
    5ee4:	000009ad 	andeq	r0, r0, sp, lsr #19
    5ee8:	005e3104 	subseq	r3, lr, r4, lsl #2
    5eec:	23020000 	movwcs	r0, #8192	; 0x2000
    5ef0:	0ce80b24 	vstmiaeq	r8!, {d16-<overflow reg d33>}
    5ef4:	32040000 	andcc	r0, r4, #0
    5ef8:	0000005e 	andeq	r0, r0, lr, asr r0
    5efc:	0b282302 	bleq	a0eb0c <__standby_start+0xa0eb0c>
    5f00:	00000f5a 	andeq	r0, r0, sl, asr pc
    5f04:	005e3304 	subseq	r3, lr, r4, lsl #6
    5f08:	23020000 	movwcs	r0, #8192	; 0x2000
    5f0c:	0d2e0b2c 	vstmdbeq	lr!, {d0-d21}
    5f10:	34040000 	strcc	r0, [r4], #-0
    5f14:	0000005e 	andeq	r0, r0, lr, asr r0
    5f18:	0b302302 	bleq	c0eb28 <__standby_start+0xc0eb28>
    5f1c:	00001005 	andeq	r1, r0, r5
    5f20:	005e3504 	subseq	r3, lr, r4, lsl #10
    5f24:	23020000 	movwcs	r0, #8192	; 0x2000
    5f28:	0ad40b34 	beq	ff508c00 <__bss_end+0xf504e54>
    5f2c:	36040000 	strcc	r0, [r4], -r0
    5f30:	0000005e 	andeq	r0, r0, lr, asr r0
    5f34:	00382302 	eorseq	r2, r8, r2, lsl #6
    5f38:	00216209 	eoreq	r6, r1, r9, lsl #4
    5f3c:	3b040800 	blcc	107f44 <__standby_start+0x107f44>
    5f40:	00000d6b 	andeq	r0, r0, fp, ror #26
    5f44:	000acc0b 	andeq	ip, sl, fp, lsl #24
    5f48:	2c3c0400 	cfldrscs	mvf0, [ip], #-0
    5f4c:	02000000 	andeq	r0, r0, #0
    5f50:	e50b0023 	str	r0, [fp, #-35]	; 0x23
    5f54:	04000020 	streq	r0, [r0], #-32
    5f58:	00002c3d 	andeq	r2, r0, sp, lsr ip
    5f5c:	01230200 	teqeq	r3, r0, lsl #4
    5f60:	000ac40b 	andeq	ip, sl, fp, lsl #8
    5f64:	2c3e0400 	cfldrscs	mvf0, [lr], #-0
    5f68:	02000000 	andeq	r0, r0, #0
    5f6c:	dc0b0223 	sfmle	f0, 4, [fp], {35}	; 0x23
    5f70:	0400000a 	streq	r0, [r0], #-10
    5f74:	00002c3f 	andeq	r2, r0, pc, lsr ip
    5f78:	03230200 	teqeq	r3, #0
    5f7c:	6c6c500c 	stclvs	0, cr5, [ip], #-48	; 0xffffffd0
    5f80:	5e400400 	cdppl	4, 4, cr0, cr0, cr0, {0}
    5f84:	02000000 	andeq	r0, r0, #0
    5f88:	09000423 	stmdbeq	r0, {r0, r1, r5, sl}
    5f8c:	00000562 	andeq	r0, r0, r2, ror #10
    5f90:	94430440 	strbls	r0, [r3], #-1088	; 0x440
    5f94:	0b00000d 	bleq	5fd0 <__standby_start+0x5fd0>
    5f98:	00000f3a 	andeq	r0, r0, sl, lsr pc
    5f9c:	0c0a4404 	cfstrseq	mvf4, [sl], {4}
    5fa0:	23020000 	movwcs	r0, #8192	; 0x2000
    5fa4:	21190b00 	tstcs	r9, r0, lsl #22
    5fa8:	45040000 	strmi	r0, [r4, #-0]
    5fac:	00000bb2 			; <UNDEFINED> instruction: 0x00000bb2
    5fb0:	00042302 	andeq	r2, r4, r2, lsl #6
    5fb4:	00084511 	andeq	r4, r8, r1, lsl r5
    5fb8:	7a050400 	bvc	146fc0 <__standby_start+0x146fc0>
    5fbc:	00000e01 	andeq	r0, r0, r1, lsl #28
    5fc0:	00068812 	andeq	r8, r6, r2, lsl r8
    5fc4:	34120000 	ldrcc	r0, [r2], #-0
    5fc8:	01000003 	tsteq	r0, r3
    5fcc:	00074612 	andeq	r4, r7, r2, lsl r6
    5fd0:	28120200 	ldmdacs	r2, {r9}
    5fd4:	03000003 	movweq	r0, #3
    5fd8:	00042e12 	andeq	r2, r4, r2, lsl lr
    5fdc:	95120400 	ldrls	r0, [r2, #-1024]	; 0x400
    5fe0:	05000006 	streq	r0, [r0, #-6]
    5fe4:	0003e712 	andeq	lr, r3, r2, lsl r7
    5fe8:	2f120600 	svccs	0x00120600
    5fec:	07000008 	streq	r0, [r0, -r8]
    5ff0:	00046112 	andeq	r6, r4, r2, lsl r1
    5ff4:	d0120800 	andsle	r0, r2, r0, lsl #16
    5ff8:	09000008 	stmdbeq	r0, {r3}
    5ffc:	00062312 	andeq	r2, r6, r2, lsl r3
    6000:	4b120a00 	blmi	488808 <__standby_start+0x488808>
    6004:	0b000006 	bleq	6024 <__standby_start+0x6024>
    6008:	00083f12 	andeq	r3, r8, r2, lsl pc
    600c:	a0120c00 	andsge	r0, r2, r0, lsl #24
    6010:	0d000007 	stceq	0, cr0, [r0, #-28]	; 0xffffffe4
    6014:	00060212 	andeq	r0, r6, r2, lsl r2
    6018:	ce120e00 	cdpgt	14, 1, cr0, cr2, cr0, {0}
    601c:	0f000007 	svceq	0x00000007
    6020:	08010200 	stmdaeq	r1, {r9}
    6024:	00000794 	muleq	r0, r4, r7
    6028:	40070402 	andmi	r0, r7, r2, lsl #8
    602c:	13000002 	movwne	r0, #2
    6030:	00208f01 	eoreq	r8, r0, r1, lsl #30
    6034:	01150100 	tsteq	r5, r0, lsl #2
    6038:	00000c0a 	andeq	r0, r0, sl, lsl #24
    603c:	f0002a80 			; <UNDEFINED> instruction: 0xf0002a80
    6040:	f0002ab0 			; <UNDEFINED> instruction: 0xf0002ab0
    6044:	3b007d02 	blcc	25454 <__standby_start+0x25454>
    6048:	1400000e 	strne	r0, [r0], #-14
    604c:	00001a2d 	andeq	r1, r0, sp, lsr #20
    6050:	005e1501 	subseq	r1, lr, r1, lsl #10
    6054:	1f6a0000 	svcne	0x006a0000
    6058:	15000000 	strne	r0, [r0, #-0]
    605c:	00216f01 	eoreq	r6, r1, r1, lsl #30
    6060:	012e0100 	teqeq	lr, r0, lsl #2
    6064:	00000c0a 	andeq	r0, r0, sl, lsl #24
    6068:	f0002ab0 			; <UNDEFINED> instruction: 0xf0002ab0
    606c:	f0002ac0 			; <UNDEFINED> instruction: 0xf0002ac0
    6070:	13007d02 	movwne	r7, #3330	; 0xd02
    6074:	00213d01 	eoreq	r3, r1, r1, lsl #26
    6078:	01550100 	cmpeq	r5, r0, lsl #2
    607c:	0000004c 	andeq	r0, r0, ip, asr #32
    6080:	f0002ac0 			; <UNDEFINED> instruction: 0xf0002ac0
    6084:	f0002afc 			; <UNDEFINED> instruction: 0xf0002afc
    6088:	7f007d02 	svcvc	0x00007d02
    608c:	1400000e 	strne	r0, [r0], #-14
    6090:	0000217a 	andeq	r2, r0, sl, ror r1
    6094:	0e7f5501 	cdpeq	5, 7, cr5, cr15, cr1, {0}
    6098:	1f7d0000 	svcne	0x007d0000
    609c:	10000000 	andne	r0, r0, r0
    60a0:	000d6b04 	andeq	r6, sp, r4, lsl #22
    60a4:	8f011300 	svchi	0x00011300
    60a8:	01000021 	tsteq	r0, r1, lsr #32
    60ac:	004c0170 	subeq	r0, ip, r0, ror r1
    60b0:	2afc0000 	bcs	fff060b8 <__bss_end+0xff0230c>
    60b4:	2b30f000 	blcs	c420bc <__standby_start+0xc420bc>
    60b8:	7d02f000 	stcvc	0, cr15, [r2, #-0]
    60bc:	000eb100 	andeq	fp, lr, r0, lsl #2
    60c0:	217a1400 	cmncs	sl, r0, lsl #8
    60c4:	70010000 	andvc	r0, r1, r0
    60c8:	00000e7f 	andeq	r0, r0, pc, ror lr
    60cc:	00001f9b 	muleq	r0, fp, pc	; <UNPREDICTABLE>
    60d0:	53011600 	movwpl	r1, #5632	; 0x1600
    60d4:	01000021 	tsteq	r0, r1, lsr #32
    60d8:	004c018e 	subeq	r0, ip, lr, lsl #3
    60dc:	2b300000 	blcs	c060e4 <__standby_start+0xc060e4>
    60e0:	2ba0f000 	blcs	fe8420e8 <__bss_end+0xe83e33c>
    60e4:	1fb9f000 	svcne	0x00b9f000
    60e8:	0ede0000 	cdpeq	0, 13, cr0, cr14, cr0, {0}
    60ec:	fc140000 	ldc2	0, cr0, [r4], {-0}
    60f0:	01000020 	tsteq	r0, r0, lsr #32
    60f4:	000ede8e 	andeq	sp, lr, lr, lsl #29
    60f8:	001fd900 	andseq	sp, pc, r0, lsl #18
    60fc:	04100000 	ldreq	r0, [r0], #-0
    6100:	00000c10 	andeq	r0, r0, r0, lsl ip
    6104:	20ed0116 	rsccs	r0, sp, r6, lsl r1
    6108:	b3010000 	movwlt	r0, #4096	; 0x1000
    610c:	00004c01 	andeq	r4, r0, r1, lsl #24
    6110:	002ba000 	eoreq	sl, fp, r0
    6114:	002be8f0 	strdeq	lr, [fp], -r0	; <UNPREDICTABLE>
    6118:	001ff7f0 			; <UNDEFINED> instruction: 0x001ff7f0
    611c:	000f1100 	andeq	r1, pc, r0, lsl #2
    6120:	20fc1400 	rscscs	r1, ip, r0, lsl #8
    6124:	b3010000 	movwlt	r0, #4096	; 0x1000
    6128:	00000ede 	ldrdeq	r0, [r0], -lr
    612c:	00002017 	andeq	r2, r0, r7, lsl r0
    6130:	b9011600 	stmdblt	r1, {r9, sl, ip}
    6134:	01000020 	tsteq	r0, r0, lsr #32
    6138:	004c01cd 	subeq	r0, ip, sp, asr #3
    613c:	2be80000 	blcs	ffa06144 <__bss_end+0xfa02398>
    6140:	2c3cf000 	ldccs	0, cr15, [ip], #-0
    6144:	2035f000 	eorscs	pc, r5, r0
    6148:	0f3e0000 	svceq	0x003e0000
    614c:	32140000 	andscc	r0, r4, #0
    6150:	01000021 	tsteq	r0, r1, lsr #32
    6154:	000f3ecd 	andeq	r3, pc, sp, asr #29
    6158:	00205500 	eoreq	r5, r0, r0, lsl #10
    615c:	04100000 	ldreq	r0, [r0], #-0
    6160:	00000d18 	andeq	r0, r0, r8, lsl sp
    6164:	21260116 	teqcs	r6, r6, lsl r1
    6168:	ed010000 	stc	0, cr0, [r1, #-0]
    616c:	00004c01 	andeq	r4, r0, r1, lsl #24
    6170:	002c3c00 	eoreq	r3, ip, r0, lsl #24
    6174:	002c84f0 	strdeq	r8, [ip], -r0	; <UNPREDICTABLE>
    6178:	002073f0 	strdeq	r7, [r0], -r0	; <UNPREDICTABLE>
    617c:	000f7100 	andeq	r7, pc, r0, lsl #2
    6180:	21321400 	teqcs	r2, r0, lsl #8
    6184:	ed010000 	stc	0, cr0, [r1, #-0]
    6188:	00000f3e 	andeq	r0, r0, lr, lsr pc
    618c:	00002093 	muleq	r0, r3, r0
    6190:	9c011700 	stcls	7, cr1, [r1], {-0}
    6194:	01000020 	tsteq	r0, r0, lsr #32
    6198:	4c01010a 	stfmis	f0, [r1], {10}
    619c:	84000000 	strhi	r0, [r0], #-0
    61a0:	38f0002c 	ldmcc	r0!, {r2, r3, r5}^
    61a4:	02f0002d 	rscseq	r0, r0, #45	; 0x2d
    61a8:	0f9f007d 	svceq	0x009f007d
    61ac:	4a180000 	bmi	6061b4 <__standby_start+0x6061b4>
    61b0:	01000021 	tsteq	r0, r1, lsr #32
    61b4:	0f9f010a 	svceq	0x009f010a
    61b8:	20b10000 	adcscs	r0, r1, r0
    61bc:	10000000 	andne	r0, r0, r0
    61c0:	000c3904 	andeq	r3, ip, r4, lsl #18
    61c4:	76011700 	strvc	r1, [r1], -r0, lsl #14
    61c8:	01000020 	tsteq	r0, r0, lsr #32
    61cc:	4c010142 	stfmis	f0, [r1], {66}	; 0x42
    61d0:	38000000 	stmdacc	r0, {}	; <UNPREDICTABLE>
    61d4:	c8f0002d 	ldmgt	r0!, {r0, r2, r3, r5}^
    61d8:	02f0002d 	rscseq	r0, r0, #45	; 0x2d
    61dc:	0fd3007d 	svceq	0x00d3007d
    61e0:	4a180000 	bmi	6061e8 <__standby_start+0x6061e8>
    61e4:	01000021 	tsteq	r0, r1, lsr #32
    61e8:	0f9f0142 	svceq	0x009f0142
    61ec:	20cf0000 	sbccs	r0, pc, r0
    61f0:	19000000 	stmdbne	r0, {}	; <UNPREDICTABLE>
    61f4:	0020d001 	eoreq	sp, r0, r1
    61f8:	01700100 	cmneq	r0, r0, lsl #2
    61fc:	00005e01 	andeq	r5, r0, r1, lsl #28
    6200:	002dc800 	eoreq	ip, sp, r0, lsl #16
    6204:	002e24f0 	strdeq	r2, [lr], -r0	; <UNPREDICTABLE>
    6208:	0020edf0 	strdeq	lr, [r0], -r0	; <UNPREDICTABLE>
    620c:	00104f00 	andseq	r4, r0, r0, lsl #30
    6210:	0acc1a00 	beq	ff30ca18 <__bss_end+0xf308c6c>
    6214:	72010000 	andvc	r0, r1, #0
    6218:	00005e01 	andeq	r5, r0, r1, lsl #28
    621c:	00210d00 	eoreq	r0, r1, r0, lsl #26
    6220:	20e51b00 	rsccs	r1, r5, r0, lsl #22
    6224:	73010000 	movwvc	r0, #4096	; 0x1000
    6228:	00005e01 	andeq	r5, r0, r1, lsl #28
    622c:	c41a0100 	ldrgt	r0, [sl], #-256	; 0x100
    6230:	0100000a 	tsteq	r0, sl
    6234:	005e0174 	subseq	r0, lr, r4, ror r1
    6238:	212c0000 	teqcs	ip, r0
    623c:	dc1a0000 	ldcle	0, cr0, [sl], {-0}
    6240:	0100000a 	tsteq	r0, sl
    6244:	005e0175 	subseq	r0, lr, r5, ror r1
    6248:	214d0000 	mrscs	r0, (UNDEF: 77)
    624c:	2b1a0000 	blcs	686254 <__standby_start+0x686254>
    6250:	01000013 	tsteq	r0, r3, lsl r0
    6254:	005e0176 	subseq	r0, lr, r6, ror r1
    6258:	216c0000 	cmncs	ip, r0
    625c:	dc1a0000 	ldcle	0, cr0, [sl], {-0}
    6260:	01000020 	tsteq	r0, r0, lsr #32
    6264:	005e0177 	subseq	r0, lr, r7, ror r1
    6268:	21800000 	orrcs	r0, r0, r0
    626c:	1c000000 	stcne	0, cr0, [r0], {-0}
    6270:	00000f3a 	andeq	r0, r0, sl, lsr pc
    6274:	0c0a0401 	cfstrseq	mvf0, [sl], {1}
    6278:	03050000 	movweq	r0, #20480	; 0x5000
    627c:	f0003b90 			; <UNDEFINED> instruction: 0xf0003b90
    6280:	000a5e1c 	andeq	r5, sl, ip, lsl lr
    6284:	2e350100 	rsfcss	f0, f5, f0
    6288:	05000001 	streq	r0, [r0, #-1]
    628c:	003b9803 	eorseq	r9, fp, r3, lsl #16
    6290:	0f821cf0 	svceq	0x00821cf0
    6294:	36010000 	strcc	r0, [r1], -r0
    6298:	000001e9 	andeq	r0, r0, r9, ror #3
    629c:	3b940305 	blcc	fe506eb8 <__bss_end+0xe50310c>
    62a0:	a400f000 	strge	pc, [r0], #-0
    62a4:	02000006 	andeq	r0, r0, #6
    62a8:	0017fe00 	andseq	pc, r7, r0, lsl #28
    62ac:	f4010400 	vst3.8	{d0-d2}, [r1], r0
    62b0:	01000003 	tsteq	r0, r3
    62b4:	000022a1 	andeq	r2, r0, r1, lsr #5
    62b8:	00000482 	andeq	r0, r0, r2, lsl #9
    62bc:	f0002e24 			; <UNDEFINED> instruction: 0xf0002e24
    62c0:	f000308c 			; <UNDEFINED> instruction: 0xf000308c
    62c4:	00001881 	andeq	r1, r0, r1, lsl #17
    62c8:	8d060102 	stfhis	f0, [r6, #-8]
    62cc:	02000007 	andeq	r0, r0, #7
    62d0:	078b0801 	streq	r0, [fp, r1, lsl #16]
    62d4:	02020000 	andeq	r0, r2, #0
    62d8:	00064105 	andeq	r4, r6, r5, lsl #2
    62dc:	07020200 	streq	r0, [r2, -r0, lsl #4]
    62e0:	0000084d 	andeq	r0, r0, sp, asr #16
    62e4:	69050403 	stmdbvs	r5, {r0, r1, sl}
    62e8:	0200746e 	andeq	r7, r0, #1845493760	; 0x6e000000
    62ec:	02450704 	subeq	r0, r5, #1048576	; 0x100000
    62f0:	08020000 	stmdaeq	r2, {}	; <UNPREDICTABLE>
    62f4:	00047405 	andeq	r7, r4, r5, lsl #8
    62f8:	07080200 	streq	r0, [r8, -r0, lsl #4]
    62fc:	0000023b 	andeq	r0, r0, fp, lsr r2
    6300:	00084504 	andeq	r4, r8, r4, lsl #10
    6304:	7a040400 	bvc	10730c <__standby_start+0x10730c>
    6308:	000000ca 	andeq	r0, r0, sl, asr #1
    630c:	00068805 	andeq	r8, r6, r5, lsl #16
    6310:	34050000 	strcc	r0, [r5], #-0
    6314:	01000003 	tsteq	r0, r3
    6318:	00074605 	andeq	r4, r7, r5, lsl #12
    631c:	28050200 	stmdacs	r5, {r9}
    6320:	03000003 	movweq	r0, #3
    6324:	00042e05 	andeq	r2, r4, r5, lsl #28
    6328:	95050400 	strls	r0, [r5, #-1024]	; 0x400
    632c:	05000006 	streq	r0, [r0, #-6]
    6330:	0003e705 	andeq	lr, r3, r5, lsl #14
    6334:	2f050600 	svccs	0x00050600
    6338:	07000008 	streq	r0, [r0, -r8]
    633c:	00046105 	andeq	r6, r4, r5, lsl #2
    6340:	d0050800 	andle	r0, r5, r0, lsl #16
    6344:	09000008 	stmdbeq	r0, {r3}
    6348:	00062305 	andeq	r2, r6, r5, lsl #6
    634c:	4b050a00 	blmi	148b54 <__standby_start+0x148b54>
    6350:	0b000006 	bleq	6370 <__standby_start+0x6370>
    6354:	00083f05 	andeq	r3, r8, r5, lsl #30
    6358:	a0050c00 	andge	r0, r5, r0, lsl #24
    635c:	0d000007 	stceq	0, cr0, [r0, #-28]	; 0xffffffe4
    6360:	00060205 	andeq	r0, r6, r5, lsl #4
    6364:	ce050e00 	cdpgt	14, 0, cr0, cr5, cr0, {0}
    6368:	0f000007 	svceq	0x00000007
    636c:	08010200 	stmdaeq	r1, {r9}
    6370:	00000794 	muleq	r0, r4, r7
    6374:	00030306 	andeq	r0, r3, r6, lsl #6
    6378:	68021000 	stmdavs	r2, {ip}
    637c:	00000116 	andeq	r0, r0, r6, lsl r1
    6380:	00044007 	andeq	r4, r4, r7
    6384:	48690200 	stmdami	r9!, {r9}^
    6388:	02000000 	andeq	r0, r0, #0
    638c:	79070023 	stmdbvc	r7, {r0, r1, r5}
    6390:	02000000 	andeq	r0, r0, #0
    6394:	0000486a 	andeq	r4, r0, sl, ror #16
    6398:	04230200 	strteq	r0, [r3], #-512	; 0x200
    639c:	00008107 	andeq	r8, r0, r7, lsl #2
    63a0:	486b0200 	stmdami	fp!, {r9}^
    63a4:	02000000 	andeq	r0, r0, #0
    63a8:	89070823 	stmdbhi	r7, {r0, r1, r5, fp}
    63ac:	02000000 	andeq	r0, r0, #0
    63b0:	0000486c 	andeq	r4, r0, ip, ror #16
    63b4:	0c230200 	sfmeq	f0, 4, [r3], #-0
    63b8:	060e0800 	streq	r0, [lr], -r0, lsl #16
    63bc:	6d020000 	stcvs	0, cr0, [r2, #-0]
    63c0:	000000d1 	ldrdeq	r0, [r0], -r1
    63c4:	00052e06 	andeq	r2, r5, r6, lsl #28
    63c8:	77021400 	strvc	r1, [r2, -r0, lsl #8]
    63cc:	00000170 	andeq	r0, r0, r0, ror r1
    63d0:	63727309 	cmnvs	r2, #603979776	; 0x24000000
    63d4:	48780200 	ldmdami	r8!, {r9}^
    63d8:	02000000 	andeq	r0, r0, #0
    63dc:	8c070023 	stchi	0, cr0, [r7], {35}	; 0x23
    63e0:	02000003 	andeq	r0, r0, #3
    63e4:	00004879 	andeq	r4, r0, r9, ror r8
    63e8:	04230200 	strteq	r0, [r3], #-512	; 0x200
    63ec:	0003d107 	andeq	sp, r3, r7, lsl #2
    63f0:	487a0200 	ldmdami	sl!, {r9}^
    63f4:	02000000 	andeq	r0, r0, #0
    63f8:	6e090823 	cdpvs	8, 0, cr0, cr9, cr3, {1}
    63fc:	487b0200 	ldmdami	fp!, {r9}^
    6400:	02000000 	andeq	r0, r0, #0
    6404:	6d090c23 	stcvs	12, cr0, [r9, #-140]	; 0xffffff74
    6408:	487c0200 	ldmdami	ip!, {r9}^
    640c:	02000000 	andeq	r0, r0, #0
    6410:	08001023 	stmdaeq	r0, {r0, r1, r5, ip}
    6414:	000002f8 	strdeq	r0, [r0], -r8
    6418:	01217d02 	teqeq	r1, r2, lsl #26
    641c:	c0060000 	andgt	r0, r6, r0
    6420:	28000005 	stmdacs	r0, {r0, r2}
    6424:	01b2c002 			; <UNDEFINED> instruction: 0x01b2c002
    6428:	66070000 	strvs	r0, [r7], -r0
    642c:	02000005 	andeq	r0, r0, #5
    6430:	000048c6 	andeq	r4, r0, r6, asr #17
    6434:	00230200 	eoreq	r0, r3, r0, lsl #4
    6438:	0000fb07 	andeq	pc, r0, r7, lsl #22
    643c:	48c70200 	stmiami	r7, {r9}^
    6440:	02000000 	andeq	r0, r0, #0
    6444:	08070423 	stmdaeq	r7, {r0, r1, r5, sl}
    6448:	02000007 	andeq	r0, r0, #7
    644c:	0001b2d2 	ldrdeq	fp, [r1], -r2
    6450:	08230200 	stmdaeq	r3!, {r9}
    6454:	003a0a00 	eorseq	r0, sl, r0, lsl #20
    6458:	01c20000 	biceq	r0, r2, r0
    645c:	480b0000 	stmdami	fp, {}	; <UNPREDICTABLE>
    6460:	0e000000 	cdpeq	0, 0, cr0, cr0, cr0, {0}
    6464:	00910800 	addseq	r0, r1, r0, lsl #16
    6468:	d3020000 	movwle	r0, #8192	; 0x2000
    646c:	0000017b 	andeq	r0, r0, fp, ror r1
    6470:	00072006 	andeq	r2, r7, r6
    6474:	d5021000 	strle	r1, [r2, #-0]
    6478:	00000212 	andeq	r0, r0, r2, lsl r2
    647c:	0005cd07 	andeq	ip, r5, r7, lsl #26
    6480:	48d60200 	ldmmi	r6, {r9}^
    6484:	02000000 	andeq	r0, r0, #0
    6488:	34070023 	strcc	r0, [r7], #-35	; 0x23
    648c:	02000002 	andeq	r0, r0, #2
    6490:	000048d7 	ldrdeq	r4, [r0], -r7
    6494:	04230200 	strteq	r0, [r3], #-512	; 0x200
    6498:	0007dc07 	andeq	sp, r7, r7, lsl #24
    649c:	48d80200 	ldmmi	r8, {r9}^
    64a0:	02000000 	andeq	r0, r0, #0
    64a4:	b4070823 	strlt	r0, [r7], #-2083	; 0x823
    64a8:	02000005 	andeq	r0, r0, #5
    64ac:	000048d9 	ldrdeq	r4, [r0], -r9
    64b0:	0c230200 	sfmeq	f0, 4, [r3], #-0
    64b4:	056c0800 	strbeq	r0, [ip, #-2048]!	; 0x800
    64b8:	da020000 	ble	864c0 <__standby_start+0x864c0>
    64bc:	000001cd 	andeq	r0, r0, sp, asr #3
    64c0:	0000d006 	andeq	sp, r0, r6
    64c4:	e0020c00 	and	r0, r2, r0, lsl #24
    64c8:	00000254 	andeq	r0, r0, r4, asr r2
    64cc:	00020a07 	andeq	r0, r2, r7, lsl #20
    64d0:	54e10200 	strbtpl	r0, [r1], #512	; 0x200
    64d4:	02000002 	andeq	r0, r0, #2
    64d8:	52070023 	andpl	r0, r7, #35	; 0x23
    64dc:	02000005 	andeq	r0, r0, #5
    64e0:	000048e2 	andeq	r4, r0, r2, ror #17
    64e4:	04230200 	strteq	r0, [r3], #-512	; 0x200
    64e8:	00028407 	andeq	r8, r2, r7, lsl #8
    64ec:	48e30200 	stmiami	r3!, {r9}^
    64f0:	02000000 	andeq	r0, r0, #0
    64f4:	0c000823 	stceq	8, cr0, [r0], {35}	; 0x23
    64f8:	00004804 	andeq	r4, r0, r4, lsl #16
    64fc:	08db0800 	ldmeq	fp, {fp}^
    6500:	e4020000 	str	r0, [r2], #-0
    6504:	0000021d 	andeq	r0, r0, sp, lsl r2
    6508:	0003db06 	andeq	sp, r3, r6, lsl #22
    650c:	e6021c00 	str	r1, [r2], -r0, lsl #24
    6510:	0000028e 	andeq	r0, r0, lr, lsl #5
    6514:	00088e07 	andeq	r8, r8, r7, lsl #28
    6518:	48f00200 	ldmmi	r0!, {r9}^
    651c:	02000000 	andeq	r0, r0, #0
    6520:	c5070023 	strgt	r0, [r7, #-35]	; 0x23
    6524:	02000007 	andeq	r0, r0, #7
    6528:	00028ef7 	strdeq	r8, [r2], -r7
    652c:	04230200 	strteq	r0, [r3], #-512	; 0x200
    6530:	025a0a00 	subseq	r0, sl, #0
    6534:	029e0000 	addseq	r0, lr, #0
    6538:	480b0000 	stmdami	fp, {}	; <UNPREDICTABLE>
    653c:	01000000 	mrseq	r0, (UNDEF: 0)
    6540:	04b50800 	ldrteq	r0, [r5], #2048	; 0x800
    6544:	f8020000 			; <UNDEFINED> instruction: 0xf8020000
    6548:	00000265 	andeq	r0, r0, r5, ror #4
    654c:	0005780d 	andeq	r7, r5, sp, lsl #16
    6550:	02016400 	andeq	r6, r1, #0
    6554:	000322fa 	strdeq	r2, [r3], -sl
    6558:	00b70e00 	adcseq	r0, r7, r0, lsl #28
    655c:	01020000 	mrseq	r0, (UNDEF: 2)
    6560:	00004101 	andeq	r4, r0, r1, lsl #2
    6564:	00230200 	eoreq	r0, r3, r0, lsl #4
    6568:	0002e00e 	andeq	lr, r2, lr
    656c:	010e0200 	mrseq	r0, LR_fiq
    6570:	00000041 	andeq	r0, r0, r1, asr #32
    6574:	0e042302 	cdpeq	3, 0, cr2, cr4, cr2, {0}
    6578:	000007e6 	andeq	r0, r0, r6, ror #15
    657c:	41011402 	tstmi	r1, r2, lsl #8
    6580:	02000000 	andeq	r0, r0, #0
    6584:	100e0823 	andne	r0, lr, r3, lsr #16
    6588:	02000002 	andeq	r0, r0, #2
    658c:	00410119 	subeq	r0, r1, r9, lsl r1
    6590:	23020000 	movwcs	r0, #8192	; 0x2000
    6594:	21320e0c 	teqcs	r2, ip, lsl #28
    6598:	1f020000 	svcne	0x00020000
    659c:	00032201 	andeq	r2, r3, r1, lsl #4
    65a0:	10230200 	eorne	r0, r3, r0, lsl #4
    65a4:	0008980e 	andeq	r9, r8, lr, lsl #16
    65a8:	014d0200 	mrseq	r0, (UNDEF: 109)
    65ac:	00000041 	andeq	r0, r0, r1, asr #32
    65b0:	01c02303 	biceq	r2, r0, r3, lsl #6
    65b4:	00028a0e 	andeq	r8, r2, lr, lsl #20
    65b8:	01530200 	cmpeq	r3, r0, lsl #4
    65bc:	00000332 	andeq	r0, r0, r2, lsr r3
    65c0:	01c42303 	biceq	r2, r4, r3, lsl #6
    65c4:	01160a00 	tsteq	r6, r0, lsl #20
    65c8:	03320000 	teqeq	r2, #0
    65cc:	480b0000 	stmdami	fp, {}	; <UNPREDICTABLE>
    65d0:	0a000000 	beq	65d8 <__standby_start+0x65d8>
    65d4:	01700a00 	cmneq	r0, r0, lsl #20
    65d8:	03420000 	movteq	r0, #8192	; 0x2000
    65dc:	480b0000 	stmdami	fp, {}	; <UNPREDICTABLE>
    65e0:	07000000 	streq	r0, [r0, -r0]
    65e4:	05370f00 	ldreq	r0, [r7, #-3840]!	; 0xf00
    65e8:	55020000 	strpl	r0, [r2, #-0]
    65ec:	0002a901 	andeq	sl, r2, r1, lsl #18
    65f0:	07040200 	streq	r0, [r4, -r0, lsl #4]
    65f4:	00000240 	andeq	r0, r0, r0, asr #4
    65f8:	00029610 	andeq	r9, r2, r0, lsl r6
    65fc:	0201c400 	andeq	ip, r1, #0
    6600:	03cc0164 	biceq	r0, ip, #25
    6604:	69110000 	ldmdbvs	r1, {}	; <UNPREDICTABLE>
    6608:	68020064 	stmdavs	r2, {r2, r5, r6}
    660c:	00034e01 	andeq	r4, r3, r1, lsl #28
    6610:	00230200 	eoreq	r0, r3, r0, lsl #4
    6614:	00046d0e 	andeq	r6, r4, lr, lsl #26
    6618:	01690200 	cmneq	r9, r0, lsl #4
    661c:	00000048 	andeq	r0, r0, r8, asr #32
    6620:	0e042302 	cdpeq	3, 0, cr2, cr4, cr2, {0}
    6624:	0000021b 	andeq	r0, r0, fp, lsl r2
    6628:	48017002 	stmdami	r1, {r1, ip, sp, lr}
    662c:	02000000 	andeq	r0, r0, #0
    6630:	bc0e0823 	stclt	8, cr0, [lr], {35}	; 0x23
    6634:	02000005 	andeq	r0, r0, #5
    6638:	01c20173 	biceq	r0, r2, r3, ror r1
    663c:	23020000 	movwcs	r0, #8192	; 0x2000
    6640:	03b70e0c 			; <UNDEFINED> instruction: 0x03b70e0c
    6644:	74020000 	strvc	r0, [r2], #-0
    6648:	00021201 	andeq	r1, r2, r1, lsl #4
    664c:	34230200 	strtcc	r0, [r3], #-512	; 0x200
    6650:	0007c10e 	andeq	ip, r7, lr, lsl #2
    6654:	01750200 	cmneq	r5, r0, lsl #4
    6658:	0000029e 	muleq	r0, lr, r2
    665c:	0e442302 	cdpeq	3, 4, cr2, cr4, cr2, {0}
    6660:	0000055d 	andeq	r0, r0, sp, asr r5
    6664:	42017602 	andmi	r7, r1, #2097152	; 0x200000
    6668:	02000003 	andeq	r0, r0, #3
    666c:	0f006023 	svceq	0x00006023
    6670:	000007ae 	andeq	r0, r0, lr, lsr #15
    6674:	55017702 	strpl	r7, [r1, #-1794]	; 0x702
    6678:	0c000003 	stceq	0, cr0, [r0], {3}
    667c:	0003cc04 	andeq	ip, r3, r4, lsl #24
    6680:	00291200 	eoreq	r1, r9, r0, lsl #4
    6684:	02140000 	andseq	r0, r4, #0
    6688:	043701f0 	ldrteq	r0, [r7], #-496	; 0x1f0
    668c:	420e0000 	andmi	r0, lr, #0
    6690:	02000015 	andeq	r0, r0, #21
    6694:	034e01f2 	movteq	r0, #57842	; 0xe1f2
    6698:	23020000 	movwcs	r0, #8192	; 0x2000
    669c:	25340e00 	ldrcs	r0, [r4, #-3584]!	; 0xe00
    66a0:	f3020000 	vhadd.u8	d0, d2, d0
    66a4:	00034e01 	andeq	r4, r3, r1, lsl #28
    66a8:	04230200 	strteq	r0, [r3], #-512	; 0x200
    66ac:	0004c30e 	andeq	ip, r4, lr, lsl #6
    66b0:	01f40200 	mvnseq	r0, r0, lsl #4
    66b4:	0000034e 	andeq	r0, r0, lr, asr #6
    66b8:	0e082302 	cdpeq	3, 0, cr2, cr8, cr2, {0}
    66bc:	00000394 	muleq	r0, r4, r3
    66c0:	4e01f502 	cfsh32mi	mvfx15, mvfx1, #2
    66c4:	02000003 	andeq	r0, r0, #3
    66c8:	950e0c23 	strls	r0, [lr, #-3107]	; 0xc23
    66cc:	02000002 	andeq	r0, r0, #2
    66d0:	03d801f6 	bicseq	r0, r8, #-2147483587	; 0x8000003d
    66d4:	23020000 	movwcs	r0, #8192	; 0x2000
    66d8:	04130010 	ldreq	r0, [r3], #-16
    66dc:	0021c608 	eoreq	ip, r1, r8, lsl #12
    66e0:	44270300 	strtmi	r0, [r7], #-768	; 0x300
    66e4:	0c000004 	stceq	0, cr0, [r0], {4}
    66e8:	00044a04 	andeq	r4, r4, r4, lsl #20
    66ec:	41011400 	tstmi	r1, r0, lsl #8
    66f0:	5a000000 	bpl	66f8 <__standby_start+0x66f8>
    66f4:	15000004 	strne	r0, [r0, #-4]
    66f8:	00000437 	andeq	r0, r0, r7, lsr r4
    66fc:	21de0600 	bicscs	r0, lr, r0, lsl #12
    6700:	03080000 	movweq	r0, #32768	; 0x8000
    6704:	0004832a 	andeq	r8, r4, sl, lsr #6
    6708:	22150700 	andscs	r0, r5, #0
    670c:	2c030000 	stccs	0, cr0, [r3], {-0}
    6710:	00000439 	andeq	r0, r0, r9, lsr r4
    6714:	09002302 	stmdbeq	r0, {r1, r8, r9, sp}
    6718:	00677261 	rsbeq	r7, r7, r1, ror #4
    671c:	04372d03 	ldrteq	r2, [r7], #-3331	; 0xd03
    6720:	23020000 	movwcs	r0, #8192	; 0x2000
    6724:	56060004 	strpl	r0, [r6], -r4
    6728:	40000022 	andmi	r0, r0, r2, lsr #32
    672c:	04ff3303 	ldrbteq	r3, [pc], #771	; 6734 <__standby_start+0x6734>
    6730:	66070000 	strvs	r0, [r7], -r0
    6734:	03000005 	movweq	r0, #5
    6738:	0004ff35 	andeq	pc, r4, r5, lsr pc	; <UNPREDICTABLE>
    673c:	00230200 	eoreq	r0, r3, r0, lsl #4
    6740:	0025f907 	eoreq	pc, r5, r7, lsl #18
    6744:	ff360300 			; <UNDEFINED> instruction: 0xff360300
    6748:	02000004 	andeq	r0, r0, #4
    674c:	26070123 	strcs	r0, [r7], -r3, lsr #2
    6750:	03000013 	movweq	r0, #19
    6754:	0004ff37 	andeq	pc, r4, r7, lsr pc	; <UNPREDICTABLE>
    6758:	02230200 	eoreq	r0, r3, #0
    675c:	001c5e07 	andseq	r5, ip, r7, lsl #28
    6760:	ff380300 			; <UNDEFINED> instruction: 0xff380300
    6764:	02000004 	andeq	r0, r0, #4
    6768:	14070323 	strne	r0, [r7], #-803	; 0x323
    676c:	03000023 	movweq	r0, #35	; 0x23
    6770:	00050439 	andeq	r0, r5, r9, lsr r4
    6774:	04230200 	strteq	r0, [r3], #-512	; 0x200
    6778:	00626309 	rsbeq	r6, r2, r9, lsl #6
    677c:	050f3a03 	streq	r3, [pc, #-2563]	; 5d81 <__standby_start+0x5d81>
    6780:	23020000 	movwcs	r0, #8192	; 0x2000
    6784:	21be0708 			; <UNDEFINED> instruction: 0x21be0708
    6788:	3b030000 	blcc	c6790 <__standby_start+0xc6790>
    678c:	00000514 	andeq	r0, r0, r4, lsl r5
    6790:	07102302 	ldreq	r2, [r0, -r2, lsl #6]
    6794:	0000229b 	muleq	r0, fp, r2
    6798:	052b3c03 	streq	r3, [fp, #-3075]!	; 0xc03
    679c:	23020000 	movwcs	r0, #8192	; 0x2000
    67a0:	2c160014 	ldccs	0, cr0, [r6], {20}
    67a4:	0c000000 	stceq	0, cr0, [r0], {-0}
    67a8:	00050a04 	andeq	r0, r5, r4, lsl #20
    67ac:	04831600 	streq	r1, [r3], #1536	; 0x600
    67b0:	5a160000 	bpl	5867b8 <__standby_start+0x5867b8>
    67b4:	0c000004 	stceq	0, cr0, [r0], {4}
    67b8:	00051a04 	andeq	r1, r5, r4, lsl #20
    67bc:	480a1700 	stmdami	sl, {r8, r9, sl, ip}
    67c0:	2b000000 	blcs	67c8 <__standby_start+0x67c8>
    67c4:	0b000005 	bleq	67e0 <__standby_start+0x67e0>
    67c8:	00000048 	andeq	r0, r0, r8, asr #32
    67cc:	1b16000a 	blne	5867fc <__standby_start+0x5867fc>
    67d0:	18000005 	stmdane	r0, {r0, r2}
    67d4:	0021eb01 	eoreq	lr, r1, r1, lsl #22
    67d8:	01190100 	tsteq	r9, r0, lsl #2
    67dc:	00000041 	andeq	r0, r0, r1, asr #32
    67e0:	f0002e24 			; <UNDEFINED> instruction: 0xf0002e24
    67e4:	f0002e50 			; <UNDEFINED> instruction: 0xf0002e50
    67e8:	000021ae 	andeq	r2, r0, lr, lsr #3
    67ec:	223a0118 	eorscs	r0, sl, #6
    67f0:	2d010000 	stccs	0, cr0, [r1, #-0]
    67f4:	00004101 	andeq	r4, r0, r1, lsl #2
    67f8:	002e5000 	eoreq	r5, lr, r0
    67fc:	002e7cf0 	strdeq	r7, [lr], -r0	; <UNPREDICTABLE>
    6800:	0021cef0 	strdeq	ip, [r1], -r0	; <UNPREDICTABLE>
    6804:	1d011900 	stcne	9, cr1, [r1, #-0]
    6808:	01000022 	tsteq	r0, r2, lsr #32
    680c:	00410147 	subeq	r0, r1, r7, asr #2
    6810:	2e7c0000 	cdpcs	0, 7, cr0, cr12, cr0, {0}
    6814:	2ef4f000 	cdpcs	0, 15, cr15, cr4, cr0, {0}
    6818:	21eef000 	mvncs	pc, r0
    681c:	05ad0000 	streq	r0, [sp, #0]!
    6820:	101a0000 	andsne	r0, sl, r0
    6824:	01000022 	tsteq	r0, r2, lsr #32
    6828:	00034e47 	andeq	r4, r3, r7, asr #28
    682c:	00220e00 	eoreq	r0, r2, r0, lsl #28
    6830:	224d1b00 	subcs	r1, sp, #0
    6834:	49010000 	stmdbmi	r1, {}	; <UNPREDICTABLE>
    6838:	000005ad 	andeq	r0, r0, sp, lsr #11
    683c:	00002237 	andeq	r2, r0, r7, lsr r2
    6840:	0025f91b 	eoreq	pc, r5, fp, lsl r9	; <UNPREDICTABLE>
    6844:	2c4a0100 	stfcse	f0, [sl], {-0}
    6848:	55000000 	strpl	r0, [r0, #-0]
    684c:	00000022 	andeq	r0, r0, r2, lsr #32
    6850:	0483040c 	streq	r0, [r3], #1036	; 0x40c
    6854:	01190000 	tsteq	r9, r0
    6858:	00002278 	andeq	r2, r0, r8, ror r2
    685c:	41016c01 	tstmi	r1, r1, lsl #24
    6860:	f4000000 	vst4.8	{d0-d3}, [r0], r0
    6864:	78f0002e 	ldmvc	r0!, {r1, r2, r3, r5}^
    6868:	81f0002f 	mvnshi	r0, pc, lsr #32
    686c:	e0000022 	and	r0, r0, r2, lsr #32
    6870:	1b000005 	blne	688c <__standby_start+0x688c>
    6874:	0000224d 	andeq	r2, r0, sp, asr #4
    6878:	05ad6e01 	streq	r6, [sp, #3585]!	; 0xe01
    687c:	22a10000 	adccs	r0, r1, #0
    6880:	19000000 	stmdbne	r0, {}	; <UNPREDICTABLE>
    6884:	0022d801 	eoreq	sp, r2, r1, lsl #16
    6888:	01990100 	orrseq	r0, r9, r0, lsl #2
    688c:	00000041 	andeq	r0, r0, r1, asr #32
    6890:	f0002f78 			; <UNDEFINED> instruction: 0xf0002f78
    6894:	f0003014 			; <UNDEFINED> instruction: 0xf0003014
    6898:	000022d5 	ldrdeq	r2, [r0], -r5
    689c:	0000061c 	andeq	r0, r0, ip, lsl r6
    68a0:	0015421a 	andseq	r4, r5, sl, lsl r2
    68a4:	1c990100 	ldfnes	f0, [r9], {0}
    68a8:	f5000006 			; <UNDEFINED> instruction: 0xf5000006
    68ac:	1b000022 	blne	693c <__standby_start+0x693c>
    68b0:	0000224d 	andeq	r2, r0, sp, asr #4
    68b4:	05ad9b01 	streq	r9, [sp, #2817]!	; 0xb01
    68b8:	23130000 	tstcs	r3, #0
    68bc:	0c000000 	stceq	0, cr0, [r0], {-0}
    68c0:	00034e04 	andeq	r4, r3, r4, lsl #28
    68c4:	f7011900 			; <UNDEFINED> instruction: 0xf7011900
    68c8:	01000022 	tsteq	r0, r2, lsr #32
    68cc:	004101ce 	subeq	r0, r1, lr, asr #3
    68d0:	30140000 	andscc	r0, r4, r0
    68d4:	308cf000 	addcc	pc, ip, r0
    68d8:	2352f000 	cmpcs	r2, #0
    68dc:	066d0000 	strbteq	r0, [sp], -r0
    68e0:	811a0000 	tsthi	sl, r0
    68e4:	01000005 	tsteq	r0, r5
    68e8:	00066dce 	andeq	r6, r6, lr, asr #27
    68ec:	00237200 	eoreq	r7, r3, r0, lsl #4
    68f0:	224d1b00 	subcs	r1, sp, #0
    68f4:	d0010000 	andle	r0, r1, r0
    68f8:	000005ad 	andeq	r0, r0, sp, lsr #11
    68fc:	00002390 	muleq	r0, r0, r3
    6900:	001c5e1b 	andseq	r5, ip, fp, lsl lr
    6904:	41d10100 	bicsmi	r0, r1, r0, lsl #2
    6908:	a3000000 	movwge	r0, #0
    690c:	00000023 	andeq	r0, r0, r3, lsr #32
    6910:	03de040c 	bicseq	r0, lr, #201326592	; 0xc000000
    6914:	d11c0000 	tstle	ip, r0
    6918:	01000021 	tsteq	r0, r1, lsr #32
    691c:	00034e14 	andeq	r4, r3, r4, lsl lr
    6920:	9c030500 	cfstr32ls	mvfx0, [r3], {-0}
    6924:	1cf0003b 	ldclne	0, cr0, [r0], #236	; 0xec
    6928:	000021fe 	strdeq	r2, [r0], -lr
    692c:	034e1701 	movteq	r1, #59137	; 0xe701
    6930:	03050000 	movweq	r0, #20480	; 0x5000
    6934:	f0003ba0 			; <UNDEFINED> instruction: 0xf0003ba0
    6938:	0022641d 	eoreq	r6, r2, sp, lsl r4
    693c:	4e110100 	mufmis	f0, f1, f0
    6940:	01000003 	tsteq	r0, r3
    6944:	39e80305 	stmibcc	r8!, {r0, r2, r8, r9}^
    6948:	6900f000 	stmdbvs	r0, {ip, sp, lr, pc}
    694c:	02000004 	andeq	r0, r0, #4
    6950:	00198000 	andseq	r8, r9, r0
    6954:	f4010400 	vst3.8	{d0-d2}, [r1], r0
    6958:	01000003 	tsteq	r0, r3
    695c:	000023eb 	andeq	r2, r0, fp, ror #7
    6960:	00000482 	andeq	r0, r0, r2, lsl #9
    6964:	f000308c 			; <UNDEFINED> instruction: 0xf000308c
    6968:	f00033c4 			; <UNDEFINED> instruction: 0xf00033c4
    696c:	000019be 			; <UNDEFINED> instruction: 0x000019be
    6970:	8d060102 	stfhis	f0, [r6, #-8]
    6974:	02000007 	andeq	r0, r0, #7
    6978:	078b0801 	streq	r0, [fp, r1, lsl #16]
    697c:	02020000 	andeq	r0, r2, #0
    6980:	00064105 	andeq	r4, r6, r5, lsl #2
    6984:	07020200 	streq	r0, [r2, -r0, lsl #4]
    6988:	0000084d 	andeq	r0, r0, sp, asr #16
    698c:	69050403 	stmdbvs	r5, {r0, r1, sl}
    6990:	0400746e 	streq	r7, [r0], #-1134	; 0x46e
    6994:	0000043a 	andeq	r0, r0, sl, lsr r4
    6998:	00531302 	subseq	r1, r3, r2, lsl #6
    699c:	04020000 	streq	r0, [r2], #-0
    69a0:	00024507 	andeq	r4, r2, r7, lsl #10
    69a4:	05080200 	streq	r0, [r8, #-512]	; 0x200
    69a8:	00000474 	andeq	r0, r0, r4, ror r4
    69ac:	3b070802 	blcc	1c89bc <__standby_start+0x1c89bc>
    69b0:	02000002 	andeq	r0, r0, #2
    69b4:	07940801 	ldreq	r0, [r4, r1, lsl #16]
    69b8:	04020000 	streq	r0, [r2], #-0
    69bc:	00024007 	andeq	r4, r2, r7
    69c0:	06040500 	streq	r0, [r4], -r0, lsl #10
    69c4:	00002389 	andeq	r2, r0, r9, lsl #7
    69c8:	911d0404 	tstls	sp, r4, lsl #8
    69cc:	07000000 	streq	r0, [r0, -r0]
    69d0:	0000236f 	andeq	r2, r0, pc, ror #6
    69d4:	24890700 	strcs	r0, [r9], #1792	; 0x700
    69d8:	00010000 	andeq	r0, r1, r0
    69dc:	00005308 	andeq	r5, r0, r8, lsl #6
    69e0:	21c60400 	biccs	r0, r6, r0, lsl #8
    69e4:	27030000 	strcs	r0, [r3, -r0]
    69e8:	000000a1 	andeq	r0, r0, r1, lsr #1
    69ec:	00a70409 	adceq	r0, r7, r9, lsl #8
    69f0:	010a0000 	mrseq	r0, (UNDEF: 10)
    69f4:	00000041 	andeq	r0, r0, r1, asr #32
    69f8:	000000b7 	strheq	r0, [r0], -r7
    69fc:	0000760b 	andeq	r7, r0, fp, lsl #12
    6a00:	de0c0000 	cdple	0, 0, cr0, cr12, cr0, {0}
    6a04:	08000021 	stmdaeq	r0, {r0, r5}
    6a08:	00e02a03 	rsceq	r2, r0, r3, lsl #20
    6a0c:	150d0000 	strne	r0, [sp, #-0]
    6a10:	03000022 	movweq	r0, #34	; 0x22
    6a14:	0000962c 	andeq	r9, r0, ip, lsr #12
    6a18:	00230200 	eoreq	r0, r3, r0, lsl #4
    6a1c:	6772610e 	ldrbvs	r6, [r2, -lr, lsl #2]!
    6a20:	762d0300 	strtvc	r0, [sp], -r0, lsl #6
    6a24:	02000000 	andeq	r0, r0, #0
    6a28:	0c000423 	cfstrseq	mvf0, [r0], {35}	; 0x23
    6a2c:	00002256 	andeq	r2, r0, r6, asr r2
    6a30:	5c330340 	ldcpl	3, cr0, [r3], #-256	; 0xffffff00
    6a34:	0d000001 	stceq	0, cr0, [r0, #-4]
    6a38:	00000566 	andeq	r0, r0, r6, ror #10
    6a3c:	015c3503 	cmpeq	ip, r3, lsl #10
    6a40:	23020000 	movwcs	r0, #8192	; 0x2000
    6a44:	25f90d00 	ldrbcs	r0, [r9, #3328]!	; 0xd00
    6a48:	36030000 	strcc	r0, [r3], -r0
    6a4c:	0000015c 	andeq	r0, r0, ip, asr r1
    6a50:	0d012302 	stceq	3, cr2, [r1, #-8]
    6a54:	00001326 	andeq	r1, r0, r6, lsr #6
    6a58:	015c3703 	cmpeq	ip, r3, lsl #14
    6a5c:	23020000 	movwcs	r0, #8192	; 0x2000
    6a60:	1c5e0d02 	mrrcne	13, 0, r0, lr, cr2
    6a64:	38030000 	stmdacc	r3, {}	; <UNPREDICTABLE>
    6a68:	0000015c 	andeq	r0, r0, ip, asr r1
    6a6c:	0d032302 	stceq	3, cr2, [r3, #-8]
    6a70:	00002314 	andeq	r2, r0, r4, lsl r3
    6a74:	01613903 	cmneq	r1, r3, lsl #18
    6a78:	23020000 	movwcs	r0, #8192	; 0x2000
    6a7c:	62630e04 	rsbvs	r0, r3, #64	; 0x40
    6a80:	6c3a0300 	ldcvs	3, cr0, [sl], #-0
    6a84:	02000001 	andeq	r0, r0, #1
    6a88:	be0d0823 	cdplt	8, 0, cr0, cr13, cr3, {1}
    6a8c:	03000021 	movweq	r0, #33	; 0x21
    6a90:	0001713b 	andeq	r7, r1, fp, lsr r1
    6a94:	10230200 	eorne	r0, r3, r0, lsl #4
    6a98:	00229b0d 	eoreq	r9, r2, sp, lsl #22
    6a9c:	883c0300 	ldmdahi	ip!, {r8, r9}
    6aa0:	02000001 	andeq	r0, r0, #1
    6aa4:	08001423 	stmdaeq	r0, {r0, r1, r5, sl, ip}
    6aa8:	0000002c 	andeq	r0, r0, ip, lsr #32
    6aac:	01670409 	cmneq	r7, r9, lsl #8
    6ab0:	e0080000 	and	r0, r8, r0
    6ab4:	08000000 	stmdaeq	r0, {}	; <UNPREDICTABLE>
    6ab8:	000000b7 	strheq	r0, [r0], -r7
    6abc:	01770409 	cmneq	r7, r9, lsl #8
    6ac0:	100f0000 	andne	r0, pc, r0
    6ac4:	00000053 	andeq	r0, r0, r3, asr r0
    6ac8:	00000188 	andeq	r0, r0, r8, lsl #3
    6acc:	00005311 	andeq	r5, r0, r1, lsl r3
    6ad0:	08000a00 	stmdaeq	r0, {r9, fp}
    6ad4:	00000178 	andeq	r0, r0, r8, ror r1
    6ad8:	23bd0112 			; <UNDEFINED> instruction: 0x23bd0112
    6adc:	21010000 	mrscs	r0, (UNDEF: 1)
    6ae0:	00410101 	subeq	r0, r1, r1, lsl #2
    6ae4:	ad010000 	stcge	0, cr0, [r1, #-0]
    6ae8:	13000001 	movwne	r0, #1
    6aec:	0000224d 	andeq	r2, r0, sp, asr #4
    6af0:	ad012101 	stfges	f2, [r1, #-4]
    6af4:	00000001 	andeq	r0, r0, r1
    6af8:	00e00409 	rsceq	r0, r0, r9, lsl #8
    6afc:	01140000 	tsteq	r4, r0
    6b00:	00002440 	andeq	r2, r0, r0, asr #8
    6b04:	4101da01 	tstmi	r1, r1, lsl #20
    6b08:	01000000 	mrseq	r0, (UNDEF: 0)
    6b0c:	000001dc 	ldrdeq	r0, [r0], -ip
    6b10:	0023d115 	eoreq	sp, r3, r5, lsl r1
    6b14:	41da0100 	bicsmi	r0, sl, r0, lsl #2
    6b18:	15000000 	strne	r0, [r0, #-0]
    6b1c:	00002398 	muleq	r0, r8, r3
    6b20:	0041da01 	subeq	sp, r1, r1, lsl #20
    6b24:	16000000 	strne	r0, [r0], -r0
    6b28:	0023d701 	eoreq	sp, r3, r1, lsl #14
    6b2c:	012d0100 	teqeq	sp, r0, lsl #2
    6b30:	00000041 	andeq	r0, r0, r1, asr #32
    6b34:	f000308c 			; <UNDEFINED> instruction: 0xf000308c
    6b38:	f0003094 			; <UNDEFINED> instruction: 0xf0003094
    6b3c:	16007d02 	strne	r7, [r0], -r2, lsl #26
    6b40:	00235b01 	eoreq	r5, r3, r1, lsl #22
    6b44:	013d0100 	teqeq	sp, r0, lsl #2
    6b48:	00000041 	andeq	r0, r0, r1, asr #32
    6b4c:	f0003094 			; <UNDEFINED> instruction: 0xf0003094
    6b50:	f000309c 			; <UNDEFINED> instruction: 0xf000309c
    6b54:	17007d02 	strne	r7, [r0, -r2, lsl #26]
    6b58:	00231901 	eoreq	r1, r3, r1, lsl #18
    6b5c:	014f0100 	mrseq	r0, (UNDEF: 95)
    6b60:	00000041 	andeq	r0, r0, r1, asr #32
    6b64:	f000309c 			; <UNDEFINED> instruction: 0xf000309c
    6b68:	f0003160 			; <UNDEFINED> instruction: 0xf0003160
    6b6c:	000023cd 	andeq	r2, r0, sp, asr #7
    6b70:	00000257 	andeq	r0, r0, r7, asr r2
    6b74:	00224d18 	eoreq	r4, r2, r8, lsl sp
    6b78:	ad4f0100 	stfgee	f0, [pc, #-0]	; 6b80 <__standby_start+0x6b80>
    6b7c:	ed000001 	stc	0, cr0, [r0, #-4]
    6b80:	18000023 	stmdane	r0, {r0, r1, r5}
    6b84:	00002534 	andeq	r2, r0, r4, lsr r5
    6b88:	00534f01 	subseq	r4, r3, r1, lsl #30
    6b8c:	24000000 	strcs	r0, [r0], #-0
    6b90:	84190000 	ldrhi	r0, [r9], #-0
    6b94:	01000002 	tsteq	r0, r2
    6b98:	00025751 	andeq	r5, r2, r1, asr r7
    6b9c:	00241300 	eoreq	r1, r4, r0, lsl #6
    6ba0:	6f080000 	svcvs	0x00080000
    6ba4:	17000000 	strne	r0, [r0, -r0]
    6ba8:	00239d01 	eoreq	r9, r3, r1, lsl #26
    6bac:	01810100 	orreq	r0, r1, r0, lsl #2
    6bb0:	00000041 	andeq	r0, r0, r1, asr #32
    6bb4:	f0003160 			; <UNDEFINED> instruction: 0xf0003160
    6bb8:	f0003204 			; <UNDEFINED> instruction: 0xf0003204
    6bbc:	00002433 	andeq	r2, r0, r3, lsr r4
    6bc0:	000002a7 	andeq	r0, r0, r7, lsr #5
    6bc4:	00224d18 	eoreq	r4, r2, r8, lsl sp
    6bc8:	ad810100 	stfges	f0, [r1]
    6bcc:	53000001 	movwpl	r0, #1
    6bd0:	18000024 	stmdane	r0, {r2, r5}
    6bd4:	00002534 	andeq	r2, r0, r4, lsr r5
    6bd8:	00538101 	subseq	r8, r3, r1, lsl #2
    6bdc:	24710000 	ldrbtcs	r0, [r1], #-0
    6be0:	84190000 	ldrhi	r0, [r9], #-0
    6be4:	01000002 	tsteq	r0, r2
    6be8:	00025783 	andeq	r5, r2, r3, lsl #15
    6bec:	00248f00 	eoreq	r8, r4, r0, lsl #30
    6bf0:	01170000 	tsteq	r7, r0
    6bf4:	00002466 	andeq	r2, r0, r6, ror #8
    6bf8:	4101ad01 	tstmi	r1, r1, lsl #26
    6bfc:	04000000 	streq	r0, [r0], #-0
    6c00:	58f00032 	ldmpl	r0!, {r1, r4, r5}^
    6c04:	aff00032 	svcge	0x00f00032
    6c08:	f2000024 	vhadd.s8	d0, d0, d20
    6c0c:	18000002 	stmdane	r0, {r1}
    6c10:	000023d1 	ldrdeq	r2, [r0], -r1
    6c14:	0041ad01 	subeq	sl, r1, r1, lsl #26
    6c18:	24cf0000 	strbcs	r0, [pc], #0	; 6c20 <__standby_start+0x6c20>
    6c1c:	98180000 	ldmdals	r8, {}	; <UNPREDICTABLE>
    6c20:	01000023 	tsteq	r0, r3, lsr #32
    6c24:	000041ad 	andeq	r4, r0, sp, lsr #3
    6c28:	0024e200 	eoreq	lr, r4, r0, lsl #4
    6c2c:	02841900 	addeq	r1, r4, #0
    6c30:	af010000 	svcge	0x00010000
    6c34:	00000091 	muleq	r0, r1, r0
    6c38:	000024f5 	strdeq	r2, [r0], -r5
    6c3c:	35011700 	strcc	r1, [r1, #-1792]	; 0x700
    6c40:	01000023 	tsteq	r0, r3, lsr #32
    6c44:	004101c5 	subeq	r0, r1, r5, asr #3
    6c48:	32580000 	subscc	r0, r8, #0
    6c4c:	3284f000 	addcc	pc, r4, #0
    6c50:	2542f000 	strbcs	pc, [r2, #-0]	; <UNPREDICTABLE>
    6c54:	033b0000 	teqeq	fp, #0
    6c58:	d1180000 	tstle	r8, r0
    6c5c:	01000023 	tsteq	r0, r3, lsr #32
    6c60:	000041c5 	andeq	r4, r0, r5, asr #3
    6c64:	00256200 	eoreq	r6, r5, r0, lsl #4
    6c68:	23981a00 	orrscs	r1, r8, #0
    6c6c:	c5010000 	strgt	r0, [r1, #-0]
    6c70:	00000041 	andeq	r0, r0, r1, asr #32
    6c74:	84195101 	ldrhi	r5, [r9], #-257	; 0x101
    6c78:	01000002 	tsteq	r0, r2
    6c7c:	000257c7 	andeq	r5, r2, r7, asr #15
    6c80:	00257500 	eoreq	r7, r5, r0, lsl #10
    6c84:	b31b0000 	tstlt	fp, #0
    6c88:	84000001 	strhi	r0, [r0], #-1
    6c8c:	a4f00032 	ldrbtge	r0, [r0], #50	; 0x32
    6c90:	02f00032 	rscseq	r0, r0, #50	; 0x32
    6c94:	0360007d 	cmneq	r0, #125	; 0x7d
    6c98:	c51c0000 	ldrgt	r0, [ip, #-0]
    6c9c:	94000001 	strls	r0, [r0], #-1
    6ca0:	1d000025 	stcne	0, cr0, [r0, #-148]	; 0xffffff6c
    6ca4:	000001d0 	ldrdeq	r0, [r0], -r0	; <UNPREDICTABLE>
    6ca8:	17005101 	strne	r5, [r0, -r1, lsl #2]
    6cac:	00242301 	eoreq	r2, r4, r1, lsl #6
    6cb0:	01ec0100 	mvneq	r0, r0, lsl #2
    6cb4:	000001ad 	andeq	r0, r0, sp, lsr #3
    6cb8:	f00032a4 			; <UNDEFINED> instruction: 0xf00032a4
    6cbc:	f0003390 			; <UNDEFINED> instruction: 0xf0003390
    6cc0:	000025a7 	andeq	r2, r0, r7, lsr #11
    6cc4:	00000441 	andeq	r0, r0, r1, asr #8
    6cc8:	00224d19 	eoreq	r4, r2, r9, lsl sp
    6ccc:	adee0100 	stfgee	f0, [lr]
    6cd0:	c7000001 	strgt	r0, [r0, -r1]
    6cd4:	1e000025 	cdpne	0, 0, cr0, cr0, cr5, {1}
    6cd8:	000002a0 	andeq	r0, r0, r0, lsr #5
    6cdc:	000003e5 	andeq	r0, r0, r5, ror #7
    6ce0:	00028419 	andeq	r8, r2, r9, lsl r4
    6ce4:	57f20100 	ldrbpl	r0, [r2, r0, lsl #2]!
    6ce8:	08000002 	stmdaeq	r0, {r1}
    6cec:	1f000026 	svcne	0x00000026
    6cf0:	0000018d 	andeq	r0, r0, sp, lsl #3
    6cf4:	f00032d0 			; <UNDEFINED> instruction: 0xf00032d0
    6cf8:	000002b8 			; <UNDEFINED> instruction: 0x000002b8
    6cfc:	03c1f501 	biceq	pc, r1, #4194304	; 0x400000
    6d00:	a01c0000 	andsge	r0, ip, r0
    6d04:	33000001 	movwcc	r0, #1
    6d08:	00000026 	andeq	r0, r0, r6, lsr #32
    6d0c:	0001b320 	andeq	fp, r1, r0, lsr #6
    6d10:	00330000 	eorseq	r0, r3, r0
    6d14:	003310f0 	ldrshteq	r1, [r3], -r0
    6d18:	010401f0 	strdeq	r0, [r4, -r0]
    6d1c:	0001d01c 	andeq	sp, r1, ip, lsl r0
    6d20:	00265100 	eoreq	r5, r6, r0, lsl #2
    6d24:	01c51c00 	biceq	r1, r5, r0, lsl #24
    6d28:	26650000 	strbtcs	r0, [r5], -r0
    6d2c:	00000000 	andeq	r0, r0, r0
    6d30:	00332821 	eorseq	r2, r3, r1, lsr #16
    6d34:	003384f0 	ldrshteq	r8, [r3], -r0
    6d38:	028422f0 	addeq	r2, r4, #15
    6d3c:	09010000 	stmdbeq	r1, {}	; <UNPREDICTABLE>
    6d40:	00025701 	andeq	r5, r2, r1, lsl #14
    6d44:	00267900 	eoreq	r7, r6, r0, lsl #18
    6d48:	018d2300 	orreq	r2, sp, r0, lsl #6
    6d4c:	333c0000 	teqcc	ip, #0
    6d50:	02d8f000 	sbcseq	pc, r8, #0
    6d54:	0c010000 	stceq	0, cr0, [r1], {-0}
    6d58:	00041c01 	andeq	r1, r4, r1, lsl #24
    6d5c:	01a01c00 	lsleq	r1, r0, #24
    6d60:	26a40000 	strtcs	r0, [r4], r0
    6d64:	20000000 	andcs	r0, r0, r0
    6d68:	000001b3 			; <UNDEFINED> instruction: 0x000001b3
    6d6c:	f0003370 			; <UNDEFINED> instruction: 0xf0003370
    6d70:	f0003380 			; <UNDEFINED> instruction: 0xf0003380
    6d74:	1c011a01 	stcne	10, cr1, [r1], {1}
    6d78:	000001d0 	ldrdeq	r0, [r0], -r0	; <UNPREDICTABLE>
    6d7c:	000026c2 	andeq	r2, r0, r2, asr #13
    6d80:	0001c51c 	andeq	ip, r1, ip, lsl r5
    6d84:	0026d600 	eoreq	sp, r6, r0, lsl #12
    6d88:	00000000 	andeq	r0, r0, r0
    6d8c:	00018d1b 	andeq	r8, r1, fp, lsl sp
    6d90:	00339000 	eorseq	r9, r3, r0
    6d94:	0033c4f0 	ldrshteq	ip, [r3], -r0
    6d98:	007d02f0 	ldrshteq	r0, [sp], #-32	; 0xffffffe0
    6d9c:	0000045f 	andeq	r0, r0, pc, asr r4
    6da0:	0001a01c 	andeq	sl, r1, ip, lsl r0
    6da4:	0026ea00 	eoreq	lr, r6, r0, lsl #20
    6da8:	64240000 	strtvs	r0, [r4], #-0
    6dac:	05000022 	streq	r0, [r0, #-34]	; 0x22
    6db0:	00006f23 	andeq	r6, r0, r3, lsr #30
    6db4:	00010100 	andeq	r0, r1, r0, lsl #2
    6db8:	000000f9 	strdeq	r0, [r0], -r9
    6dbc:	1b610002 	blne	1846dcc <__standby_start+0x1846dcc>
    6dc0:	01040000 	mrseq	r0, (UNDEF: 4)
    6dc4:	000003f4 	strdeq	r0, [r0], -r4
    6dc8:	0024a301 	eoreq	sl, r4, r1, lsl #6
    6dcc:	00048200 	andeq	r8, r4, r0, lsl #4
    6dd0:	0033c400 	eorseq	ip, r3, r0, lsl #8
    6dd4:	003418f0 	ldrshteq	r1, [r4], -r0
    6dd8:	001b74f0 			; <UNDEFINED> instruction: 0x001b74f0
    6ddc:	06010200 	streq	r0, [r1], -r0, lsl #4
    6de0:	0000078d 	andeq	r0, r0, sp, lsl #15
    6de4:	8b080102 	blhi	2071f4 <__standby_start+0x2071f4>
    6de8:	02000007 	andeq	r0, r0, #7
    6dec:	06410502 	strbeq	r0, [r1], -r2, lsl #10
    6df0:	02020000 	andeq	r0, r2, #0
    6df4:	00084d07 	andeq	r4, r8, r7, lsl #26
    6df8:	05040300 	streq	r0, [r4, #-768]	; 0x300
    6dfc:	00746e69 	rsbseq	r6, r4, r9, ror #28
    6e00:	45070402 	strmi	r0, [r7, #-1026]	; 0x402
    6e04:	02000002 	andeq	r0, r0, #2
    6e08:	04740508 	ldrbteq	r0, [r4], #-1288	; 0x508
    6e0c:	08020000 	stmdaeq	r2, {}	; <UNPREDICTABLE>
    6e10:	00023b07 	andeq	r3, r2, r7, lsl #22
    6e14:	08010200 	stmdaeq	r1, {r9}
    6e18:	00000794 	muleq	r0, r4, r7
    6e1c:	40070402 	andmi	r0, r7, r2, lsl #8
    6e20:	04000002 	streq	r0, [r0], #-2
    6e24:	00250c01 	eoreq	r0, r5, r1, lsl #24
    6e28:	01230100 	teqeq	r3, r0, lsl #2
    6e2c:	00000041 	andeq	r0, r0, r1, asr #32
    6e30:	f00033c4 			; <UNDEFINED> instruction: 0xf00033c4
    6e34:	f00033cc 			; <UNDEFINED> instruction: 0xf00033cc
    6e38:	04007d02 	streq	r7, [r0], #-3330	; 0xd02
    6e3c:	0024e201 	eoreq	lr, r4, r1, lsl #4
    6e40:	01330100 	teqeq	r3, r0, lsl #2
    6e44:	00000041 	andeq	r0, r0, r1, asr #32
    6e48:	f00033cc 			; <UNDEFINED> instruction: 0xf00033cc
    6e4c:	f00033d4 			; <UNDEFINED> instruction: 0xf00033d4
    6e50:	05007d02 	streq	r7, [r0, #-3330]	; 0xd02
    6e54:	00252201 	eoreq	r2, r5, r1, lsl #4
    6e58:	01430100 	mrseq	r0, (UNDEF: 83)
    6e5c:	00000041 	andeq	r0, r0, r1, asr #32
    6e60:	f00033d4 			; <UNDEFINED> instruction: 0xf00033d4
    6e64:	f00033f8 			; <UNDEFINED> instruction: 0xf00033f8
    6e68:	d4007d02 	strle	r7, [r0], #-3330	; 0xd02
    6e6c:	06000000 	streq	r0, [r0], -r0
    6e70:	000024dd 	ldrdeq	r2, [r0], -sp
    6e74:	00414301 	subeq	r4, r1, r1, lsl #6
    6e78:	27080000 	strcs	r0, [r8, -r0]
    6e7c:	34070000 	strcc	r0, [r7], #-0
    6e80:	01000025 	tsteq	r0, r5, lsr #32
    6e84:	00004843 	andeq	r4, r0, r3, asr #16
    6e88:	00510100 	subseq	r0, r1, r0, lsl #2
    6e8c:	24f80108 	ldrbtcs	r0, [r8], #264	; 0x108
    6e90:	5c010000 	stcpl	0, cr0, [r1], {-0}
    6e94:	00004101 	andeq	r4, r0, r1, lsl #2
    6e98:	0033f800 	eorseq	pc, r3, r0, lsl #16
    6e9c:	003418f0 	ldrshteq	r1, [r4], -r0
    6ea0:	007d02f0 	ldrshteq	r0, [sp], #-32	; 0xffffffe0
    6ea4:	0024dd06 	eoreq	sp, r4, r6, lsl #26
    6ea8:	415c0100 	cmpmi	ip, r0, lsl #2
    6eac:	1b000000 	blne	6eb4 <__standby_start+0x6eb4>
    6eb0:	00000027 	andeq	r0, r0, r7, lsr #32
    6eb4:	0002a700 	andeq	sl, r2, r0, lsl #14
    6eb8:	f0000200 			; <UNDEFINED> instruction: 0xf0000200
    6ebc:	0400001b 	streq	r0, [r0], #-27
    6ec0:	0003f401 	andeq	pc, r3, r1, lsl #8
    6ec4:	25b60100 	ldrcs	r0, [r6, #256]!	; 0x100
    6ec8:	04820000 	streq	r0, [r2], #0
    6ecc:	34180000 	ldrcc	r0, [r8], #-0
    6ed0:	3508f000 	strcc	pc, [r8, #-0]
    6ed4:	1bf5f000 	blne	ffd82edc <__bss_end+0xfd7f130>
    6ed8:	01020000 	mrseq	r0, (UNDEF: 2)
    6edc:	00078d06 	andeq	r8, r7, r6, lsl #26
    6ee0:	08010200 	stmdaeq	r1, {r9}
    6ee4:	0000078b 	andeq	r0, r0, fp, lsl #15
    6ee8:	41050202 	tstmi	r5, r2, lsl #4
    6eec:	02000006 	andeq	r0, r0, #6
    6ef0:	084d0702 	stmdaeq	sp, {r1, r8, r9, sl}^
    6ef4:	04030000 	streq	r0, [r3], #-0
    6ef8:	746e6905 	strbtvc	r6, [lr], #-2309	; 0x905
    6efc:	07040200 	streq	r0, [r4, -r0, lsl #4]
    6f00:	00000245 	andeq	r0, r0, r5, asr #4
    6f04:	74050802 	strvc	r0, [r5], #-2050	; 0x802
    6f08:	02000004 	andeq	r0, r0, #4
    6f0c:	023b0708 	eorseq	r0, fp, #2097152	; 0x200000
    6f10:	45040000 	strmi	r0, [r4, #-0]
    6f14:	04000008 	streq	r0, [r0], #-8
    6f18:	00ca7a03 	sbceq	r7, sl, r3, lsl #20
    6f1c:	88050000 	stmdahi	r5, {}	; <UNPREDICTABLE>
    6f20:	00000006 	andeq	r0, r0, r6
    6f24:	00033405 	andeq	r3, r3, r5, lsl #8
    6f28:	46050100 	strmi	r0, [r5], -r0, lsl #2
    6f2c:	02000007 	andeq	r0, r0, #7
    6f30:	00032805 	andeq	r2, r3, r5, lsl #16
    6f34:	2e050300 	cdpcs	3, 0, cr0, cr5, cr0, {0}
    6f38:	04000004 	streq	r0, [r0], #-4
    6f3c:	00069505 	andeq	r9, r6, r5, lsl #10
    6f40:	e7050500 	str	r0, [r5, -r0, lsl #10]
    6f44:	06000003 	streq	r0, [r0], -r3
    6f48:	00082f05 	andeq	r2, r8, r5, lsl #30
    6f4c:	61050700 	tstvs	r5, r0, lsl #14
    6f50:	08000004 	stmdaeq	r0, {r2}
    6f54:	0008d005 	andeq	sp, r8, r5
    6f58:	23050900 	movwcs	r0, #22784	; 0x5900
    6f5c:	0a000006 	beq	6f7c <__standby_start+0x6f7c>
    6f60:	00064b05 	andeq	r4, r6, r5, lsl #22
    6f64:	3f050b00 	svccc	0x00050b00
    6f68:	0c000008 	stceq	0, cr0, [r0], {8}
    6f6c:	0007a005 	andeq	sl, r7, r5
    6f70:	02050d00 	andeq	r0, r5, #0
    6f74:	0e000006 	cdpeq	0, 0, cr0, cr0, cr6, {0}
    6f78:	0007ce05 	andeq	ip, r7, r5, lsl #28
    6f7c:	02000f00 	andeq	r0, r0, #0
    6f80:	07940801 	ldreq	r0, [r4, r1, lsl #16]
    6f84:	04020000 	streq	r0, [r2], #-0
    6f88:	00024007 	andeq	r4, r2, r7
    6f8c:	07040600 	streq	r0, [r4, -r0, lsl #12]
    6f90:	000021c6 	andeq	r2, r0, r6, asr #3
    6f94:	00e52702 	rsceq	r2, r5, r2, lsl #14
    6f98:	04080000 	streq	r0, [r8], #-0
    6f9c:	000000eb 	andeq	r0, r0, fp, ror #1
    6fa0:	00410109 	subeq	r0, r1, r9, lsl #2
    6fa4:	00fb0000 	rscseq	r0, fp, r0
    6fa8:	d80a0000 	stmdale	sl, {}	; <UNPREDICTABLE>
    6fac:	00000000 	andeq	r0, r0, r0
    6fb0:	0021de0b 	eoreq	sp, r1, fp, lsl #28
    6fb4:	2a020800 	bcs	88fbc <__standby_start+0x88fbc>
    6fb8:	00000124 	andeq	r0, r0, r4, lsr #2
    6fbc:	0022150c 	eoreq	r1, r2, ip, lsl #10
    6fc0:	da2c0200 	ble	b077c8 <__standby_start+0xb077c8>
    6fc4:	02000000 	andeq	r0, r0, #0
    6fc8:	610d0023 	tstvs	sp, r3, lsr #32
    6fcc:	02006772 	andeq	r6, r0, #29884416	; 0x1c80000
    6fd0:	0000d82d 	andeq	sp, r0, sp, lsr #16
    6fd4:	04230200 	strteq	r0, [r3], #-512	; 0x200
    6fd8:	22560b00 	subscs	r0, r6, #0
    6fdc:	02400000 	subeq	r0, r0, #0
    6fe0:	0001a033 	andeq	sl, r1, r3, lsr r0
    6fe4:	05660c00 	strbeq	r0, [r6, #-3072]!	; 0xc00
    6fe8:	35020000 	strcc	r0, [r2, #-0]
    6fec:	000001a0 	andeq	r0, r0, r0, lsr #3
    6ff0:	0c002302 	stceq	3, cr2, [r0], {2}
    6ff4:	000025f9 	strdeq	r2, [r0], -r9
    6ff8:	01a03602 	lsleq	r3, r2, #12
    6ffc:	23020000 	movwcs	r0, #8192	; 0x2000
    7000:	13260c01 	teqne	r6, #256	; 0x100
    7004:	37020000 	strcc	r0, [r2, -r0]
    7008:	000001a0 	andeq	r0, r0, r0, lsr #3
    700c:	0c022302 	stceq	3, cr2, [r2], {2}
    7010:	00001c5e 	andeq	r1, r0, lr, asr ip
    7014:	01a03802 	lsleq	r3, r2, #16
    7018:	23020000 	movwcs	r0, #8192	; 0x2000
    701c:	23140c03 	tstcs	r4, #768	; 0x300
    7020:	39020000 	stmdbcc	r2, {}	; <UNPREDICTABLE>
    7024:	000001a5 	andeq	r0, r0, r5, lsr #3
    7028:	0d042302 	stceq	3, cr2, [r4, #-8]
    702c:	02006263 	andeq	r6, r0, #805306374	; 0x30000006
    7030:	0001b03a 	andeq	fp, r1, sl, lsr r0
    7034:	08230200 	stmdaeq	r3!, {r9}
    7038:	0021be0c 	eoreq	fp, r1, ip, lsl #28
    703c:	b53b0200 	ldrlt	r0, [fp, #-512]!	; 0x200
    7040:	02000001 	andeq	r0, r0, #1
    7044:	9b0c1023 	blls	30b0d8 <__standby_start+0x30b0d8>
    7048:	02000022 	andeq	r0, r0, #34	; 0x22
    704c:	0001cc3c 	andeq	ip, r1, ip, lsr ip
    7050:	14230200 	strtne	r0, [r3], #-512	; 0x200
    7054:	002c0e00 	eoreq	r0, ip, r0, lsl #28
    7058:	04080000 	streq	r0, [r8], #-0
    705c:	000001ab 	andeq	r0, r0, fp, lsr #3
    7060:	0001240e 	andeq	r2, r1, lr, lsl #8
    7064:	00fb0e00 	rscseq	r0, fp, r0, lsl #28
    7068:	04080000 	streq	r0, [r8], #-0
    706c:	000001bb 			; <UNDEFINED> instruction: 0x000001bb
    7070:	0048100f 	subeq	r1, r8, pc
    7074:	01cc0000 	biceq	r0, ip, r0
    7078:	48110000 	ldmdami	r1, {}	; <UNPREDICTABLE>
    707c:	0a000000 	beq	7084 <__standby_start+0x7084>
    7080:	01bc0e00 			; <UNDEFINED> instruction: 0x01bc0e00
    7084:	01120000 	tsteq	r2, r0
    7088:	0000259b 	muleq	r0, fp, r5
    708c:	41012801 	tstmi	r1, r1, lsl #16
    7090:	18000000 	stmdane	r0, {}	; <UNPREDICTABLE>
    7094:	40f00034 	rscsmi	r0, r0, r4, lsr r0
    7098:	02f00034 	rscseq	r0, r0, #52	; 0x34
    709c:	0112007d 	tsteq	r2, sp, ror r0
    70a0:	0000253c 	andeq	r2, r0, ip, lsr r5
    70a4:	41013c01 	tstmi	r1, r1, lsl #24
    70a8:	40000000 	andmi	r0, r0, r0
    70ac:	48f00034 	ldmmi	r0!, {r2, r4, r5}^
    70b0:	02f00034 	rscseq	r0, r0, #52	; 0x34
    70b4:	0113007d 	tsteq	r3, sp, ror r0
    70b8:	00002557 	andeq	r2, r0, r7, asr r5
    70bc:	4c014d01 	stcmi	13, cr4, [r1], {1}
    70c0:	48000002 	stmdami	r0, {r1}
    70c4:	dcf00034 	ldclle	0, cr0, [r0], #208	; 0xd0
    70c8:	2ef00034 	mrccs	0, 7, r0, cr0, cr4, {1}
    70cc:	4c000027 	stcmi	0, cr0, [r0], {39}	; 0x27
    70d0:	14000002 	strne	r0, [r0], #-2
    70d4:	000025f5 	strdeq	r2, [r0], -r5
    70d8:	00484d01 	subeq	r4, r8, r1, lsl #26
    70dc:	274e0000 	strbcs	r0, [lr, -r0]
    70e0:	4d150000 	ldcmi	0, cr0, [r5, #-0]
    70e4:	01000022 	tsteq	r0, r2, lsr #32
    70e8:	00024c4f 	andeq	r4, r2, pc, asr #24
    70ec:	00276c00 	eoreq	r6, r7, r0, lsl #24
    70f0:	25fe1500 	ldrbcs	r1, [lr, #1280]!	; 0x500
    70f4:	50010000 	andpl	r0, r1, r0
    70f8:	0000024c 	andeq	r0, r0, ip, asr #4
    70fc:	000027c6 	andeq	r2, r0, r6, asr #15
    7100:	24040800 	strcs	r0, [r4], #-2048	; 0x800
    7104:	16000001 	strne	r0, [r0], -r1
    7108:	00257a01 	eoreq	r7, r5, r1, lsl #20
    710c:	01800100 	orreq	r0, r0, r0, lsl #2
    7110:	f00034dc 			; <UNDEFINED> instruction: 0xf00034dc
    7114:	f0003508 			; <UNDEFINED> instruction: 0xf0003508
    7118:	000027f0 	strdeq	r2, [r0], -r0
    711c:	0000027b 	andeq	r0, r0, fp, ror r2
    7120:	00224d14 	eoreq	r4, r2, r4, lsl sp
    7124:	4c800100 	stfmis	f0, [r0], {0}
    7128:	10000002 	andne	r0, r0, r2
    712c:	00000028 	andeq	r0, r0, r8, lsr #32
    7130:	00258d17 	eoreq	r8, r5, r7, lsl sp
    7134:	4c1a0100 	ldfmis	f0, [sl], {-0}
    7138:	05000002 	streq	r0, [r0, #-2]
    713c:	003ba403 	eorseq	sl, fp, r3, lsl #8
    7140:	256e17f0 	strbcs	r1, [lr, #-2032]!	; 0x7f0
    7144:	1b010000 	blne	4714c <__standby_start+0x4714c>
    7148:	0000024c 	andeq	r0, r0, ip, asr #4
    714c:	3ba80305 	blcc	fea07d68 <__bss_end+0xea03fbc>
    7150:	6418f000 	ldrvs	pc, [r8], #-0
    7154:	04000022 	streq	r0, [r0], #-34	; 0x22
    7158:	0000d123 	andeq	sp, r0, r3, lsr #2
    715c:	00010100 	andeq	r0, r1, r0, lsl #2
    7160:	000002ff 	strdeq	r0, [r0], -pc	; <UNPREDICTABLE>
    7164:	1d310002 	ldcne	0, cr0, [r1, #-8]!
    7168:	01040000 	mrseq	r0, (UNDEF: 4)
    716c:	000003f4 	strdeq	r0, [r0], -r4
    7170:	00264e01 	eoreq	r4, r6, r1, lsl #28
    7174:	00048200 	andeq	r8, r4, r0, lsl #4
    7178:	00350800 	eorseq	r0, r5, r0, lsl #16
    717c:	003680f0 	ldrshteq	r8, [r6], -r0
    7180:	001ce9f0 			; <UNDEFINED> instruction: 0x001ce9f0
    7184:	06010200 	streq	r0, [r1], -r0, lsl #4
    7188:	0000078d 	andeq	r0, r0, sp, lsl #15
    718c:	8b080102 	blhi	20759c <__standby_start+0x20759c>
    7190:	02000007 	andeq	r0, r0, #7
    7194:	06410502 	strbeq	r0, [r1], -r2, lsl #10
    7198:	02020000 	andeq	r0, r2, #0
    719c:	00084d07 	andeq	r4, r8, r7, lsl #26
    71a0:	0e1c0300 	cdpeq	3, 1, cr0, cr12, cr0, {0}
    71a4:	12020000 	andne	r0, r2, #0
    71a8:	0000004c 	andeq	r0, r0, ip, asr #32
    71ac:	69050404 	stmdbvs	r5, {r2, sl}
    71b0:	0300746e 	movweq	r7, #1134	; 0x46e
    71b4:	0000043a 	andeq	r0, r0, sl, lsr r4
    71b8:	005e1302 	subseq	r1, lr, r2, lsl #6
    71bc:	04020000 	streq	r0, [r2], #-0
    71c0:	00024507 	andeq	r4, r2, r7, lsl #10
    71c4:	05080200 	streq	r0, [r8, #-512]	; 0x200
    71c8:	00000474 	andeq	r0, r0, r4, ror r4
    71cc:	3b070802 	blcc	1c91dc <__standby_start+0x1c91dc>
    71d0:	05000002 	streq	r0, [r0, #-2]
    71d4:	00000845 	andeq	r0, r0, r5, asr #16
    71d8:	e07a0304 	rsbs	r0, sl, r4, lsl #6
    71dc:	06000000 	streq	r0, [r0], -r0
    71e0:	00000688 	andeq	r0, r0, r8, lsl #13
    71e4:	03340600 	teqeq	r4, #0
    71e8:	06010000 	streq	r0, [r1], -r0
    71ec:	00000746 	andeq	r0, r0, r6, asr #14
    71f0:	03280602 	teqeq	r8, #2097152	; 0x200000
    71f4:	06030000 	streq	r0, [r3], -r0
    71f8:	0000042e 	andeq	r0, r0, lr, lsr #8
    71fc:	06950604 	ldreq	r0, [r5], r4, lsl #12
    7200:	06050000 	streq	r0, [r5], -r0
    7204:	000003e7 	andeq	r0, r0, r7, ror #7
    7208:	082f0606 	stmdaeq	pc!, {r1, r2, r9, sl}	; <UNPREDICTABLE>
    720c:	06070000 	streq	r0, [r7], -r0
    7210:	00000461 	andeq	r0, r0, r1, ror #8
    7214:	08d00608 	ldmeq	r0, {r3, r9, sl}^
    7218:	06090000 	streq	r0, [r9], -r0
    721c:	00000623 	andeq	r0, r0, r3, lsr #12
    7220:	064b060a 	strbeq	r0, [fp], -sl, lsl #12
    7224:	060b0000 	streq	r0, [fp], -r0
    7228:	0000083f 	andeq	r0, r0, pc, lsr r8
    722c:	07a0060c 	streq	r0, [r0, ip, lsl #12]!
    7230:	060d0000 	streq	r0, [sp], -r0
    7234:	00000602 	andeq	r0, r0, r2, lsl #12
    7238:	07ce060e 	strbeq	r0, [lr, lr, lsl #12]
    723c:	000f0000 	andeq	r0, pc, r0
    7240:	94080102 	strls	r0, [r8], #-258	; 0x102
    7244:	02000007 	andeq	r0, r0, #7
    7248:	02400704 	subeq	r0, r0, #1048576	; 0x100000
    724c:	83070000 	movwhi	r0, #28672	; 0x7000
    7250:	01000026 	tsteq	r0, r6, lsr #32
    7254:	00e70113 	rsceq	r0, r7, r3, lsl r1
    7258:	0b030000 	bleq	c7260 <__standby_start+0xc7260>
    725c:	08000001 	stmdaeq	r0, {r0}
    7260:	00002648 	andeq	r2, r0, r8, asr #12
    7264:	00e71501 	rsceq	r1, r7, r1, lsl #10
    7268:	09000000 	stmdbeq	r0, {}	; <UNPREDICTABLE>
    726c:	0000262b 	andeq	r2, r0, fp, lsr #12
    7270:	03013301 	movweq	r3, #4865	; 0x1301
    7274:	00000124 	andeq	r0, r0, r4, lsr #2
    7278:	0026480a 	eoreq	r4, r6, sl, lsl #16
    727c:	e7330100 	ldr	r0, [r3, -r0, lsl #2]!
    7280:	00000000 	andeq	r0, r0, r0
    7284:	2512010b 	ldrcs	r0, [r2, #-267]	; 0x10b
    7288:	47010000 	strmi	r0, [r1, -r0]
    728c:	00004101 	andeq	r4, r0, r1, lsl #2
    7290:	00350800 	eorseq	r0, r5, r0, lsl #16
    7294:	003538f0 	ldrshteq	r3, [r5], -r0
    7298:	007d02f0 	ldrshteq	r0, [sp], #-32	; 0xffffffe0
    729c:	00000150 	andeq	r0, r0, r0, asr r1
    72a0:	001a2d0c 	andseq	r2, sl, ip, lsl #26
    72a4:	53470100 	movtpl	r0, #28928	; 0x7100
    72a8:	2e000000 	cdpcs	0, 0, cr0, cr0, cr0, {0}
    72ac:	00000028 	andeq	r0, r0, r8, lsr #32
    72b0:	2528010d 	strcs	r0, [r8, #-269]!	; 0x10d
    72b4:	61010000 	mrsvs	r0, (UNDEF: 1)
    72b8:	00004101 	andeq	r4, r0, r1, lsl #2
    72bc:	00353800 	eorseq	r3, r5, r0, lsl #16
    72c0:	0035b4f0 	ldrshteq	fp, [r5], -r0
    72c4:	002841f0 	strdeq	r4, [r8], -r0	; <UNPREDICTABLE>
    72c8:	0001db00 	andeq	sp, r1, r0, lsl #22
    72cc:	24dd0c00 	ldrbcs	r0, [sp], #3072	; 0xc00
    72d0:	61010000 	mrsvs	r0, (UNDEF: 1)
    72d4:	00000053 	andeq	r0, r0, r3, asr r0
    72d8:	00002861 	andeq	r2, r0, r1, ror #16
    72dc:	0025340c 	eoreq	r3, r5, ip, lsl #8
    72e0:	53610100 	cmnpl	r1, #0
    72e4:	8a000000 	bhi	72ec <__standby_start+0x72ec>
    72e8:	0e000028 	cdpeq	0, 0, cr0, cr0, cr8, {1}
    72ec:	00002641 	andeq	r2, r0, r1, asr #12
    72f0:	00536401 	subseq	r6, r3, r1, lsl #8
    72f4:	28a80000 	stmiacs	r8!, {}	; <UNPREDICTABLE>
    72f8:	ee0f0000 	cdp	0, 0, cr0, cr15, cr0, {0}
    72fc:	3c000000 	stccc	0, cr0, [r0], {-0}
    7300:	44f00035 	ldrbtmi	r0, [r0], #53	; 0x35
    7304:	01f00035 	mvnseq	r0, r5, lsr r0
    7308:	0001c167 	andeq	ip, r1, r7, ror #2
    730c:	353c1000 	ldrcc	r1, [ip, #-0]!
    7310:	3544f000 	strbcc	pc, [r4, #-0]	; <UNPREDICTABLE>
    7314:	ff11f000 			; <UNDEFINED> instruction: 0xff11f000
    7318:	fe000000 	cdp2	0, 0, cr0, cr0, cr0, {0}
    731c:	00000028 	andeq	r0, r0, r8, lsr #32
    7320:	010b1200 	mrseq	r1, R11_fiq
    7324:	35900000 	ldrcc	r0, [r0]
    7328:	3594f000 	ldrcc	pc, [r4]
    732c:	6f01f000 	svcvs	0x0001f000
    7330:	00011813 	andeq	r1, r1, r3, lsl r8
    7334:	00291c00 	eoreq	r1, r9, r0, lsl #24
    7338:	0b000000 	bleq	7340 <__standby_start+0x7340>
    733c:	0024fe01 	eoreq	pc, r4, r1, lsl #28
    7340:	01840100 	orreq	r0, r4, r0, lsl #2
    7344:	00000041 	andeq	r0, r0, r1, asr #32
    7348:	f00035b4 			; <UNDEFINED> instruction: 0xf00035b4
    734c:	f00035e4 			; <UNDEFINED> instruction: 0xf00035e4
    7350:	22007d02 	andcs	r7, r0, #128	; 0x80
    7354:	0c000002 	stceq	0, cr0, [r0], {2}
    7358:	000024dd 	ldrdeq	r2, [r0], -sp
    735c:	00538401 	subseq	r8, r3, r1, lsl #8
    7360:	292f0000 	stmdbcs	pc!, {}	; <UNPREDICTABLE>
    7364:	0b140000 	bleq	50736c <__standby_start+0x50736c>
    7368:	b8000001 	stmdalt	r0, {r0}
    736c:	f0f00035 			; <UNDEFINED> instruction: 0xf0f00035
    7370:	01000002 	tsteq	r0, r2
    7374:	0118158a 	tsteq	r8, sl, lsl #11
    7378:	03050000 	movweq	r0, #20480	; 0x5000
    737c:	f0003bac 			; <UNDEFINED> instruction: 0xf0003bac
    7380:	010b0000 	mrseq	r0, (UNDEF: 11)
    7384:	00002611 	andeq	r2, r0, r1, lsl r6
    7388:	41019a01 	tstmi	r1, r1, lsl #20
    738c:	e4000000 	str	r0, [r0], #-0
    7390:	50f00035 	rscspl	r0, r0, r5, lsr r0
    7394:	02f00036 	rscseq	r0, r0, #54	; 0x36
    7398:	02aa007d 	adceq	r0, sl, #125	; 0x7d
    739c:	dd0c0000 	stcle	0, cr0, [ip, #-0]
    73a0:	01000024 	tsteq	r0, r4, lsr #32
    73a4:	0000539a 	muleq	r0, sl, r3
    73a8:	00294200 	eoreq	r4, r9, r0, lsl #4
    73ac:	25340c00 	ldrcs	r0, [r4, #-3072]!	; 0xc00
    73b0:	9a010000 	bls	473b8 <__standby_start+0x473b8>
    73b4:	00000053 	andeq	r0, r0, r3, asr r0
    73b8:	0000296b 	andeq	r2, r0, fp, ror #18
    73bc:	0026410e 	eoreq	r4, r6, lr, lsl #2
    73c0:	539d0100 	orrspl	r0, sp, #0
    73c4:	89000000 	stmdbhi	r0, {}	; <UNPREDICTABLE>
    73c8:	0f000029 	svceq	0x00000029
    73cc:	000000ee 	andeq	r0, r0, lr, ror #1
    73d0:	f00035e4 			; <UNDEFINED> instruction: 0xf00035e4
    73d4:	f00035ec 			; <UNDEFINED> instruction: 0xf00035ec
    73d8:	0290a001 	addseq	sl, r0, #1
    73dc:	e4100000 	ldr	r0, [r0], #-0
    73e0:	ecf00035 	ldcl	0, cr0, [r0], #212	; 0xd4
    73e4:	16f00035 			; <UNDEFINED> instruction: 0x16f00035
    73e8:	000000ff 	strdeq	r0, [r0], -pc	; <UNPREDICTABLE>
    73ec:	00005c01 	andeq	r5, r0, r1, lsl #24
    73f0:	00010b12 	andeq	r0, r1, r2, lsl fp
    73f4:	00363800 	eorseq	r3, r6, r0, lsl #16
    73f8:	00363cf0 	ldrshteq	r3, [r6], -r0
    73fc:	13a801f0 			; <UNDEFINED> instruction: 0x13a801f0
    7400:	00000118 	andeq	r0, r0, r8, lsl r1
    7404:	000029df 	ldrdeq	r2, [r0], -pc	; <UNPREDICTABLE>
    7408:	010b0000 	mrseq	r0, (UNDEF: 11)
    740c:	00002696 	muleq	r0, r6, r6
    7410:	4101bd01 	tstmi	r1, r1, lsl #26
    7414:	50000000 	andpl	r0, r0, r0
    7418:	80f00036 	rscshi	r0, r0, r6, lsr r0
    741c:	02f00036 	rscseq	r0, r0, #54	; 0x36
    7420:	02f1007d 	rscseq	r0, r1, #125	; 0x7d
    7424:	dd0c0000 	stcle	0, cr0, [ip, #-0]
    7428:	01000024 	tsteq	r0, r4, lsr #32
    742c:	000053bd 			; <UNDEFINED> instruction: 0x000053bd
    7430:	0029f200 	eoreq	pc, r9, r0, lsl #4
    7434:	010b1400 	tsteq	fp, r0, lsl #8
    7438:	36540000 	ldrbcc	r0, [r4], -r0
    743c:	0318f000 	tsteq	r8, #0
    7440:	c3010000 	movwgt	r0, #4096	; 0x1000
    7444:	00011815 	andeq	r1, r1, r5, lsl r8
    7448:	ac030500 	cfstr32ge	mvfx0, [r3], {-0}
    744c:	00f0003b 	rscseq	r0, r0, fp, lsr r0
    7450:	26051700 	strcs	r1, [r5], -r0, lsl #14
    7454:	0d010000 	stceq	0, cr0, [r1, #-0]
    7458:	00000053 	andeq	r0, r0, r3, asr r0
    745c:	3bac0305 	blcc	feb08078 <__bss_end+0xeb042cc>
    7460:	Address 0x00007460 is out of bounds.


Disassembly of section .debug_abbrev:

00000000 <.debug_abbrev>:
       0:	25011101 	strcs	r1, [r1, #-257]	; 0x101
       4:	030b130e 	movweq	r1, #45838	; 0xb30e
       8:	110e1b0e 	tstne	lr, lr, lsl #22
       c:	10011201 	andne	r1, r1, r1, lsl #4
      10:	02000006 	andeq	r0, r0, #6
      14:	0b0b0024 	bleq	2c00ac <__standby_start+0x2c00ac>
      18:	0e030b3e 	vmoveq.16	d3[0], r0
      1c:	24030000 	strcs	r0, [r3], #-0
      20:	3e0b0b00 	vmlacc.f64	d0, d11, d0
      24:	0008030b 	andeq	r0, r8, fp, lsl #6
      28:	00160400 	andseq	r0, r6, r0, lsl #8
      2c:	0b3a0e03 	bleq	e83840 <__standby_start+0xe83840>
      30:	13490b3b 	movtne	r0, #39739	; 0x9b3b
      34:	04050000 	streq	r0, [r5], #-0
      38:	0b0e0301 	bleq	380c44 <__standby_start+0x380c44>
      3c:	3b0b3a0b 	blcc	2ce870 <__standby_start+0x2ce870>
      40:	0013010b 	andseq	r0, r3, fp, lsl #2
      44:	00280600 	eoreq	r0, r8, r0, lsl #12
      48:	0d1c0e03 	ldceq	14, cr0, [ip, #-12]
      4c:	13070000 	movwne	r0, #28672	; 0x7000
      50:	0b0e0301 	bleq	380c5c <__standby_start+0x380c5c>
      54:	3b0b3a0b 	blcc	2ce888 <__standby_start+0x2ce888>
      58:	0013010b 	andseq	r0, r3, fp, lsl #2
      5c:	000d0800 	andeq	r0, sp, r0, lsl #16
      60:	0b3a0e03 	bleq	e83874 <__standby_start+0xe83874>
      64:	13490b3b 	movtne	r0, #39739	; 0x9b3b
      68:	00000a38 	andeq	r0, r0, r8, lsr sl
      6c:	03000d09 	movweq	r0, #3337	; 0xd09
      70:	3b0b3a08 	blcc	2ce898 <__standby_start+0x2ce898>
      74:	3813490b 	ldmdacc	r3, {r0, r1, r3, r8, fp, lr}
      78:	0a00000a 	beq	a8 <__standby_start+0xa8>
      7c:	13490101 	movtne	r0, #37121	; 0x9101
      80:	00001301 	andeq	r1, r0, r1, lsl #6
      84:	4900210b 	stmdbmi	r0, {r0, r1, r3, r8, sp}
      88:	000b2f13 	andeq	r2, fp, r3, lsl pc
      8c:	000f0c00 	andeq	r0, pc, r0, lsl #24
      90:	13490b0b 	movtne	r0, #39691	; 0x9b0b
      94:	130d0000 	movwne	r0, #53248	; 0xd000
      98:	0b0e0301 	bleq	380ca4 <__standby_start+0x380ca4>
      9c:	3b0b3a05 	blcc	2ce8b8 <__standby_start+0x2ce8b8>
      a0:	0013010b 	andseq	r0, r3, fp, lsl #2
      a4:	000d0e00 	andeq	r0, sp, r0, lsl #28
      a8:	0b3a0e03 	bleq	e838bc <__standby_start+0xe838bc>
      ac:	1349053b 	movtne	r0, #38203	; 0x953b
      b0:	00000a38 	andeq	r0, r0, r8, lsr sl
      b4:	0300160f 	movweq	r1, #1551	; 0x60f
      b8:	3b0b3a0e 	blcc	2ce8f8 <__standby_start+0x2ce8f8>
      bc:	00134905 	andseq	r4, r3, r5, lsl #18
      c0:	01131000 	tsteq	r3, r0
      c4:	050b0e03 	streq	r0, [fp, #-3587]	; 0xe03
      c8:	053b0b3a 	ldreq	r0, [fp, #-2874]!	; 0xb3a
      cc:	00001301 	andeq	r1, r0, r1, lsl #6
      d0:	03000d11 	movweq	r0, #3345	; 0xd11
      d4:	3b0b3a08 	blcc	2ce8fc <__standby_start+0x2ce8fc>
      d8:	38134905 	ldmdacc	r3, {r0, r2, r8, fp, lr}
      dc:	1200000a 	andne	r0, r0, #10
      e0:	0e030113 	mcreq	1, 0, r0, cr3, cr3, {0}
      e4:	0b3a0b0b 	bleq	e82d18 <__standby_start+0xe82d18>
      e8:	1301053b 	movwne	r0, #5435	; 0x153b
      ec:	04130000 	ldreq	r0, [r3], #-0
      f0:	3a0b0b01 	bcc	2c2cfc <__standby_start+0x2c2cfc>
      f4:	010b3b0b 	tsteq	fp, fp, lsl #22
      f8:	14000013 	strne	r0, [r0], #-19
      fc:	0e03002e 	cdpeq	0, 0, cr0, cr3, cr14, {1}
     100:	053b0b3a 	ldreq	r0, [fp, #-2874]!	; 0xb3a
     104:	0b200c27 	bleq	8031a8 <__standby_start+0x8031a8>
     108:	2e150000 	cdpcs	0, 1, cr0, cr5, cr0, {0}
     10c:	3a0e0301 	bcc	380d18 <__standby_start+0x380d18>
     110:	27053b0b 	strcs	r3, [r5, -fp, lsl #22]
     114:	010b200c 	tsteq	fp, ip
     118:	16000013 			; <UNDEFINED> instruction: 0x16000013
     11c:	0c3f012e 	ldfeqs	f0, [pc], #-184	; 6c <__standby_start+0x6c>
     120:	0b3a0e03 	bleq	e83934 <__standby_start+0xe83934>
     124:	1349053b 	movtne	r0, #38203	; 0x953b
     128:	00000c3c 	andeq	r0, r0, ip, lsr ip
     12c:	00001817 	andeq	r1, r0, r7, lsl r8
     130:	012e1800 	teqeq	lr, r0, lsl #16
     134:	0e030c3f 	mcreq	12, 0, r0, cr3, cr15, {1}
     138:	0b3b0b3a 	bleq	ec2e28 <__standby_start+0xec2e28>
     13c:	13490c27 	movtne	r0, #39975	; 0x9c27
     140:	01120111 	tsteq	r2, r1, lsl r1
     144:	13010640 	movwne	r0, #5696	; 0x1640
     148:	05190000 	ldreq	r0, [r9, #-0]
     14c:	3a080300 	bcc	200d54 <__standby_start+0x200d54>
     150:	490b3b0b 	stmdbmi	fp, {r0, r1, r3, r8, r9, fp, ip, sp}
     154:	00060213 	andeq	r0, r6, r3, lsl r2
     158:	00341a00 	eorseq	r1, r4, r0, lsl #20
     15c:	0b3a0e03 	bleq	e83970 <__standby_start+0xe83970>
     160:	13490b3b 	movtne	r0, #39739	; 0x9b3b
     164:	00000602 	andeq	r0, r0, r2, lsl #12
     168:	31011d1b 	tstcc	r1, fp, lsl sp
     16c:	55015213 	strpl	r5, [r1, #-531]	; 0x213
     170:	590b5806 	stmdbpl	fp, {r1, r2, fp, ip, lr}
     174:	0013010b 	andseq	r0, r3, fp, lsl #2
     178:	011d1c00 	tsteq	sp, r0, lsl #24
     17c:	01521331 	cmpeq	r2, r1, lsr r3
     180:	0b580655 	bleq	1601adc <__standby_start+0x1601adc>
     184:	00000559 	andeq	r0, r0, r9, asr r5
     188:	31011d1d 	tstcc	r1, sp, lsl sp
     18c:	55015213 	strpl	r5, [r1, #-531]	; 0x213
     190:	590b5806 	stmdbpl	fp, {r1, r2, fp, ip, lr}
     194:	00130105 	andseq	r0, r3, r5, lsl #2
     198:	000b1e00 	andeq	r1, fp, r0, lsl #28
     19c:	00000655 	andeq	r0, r0, r5, asr r6
     1a0:	31001d1f 	tstcc	r0, pc, lsl sp
     1a4:	55015213 	strpl	r5, [r1, #-531]	; 0x213
     1a8:	590b5806 	stmdbpl	fp, {r1, r2, fp, ip, lr}
     1ac:	20000005 	andcs	r0, r0, r5
     1b0:	1331001d 	teqne	r1, #29
     1b4:	01120111 	tsteq	r2, r1, lsl r1
     1b8:	05590b58 	ldrbeq	r0, [r9, #-2904]	; 0xb58
     1bc:	1d210000 	stcne	0, cr0, [r1, #-0]
     1c0:	11133100 	tstne	r3, r0, lsl #2
     1c4:	58011201 	stmdapl	r1, {r0, r9, ip}
     1c8:	000b590b 	andeq	r5, fp, fp, lsl #18
     1cc:	00342200 	eorseq	r2, r4, r0, lsl #4
     1d0:	0b3a0e03 	bleq	e839e4 <__standby_start+0xe839e4>
     1d4:	13490b3b 	movtne	r0, #39739	; 0x9b3b
     1d8:	00000a02 	andeq	r0, r0, r2, lsl #20
     1dc:	03003423 	movweq	r3, #1059	; 0x423
     1e0:	3b0b3a0e 	blcc	2cea20 <__standby_start+0x2cea20>
     1e4:	1c13490b 	ldcne	9, cr4, [r3], {11}
     1e8:	2400000b 	strcs	r0, [r0], #-11
     1ec:	13490021 	movtne	r0, #36897	; 0x9021
     1f0:	0000052f 	andeq	r0, r0, pc, lsr #10
     1f4:	03003425 	movweq	r3, #1061	; 0x425
     1f8:	3b0b3a0e 	blcc	2cea38 <__standby_start+0x2cea38>
     1fc:	0013490b 	andseq	r4, r3, fp, lsl #18
     200:	00342600 	eorseq	r2, r4, r0, lsl #12
     204:	0b3a0e03 	bleq	e83a18 <__standby_start+0xe83a18>
     208:	13490b3b 	movtne	r0, #39739	; 0x9b3b
     20c:	0a020c3f 	beq	83310 <__standby_start+0x83310>
     210:	34270000 	strtcc	r0, [r7], #-0
     214:	3a0e0300 	bcc	380e1c <__standby_start+0x380e1c>
     218:	490b3b0b 	stmdbmi	fp, {r0, r1, r3, r8, r9, fp, ip, sp}
     21c:	3c0c3f13 	stccc	15, cr3, [ip], {19}
     220:	0000000c 	andeq	r0, r0, ip
     224:	25011101 	strcs	r1, [r1, #-257]	; 0x101
     228:	030b130e 	movweq	r1, #45838	; 0xb30e
     22c:	110e1b0e 	tstne	lr, lr, lsl #22
     230:	10011201 	andne	r1, r1, r1, lsl #4
     234:	02000006 	andeq	r0, r0, #6
     238:	0b0b0024 	bleq	2c02d0 <__standby_start+0x2c02d0>
     23c:	0e030b3e 	vmoveq.16	d3[0], r0
     240:	24030000 	strcs	r0, [r3], #-0
     244:	3e0b0b00 	vmlacc.f64	d0, d11, d0
     248:	0008030b 	andeq	r0, r8, fp, lsl #6
     24c:	000f0400 	andeq	r0, pc, r0, lsl #8
     250:	00000b0b 	andeq	r0, r0, fp, lsl #22
     254:	3f012e05 	svccc	0x00012e05
     258:	3a0e030c 	bcc	380e90 <__standby_start+0x380e90>
     25c:	270b3b0b 	strcs	r3, [fp, -fp, lsl #22]
     260:	1201110c 	andne	r1, r1, #3
     264:	010a4001 	tsteq	sl, r1
     268:	06000013 			; <UNDEFINED> instruction: 0x06000013
     26c:	0e030005 	cdpeq	0, 0, cr0, cr3, cr5, {0}
     270:	0b3b0b3a 	bleq	ec2f60 <__standby_start+0xec2f60>
     274:	06021349 	streq	r1, [r2], -r9, asr #6
     278:	05070000 	streq	r0, [r7, #-0]
     27c:	3a080300 	bcc	200e84 <__standby_start+0x200e84>
     280:	490b3b0b 	stmdbmi	fp, {r0, r1, r3, r8, r9, fp, ip, sp}
     284:	00060213 	andeq	r0, r6, r3, lsl r2
     288:	00340800 	eorseq	r0, r4, r0, lsl #16
     28c:	0b3a0e03 	bleq	e83aa0 <__standby_start+0xe83aa0>
     290:	13490b3b 	movtne	r0, #39739	; 0x9b3b
     294:	00000602 	andeq	r0, r0, r2, lsl #12
     298:	03003409 	movweq	r3, #1033	; 0x409
     29c:	3b0b3a0e 	blcc	2ceadc <__standby_start+0x2ceadc>
     2a0:	0213490b 	andseq	r4, r3, #180224	; 0x2c000
     2a4:	0a00000a 	beq	2d4 <__standby_start+0x2d4>
     2a8:	0b0b000f 	bleq	2c02ec <__standby_start+0x2c02ec>
     2ac:	00001349 	andeq	r1, r0, r9, asr #6
     2b0:	01110100 	tsteq	r1, r0, lsl #2
     2b4:	0b130e25 	bleq	4c3b50 <__standby_start+0x4c3b50>
     2b8:	0e1b0e03 	cdpeq	14, 1, cr0, cr11, cr3, {0}
     2bc:	01120111 	tsteq	r2, r1, lsl r1
     2c0:	00000610 	andeq	r0, r0, r0, lsl r6
     2c4:	0b002402 	bleq	92d4 <__standby_start+0x92d4>
     2c8:	030b3e0b 	movweq	r3, #48651	; 0xbe0b
     2cc:	0300000e 	movweq	r0, #14
     2d0:	0e030016 	mcreq	0, 0, r0, cr3, cr6, {0}
     2d4:	0b3b0b3a 	bleq	ec2fc4 <__standby_start+0xec2fc4>
     2d8:	00001349 	andeq	r1, r0, r9, asr #6
     2dc:	0b002404 	bleq	92f4 <__standby_start+0x92f4>
     2e0:	030b3e0b 	movweq	r3, #48651	; 0xbe0b
     2e4:	05000008 	streq	r0, [r0, #-8]
     2e8:	0b0b0113 	bleq	2c073c <__standby_start+0x2c073c>
     2ec:	0b3b0b3a 	bleq	ec2fdc <__standby_start+0xec2fdc>
     2f0:	00001301 	andeq	r1, r0, r1, lsl #6
     2f4:	03000d06 	movweq	r0, #3334	; 0xd06
     2f8:	3b0b3a0e 	blcc	2ceb38 <__standby_start+0x2ceb38>
     2fc:	0b13490b 	bleq	4d2730 <__standby_start+0x4d2730>
     300:	0c0b0d0b 	stceq	13, cr0, [fp], {11}
     304:	000a380b 	andeq	r3, sl, fp, lsl #16
     308:	01170700 	tsteq	r7, r0, lsl #14
     30c:	0b3a0b0b 	bleq	e82f40 <__standby_start+0xe82f40>
     310:	13010b3b 	movwne	r0, #6971	; 0x1b3b
     314:	0d080000 	stceq	0, cr0, [r8, #-0]
     318:	3a0e0300 	bcc	380f20 <__standby_start+0x380f20>
     31c:	490b3b0b 	stmdbmi	fp, {r0, r1, r3, r8, r9, fp, ip, sp}
     320:	09000013 	stmdbeq	r0, {r0, r1, r4}
     324:	0e030113 	mcreq	1, 0, r0, cr3, cr3, {0}
     328:	0b3a0b0b 	bleq	e82f5c <__standby_start+0xe82f5c>
     32c:	13010b3b 	movwne	r0, #6971	; 0x1b3b
     330:	130a0000 	movwne	r0, #40960	; 0xa000
     334:	0b0e0301 	bleq	380f40 <__standby_start+0x380f40>
     338:	3b0b3a05 	blcc	2ceb54 <__standby_start+0x2ceb54>
     33c:	0013010b 	andseq	r0, r3, fp, lsl #2
     340:	000d0b00 	andeq	r0, sp, r0, lsl #22
     344:	0b3a0e03 	bleq	e83b58 <__standby_start+0xe83b58>
     348:	13490b3b 	movtne	r0, #39739	; 0x9b3b
     34c:	00000a38 	andeq	r0, r0, r8, lsr sl
     350:	03000d0c 	movweq	r0, #3340	; 0xd0c
     354:	3b0b3a08 	blcc	2ceb7c <__standby_start+0x2ceb7c>
     358:	3813490b 	ldmdacc	r3, {r0, r1, r3, r8, fp, lr}
     35c:	0d00000a 	stceq	0, cr0, [r0, #-40]	; 0xffffffd8
     360:	13490035 	movtne	r0, #36917	; 0x9035
     364:	010e0000 	mrseq	r0, (UNDEF: 14)
     368:	01134901 	tsteq	r3, r1, lsl #18
     36c:	0f000013 	svceq	0x00000013
     370:	13490021 	movtne	r0, #36897	; 0x9021
     374:	00000b2f 	andeq	r0, r0, pc, lsr #22
     378:	0b000f10 	bleq	3fc0 <__standby_start+0x3fc0>
     37c:	0013490b 	andseq	r4, r3, fp, lsl #18
     380:	01041100 	mrseq	r1, (UNDEF: 20)
     384:	0b0b0e03 	bleq	2c3b98 <__standby_start+0x2c3b98>
     388:	0b3b0b3a 	bleq	ec3078 <__standby_start+0xec3078>
     38c:	00001301 	andeq	r1, r0, r1, lsl #6
     390:	03002812 	movweq	r2, #2066	; 0x812
     394:	000d1c0e 	andeq	r1, sp, lr, lsl #24
     398:	000f1300 	andeq	r1, pc, r0, lsl #6
     39c:	00000b0b 	andeq	r0, r0, fp, lsl #22
     3a0:	03012e14 	movweq	r2, #7700	; 0x1e14
     3a4:	3b0b3a0e 	blcc	2cebe4 <__standby_start+0x2cebe4>
     3a8:	200c2705 	andcs	r2, ip, r5, lsl #14
     3ac:	0013010b 	andseq	r0, r3, fp, lsl #2
     3b0:	00341500 	eorseq	r1, r4, r0, lsl #10
     3b4:	0b3a0803 	bleq	e823c8 <__standby_start+0xe823c8>
     3b8:	1349053b 	movtne	r0, #38203	; 0x953b
     3bc:	2e160000 	cdpcs	0, 1, cr0, cr6, cr0, {0}
     3c0:	030c3f00 	movweq	r3, #52992	; 0xcf00
     3c4:	3b0b3a0e 	blcc	2cec04 <__standby_start+0x2cec04>
     3c8:	490c2705 	stmdbmi	ip, {r0, r2, r8, r9, sl, sp}
     3cc:	12011113 	andne	r1, r1, #-1073741820	; 0xc0000004
     3d0:	000a4001 	andeq	r4, sl, r1
     3d4:	012e1700 	teqeq	lr, r0, lsl #14
     3d8:	0e030c3f 	mcreq	12, 0, r0, cr3, cr15, {1}
     3dc:	053b0b3a 	ldreq	r0, [fp, #-2874]!	; 0xb3a
     3e0:	13490c27 	movtne	r0, #39975	; 0x9c27
     3e4:	01120111 	tsteq	r2, r1, lsl r1
     3e8:	13010a40 	movwne	r0, #6720	; 0x1a40
     3ec:	1d180000 	ldcne	0, cr0, [r8, #-0]
     3f0:	11133101 	tstne	r3, r1, lsl #2
     3f4:	58011201 	stmdapl	r1, {r0, r9, ip}
     3f8:	0005590b 	andeq	r5, r5, fp, lsl #18
     3fc:	010b1900 	tsteq	fp, r0, lsl #18
     400:	01120111 	tsteq	r2, r1, lsl r1
     404:	341a0000 	ldrcc	r0, [sl], #-0
     408:	02133100 	andseq	r3, r3, #0
     40c:	1b000006 	blne	42c <__standby_start+0x42c>
     410:	0c3f002e 	ldceq	0, cr0, [pc], #-184	; 360 <__standby_start+0x360>
     414:	0b3a0e03 	bleq	e83c28 <__standby_start+0xe83c28>
     418:	0c27053b 	cfstr32eq	mvfx0, [r7], #-236	; 0xffffff14
     41c:	01120111 	tsteq	r2, r1, lsl r1
     420:	00000a40 	andeq	r0, r0, r0, asr #20
     424:	0300341c 	movweq	r3, #1052	; 0x41c
     428:	3b0b3a0e 	blcc	2cec68 <__standby_start+0x2cec68>
     42c:	0213490b 	andseq	r4, r3, #180224	; 0x2c000
     430:	0000000a 	andeq	r0, r0, sl
     434:	25011101 	strcs	r1, [r1, #-257]	; 0x101
     438:	030b130e 	movweq	r1, #45838	; 0xb30e
     43c:	110e1b0e 	tstne	lr, lr, lsl #22
     440:	10011201 	andne	r1, r1, r1, lsl #4
     444:	02000006 	andeq	r0, r0, #6
     448:	0b0b0024 	bleq	2c04e0 <__standby_start+0x2c04e0>
     44c:	0e030b3e 	vmoveq.16	d3[0], r0
     450:	16030000 	strne	r0, [r3], -r0
     454:	3a0e0300 	bcc	38105c <__standby_start+0x38105c>
     458:	490b3b0b 	stmdbmi	fp, {r0, r1, r3, r8, r9, fp, ip, sp}
     45c:	04000013 	streq	r0, [r0], #-19
     460:	0b0b0024 	bleq	2c04f8 <__standby_start+0x2c04f8>
     464:	08030b3e 	stmdaeq	r3, {r1, r2, r3, r4, r5, r8, r9, fp}
     468:	2e050000 	cdpcs	0, 0, cr0, cr5, cr0, {0}
     46c:	030c3f00 	movweq	r3, #52992	; 0xcf00
     470:	3b0b3a0e 	blcc	2cecb0 <__standby_start+0x2cecb0>
     474:	490c270b 	stmdbmi	ip, {r0, r1, r3, r8, r9, sl, sp}
     478:	12011113 	andne	r1, r1, #-1073741820	; 0xc0000004
     47c:	000a4001 	andeq	r4, sl, r1
     480:	11010000 	mrsne	r0, (UNDEF: 1)
     484:	130e2501 	movwne	r2, #58625	; 0xe501
     488:	1b0e030b 	blne	3810bc <__standby_start+0x3810bc>
     48c:	1201110e 	andne	r1, r1, #-2147483645	; 0x80000003
     490:	00061001 	andeq	r1, r6, r1
     494:	00240200 	eoreq	r0, r4, r0, lsl #4
     498:	0b3e0b0b 	bleq	f830cc <__standby_start+0xf830cc>
     49c:	00000e03 	andeq	r0, r0, r3, lsl #28
     4a0:	03001603 	movweq	r1, #1539	; 0x603
     4a4:	3b0b3a0e 	blcc	2cece4 <__standby_start+0x2cece4>
     4a8:	0013490b 	andseq	r4, r3, fp, lsl #18
     4ac:	00240400 	eoreq	r0, r4, r0, lsl #8
     4b0:	0b3e0b0b 	bleq	f830e4 <__standby_start+0xf830e4>
     4b4:	00000803 	andeq	r0, r0, r3, lsl #16
     4b8:	49003505 	stmdbmi	r0, {r0, r2, r8, sl, ip, sp}
     4bc:	06000013 			; <UNDEFINED> instruction: 0x06000013
     4c0:	0e030104 	adfeqs	f0, f3, f4
     4c4:	0b3a0b0b 	bleq	e830f8 <__standby_start+0xe830f8>
     4c8:	13010b3b 	movwne	r0, #6971	; 0x1b3b
     4cc:	28070000 	stmdacs	r7, {}	; <UNPREDICTABLE>
     4d0:	1c0e0300 	stcne	3, cr0, [lr], {-0}
     4d4:	0800000d 	stmdaeq	r0, {r0, r2, r3}
     4d8:	0e030113 	mcreq	1, 0, r0, cr3, cr3, {0}
     4dc:	0b3a0b0b 	bleq	e83110 <__standby_start+0xe83110>
     4e0:	13010b3b 	movwne	r0, #6971	; 0x1b3b
     4e4:	0d090000 	stceq	0, cr0, [r9, #-0]
     4e8:	3a0e0300 	bcc	3810f0 <__standby_start+0x3810f0>
     4ec:	490b3b0b 	stmdbmi	fp, {r0, r1, r3, r8, r9, fp, ip, sp}
     4f0:	000a3813 	andeq	r3, sl, r3, lsl r8
     4f4:	002e0a00 	eoreq	r0, lr, r0, lsl #20
     4f8:	0e030c3f 	mcreq	12, 0, r0, cr3, cr15, {1}
     4fc:	0b3b0b3a 	bleq	ec31ec <__standby_start+0xec31ec>
     500:	13490c27 	movtne	r0, #39975	; 0x9c27
     504:	01120111 	tsteq	r2, r1, lsl r1
     508:	00000640 	andeq	r0, r0, r0, asr #12
     50c:	3f002e0b 	svccc	0x00002e0b
     510:	3a0e030c 	bcc	381148 <__standby_start+0x381148>
     514:	270b3b0b 	strcs	r3, [fp, -fp, lsl #22]
     518:	1113490c 	tstne	r3, ip, lsl #18
     51c:	40011201 	andmi	r1, r1, r1, lsl #4
     520:	0c00000a 	stceq	0, cr0, [r0], {10}
     524:	0e030034 	mcreq	0, 0, r0, cr3, cr4, {1}
     528:	0b3b0b3a 	bleq	ec3218 <__standby_start+0xec3218>
     52c:	0a021349 	beq	85258 <__standby_start+0x85258>
     530:	0f0d0000 	svceq	0x000d0000
     534:	490b0b00 	stmdbmi	fp, {r8, r9, fp}
     538:	0e000013 	mcreq	0, 0, r0, cr0, cr3, {0}
     53c:	0e030034 	mcreq	0, 0, r0, cr3, cr4, {1}
     540:	0b3b0b3a 	bleq	ec3230 <__standby_start+0xec3230>
     544:	00001349 	andeq	r1, r0, r9, asr #6
     548:	01110100 	tsteq	r1, r0, lsl #2
     54c:	0b130e25 	bleq	4c3de8 <__standby_start+0x4c3de8>
     550:	0e1b0e03 	cdpeq	14, 1, cr0, cr11, cr3, {0}
     554:	01120111 	tsteq	r2, r1, lsl r1
     558:	00000610 	andeq	r0, r0, r0, lsl r6
     55c:	0b002402 	bleq	956c <__standby_start+0x956c>
     560:	030b3e0b 	movweq	r3, #48651	; 0xbe0b
     564:	0300000e 	movweq	r0, #14
     568:	0e030016 	mcreq	0, 0, r0, cr3, cr6, {0}
     56c:	0b3b0b3a 	bleq	ec325c <__standby_start+0xec325c>
     570:	00001349 	andeq	r1, r0, r9, asr #6
     574:	0b002404 	bleq	958c <__standby_start+0x958c>
     578:	030b3e0b 	movweq	r3, #48651	; 0xbe0b
     57c:	05000008 	streq	r0, [r0, #-8]
     580:	0e030104 	adfeqs	f0, f3, f4
     584:	0b3a0b0b 	bleq	e831b8 <__standby_start+0xe831b8>
     588:	13010b3b 	movwne	r0, #6971	; 0x1b3b
     58c:	28060000 	stmdacs	r6, {}	; <UNPREDICTABLE>
     590:	1c0e0300 	stcne	3, cr0, [lr], {-0}
     594:	0700000d 	streq	r0, [r0, -sp]
     598:	0e030113 	mcreq	1, 0, r0, cr3, cr3, {0}
     59c:	0b3a0b0b 	bleq	e831d0 <__standby_start+0xe831d0>
     5a0:	13010b3b 	movwne	r0, #6971	; 0x1b3b
     5a4:	0d080000 	stceq	0, cr0, [r8, #-0]
     5a8:	3a080300 	bcc	2011b0 <__standby_start+0x2011b0>
     5ac:	490b3b0b 	stmdbmi	fp, {r0, r1, r3, r8, r9, fp, ip, sp}
     5b0:	000a3813 	andeq	r3, sl, r3, lsl r8
     5b4:	000d0900 	andeq	r0, sp, r0, lsl #18
     5b8:	0b3a0e03 	bleq	e83dcc <__standby_start+0xe83dcc>
     5bc:	13490b3b 	movtne	r0, #39739	; 0x9b3b
     5c0:	00000a38 	andeq	r0, r0, r8, lsr sl
     5c4:	03012e0a 	movweq	r2, #7690	; 0x1e0a
     5c8:	3b0b3a0e 	blcc	2cee08 <__standby_start+0x2cee08>
     5cc:	490c270b 	stmdbmi	ip, {r0, r1, r3, r8, r9, sl, sp}
     5d0:	010b2013 	tsteq	fp, r3, lsl r0
     5d4:	0b000013 	bleq	628 <__standby_start+0x628>
     5d8:	08030005 	stmdaeq	r3, {r0, r2}
     5dc:	0b3b0b3a 	bleq	ec32cc <__standby_start+0xec32cc>
     5e0:	00001349 	andeq	r1, r0, r9, asr #6
     5e4:	0300340c 	movweq	r3, #1036	; 0x40c
     5e8:	3b0b3a08 	blcc	2cee10 <__standby_start+0x2cee10>
     5ec:	0013490b 	andseq	r4, r3, fp, lsl #18
     5f0:	000f0d00 	andeq	r0, pc, r0, lsl #26
     5f4:	13490b0b 	movtne	r0, #39691	; 0x9b0b
     5f8:	050e0000 	streq	r0, [lr, #-0]
     5fc:	3a0e0300 	bcc	381204 <__standby_start+0x381204>
     600:	490b3b0b 	stmdbmi	fp, {r0, r1, r3, r8, r9, fp, ip, sp}
     604:	0f000013 	svceq	0x00000013
     608:	0c3f012e 	ldfeqs	f0, [pc], #-184	; 558 <__standby_start+0x558>
     60c:	0b3a0e03 	bleq	e83e20 <__standby_start+0xe83e20>
     610:	0c270b3b 	stceq	11, cr0, [r7], #-236	; 0xffffff14
     614:	01120111 	tsteq	r2, r1, lsl r1
     618:	13010640 	movwne	r0, #5696	; 0x1640
     61c:	05100000 	ldreq	r0, [r0, #-0]
     620:	3a0e0300 	bcc	381228 <__standby_start+0x381228>
     624:	490b3b0b 	stmdbmi	fp, {r0, r1, r3, r8, r9, fp, ip, sp}
     628:	00060213 	andeq	r0, r6, r3, lsl r2
     62c:	00341100 	eorseq	r1, r4, r0, lsl #2
     630:	0b3a0e03 	bleq	e83e44 <__standby_start+0xe83e44>
     634:	13490b3b 	movtne	r0, #39739	; 0x9b3b
     638:	00000602 	andeq	r0, r0, r2, lsl #12
     63c:	03003412 	movweq	r3, #1042	; 0x412
     640:	3b0b3a08 	blcc	2cee68 <__standby_start+0x2cee68>
     644:	0213490b 	andseq	r4, r3, #180224	; 0x2c000
     648:	13000006 	movwne	r0, #6
     64c:	1331011d 	teqne	r1, #1073741831	; 0x40000007
     650:	06550152 			; <UNDEFINED> instruction: 0x06550152
     654:	0b590b58 	bleq	16433bc <__standby_start+0x16433bc>
     658:	00001301 	andeq	r1, r0, r1, lsl #6
     65c:	31000514 	tstcc	r0, r4, lsl r5
     660:	00060213 	andeq	r0, r6, r3, lsl r2
     664:	010b1500 	tsteq	fp, r0, lsl #10
     668:	00000655 	andeq	r0, r0, r5, asr r6
     66c:	31003416 	tstcc	r0, r6, lsl r4
     670:	00060213 	andeq	r0, r6, r3, lsl r2
     674:	011d1700 	tsteq	sp, r0, lsl #14
     678:	01111331 	tsteq	r1, r1, lsr r3
     67c:	0b580112 	bleq	1600acc <__standby_start+0x1600acc>
     680:	00000b59 	andeq	r0, r0, r9, asr fp
     684:	31000518 	tstcc	r0, r8, lsl r5
     688:	000a0213 	andeq	r0, sl, r3, lsl r2
     68c:	012e1900 	teqeq	lr, r0, lsl #18
     690:	0e030c3f 	mcreq	12, 0, r0, cr3, cr15, {1}
     694:	0b3b0b3a 	bleq	ec3384 <__standby_start+0xec3384>
     698:	13490c27 	movtne	r0, #39975	; 0x9c27
     69c:	01120111 	tsteq	r2, r1, lsl r1
     6a0:	13010640 	movwne	r0, #5696	; 0x1640
     6a4:	341a0000 	ldrcc	r0, [sl], #-0
     6a8:	3a0e0300 	bcc	3812b0 <__standby_start+0x3812b0>
     6ac:	490b3b0b 	stmdbmi	fp, {r0, r1, r3, r8, r9, fp, ip, sp}
     6b0:	000a0213 	andeq	r0, sl, r3, lsl r2
     6b4:	011d1b00 	tsteq	sp, r0, lsl #22
     6b8:	01521331 	cmpeq	r2, r1, lsr r3
     6bc:	0b580655 	bleq	1602018 <__standby_start+0x1602018>
     6c0:	00000b59 	andeq	r0, r0, r9, asr fp
     6c4:	4901011c 	stmdbmi	r1, {r2, r3, r4, r8}
     6c8:	00130113 	andseq	r0, r3, r3, lsl r1
     6cc:	00211d00 	eoreq	r1, r1, r0, lsl #26
     6d0:	0b2f1349 	bleq	bc53fc <__standby_start+0xbc53fc>
     6d4:	261e0000 	ldrcs	r0, [lr], -r0
     6d8:	00134900 	andseq	r4, r3, r0, lsl #18
     6dc:	11010000 	mrsne	r0, (UNDEF: 1)
     6e0:	130e2501 	movwne	r2, #58625	; 0xe501
     6e4:	1b0e030b 	blne	381318 <__standby_start+0x381318>
     6e8:	1201110e 	andne	r1, r1, #-2147483645	; 0x80000003
     6ec:	00061001 	andeq	r1, r6, r1
     6f0:	00240200 	eoreq	r0, r4, r0, lsl #4
     6f4:	0b3e0b0b 	bleq	f83328 <__standby_start+0xf83328>
     6f8:	00000e03 	andeq	r0, r0, r3, lsl #28
     6fc:	03001603 	movweq	r1, #1539	; 0x603
     700:	3b0b3a0e 	blcc	2cef40 <__standby_start+0x2cef40>
     704:	0013490b 	andseq	r4, r3, fp, lsl #18
     708:	00240400 	eoreq	r0, r4, r0, lsl #8
     70c:	0b3e0b0b 	bleq	f83340 <__standby_start+0xf83340>
     710:	00000803 	andeq	r0, r0, r3, lsl #16
     714:	03010405 	movweq	r0, #5125	; 0x1405
     718:	3a0b0b0e 	bcc	2c3358 <__standby_start+0x2c3358>
     71c:	010b3b0b 	tsteq	fp, fp, lsl #22
     720:	06000013 			; <UNDEFINED> instruction: 0x06000013
     724:	0e030028 	cdpeq	0, 0, cr0, cr3, cr8, {1}
     728:	00000d1c 	andeq	r0, r0, ip, lsl sp
     72c:	03011307 	movweq	r1, #4871	; 0x1307
     730:	3a0b0b0e 	bcc	2c3370 <__standby_start+0x2c3370>
     734:	010b3b0b 	tsteq	fp, fp, lsl #22
     738:	08000013 	stmdaeq	r0, {r0, r1, r4}
     73c:	0e03000d 	cdpeq	0, 0, cr0, cr3, cr13, {0}
     740:	0b3b0b3a 	bleq	ec3430 <__standby_start+0xec3430>
     744:	0a381349 	beq	e05470 <__standby_start+0xe05470>
     748:	35090000 	strcc	r0, [r9, #-0]
     74c:	00134900 	andseq	r4, r3, r0, lsl #18
     750:	012e0a00 	teqeq	lr, r0, lsl #20
     754:	0b3a0e03 	bleq	e83f68 <__standby_start+0xe83f68>
     758:	0c270b3b 	stceq	11, cr0, [r7], #-236	; 0xffffff14
     75c:	0b201349 	bleq	805488 <__standby_start+0x805488>
     760:	00001301 	andeq	r1, r0, r1, lsl #6
     764:	0300340b 	movweq	r3, #1035	; 0x40b
     768:	3b0b3a0e 	blcc	2cefa8 <__standby_start+0x2cefa8>
     76c:	0013490b 	andseq	r4, r3, fp, lsl #18
     770:	012e0c00 	teqeq	lr, r0, lsl #24
     774:	0e030c3f 	mcreq	12, 0, r0, cr3, cr15, {1}
     778:	0b3b0b3a 	bleq	ec3468 <__standby_start+0xec3468>
     77c:	13490c27 	movtne	r0, #39975	; 0x9c27
     780:	01120111 	tsteq	r2, r1, lsl r1
     784:	13010a40 	movwne	r0, #6720	; 0x1a40
     788:	050d0000 	streq	r0, [sp, #-0]
     78c:	3a0e0300 	bcc	381394 <__standby_start+0x381394>
     790:	490b3b0b 	stmdbmi	fp, {r0, r1, r3, r8, r9, fp, ip, sp}
     794:	00060213 	andeq	r0, r6, r3, lsl r2
     798:	002e0e00 	eoreq	r0, lr, r0, lsl #28
     79c:	0e030c3f 	mcreq	12, 0, r0, cr3, cr15, {1}
     7a0:	0b3b0b3a 	bleq	ec3490 <__standby_start+0xec3490>
     7a4:	13490c27 	movtne	r0, #39975	; 0x9c27
     7a8:	01120111 	tsteq	r2, r1, lsl r1
     7ac:	00000640 	andeq	r0, r0, r0, asr #12
     7b0:	3f012e0f 	svccc	0x00012e0f
     7b4:	3a0e030c 	bcc	3813ec <__standby_start+0x3813ec>
     7b8:	270b3b0b 	strcs	r3, [fp, -fp, lsl #22]
     7bc:	1113490c 	tstne	r3, ip, lsl #18
     7c0:	40011201 	andmi	r1, r1, r1, lsl #4
     7c4:	00130106 	andseq	r0, r3, r6, lsl #2
     7c8:	00051000 	andeq	r1, r5, r0
     7cc:	0b3a0803 	bleq	e827e0 <__standby_start+0xe827e0>
     7d0:	13490b3b 	movtne	r0, #39739	; 0x9b3b
     7d4:	00000602 	andeq	r0, r0, r2, lsl #12
     7d8:	03003411 	movweq	r3, #1041	; 0x411
     7dc:	3b0b3a0e 	blcc	2cf01c <__standby_start+0x2cf01c>
     7e0:	0213490b 	andseq	r4, r3, #180224	; 0x2c000
     7e4:	12000006 	andne	r0, r0, #6
     7e8:	08030034 	stmdaeq	r3, {r2, r4, r5}
     7ec:	0b3b0b3a 	bleq	ec34dc <__standby_start+0xec34dc>
     7f0:	06021349 	streq	r1, [r2], -r9, asr #6
     7f4:	0a130000 	beq	4c07fc <__standby_start+0x4c07fc>
     7f8:	3a0e0300 	bcc	381400 <__standby_start+0x381400>
     7fc:	11053b0b 	tstne	r5, fp, lsl #22
     800:	14000001 	strne	r0, [r0], #-1
     804:	1331011d 	teqne	r1, #1073741831	; 0x40000007
     808:	06550152 			; <UNDEFINED> instruction: 0x06550152
     80c:	05590b58 	ldrbeq	r0, [r9, #-2904]	; 0xb58
     810:	0b150000 	bleq	540818 <__standby_start+0x540818>
     814:	00065501 	andeq	r5, r6, r1, lsl #10
     818:	00341600 	eorseq	r1, r4, r0, lsl #12
     81c:	0a021331 	beq	854e8 <__standby_start+0x854e8>
     820:	34170000 	ldrcc	r0, [r7], #-0
     824:	02133100 	andseq	r3, r3, #0
     828:	18000006 	stmdane	r0, {r1, r2}
     82c:	0b0b000f 	bleq	2c0870 <__standby_start+0x2c0870>
     830:	00001349 	andeq	r1, r0, r9, asr #6
     834:	49010119 	stmdbmi	r1, {r0, r3, r4, r8}
     838:	00130113 	andseq	r0, r3, r3, lsl r1
     83c:	00211a00 	eoreq	r1, r1, r0, lsl #20
     840:	0b2f1349 	bleq	bc556c <__standby_start+0xbc556c>
     844:	341b0000 	ldrcc	r0, [fp], #-0
     848:	3a0e0300 	bcc	381450 <__standby_start+0x381450>
     84c:	490b3b0b 	stmdbmi	fp, {r0, r1, r3, r8, r9, fp, ip, sp}
     850:	000a0213 	andeq	r0, sl, r3, lsl r2
     854:	00261c00 	eoreq	r1, r6, r0, lsl #24
     858:	00001349 	andeq	r1, r0, r9, asr #6
     85c:	01110100 	tsteq	r1, r0, lsl #2
     860:	0b130e25 	bleq	4c40fc <__standby_start+0x4c40fc>
     864:	0e1b0e03 	cdpeq	14, 1, cr0, cr11, cr3, {0}
     868:	01120111 	tsteq	r2, r1, lsl r1
     86c:	00000610 	andeq	r0, r0, r0, lsl r6
     870:	0b002402 	bleq	9880 <__standby_start+0x9880>
     874:	030b3e0b 	movweq	r3, #48651	; 0xbe0b
     878:	0300000e 	movweq	r0, #14
     87c:	0e030016 	mcreq	0, 0, r0, cr3, cr6, {0}
     880:	0b3b0b3a 	bleq	ec3570 <__standby_start+0xec3570>
     884:	00001349 	andeq	r1, r0, r9, asr #6
     888:	0b002404 	bleq	98a0 <__standby_start+0x98a0>
     88c:	030b3e0b 	movweq	r3, #48651	; 0xbe0b
     890:	05000008 	streq	r0, [r0, #-8]
     894:	0c3f002e 	ldceq	0, cr0, [pc], #-184	; 7e4 <__standby_start+0x7e4>
     898:	0b3a0e03 	bleq	e840ac <__standby_start+0xe840ac>
     89c:	0c270b3b 	stceq	11, cr0, [r7], #-236	; 0xffffff14
     8a0:	01111349 	tsteq	r1, r9, asr #6
     8a4:	0a400112 	beq	1000cf4 <__standby_start+0x1000cf4>
     8a8:	2e060000 	cdpcs	0, 0, cr0, cr6, cr0, {0}
     8ac:	030c3f01 	movweq	r3, #52993	; 0xcf01
     8b0:	3b0b3a0e 	blcc	2cf0f0 <__standby_start+0x2cf0f0>
     8b4:	490c270b 	stmdbmi	ip, {r0, r1, r3, r8, r9, sl, sp}
     8b8:	12011113 	andne	r1, r1, #-1073741820	; 0xc0000004
     8bc:	010a4001 	tsteq	sl, r1
     8c0:	07000013 	smladeq	r0, r3, r0, r0
     8c4:	0e030005 	cdpeq	0, 0, cr0, cr3, cr5, {0}
     8c8:	0b3b0b3a 	bleq	ec35b8 <__standby_start+0xec35b8>
     8cc:	06021349 	streq	r1, [r2], -r9, asr #6
     8d0:	01000000 	mrseq	r0, (UNDEF: 0)
     8d4:	0e250111 	mcreq	1, 1, r0, cr5, cr1, {0}
     8d8:	0e030b13 	vmoveq.32	d3[0], r0
     8dc:	01110e1b 	tsteq	r1, fp, lsl lr
     8e0:	06100112 			; <UNDEFINED> instruction: 0x06100112
     8e4:	24020000 	strcs	r0, [r2], #-0
     8e8:	3e0b0b00 	vmlacc.f64	d0, d11, d0
     8ec:	000e030b 	andeq	r0, lr, fp, lsl #6
     8f0:	00240300 	eoreq	r0, r4, r0, lsl #6
     8f4:	0b3e0b0b 	bleq	f83528 <__standby_start+0xf83528>
     8f8:	00000803 	andeq	r0, r0, r3, lsl #16
     8fc:	03001604 	movweq	r1, #1540	; 0x604
     900:	3b0b3a0e 	blcc	2cf140 <__standby_start+0x2cf140>
     904:	0013490b 	andseq	r4, r3, fp, lsl #18
     908:	01130500 	tsteq	r3, r0, lsl #10
     90c:	0b0b0e03 	bleq	2c4120 <__standby_start+0x2c4120>
     910:	0b3b0b3a 	bleq	ec3600 <__standby_start+0xec3600>
     914:	00001301 	andeq	r1, r0, r1, lsl #6
     918:	03000d06 	movweq	r0, #3334	; 0xd06
     91c:	3b0b3a0e 	blcc	2cf15c <__standby_start+0x2cf15c>
     920:	0b13490b 	bleq	4d2d54 <__standby_start+0x4d2d54>
     924:	0c0b0d0b 	stceq	13, cr0, [fp], {11}
     928:	000a380b 	andeq	r3, sl, fp, lsl #16
     92c:	01170700 	tsteq	r7, r0, lsl #14
     930:	0b3a0b0b 	bleq	e83564 <__standby_start+0xe83564>
     934:	13010b3b 	movwne	r0, #6971	; 0x1b3b
     938:	0d080000 	stceq	0, cr0, [r8, #-0]
     93c:	3a0e0300 	bcc	381544 <__standby_start+0x381544>
     940:	490b3b0b 	stmdbmi	fp, {r0, r1, r3, r8, r9, fp, ip, sp}
     944:	09000013 	stmdbeq	r0, {r0, r1, r4}
     948:	13490035 	movtne	r0, #36917	; 0x9035
     94c:	040a0000 	streq	r0, [sl], #-0
     950:	0b0e0301 	bleq	38155c <__standby_start+0x38155c>
     954:	3b0b3a0b 	blcc	2cf188 <__standby_start+0x2cf188>
     958:	0013010b 	andseq	r0, r3, fp, lsl #2
     95c:	00280b00 	eoreq	r0, r8, r0, lsl #22
     960:	0d1c0e03 	ldceq	14, cr0, [ip, #-12]
     964:	2e0c0000 	cdpcs	0, 0, cr0, cr12, cr0, {0}
     968:	030c3f01 	movweq	r3, #52993	; 0xcf01
     96c:	3b0b3a0e 	blcc	2cf1ac <__standby_start+0x2cf1ac>
     970:	110c270b 	tstne	ip, fp, lsl #14
     974:	40011201 	andmi	r1, r1, r1, lsl #4
     978:	00130106 	andseq	r0, r3, r6, lsl #2
     97c:	00340d00 	eorseq	r0, r4, r0, lsl #26
     980:	0b3a0e03 	bleq	e84194 <__standby_start+0xe84194>
     984:	13490b3b 	movtne	r0, #39739	; 0x9b3b
     988:	00000a02 	andeq	r0, r0, r2, lsl #20
     98c:	3f002e0e 	svccc	0x00002e0e
     990:	3a0e030c 	bcc	3815c8 <__standby_start+0x3815c8>
     994:	270b3b0b 	strcs	r3, [fp, -fp, lsl #22]
     998:	1201110c 	andne	r1, r1, #3
     99c:	000a4001 	andeq	r4, sl, r1
     9a0:	00340f00 	eorseq	r0, r4, r0, lsl #30
     9a4:	0b3a0803 	bleq	e829b8 <__standby_start+0xe829b8>
     9a8:	13490b3b 	movtne	r0, #39739	; 0x9b3b
     9ac:	00000602 	andeq	r0, r0, r2, lsl #12
     9b0:	03000510 	movweq	r0, #1296	; 0x510
     9b4:	3b0b3a08 	blcc	2cf1dc <__standby_start+0x2cf1dc>
     9b8:	0213490b 	andseq	r4, r3, #180224	; 0x2c000
     9bc:	11000006 	tstne	r0, r6
     9c0:	0c3f012e 	ldfeqs	f0, [pc], #-184	; 910 <__standby_start+0x910>
     9c4:	0b3a0e03 	bleq	e841d8 <__standby_start+0xe841d8>
     9c8:	0c270b3b 	stceq	11, cr0, [r7], #-236	; 0xffffff14
     9cc:	01111349 	tsteq	r1, r9, asr #6
     9d0:	06400112 			; <UNDEFINED> instruction: 0x06400112
     9d4:	00001301 	andeq	r1, r0, r1, lsl #6
     9d8:	3f012e12 	svccc	0x00012e12
     9dc:	3a0e030c 	bcc	381614 <__standby_start+0x381614>
     9e0:	270b3b0b 	strcs	r3, [fp, -fp, lsl #22]
     9e4:	1201110c 	andne	r1, r1, #3
     9e8:	010a4001 	tsteq	sl, r1
     9ec:	13000013 	movwne	r0, #19
     9f0:	0e030034 	mcreq	0, 0, r0, cr3, cr4, {1}
     9f4:	053b0b3a 	ldreq	r0, [fp, #-2874]!	; 0xb3a
     9f8:	0a021349 	beq	85724 <__standby_start+0x85724>
     9fc:	2e140000 	cdpcs	0, 1, cr0, cr4, cr0, {0}
     a00:	030c3f01 	movweq	r3, #52993	; 0xcf01
     a04:	3b0b3a0e 	blcc	2cf244 <__standby_start+0x2cf244>
     a08:	110c2705 	tstne	ip, r5, lsl #14
     a0c:	40011201 	andmi	r1, r1, r1, lsl #4
     a10:	0013010a 	andseq	r0, r3, sl, lsl #2
     a14:	012e1500 	teqeq	lr, r0, lsl #10
     a18:	0e030c3f 	mcreq	12, 0, r0, cr3, cr15, {1}
     a1c:	053b0b3a 	ldreq	r0, [fp, #-2874]!	; 0xb3a
     a20:	01110c27 	tsteq	r1, r7, lsr #24
     a24:	06400112 			; <UNDEFINED> instruction: 0x06400112
     a28:	00001301 	andeq	r1, r0, r1, lsl #6
     a2c:	03000516 	movweq	r0, #1302	; 0x516
     a30:	3b0b3a08 	blcc	2cf258 <__standby_start+0x2cf258>
     a34:	02134905 	andseq	r4, r3, #81920	; 0x14000
     a38:	17000006 	strne	r0, [r0, -r6]
     a3c:	0e030034 	mcreq	0, 0, r0, cr3, cr4, {1}
     a40:	053b0b3a 	ldreq	r0, [fp, #-2874]!	; 0xb3a
     a44:	06021349 	streq	r1, [r2], -r9, asr #6
     a48:	0f180000 	svceq	0x00180000
     a4c:	490b0b00 	stmdbmi	fp, {r8, r9, fp}
     a50:	19000013 	stmdbne	r0, {r0, r1, r4}
     a54:	0e030034 	mcreq	0, 0, r0, cr3, cr4, {1}
     a58:	0b3b0b3a 	bleq	ec3748 <__standby_start+0xec3748>
     a5c:	0c3f1349 	ldceq	3, cr1, [pc], #-292	; 940 <__standby_start+0x940>
     a60:	00000a02 	andeq	r0, r0, r2, lsl #20
     a64:	01110100 	tsteq	r1, r0, lsl #2
     a68:	0b130e25 	bleq	4c4304 <__standby_start+0x4c4304>
     a6c:	0e1b0e03 	cdpeq	14, 1, cr0, cr11, cr3, {0}
     a70:	01120111 	tsteq	r2, r1, lsl r1
     a74:	00000610 	andeq	r0, r0, r0, lsl r6
     a78:	0b002402 	bleq	9a88 <__standby_start+0x9a88>
     a7c:	030b3e0b 	movweq	r3, #48651	; 0xbe0b
     a80:	0300000e 	movweq	r0, #14
     a84:	0e030016 	mcreq	0, 0, r0, cr3, cr6, {0}
     a88:	0b3b0b3a 	bleq	ec3778 <__standby_start+0xec3778>
     a8c:	00001349 	andeq	r1, r0, r9, asr #6
     a90:	0b002404 	bleq	9aa8 <__standby_start+0x9aa8>
     a94:	030b3e0b 	movweq	r3, #48651	; 0xbe0b
     a98:	05000008 	streq	r0, [r0, #-8]
     a9c:	0e030104 	adfeqs	f0, f3, f4
     aa0:	0b3a0b0b 	bleq	e836d4 <__standby_start+0xe836d4>
     aa4:	13010b3b 	movwne	r0, #6971	; 0x1b3b
     aa8:	28060000 	stmdacs	r6, {}	; <UNPREDICTABLE>
     aac:	1c0e0300 	stcne	3, cr0, [lr], {-0}
     ab0:	0700000d 	streq	r0, [r0, -sp]
     ab4:	0c3f012e 	ldfeqs	f0, [pc], #-184	; a04 <__standby_start+0xa04>
     ab8:	0b3a0e03 	bleq	e842cc <__standby_start+0xe842cc>
     abc:	0c270b3b 	stceq	11, cr0, [r7], #-236	; 0xffffff14
     ac0:	0b201349 	bleq	8057ec <__standby_start+0x8057ec>
     ac4:	00001301 	andeq	r1, r0, r1, lsl #6
     ac8:	03003408 	movweq	r3, #1032	; 0x408
     acc:	3b0b3a0e 	blcc	2cf30c <__standby_start+0x2cf30c>
     ad0:	0013490b 	andseq	r4, r3, fp, lsl #18
     ad4:	012e0900 	teqeq	lr, r0, lsl #18
     ad8:	0e030c3f 	mcreq	12, 0, r0, cr3, cr15, {1}
     adc:	0b3b0b3a 	bleq	ec37cc <__standby_start+0xec37cc>
     ae0:	0b200c27 	bleq	803b84 <__standby_start+0x803b84>
     ae4:	00001301 	andeq	r1, r0, r1, lsl #6
     ae8:	0300050a 	movweq	r0, #1290	; 0x50a
     aec:	3b0b3a0e 	blcc	2cf32c <__standby_start+0x2cf32c>
     af0:	0013490b 	andseq	r4, r3, fp, lsl #18
     af4:	012e0b00 	teqeq	lr, r0, lsl #22
     af8:	0b3a0e03 	bleq	e8430c <__standby_start+0xe8430c>
     afc:	0c270b3b 	stceq	11, cr0, [r7], #-236	; 0xffffff14
     b00:	0b201349 	bleq	80582c <__standby_start+0x80582c>
     b04:	00001301 	andeq	r1, r0, r1, lsl #6
     b08:	31012e0c 	tstcc	r1, ip, lsl #28
     b0c:	12011113 	andne	r1, r1, #-1073741820	; 0xc0000004
     b10:	010a4001 	tsteq	sl, r1
     b14:	0d000013 	stceq	0, cr0, [r0, #-76]	; 0xffffffb4
     b18:	13310005 	teqne	r1, #5
     b1c:	00000602 	andeq	r0, r0, r2, lsl #12
     b20:	3100050e 	tstcc	r0, lr, lsl #10
     b24:	000a0213 	andeq	r0, sl, r3, lsl r2
     b28:	00340f00 	eorseq	r0, r4, r0, lsl #30
     b2c:	06021331 			; <UNDEFINED> instruction: 0x06021331
     b30:	2e100000 	cdpcs	0, 1, cr0, cr0, cr0, {0}
     b34:	030c3f00 	movweq	r3, #52992	; 0xcf00
     b38:	3b0b3a0e 	blcc	2cf378 <__standby_start+0x2cf378>
     b3c:	110c270b 	tstne	ip, fp, lsl #14
     b40:	40011201 	andmi	r1, r1, r1, lsl #4
     b44:	1100000a 	tstne	r0, sl
     b48:	13310034 	teqne	r1, #52	; 0x34
     b4c:	00000a02 	andeq	r0, r0, r2, lsl #20
     b50:	3f012e12 	svccc	0x00012e12
     b54:	3a0e030c 	bcc	38178c <__standby_start+0x38178c>
     b58:	270b3b0b 	strcs	r3, [fp, -fp, lsl #22]
     b5c:	1201110c 	andne	r1, r1, #3
     b60:	010a4001 	tsteq	sl, r1
     b64:	13000013 	movwne	r0, #19
     b68:	0e030034 	mcreq	0, 0, r0, cr3, cr4, {1}
     b6c:	0b3b0b3a 	bleq	ec385c <__standby_start+0xec385c>
     b70:	06021349 	streq	r1, [r2], -r9, asr #6
     b74:	2e140000 	cdpcs	0, 1, cr0, cr4, cr0, {0}
     b78:	030c3f01 	movweq	r3, #52993	; 0xcf01
     b7c:	3b0b3a0e 	blcc	2cf3bc <__standby_start+0x2cf3bc>
     b80:	110c270b 	tstne	ip, fp, lsl #14
     b84:	40011201 	andmi	r1, r1, r1, lsl #4
     b88:	00130106 	andseq	r0, r3, r6, lsl #2
     b8c:	00341500 	eorseq	r1, r4, r0, lsl #10
     b90:	0b3a0803 	bleq	e82ba4 <__standby_start+0xe82ba4>
     b94:	13490b3b 	movtne	r0, #39739	; 0x9b3b
     b98:	00000602 	andeq	r0, r0, r2, lsl #12
     b9c:	31011d16 	tstcc	r1, r6, lsl sp
     ba0:	12011113 	andne	r1, r1, #-1073741820	; 0xc0000004
     ba4:	590b5801 	stmdbpl	fp, {r0, fp, ip, lr}
     ba8:	0013010b 	andseq	r0, r3, fp, lsl #2
     bac:	010b1700 	tsteq	fp, r0, lsl #14
     bb0:	01120111 	tsteq	r2, r1, lsl r1
     bb4:	1d180000 	ldcne	0, cr0, [r8, #-0]
     bb8:	11133101 	tstne	r3, r1, lsl #2
     bbc:	58011201 	stmdapl	r1, {r0, r9, ip}
     bc0:	000b590b 	andeq	r5, fp, fp, lsl #18
     bc4:	00051900 	andeq	r1, r5, r0, lsl #18
     bc8:	0b3a0803 	bleq	e82bdc <__standby_start+0xe82bdc>
     bcc:	13490b3b 	movtne	r0, #39739	; 0x9b3b
     bd0:	00000602 	andeq	r0, r0, r2, lsl #12
     bd4:	03000a1a 	movweq	r0, #2586	; 0xa1a
     bd8:	3b0b3a08 	blcc	2cf400 <__standby_start+0x2cf400>
     bdc:	0001110b 	andeq	r1, r1, fp, lsl #2
     be0:	00051b00 	andeq	r1, r5, r0, lsl #22
     be4:	0b3a0e03 	bleq	e843f8 <__standby_start+0xe843f8>
     be8:	13490b3b 	movtne	r0, #39739	; 0x9b3b
     bec:	00000602 	andeq	r0, r0, r2, lsl #12
     bf0:	0300051c 	movweq	r0, #1308	; 0x51c
     bf4:	3b0b3a0e 	blcc	2cf434 <__standby_start+0x2cf434>
     bf8:	0213490b 	andseq	r4, r3, #180224	; 0x2c000
     bfc:	1d00000a 	stcne	0, cr0, [r0, #-40]	; 0xffffffd8
     c00:	0c3f012e 	ldfeqs	f0, [pc], #-184	; b50 <__standby_start+0xb50>
     c04:	0b3a0e03 	bleq	e84418 <__standby_start+0xe84418>
     c08:	0c27053b 	cfstr32eq	mvfx0, [r7], #-236	; 0xffffff14
     c0c:	01111349 	tsteq	r1, r9, asr #6
     c10:	0a400112 	beq	1001060 <__standby_start+0x1001060>
     c14:	00001301 	andeq	r1, r0, r1, lsl #6
     c18:	0300051e 	movweq	r0, #1310	; 0x51e
     c1c:	3b0b3a0e 	blcc	2cf45c <__standby_start+0x2cf45c>
     c20:	02134905 	andseq	r4, r3, #81920	; 0x14000
     c24:	1f000006 	svcne	0x00000006
     c28:	0e030034 	mcreq	0, 0, r0, cr3, cr4, {1}
     c2c:	053b0b3a 	ldreq	r0, [fp, #-2874]!	; 0xb3a
     c30:	06021349 	streq	r1, [r2], -r9, asr #6
     c34:	1d200000 	stcne	0, cr0, [r0, #-0]
     c38:	11133101 	tstne	r3, r1, lsl #2
     c3c:	58011201 	stmdapl	r1, {r0, r9, ip}
     c40:	0005590b 	andeq	r5, r5, fp, lsl #18
     c44:	00342100 	eorseq	r2, r4, r0, lsl #2
     c48:	0b3a0e03 	bleq	e8445c <__standby_start+0xe8445c>
     c4c:	13490b3b 	movtne	r0, #39739	; 0x9b3b
     c50:	00000a02 	andeq	r0, r0, r2, lsl #20
     c54:	01110100 	tsteq	r1, r0, lsl #2
     c58:	0b130e25 	bleq	4c44f4 <__standby_start+0x4c44f4>
     c5c:	0e1b0e03 	cdpeq	14, 1, cr0, cr11, cr3, {0}
     c60:	01120111 	tsteq	r2, r1, lsl r1
     c64:	00000610 	andeq	r0, r0, r0, lsl r6
     c68:	0b002402 	bleq	9c78 <__standby_start+0x9c78>
     c6c:	030b3e0b 	movweq	r3, #48651	; 0xbe0b
     c70:	0300000e 	movweq	r0, #14
     c74:	0b0b0024 	bleq	2c0d0c <__standby_start+0x2c0d0c>
     c78:	08030b3e 	stmdaeq	r3, {r1, r2, r3, r4, r5, r8, r9, fp}
     c7c:	16040000 	strne	r0, [r4], -r0
     c80:	3a0e0300 	bcc	381888 <__standby_start+0x381888>
     c84:	490b3b0b 	stmdbmi	fp, {r0, r1, r3, r8, r9, fp, ip, sp}
     c88:	05000013 	streq	r0, [r0, #-19]
     c8c:	0e030113 	mcreq	1, 0, r0, cr3, cr3, {0}
     c90:	0b3a0b0b 	bleq	e838c4 <__standby_start+0xe838c4>
     c94:	13010b3b 	movwne	r0, #6971	; 0x1b3b
     c98:	0d060000 	stceq	0, cr0, [r6, #-0]
     c9c:	3a0e0300 	bcc	3818a4 <__standby_start+0x3818a4>
     ca0:	490b3b0b 	stmdbmi	fp, {r0, r1, r3, r8, r9, fp, ip, sp}
     ca4:	000a3813 	andeq	r3, sl, r3, lsl r8
     ca8:	000d0700 	andeq	r0, sp, r0, lsl #14
     cac:	0b3a0803 	bleq	e82cc0 <__standby_start+0xe82cc0>
     cb0:	13490b3b 	movtne	r0, #39739	; 0x9b3b
     cb4:	00000a38 	andeq	r0, r0, r8, lsr sl
     cb8:	3f012e08 	svccc	0x00012e08
     cbc:	3a0e030c 	bcc	3818f4 <__standby_start+0x3818f4>
     cc0:	270b3b0b 	strcs	r3, [fp, -fp, lsl #22]
     cc4:	1201110c 	andne	r1, r1, #3
     cc8:	010a4001 	tsteq	sl, r1
     ccc:	09000013 	stmdbeq	r0, {r0, r1, r4}
     cd0:	0e030005 	cdpeq	0, 0, cr0, cr3, cr5, {0}
     cd4:	0b3b0b3a 	bleq	ec39c4 <__standby_start+0xec39c4>
     cd8:	0a021349 	beq	85a04 <__standby_start+0x85a04>
     cdc:	0f0a0000 	svceq	0x000a0000
     ce0:	490b0b00 	stmdbmi	fp, {r8, r9, fp}
     ce4:	0b000013 	bleq	d38 <__standby_start+0xd38>
     ce8:	0c3f012e 	ldfeqs	f0, [pc], #-184	; c38 <__standby_start+0xc38>
     cec:	0b3a0e03 	bleq	e84500 <__standby_start+0xe84500>
     cf0:	0c270b3b 	stceq	11, cr0, [r7], #-236	; 0xffffff14
     cf4:	01120111 	tsteq	r2, r1, lsl r1
     cf8:	00000a40 	andeq	r0, r0, r0, asr #20
     cfc:	00110100 	andseq	r0, r1, r0, lsl #2
     d00:	01110610 	tsteq	r1, r0, lsl r6
     d04:	08030112 	stmdaeq	r3, {r1, r4, r8}
     d08:	0825081b 	stmdaeq	r5!, {r0, r1, r3, r4, fp}
     d0c:	00000513 	andeq	r0, r0, r3, lsl r5
     d10:	01110100 	tsteq	r1, r0, lsl #2
     d14:	0b130e25 	bleq	4c45b0 <__standby_start+0x4c45b0>
     d18:	0e1b0e03 	cdpeq	14, 1, cr0, cr11, cr3, {0}
     d1c:	01120111 	tsteq	r2, r1, lsl r1
     d20:	00000610 	andeq	r0, r0, r0, lsl r6
     d24:	0b002402 	bleq	9d34 <__standby_start+0x9d34>
     d28:	030b3e0b 	movweq	r3, #48651	; 0xbe0b
     d2c:	0300000e 	movweq	r0, #14
     d30:	0e030016 	mcreq	0, 0, r0, cr3, cr6, {0}
     d34:	0b3b0b3a 	bleq	ec3a24 <__standby_start+0xec3a24>
     d38:	00001349 	andeq	r1, r0, r9, asr #6
     d3c:	0b002404 	bleq	9d54 <__standby_start+0x9d54>
     d40:	030b3e0b 	movweq	r3, #48651	; 0xbe0b
     d44:	05000008 	streq	r0, [r0, #-8]
     d48:	0b0b0113 	bleq	2c119c <__standby_start+0x2c119c>
     d4c:	0b3b0b3a 	bleq	ec3a3c <__standby_start+0xec3a3c>
     d50:	00001301 	andeq	r1, r0, r1, lsl #6
     d54:	03000d06 	movweq	r0, #3334	; 0xd06
     d58:	3b0b3a0e 	blcc	2cf598 <__standby_start+0x2cf598>
     d5c:	0b13490b 	bleq	4d3190 <__standby_start+0x4d3190>
     d60:	0c0b0d0b 	stceq	13, cr0, [fp], {11}
     d64:	000a380b 	andeq	r3, sl, fp, lsl #16
     d68:	01170700 	tsteq	r7, r0, lsl #14
     d6c:	0b3a0b0b 	bleq	e839a0 <__standby_start+0xe839a0>
     d70:	13010b3b 	movwne	r0, #6971	; 0x1b3b
     d74:	0d080000 	stceq	0, cr0, [r8, #-0]
     d78:	3a0e0300 	bcc	381980 <__standby_start+0x381980>
     d7c:	490b3b0b 	stmdbmi	fp, {r0, r1, r3, r8, r9, fp, ip, sp}
     d80:	09000013 	stmdbeq	r0, {r0, r1, r4}
     d84:	0e030113 	mcreq	1, 0, r0, cr3, cr3, {0}
     d88:	0b3a0b0b 	bleq	e839bc <__standby_start+0xe839bc>
     d8c:	13010b3b 	movwne	r0, #6971	; 0x1b3b
     d90:	130a0000 	movwne	r0, #40960	; 0xa000
     d94:	0b0e0301 	bleq	3819a0 <__standby_start+0x3819a0>
     d98:	3b0b3a05 	blcc	2cf5b4 <__standby_start+0x2cf5b4>
     d9c:	0013010b 	andseq	r0, r3, fp, lsl #2
     da0:	000d0b00 	andeq	r0, sp, r0, lsl #22
     da4:	0b3a0e03 	bleq	e845b8 <__standby_start+0xe845b8>
     da8:	13490b3b 	movtne	r0, #39739	; 0x9b3b
     dac:	00000a38 	andeq	r0, r0, r8, lsr sl
     db0:	03000d0c 	movweq	r0, #3340	; 0xd0c
     db4:	3b0b3a08 	blcc	2cf5dc <__standby_start+0x2cf5dc>
     db8:	3813490b 	ldmdacc	r3, {r0, r1, r3, r8, fp, lr}
     dbc:	0d00000a 	stceq	0, cr0, [r0, #-40]	; 0xffffffd8
     dc0:	13490035 	movtne	r0, #36917	; 0x9035
     dc4:	010e0000 	mrseq	r0, (UNDEF: 14)
     dc8:	01134901 	tsteq	r3, r1, lsl #18
     dcc:	0f000013 	svceq	0x00000013
     dd0:	13490021 	movtne	r0, #36897	; 0x9021
     dd4:	00000b2f 	andeq	r0, r0, pc, lsr #22
     dd8:	0b000f10 	bleq	4a20 <__standby_start+0x4a20>
     ddc:	0013490b 	andseq	r4, r3, fp, lsl #18
     de0:	01041100 	mrseq	r1, (UNDEF: 20)
     de4:	0b0b0e03 	bleq	2c45f8 <__standby_start+0x2c45f8>
     de8:	0b3b0b3a 	bleq	ec3ad8 <__standby_start+0xec3ad8>
     dec:	00001301 	andeq	r1, r0, r1, lsl #6
     df0:	03002812 	movweq	r2, #2066	; 0x812
     df4:	000d1c0e 	andeq	r1, sp, lr, lsl #24
     df8:	012e1300 	teqeq	lr, r0, lsl #6
     dfc:	0b3a0e03 	bleq	e84610 <__standby_start+0xe84610>
     e00:	0c270b3b 	stceq	11, cr0, [r7], #-236	; 0xffffff14
     e04:	0b201349 	bleq	805b30 <__standby_start+0x805b30>
     e08:	00001301 	andeq	r1, r0, r1, lsl #6
     e0c:	03000514 	movweq	r0, #1300	; 0x514
     e10:	3b0b3a0e 	blcc	2cf650 <__standby_start+0x2cf650>
     e14:	0013490b 	andseq	r4, r3, fp, lsl #18
     e18:	00341500 	eorseq	r1, r4, r0, lsl #10
     e1c:	0b3a0e03 	bleq	e84630 <__standby_start+0xe84630>
     e20:	13490b3b 	movtne	r0, #39739	; 0x9b3b
     e24:	34160000 	ldrcc	r0, [r6], #-0
     e28:	3a080300 	bcc	201a30 <__standby_start+0x201a30>
     e2c:	490b3b0b 	stmdbmi	fp, {r0, r1, r3, r8, r9, fp, ip, sp}
     e30:	17000013 	smladne	r0, r3, r0, r0
     e34:	0e03012e 	adfeqsp	f0, f3, #0.5
     e38:	053b0b3a 	ldreq	r0, [fp, #-2874]!	; 0xb3a
     e3c:	0b200c27 	bleq	803ee0 <__standby_start+0x803ee0>
     e40:	00001301 	andeq	r1, r0, r1, lsl #6
     e44:	03000518 	movweq	r0, #1304	; 0x518
     e48:	3b0b3a08 	blcc	2cf670 <__standby_start+0x2cf670>
     e4c:	00134905 	andseq	r4, r3, r5, lsl #18
     e50:	012e1900 	teqeq	lr, r0, lsl #18
     e54:	0b3a0e03 	bleq	e84668 <__standby_start+0xe84668>
     e58:	0c27053b 	cfstr32eq	mvfx0, [r7], #-236	; 0xffffff14
     e5c:	0b201349 	bleq	805b88 <__standby_start+0x805b88>
     e60:	00001301 	andeq	r1, r0, r1, lsl #6
     e64:	0300341a 	movweq	r3, #1050	; 0x41a
     e68:	3b0b3a0e 	blcc	2cf6a8 <__standby_start+0x2cf6a8>
     e6c:	00134905 	andseq	r4, r3, r5, lsl #18
     e70:	002e1b00 	eoreq	r1, lr, r0, lsl #22
     e74:	0e030c3f 	mcreq	12, 0, r0, cr3, cr15, {1}
     e78:	053b0b3a 	ldreq	r0, [fp, #-2874]!	; 0xb3a
     e7c:	0b200c27 	bleq	803f20 <__standby_start+0x803f20>
     e80:	2e1c0000 	cdpcs	0, 1, cr0, cr12, cr0, {0}
     e84:	3a0e0301 	bcc	381a90 <__standby_start+0x381a90>
     e88:	270b3b0b 	strcs	r3, [fp, -fp, lsl #22]
     e8c:	1201110c 	andne	r1, r1, #3
     e90:	01064001 	tsteq	r6, r1
     e94:	1d000013 	stcne	0, cr0, [r0, #-76]	; 0xffffffb4
     e98:	0e030005 	cdpeq	0, 0, cr0, cr3, cr5, {0}
     e9c:	0b3b0b3a 	bleq	ec3b8c <__standby_start+0xec3b8c>
     ea0:	06021349 	streq	r1, [r2], -r9, asr #6
     ea4:	341e0000 	ldrcc	r0, [lr], #-0
     ea8:	3a080300 	bcc	201ab0 <__standby_start+0x201ab0>
     eac:	490b3b0b 	stmdbmi	fp, {r0, r1, r3, r8, r9, fp, ip, sp}
     eb0:	000b1c13 	andeq	r1, fp, r3, lsl ip
     eb4:	00341f00 	eorseq	r1, r4, r0, lsl #30
     eb8:	0b3a0803 	bleq	e82ecc <__standby_start+0xe82ecc>
     ebc:	13490b3b 	movtne	r0, #39739	; 0x9b3b
     ec0:	00000602 	andeq	r0, r0, r2, lsl #12
     ec4:	03003420 	movweq	r3, #1056	; 0x420
     ec8:	3b0b3a0e 	blcc	2cf708 <__standby_start+0x2cf708>
     ecc:	0213490b 	andseq	r4, r3, #180224	; 0x2c000
     ed0:	21000006 	tstcs	r0, r6
     ed4:	1331012e 	teqne	r1, #-2147483637	; 0x8000000b
     ed8:	01120111 	tsteq	r2, r1, lsl r1
     edc:	13010640 	movwne	r0, #5696	; 0x1640
     ee0:	05220000 	streq	r0, [r2, #-0]!
     ee4:	02133100 	andseq	r3, r3, #0
     ee8:	23000006 	movwcs	r0, #6
     eec:	13310034 	teqne	r1, #52	; 0x34
     ef0:	00000602 	andeq	r0, r0, r2, lsl #12
     ef4:	31003424 	tstcc	r0, r4, lsr #8
     ef8:	000b1c13 	andeq	r1, fp, r3, lsl ip
     efc:	011d2500 	tsteq	sp, r0, lsl #10
     f00:	01521331 	cmpeq	r2, r1, lsr r3
     f04:	0b580655 	bleq	1602860 <__standby_start+0x1602860>
     f08:	00000b59 	andeq	r0, r0, r9, asr fp
     f0c:	55010b26 	strpl	r0, [r1, #-2854]	; 0xb26
     f10:	27000006 	strcs	r0, [r0, -r6]
     f14:	13310034 	teqne	r1, #52	; 0x34
     f18:	34280000 	strtcc	r0, [r8], #-0
     f1c:	1c133100 	ldfnes	f3, [r3], {-0}
     f20:	2900000d 	stmdbcs	r0, {r0, r2, r3}
     f24:	13310005 	teqne	r1, #5
     f28:	2e2a0000 	cdpcs	0, 2, cr0, cr10, cr0, {0}
     f2c:	030c3f01 	movweq	r3, #52993	; 0xcf01
     f30:	3b0b3a0e 	blcc	2cf770 <__standby_start+0x2cf770>
     f34:	110c2705 	tstne	ip, r5, lsl #14
     f38:	40011201 	andmi	r1, r1, r1, lsl #4
     f3c:	0013010a 	andseq	r0, r3, sl, lsl #2
     f40:	001d2b00 	andseq	r2, sp, r0, lsl #22
     f44:	01111331 	tsteq	r1, r1, lsr r3
     f48:	0b580112 	bleq	1601398 <__standby_start+0x1601398>
     f4c:	00000559 	andeq	r0, r0, r9, asr r5
     f50:	3f012e2c 	svccc	0x00012e2c
     f54:	3a0e030c 	bcc	381b8c <__standby_start+0x381b8c>
     f58:	27053b0b 	strcs	r3, [r5, -fp, lsl #22]
     f5c:	1201110c 	andne	r1, r1, #3
     f60:	01064001 	tsteq	r6, r1
     f64:	2d000013 	stccs	0, cr0, [r0, #-76]	; 0xffffffb4
     f68:	0e030005 	cdpeq	0, 0, cr0, cr3, cr5, {0}
     f6c:	053b0b3a 	ldreq	r0, [fp, #-2874]!	; 0xb3a
     f70:	06021349 	streq	r1, [r2], -r9, asr #6
     f74:	342e0000 	strtcc	r0, [lr], #-0
     f78:	3a080300 	bcc	201b80 <__standby_start+0x201b80>
     f7c:	49053b0b 	stmdbmi	r5, {r0, r1, r3, r8, r9, fp, ip, sp}
     f80:	00060213 	andeq	r0, r6, r3, lsl r2
     f84:	00342f00 	eorseq	r2, r4, r0, lsl #30
     f88:	0b3a0e03 	bleq	e8479c <__standby_start+0xe8479c>
     f8c:	1349053b 	movtne	r0, #38203	; 0x953b
     f90:	00000602 	andeq	r0, r0, r2, lsl #12
     f94:	31001d30 	tstcc	r0, r0, lsr sp
     f98:	55015213 	strpl	r5, [r1, #-531]	; 0x213
     f9c:	590b5806 	stmdbpl	fp, {r1, r2, fp, ip, lr}
     fa0:	31000005 	tstcc	r0, r5
     fa4:	0c3f012e 	ldfeqs	f0, [pc], #-184	; ef4 <__standby_start+0xef4>
     fa8:	0b3a0e03 	bleq	e847bc <__standby_start+0xe847bc>
     fac:	0c27053b 	cfstr32eq	mvfx0, [r7], #-236	; 0xffffff14
     fb0:	01111349 	tsteq	r1, r9, asr #6
     fb4:	06400112 			; <UNDEFINED> instruction: 0x06400112
     fb8:	00001301 	andeq	r1, r0, r1, lsl #6
     fbc:	31011d32 	tstcc	r1, r2, lsr sp
     fc0:	55015213 	strpl	r5, [r1, #-531]	; 0x213
     fc4:	590b5806 	stmdbpl	fp, {r1, r2, fp, ip, lr}
     fc8:	00130105 	andseq	r0, r3, r5, lsl #2
     fcc:	011d3300 	tsteq	sp, r0, lsl #6
     fd0:	01111331 	tsteq	r1, r1, lsr r3
     fd4:	0b580112 	bleq	1601424 <__standby_start+0x1601424>
     fd8:	00000559 	andeq	r0, r0, r9, asr r5
     fdc:	49002634 	stmdbmi	r0, {r2, r4, r5, r9, sl, sp}
     fe0:	35000013 	strcc	r0, [r0, #-19]
     fe4:	08030005 	stmdaeq	r3, {r0, r2}
     fe8:	053b0b3a 	ldreq	r0, [fp, #-2874]!	; 0xb3a
     fec:	06021349 	streq	r1, [r2], -r9, asr #6
     ff0:	05360000 	ldreq	r0, [r6, #-0]!
     ff4:	3a080300 	bcc	201bfc <__standby_start+0x201bfc>
     ff8:	49053b0b 	stmdbmi	r5, {r0, r1, r3, r8, r9, fp, ip, sp}
     ffc:	000a0213 	andeq	r0, sl, r3, lsl r2
    1000:	011d3700 	tsteq	sp, r0, lsl #14
    1004:	01521331 	cmpeq	r2, r1, lsr r3
    1008:	0b580655 	bleq	1602964 <__standby_start+0x1602964>
    100c:	00000559 	andeq	r0, r0, r9, asr r5
    1010:	31002e38 	tstcc	r0, r8, lsr lr
    1014:	12011113 	andne	r1, r1, #-1073741820	; 0xc0000004
    1018:	000a4001 	andeq	r4, sl, r1
    101c:	00343900 	eorseq	r3, r4, r0, lsl #18
    1020:	0b3a0e03 	bleq	e84834 <__standby_start+0xe84834>
    1024:	13490b3b 	movtne	r0, #39739	; 0x9b3b
    1028:	00000a02 	andeq	r0, r0, r2, lsl #20
    102c:	01110100 	tsteq	r1, r0, lsl #2
    1030:	0b130e25 	bleq	4c48cc <__standby_start+0x4c48cc>
    1034:	0e1b0e03 	cdpeq	14, 1, cr0, cr11, cr3, {0}
    1038:	01120111 	tsteq	r2, r1, lsl r1
    103c:	00000610 	andeq	r0, r0, r0, lsl r6
    1040:	0b002402 	bleq	a050 <__standby_start+0xa050>
    1044:	030b3e0b 	movweq	r3, #48651	; 0xbe0b
    1048:	0300000e 	movweq	r0, #14
    104c:	0e030016 	mcreq	0, 0, r0, cr3, cr6, {0}
    1050:	0b3b0b3a 	bleq	ec3d40 <__standby_start+0xec3d40>
    1054:	00001349 	andeq	r1, r0, r9, asr #6
    1058:	0b002404 	bleq	a070 <__standby_start+0xa070>
    105c:	030b3e0b 	movweq	r3, #48651	; 0xbe0b
    1060:	05000008 	streq	r0, [r0, #-8]
    1064:	0e030104 	adfeqs	f0, f3, f4
    1068:	0b3a0b0b 	bleq	e83c9c <__standby_start+0xe83c9c>
    106c:	13010b3b 	movwne	r0, #6971	; 0x1b3b
    1070:	28060000 	stmdacs	r6, {}	; <UNPREDICTABLE>
    1074:	1c0e0300 	stcne	3, cr0, [lr], {-0}
    1078:	0700000d 	streq	r0, [r0, -sp]
    107c:	0b0b000f 	bleq	2c10c0 <__standby_start+0x2c10c0>
    1080:	13080000 	movwne	r0, #32768	; 0x8000
    1084:	0b0e0301 	bleq	381c90 <__standby_start+0x381c90>
    1088:	3b0b3a0b 	blcc	2cf8bc <__standby_start+0x2cf8bc>
    108c:	0013010b 	andseq	r0, r3, fp, lsl #2
    1090:	000d0900 	andeq	r0, sp, r0, lsl #18
    1094:	13490e03 	movtne	r0, #40451	; 0x9e03
    1098:	0c340a38 	ldceq	10, cr0, [r4], #-224	; 0xffffff20
    109c:	2e0a0000 	cdpcs	0, 0, cr0, cr10, cr0, {0}
    10a0:	3a0e0301 	bcc	381cac <__standby_start+0x381cac>
    10a4:	270b3b0b 	strcs	r3, [fp, -fp, lsl #22]
    10a8:	2013490c 	andscs	r4, r3, ip, lsl #18
    10ac:	0013010b 	andseq	r0, r3, fp, lsl #2
    10b0:	00050b00 	andeq	r0, r5, r0, lsl #22
    10b4:	0b3a0e03 	bleq	e848c8 <__standby_start+0xe848c8>
    10b8:	13490b3b 	movtne	r0, #39739	; 0x9b3b
    10bc:	050c0000 	streq	r0, [ip, #-0]
    10c0:	3a080300 	bcc	201cc8 <__standby_start+0x201cc8>
    10c4:	490b3b0b 	stmdbmi	fp, {r0, r1, r3, r8, r9, fp, ip, sp}
    10c8:	0d000013 	stceq	0, cr0, [r0, #-76]	; 0xffffffb4
    10cc:	08030034 	stmdaeq	r3, {r2, r4, r5}
    10d0:	0b3b0b3a 	bleq	ec3dc0 <__standby_start+0xec3dc0>
    10d4:	00001349 	andeq	r1, r0, r9, asr #6
    10d8:	0b000f0e 	bleq	4d18 <__standby_start+0x4d18>
    10dc:	0013490b 	andseq	r4, r3, fp, lsl #18
    10e0:	00260f00 	eoreq	r0, r6, r0, lsl #30
    10e4:	00001349 	andeq	r1, r0, r9, asr #6
    10e8:	03003410 	movweq	r3, #1040	; 0x410
    10ec:	3b0b3a0e 	blcc	2cf92c <__standby_start+0x2cf92c>
    10f0:	0013490b 	andseq	r4, r3, fp, lsl #18
    10f4:	01011100 	mrseq	r1, (UNDEF: 17)
    10f8:	13011349 	movwne	r1, #4937	; 0x1349
    10fc:	21120000 	tstcs	r2, r0
    1100:	2f134900 	svccs	0x00134900
    1104:	1300000b 	movwne	r0, #11
    1108:	0e03012e 	adfeqsp	f0, f3, #0.5
    110c:	0b3b0b3a 	bleq	ec3dfc <__standby_start+0xec3dfc>
    1110:	13490c27 	movtne	r0, #39975	; 0x9c27
    1114:	01120111 	tsteq	r2, r1, lsl r1
    1118:	13010640 	movwne	r0, #5696	; 0x1640
    111c:	05140000 	ldreq	r0, [r4, #-0]
    1120:	3a0e0300 	bcc	381d28 <__standby_start+0x381d28>
    1124:	490b3b0b 	stmdbmi	fp, {r0, r1, r3, r8, r9, fp, ip, sp}
    1128:	00060213 	andeq	r0, r6, r3, lsl r2
    112c:	00341500 	eorseq	r1, r4, r0, lsl #10
    1130:	0b3a0e03 	bleq	e84944 <__standby_start+0xe84944>
    1134:	13490b3b 	movtne	r0, #39739	; 0x9b3b
    1138:	00000a02 	andeq	r0, r0, r2, lsl #20
    113c:	03003416 	movweq	r3, #1046	; 0x416
    1140:	3b0b3a08 	blcc	2cf968 <__standby_start+0x2cf968>
    1144:	0213490b 	andseq	r4, r3, #180224	; 0x2c000
    1148:	17000006 	strne	r0, [r0, -r6]
    114c:	0e03012e 	adfeqsp	f0, f3, #0.5
    1150:	053b0b3a 	ldreq	r0, [fp, #-2874]!	; 0xb3a
    1154:	13490c27 	movtne	r0, #39975	; 0x9c27
    1158:	01120111 	tsteq	r2, r1, lsl r1
    115c:	13010640 	movwne	r0, #5696	; 0x1640
    1160:	05180000 	ldreq	r0, [r8, #-0]
    1164:	3a0e0300 	bcc	381d6c <__standby_start+0x381d6c>
    1168:	49053b0b 	stmdbmi	r5, {r0, r1, r3, r8, r9, fp, ip, sp}
    116c:	00060213 	andeq	r0, r6, r3, lsl r2
    1170:	00051900 	andeq	r1, r5, r0, lsl #18
    1174:	0b3a0803 	bleq	e83188 <__standby_start+0xe83188>
    1178:	1349053b 	movtne	r0, #38203	; 0x953b
    117c:	00000602 	andeq	r0, r0, r2, lsl #12
    1180:	0300341a 	movweq	r3, #1050	; 0x41a
    1184:	3b0b3a0e 	blcc	2cf9c4 <__standby_start+0x2cf9c4>
    1188:	02134905 	andseq	r4, r3, #81920	; 0x14000
    118c:	1b00000a 	blne	11bc <__standby_start+0x11bc>
    1190:	1331011d 	teqne	r1, #1073741831	; 0x40000007
    1194:	06550152 			; <UNDEFINED> instruction: 0x06550152
    1198:	05590b58 	ldrbeq	r0, [r9, #-2904]	; 0xb58
    119c:	051c0000 	ldreq	r0, [ip, #-0]
    11a0:	02133100 	andseq	r3, r3, #0
    11a4:	1d000006 	stcne	0, cr0, [r0, #-24]	; 0xffffffe8
    11a8:	0655010b 	ldrbeq	r0, [r5], -fp, lsl #2
    11ac:	341e0000 	ldrcc	r0, [lr], #-0
    11b0:	02133100 	andseq	r3, r3, #0
    11b4:	1f000006 	svcne	0x00000006
    11b8:	1331012e 	teqne	r1, #-2147483637	; 0x8000000b
    11bc:	01120111 	tsteq	r2, r1, lsl r1
    11c0:	13010640 	movwne	r0, #5696	; 0x1640
    11c4:	34200000 	strtcc	r0, [r0], #-0
    11c8:	02133100 	andseq	r3, r3, #0
    11cc:	2100000a 	tstcs	r0, sl
    11d0:	13310005 	teqne	r1, #5
    11d4:	00000b1c 	andeq	r0, r0, ip, lsl fp
    11d8:	3f012e22 	svccc	0x00012e22
    11dc:	3a0e030c 	bcc	381e14 <__standby_start+0x381e14>
    11e0:	27053b0b 	strcs	r3, [r5, -fp, lsl #22]
    11e4:	1113490c 	tstne	r3, ip, lsl #18
    11e8:	40011201 	andmi	r1, r1, r1, lsl #4
    11ec:	00130106 	andseq	r0, r3, r6, lsl #2
    11f0:	00182300 	andseq	r2, r8, r0, lsl #6
    11f4:	34240000 	strtcc	r0, [r4], #-0
    11f8:	3a0e0300 	bcc	381e00 <__standby_start+0x381e00>
    11fc:	49053b0b 	stmdbmi	r5, {r0, r1, r3, r8, r9, fp, ip, sp}
    1200:	00060213 	andeq	r0, r6, r3, lsl r2
    1204:	00342500 	eorseq	r2, r4, r0, lsl #10
    1208:	0b3a0803 	bleq	e8321c <__standby_start+0xe8321c>
    120c:	1349053b 	movtne	r0, #38203	; 0x953b
    1210:	00000602 	andeq	r0, r0, r2, lsl #12
    1214:	31011d26 	tstcc	r1, r6, lsr #26
    1218:	12011113 	andne	r1, r1, #-1073741820	; 0xc0000004
    121c:	590b5801 	stmdbpl	fp, {r0, fp, ip, lr}
    1220:	00130105 	andseq	r0, r3, r5, lsl #2
    1224:	010b2700 	tsteq	fp, r0, lsl #14
    1228:	01120111 	tsteq	r2, r1, lsl r1
    122c:	05280000 	streq	r0, [r8, #-0]!
    1230:	00133100 	andseq	r3, r3, r0, lsl #2
    1234:	00052900 	andeq	r2, r5, r0, lsl #18
    1238:	0a021331 	beq	85f04 <__standby_start+0x85f04>
    123c:	1d2a0000 	stcne	0, cr0, [sl, #-0]
    1240:	11133101 	tstne	r3, r1, lsl #2
    1244:	58011201 	stmdapl	r1, {r0, r9, ip}
    1248:	0005590b 	andeq	r5, r5, fp, lsl #18
    124c:	11010000 	mrsne	r0, (UNDEF: 1)
    1250:	11061000 	mrsne	r1, (UNDEF: 6)
    1254:	03011201 	movweq	r1, #4609	; 0x1201
    1258:	25081b08 	strcs	r1, [r8, #-2824]	; 0xb08
    125c:	00051308 	andeq	r1, r5, r8, lsl #6
    1260:	11010000 	mrsne	r0, (UNDEF: 1)
    1264:	130e2501 	movwne	r2, #58625	; 0xe501
    1268:	1b0e030b 	blne	381e9c <__standby_start+0x381e9c>
    126c:	1201110e 	andne	r1, r1, #-2147483645	; 0x80000003
    1270:	00061001 	andeq	r1, r6, r1
    1274:	00240200 	eoreq	r0, r4, r0, lsl #4
    1278:	0b3e0b0b 	bleq	f83eac <__standby_start+0xf83eac>
    127c:	00000e03 	andeq	r0, r0, r3, lsl #28
    1280:	03001603 	movweq	r1, #1539	; 0x603
    1284:	3b0b3a0e 	blcc	2cfac4 <__standby_start+0x2cfac4>
    1288:	0013490b 	andseq	r4, r3, fp, lsl #18
    128c:	00240400 	eoreq	r0, r4, r0, lsl #8
    1290:	0b3e0b0b 	bleq	f83ec4 <__standby_start+0xf83ec4>
    1294:	00000803 	andeq	r0, r0, r3, lsl #16
    1298:	3f002e05 	svccc	0x00002e05
    129c:	3a0e030c 	bcc	381ed4 <__standby_start+0x381ed4>
    12a0:	270b3b0b 	strcs	r3, [fp, -fp, lsl #22]
    12a4:	1201110c 	andne	r1, r1, #3
    12a8:	000a4001 	andeq	r4, sl, r1
    12ac:	012e0600 	teqeq	lr, r0, lsl #12
    12b0:	0e030c3f 	mcreq	12, 0, r0, cr3, cr15, {1}
    12b4:	0b3b0b3a 	bleq	ec3fa4 <__standby_start+0xec3fa4>
    12b8:	13490c27 	movtne	r0, #39975	; 0x9c27
    12bc:	01120111 	tsteq	r2, r1, lsl r1
    12c0:	00000a40 	andeq	r0, r0, r0, asr #20
    12c4:	03000507 	movweq	r0, #1287	; 0x507
    12c8:	3b0b3a0e 	blcc	2cfb08 <__standby_start+0x2cfb08>
    12cc:	0213490b 	andseq	r4, r3, #180224	; 0x2c000
    12d0:	08000006 	stmdaeq	r0, {r1, r2}
    12d4:	0e030034 	mcreq	0, 0, r0, cr3, cr4, {1}
    12d8:	0b3b0b3a 	bleq	ec3fc8 <__standby_start+0xec3fc8>
    12dc:	06021349 	streq	r1, [r2], -r9, asr #6
    12e0:	01000000 	mrseq	r0, (UNDEF: 0)
    12e4:	0e250111 	mcreq	1, 1, r0, cr5, cr1, {0}
    12e8:	0e030b13 	vmoveq.32	d3[0], r0
    12ec:	01110e1b 	tsteq	r1, fp, lsl lr
    12f0:	06100112 			; <UNDEFINED> instruction: 0x06100112
    12f4:	24020000 	strcs	r0, [r2], #-0
    12f8:	3e0b0b00 	vmlacc.f64	d0, d11, d0
    12fc:	000e030b 	andeq	r0, lr, fp, lsl #6
    1300:	00160300 	andseq	r0, r6, r0, lsl #6
    1304:	0b3a0e03 	bleq	e84b18 <__standby_start+0xe84b18>
    1308:	13490b3b 	movtne	r0, #39739	; 0x9b3b
    130c:	24040000 	strcs	r0, [r4], #-0
    1310:	3e0b0b00 	vmlacc.f64	d0, d11, d0
    1314:	0008030b 	andeq	r0, r8, fp, lsl #6
    1318:	00350500 	eorseq	r0, r5, r0, lsl #10
    131c:	00001349 	andeq	r1, r0, r9, asr #6
    1320:	03010406 	movweq	r0, #5126	; 0x1406
    1324:	3a0b0b0e 	bcc	2c3f64 <__standby_start+0x2c3f64>
    1328:	010b3b0b 	tsteq	fp, fp, lsl #22
    132c:	07000013 	smladeq	r0, r3, r0, r0
    1330:	0e030028 	cdpeq	0, 0, cr0, cr3, cr8, {1}
    1334:	00000d1c 	andeq	r0, r0, ip, lsl sp
    1338:	0b000f08 	bleq	4f60 <__standby_start+0x4f60>
    133c:	0900000b 	stmdbeq	r0, {r0, r1, r3}
    1340:	0c3f012e 	ldfeqs	f0, [pc], #-184	; 1290 <__standby_start+0x1290>
    1344:	0b3a0e03 	bleq	e84b58 <__standby_start+0xe84b58>
    1348:	0c270b3b 	stceq	11, cr0, [r7], #-236	; 0xffffff14
    134c:	01111349 	tsteq	r1, r9, asr #6
    1350:	06400112 			; <UNDEFINED> instruction: 0x06400112
    1354:	00001301 	andeq	r1, r0, r1, lsl #6
    1358:	0300340a 	movweq	r3, #1034	; 0x40a
    135c:	3b0b3a08 	blcc	2cfb84 <__standby_start+0x2cfb84>
    1360:	0213490b 	andseq	r4, r3, #180224	; 0x2c000
    1364:	0b000006 	bleq	1384 <__standby_start+0x1384>
    1368:	0e030034 	mcreq	0, 0, r0, cr3, cr4, {1}
    136c:	0b3b0b3a 	bleq	ec405c <__standby_start+0xec405c>
    1370:	06021349 	streq	r1, [r2], -r9, asr #6
    1374:	2e0c0000 	cdpcs	0, 0, cr0, cr12, cr0, {0}
    1378:	030c3f01 	movweq	r3, #52993	; 0xcf01
    137c:	3b0b3a0e 	blcc	2cfbbc <__standby_start+0x2cfbbc>
    1380:	490c270b 	stmdbmi	ip, {r0, r1, r3, r8, r9, sl, sp}
    1384:	12011113 	andne	r1, r1, #-1073741820	; 0xc0000004
    1388:	010a4001 	tsteq	sl, r1
    138c:	0d000013 	stceq	0, cr0, [r0, #-76]	; 0xffffffb4
    1390:	08030005 	stmdaeq	r3, {r0, r2}
    1394:	0b3b0b3a 	bleq	ec4084 <__standby_start+0xec4084>
    1398:	06021349 	streq	r1, [r2], -r9, asr #6
    139c:	340e0000 	strcc	r0, [lr], #-0
    13a0:	3a0e0300 	bcc	381fa8 <__standby_start+0x381fa8>
    13a4:	490b3b0b 	stmdbmi	fp, {r0, r1, r3, r8, r9, fp, ip, sp}
    13a8:	000a0213 	andeq	r0, sl, r3, lsl r2
    13ac:	11010000 	mrsne	r0, (UNDEF: 1)
    13b0:	130e2501 	movwne	r2, #58625	; 0xe501
    13b4:	1b0e030b 	blne	381fe8 <__standby_start+0x381fe8>
    13b8:	1201110e 	andne	r1, r1, #-2147483645	; 0x80000003
    13bc:	00061001 	andeq	r1, r6, r1
    13c0:	00240200 	eoreq	r0, r4, r0, lsl #4
    13c4:	0b3e0b0b 	bleq	f83ff8 <__standby_start+0xf83ff8>
    13c8:	00000e03 	andeq	r0, r0, r3, lsl #28
    13cc:	03001603 	movweq	r1, #1539	; 0x603
    13d0:	3b0b3a0e 	blcc	2cfc10 <__standby_start+0x2cfc10>
    13d4:	0013490b 	andseq	r4, r3, fp, lsl #18
    13d8:	00240400 	eoreq	r0, r4, r0, lsl #8
    13dc:	0b3e0b0b 	bleq	f84010 <__standby_start+0xf84010>
    13e0:	00000803 	andeq	r0, r0, r3, lsl #16
    13e4:	03011305 	movweq	r1, #4869	; 0x1305
    13e8:	3a050b0e 	bcc	144028 <__standby_start+0x144028>
    13ec:	010b3b0b 	tsteq	fp, fp, lsl #22
    13f0:	06000013 			; <UNDEFINED> instruction: 0x06000013
    13f4:	0e03000d 	cdpeq	0, 0, cr0, cr3, cr13, {0}
    13f8:	0b3b0b3a 	bleq	ec40e8 <__standby_start+0xec40e8>
    13fc:	0a381349 	beq	e06128 <__standby_start+0xe06128>
    1400:	01070000 	mrseq	r0, (UNDEF: 7)
    1404:	01134901 	tsteq	r3, r1, lsl #18
    1408:	08000013 	stmdaeq	r0, {r0, r1, r4}
    140c:	13490021 	movtne	r0, #36897	; 0x9021
    1410:	00000b2f 	andeq	r0, r0, pc, lsr #22
    1414:	3f012e09 	svccc	0x00012e09
    1418:	3a0e030c 	bcc	382050 <__standby_start+0x382050>
    141c:	270b3b0b 	strcs	r3, [fp, -fp, lsl #22]
    1420:	1113490c 	tstne	r3, ip, lsl #18
    1424:	40011201 	andmi	r1, r1, r1, lsl #4
    1428:	0013010a 	andseq	r0, r3, sl, lsl #2
    142c:	00050a00 	andeq	r0, r5, r0, lsl #20
    1430:	0b3a0e03 	bleq	e84c44 <__standby_start+0xe84c44>
    1434:	13490b3b 	movtne	r0, #39739	; 0x9b3b
    1438:	00000602 	andeq	r0, r0, r2, lsl #12
    143c:	0300340b 	movweq	r3, #1035	; 0x40b
    1440:	3b0b3a08 	blcc	2cfc68 <__standby_start+0x2cfc68>
    1444:	0213490b 	andseq	r4, r3, #180224	; 0x2c000
    1448:	0c000006 	stceq	0, cr0, [r0], {6}
    144c:	0b0b000f 	bleq	2c1490 <__standby_start+0x2c1490>
    1450:	00001349 	andeq	r1, r0, r9, asr #6
    1454:	3f012e0d 	svccc	0x00012e0d
    1458:	3a0e030c 	bcc	382090 <__standby_start+0x382090>
    145c:	270b3b0b 	strcs	r3, [fp, -fp, lsl #22]
    1460:	1201110c 	andne	r1, r1, #3
    1464:	000a4001 	andeq	r4, sl, r1
    1468:	00340e00 	eorseq	r0, r4, r0, lsl #28
    146c:	0b3a0e03 	bleq	e84c80 <__standby_start+0xe84c80>
    1470:	13490b3b 	movtne	r0, #39739	; 0x9b3b
    1474:	00000a02 	andeq	r0, r0, r2, lsl #20
    1478:	0300340f 	movweq	r3, #1039	; 0x40f
    147c:	3b0b3a0e 	blcc	2cfcbc <__standby_start+0x2cfcbc>
    1480:	0213490b 	andseq	r4, r3, #180224	; 0x2c000
    1484:	00000006 	andeq	r0, r0, r6
    1488:	25011101 	strcs	r1, [r1, #-257]	; 0x101
    148c:	030b130e 	movweq	r1, #45838	; 0xb30e
    1490:	110e1b0e 	tstne	lr, lr, lsl #22
    1494:	10011201 	andne	r1, r1, r1, lsl #4
    1498:	02000006 	andeq	r0, r0, #6
    149c:	0b0b0024 	bleq	2c1534 <__standby_start+0x2c1534>
    14a0:	0e030b3e 	vmoveq.16	d3[0], r0
    14a4:	16030000 	strne	r0, [r3], -r0
    14a8:	3a0e0300 	bcc	3820b0 <__standby_start+0x3820b0>
    14ac:	490b3b0b 	stmdbmi	fp, {r0, r1, r3, r8, r9, fp, ip, sp}
    14b0:	04000013 	streq	r0, [r0], #-19
    14b4:	0b0b0024 	bleq	2c154c <__standby_start+0x2c154c>
    14b8:	08030b3e 	stmdaeq	r3, {r1, r2, r3, r4, r5, r8, r9, fp}
    14bc:	35050000 	strcc	r0, [r5, #-0]
    14c0:	00134900 	andseq	r4, r3, r0, lsl #18
    14c4:	01010600 	tsteq	r1, r0, lsl #12
    14c8:	13011349 	movwne	r1, #4937	; 0x1349
    14cc:	21070000 	mrscs	r0, (UNDEF: 7)
    14d0:	2f134900 	svccs	0x00134900
    14d4:	0800000b 	stmdaeq	r0, {r0, r1, r3}
    14d8:	0e030113 	mcreq	1, 0, r0, cr3, cr3, {0}
    14dc:	0b3a0b0b 	bleq	e84110 <__standby_start+0xe84110>
    14e0:	13010b3b 	movwne	r0, #6971	; 0x1b3b
    14e4:	0d090000 	stceq	0, cr0, [r9, #-0]
    14e8:	3a0e0300 	bcc	3820f0 <__standby_start+0x3820f0>
    14ec:	490b3b0b 	stmdbmi	fp, {r0, r1, r3, r8, r9, fp, ip, sp}
    14f0:	000a3813 	andeq	r3, sl, r3, lsl r8
    14f4:	01040a00 	tsteq	r4, r0, lsl #20
    14f8:	0b0b0e03 	bleq	2c4d0c <__standby_start+0x2c4d0c>
    14fc:	0b3b0b3a 	bleq	ec41ec <__standby_start+0xec41ec>
    1500:	00001301 	andeq	r1, r0, r1, lsl #6
    1504:	0300280b 	movweq	r2, #2059	; 0x80b
    1508:	000d1c0e 	andeq	r1, sp, lr, lsl #24
    150c:	012e0c00 	teqeq	lr, r0, lsl #24
    1510:	0e030c3f 	mcreq	12, 0, r0, cr3, cr15, {1}
    1514:	0b3b0b3a 	bleq	ec4204 <__standby_start+0xec4204>
    1518:	13490c27 	movtne	r0, #39975	; 0x9c27
    151c:	01120111 	tsteq	r2, r1, lsl r1
    1520:	13010a40 	movwne	r0, #6720	; 0x1a40
    1524:	050d0000 	streq	r0, [sp, #-0]
    1528:	3a0e0300 	bcc	382130 <__standby_start+0x382130>
    152c:	490b3b0b 	stmdbmi	fp, {r0, r1, r3, r8, r9, fp, ip, sp}
    1530:	00060213 	andeq	r0, r6, r3, lsl r2
    1534:	000f0e00 	andeq	r0, pc, r0, lsl #28
    1538:	13490b0b 	movtne	r0, #39691	; 0x9b0b
    153c:	2e0f0000 	cdpcs	0, 0, cr0, cr15, cr0, {0}
    1540:	030c3f00 	movweq	r3, #52992	; 0xcf00
    1544:	3b0b3a0e 	blcc	2cfd84 <__standby_start+0x2cfd84>
    1548:	490c270b 	stmdbmi	ip, {r0, r1, r3, r8, r9, sl, sp}
    154c:	12011113 	andne	r1, r1, #-1073741820	; 0xc0000004
    1550:	000a4001 	andeq	r4, sl, r1
    1554:	002e1000 	eoreq	r1, lr, r0
    1558:	0e030c3f 	mcreq	12, 0, r0, cr3, cr15, {1}
    155c:	0b3b0b3a 	bleq	ec424c <__standby_start+0xec424c>
    1560:	01110c27 	tsteq	r1, r7, lsr #24
    1564:	0a400112 	beq	10019b4 <__standby_start+0x10019b4>
    1568:	34110000 	ldrcc	r0, [r1], #-0
    156c:	3a0e0300 	bcc	382174 <__standby_start+0x382174>
    1570:	490b3b0b 	stmdbmi	fp, {r0, r1, r3, r8, r9, fp, ip, sp}
    1574:	000a0213 	andeq	r0, sl, r3, lsl r2
    1578:	11010000 	mrsne	r0, (UNDEF: 1)
    157c:	130e2501 	movwne	r2, #58625	; 0xe501
    1580:	1b0e030b 	blne	3821b4 <__standby_start+0x3821b4>
    1584:	1201110e 	andne	r1, r1, #-2147483645	; 0x80000003
    1588:	00061001 	andeq	r1, r6, r1
    158c:	00240200 	eoreq	r0, r4, r0, lsl #4
    1590:	0b3e0b0b 	bleq	f841c4 <__standby_start+0xf841c4>
    1594:	00000e03 	andeq	r0, r0, r3, lsl #28
    1598:	03001603 	movweq	r1, #1539	; 0x603
    159c:	3b0b3a0e 	blcc	2cfddc <__standby_start+0x2cfddc>
    15a0:	0013490b 	andseq	r4, r3, fp, lsl #18
    15a4:	00240400 	eoreq	r0, r4, r0, lsl #8
    15a8:	0b3e0b0b 	bleq	f841dc <__standby_start+0xf841dc>
    15ac:	00000803 	andeq	r0, r0, r3, lsl #16
    15b0:	49003505 	stmdbmi	r0, {r0, r2, r8, sl, ip, sp}
    15b4:	06000013 			; <UNDEFINED> instruction: 0x06000013
    15b8:	13490101 	movtne	r0, #37121	; 0x9101
    15bc:	00001301 	andeq	r1, r0, r1, lsl #6
    15c0:	49002107 	stmdbmi	r0, {r0, r1, r2, r8, sp}
    15c4:	000b2f13 	andeq	r2, fp, r3, lsl pc
    15c8:	01130800 	tsteq	r3, r0, lsl #16
    15cc:	0b0b0e03 	bleq	2c4de0 <__standby_start+0x2c4de0>
    15d0:	0b3b0b3a 	bleq	ec42c0 <__standby_start+0xec42c0>
    15d4:	00001301 	andeq	r1, r0, r1, lsl #6
    15d8:	03000d09 	movweq	r0, #3337	; 0xd09
    15dc:	3b0b3a08 	blcc	2cfe04 <__standby_start+0x2cfe04>
    15e0:	3813490b 	ldmdacc	r3, {r0, r1, r3, r8, fp, lr}
    15e4:	0a00000a 	beq	1614 <__standby_start+0x1614>
    15e8:	0e03000d 	cdpeq	0, 0, cr0, cr3, cr13, {0}
    15ec:	0b3b0b3a 	bleq	ec42dc <__standby_start+0xec42dc>
    15f0:	0a381349 	beq	e0631c <__standby_start+0xe0631c>
    15f4:	040b0000 	streq	r0, [fp], #-0
    15f8:	0b0e0301 	bleq	382204 <__standby_start+0x382204>
    15fc:	3b0b3a0b 	blcc	2cfe30 <__standby_start+0x2cfe30>
    1600:	0013010b 	andseq	r0, r3, fp, lsl #2
    1604:	00280c00 	eoreq	r0, r8, r0, lsl #24
    1608:	0d1c0e03 	ldceq	14, cr0, [ip, #-12]
    160c:	2e0d0000 	cdpcs	0, 0, cr0, cr13, cr0, {0}
    1610:	030c3f01 	movweq	r3, #52993	; 0xcf01
    1614:	3b0b3a0e 	blcc	2cfe54 <__standby_start+0x2cfe54>
    1618:	490c270b 	stmdbmi	ip, {r0, r1, r3, r8, r9, sl, sp}
    161c:	12011113 	andne	r1, r1, #-1073741820	; 0xc0000004
    1620:	010a4001 	tsteq	sl, r1
    1624:	0e000013 	mcreq	0, 0, r0, cr0, cr3, {0}
    1628:	0e030005 	cdpeq	0, 0, cr0, cr3, cr5, {0}
    162c:	0b3b0b3a 	bleq	ec431c <__standby_start+0xec431c>
    1630:	06021349 	streq	r1, [r2], -r9, asr #6
    1634:	0f0f0000 	svceq	0x000f0000
    1638:	490b0b00 	stmdbmi	fp, {r8, r9, fp}
    163c:	10000013 	andne	r0, r0, r3, lsl r0
    1640:	0e030034 	mcreq	0, 0, r0, cr3, cr4, {1}
    1644:	0b3b0b3a 	bleq	ec4334 <__standby_start+0xec4334>
    1648:	0a021349 	beq	86374 <__standby_start+0x86374>
    164c:	01000000 	mrseq	r0, (UNDEF: 0)
    1650:	0e250111 	mcreq	1, 1, r0, cr5, cr1, {0}
    1654:	0e030b13 	vmoveq.32	d3[0], r0
    1658:	01110e1b 	tsteq	r1, fp, lsl lr
    165c:	06100112 			; <UNDEFINED> instruction: 0x06100112
    1660:	24020000 	strcs	r0, [r2], #-0
    1664:	3e0b0b00 	vmlacc.f64	d0, d11, d0
    1668:	000e030b 	andeq	r0, lr, fp, lsl #6
    166c:	00160300 	andseq	r0, r6, r0, lsl #6
    1670:	0b3a0e03 	bleq	e84e84 <__standby_start+0xe84e84>
    1674:	13490b3b 	movtne	r0, #39739	; 0x9b3b
    1678:	24040000 	strcs	r0, [r4], #-0
    167c:	3e0b0b00 	vmlacc.f64	d0, d11, d0
    1680:	0008030b 	andeq	r0, r8, fp, lsl #6
    1684:	01130500 	tsteq	r3, r0, lsl #10
    1688:	0b3a0b0b 	bleq	e842bc <__standby_start+0xe842bc>
    168c:	13010b3b 	movwne	r0, #6971	; 0x1b3b
    1690:	0d060000 	stceq	0, cr0, [r6, #-0]
    1694:	3a0e0300 	bcc	38229c <__standby_start+0x38229c>
    1698:	490b3b0b 	stmdbmi	fp, {r0, r1, r3, r8, r9, fp, ip, sp}
    169c:	0d0b0b13 	vstreq	d0, [fp, #-76]	; 0xffffffb4
    16a0:	380b0c0b 	stmdacc	fp, {r0, r1, r3, sl, fp}
    16a4:	0700000a 	streq	r0, [r0, -sl]
    16a8:	0b0b0117 	bleq	2c1b0c <__standby_start+0x2c1b0c>
    16ac:	0b3b0b3a 	bleq	ec439c <__standby_start+0xec439c>
    16b0:	00001301 	andeq	r1, r0, r1, lsl #6
    16b4:	03000d08 	movweq	r0, #3336	; 0xd08
    16b8:	3b0b3a0e 	blcc	2cfef8 <__standby_start+0x2cfef8>
    16bc:	0013490b 	andseq	r4, r3, fp, lsl #18
    16c0:	01130900 	tsteq	r3, r0, lsl #18
    16c4:	0b0b0e03 	bleq	2c4ed8 <__standby_start+0x2c4ed8>
    16c8:	0b3b0b3a 	bleq	ec43b8 <__standby_start+0xec43b8>
    16cc:	00001301 	andeq	r1, r0, r1, lsl #6
    16d0:	0301130a 	movweq	r1, #4874	; 0x130a
    16d4:	3a050b0e 	bcc	144314 <__standby_start+0x144314>
    16d8:	010b3b0b 	tsteq	fp, fp, lsl #22
    16dc:	0b000013 	bleq	1730 <__standby_start+0x1730>
    16e0:	0e03000d 	cdpeq	0, 0, cr0, cr3, cr13, {0}
    16e4:	0b3b0b3a 	bleq	ec43d4 <__standby_start+0xec43d4>
    16e8:	0a381349 	beq	e06414 <__standby_start+0xe06414>
    16ec:	0d0c0000 	stceq	0, cr0, [ip, #-0]
    16f0:	3a080300 	bcc	2022f8 <__standby_start+0x2022f8>
    16f4:	490b3b0b 	stmdbmi	fp, {r0, r1, r3, r8, r9, fp, ip, sp}
    16f8:	000a3813 	andeq	r3, sl, r3, lsl r8
    16fc:	00350d00 	eorseq	r0, r5, r0, lsl #26
    1700:	00001349 	andeq	r1, r0, r9, asr #6
    1704:	4901010e 	stmdbmi	r1, {r1, r2, r3, r8}
    1708:	00130113 	andseq	r0, r3, r3, lsl r1
    170c:	00210f00 	eoreq	r0, r1, r0, lsl #30
    1710:	0b2f1349 	bleq	bc643c <__standby_start+0xbc643c>
    1714:	0f100000 	svceq	0x00100000
    1718:	490b0b00 	stmdbmi	fp, {r8, r9, fp}
    171c:	11000013 	tstne	r0, r3, lsl r0
    1720:	0e030104 	adfeqs	f0, f3, f4
    1724:	0b3a0b0b 	bleq	e84358 <__standby_start+0xe84358>
    1728:	13010b3b 	movwne	r0, #6971	; 0x1b3b
    172c:	28120000 	ldmdacs	r2, {}	; <UNPREDICTABLE>
    1730:	1c0e0300 	stcne	3, cr0, [lr], {-0}
    1734:	1300000d 	movwne	r0, #13
    1738:	0c3f012e 	ldfeqs	f0, [pc], #-184	; 1688 <__standby_start+0x1688>
    173c:	0b3a0e03 	bleq	e84f50 <__standby_start+0xe84f50>
    1740:	0c270b3b 	stceq	11, cr0, [r7], #-236	; 0xffffff14
    1744:	01111349 	tsteq	r1, r9, asr #6
    1748:	0a400112 	beq	1001b98 <__standby_start+0x1001b98>
    174c:	00001301 	andeq	r1, r0, r1, lsl #6
    1750:	03000514 	movweq	r0, #1300	; 0x514
    1754:	3b0b3a0e 	blcc	2cff94 <__standby_start+0x2cff94>
    1758:	0213490b 	andseq	r4, r3, #180224	; 0x2c000
    175c:	15000006 	strne	r0, [r0, #-6]
    1760:	0c3f002e 	ldceq	0, cr0, [pc], #-184	; 16b0 <__standby_start+0x16b0>
    1764:	0b3a0e03 	bleq	e84f78 <__standby_start+0xe84f78>
    1768:	0c270b3b 	stceq	11, cr0, [r7], #-236	; 0xffffff14
    176c:	01111349 	tsteq	r1, r9, asr #6
    1770:	0a400112 	beq	1001bc0 <__standby_start+0x1001bc0>
    1774:	2e160000 	cdpcs	0, 1, cr0, cr6, cr0, {0}
    1778:	030c3f01 	movweq	r3, #52993	; 0xcf01
    177c:	3b0b3a0e 	blcc	2cffbc <__standby_start+0x2cffbc>
    1780:	490c270b 	stmdbmi	ip, {r0, r1, r3, r8, r9, sl, sp}
    1784:	12011113 	andne	r1, r1, #-1073741820	; 0xc0000004
    1788:	01064001 	tsteq	r6, r1
    178c:	17000013 	smladne	r0, r3, r0, r0
    1790:	0c3f012e 	ldfeqs	f0, [pc], #-184	; 16e0 <__standby_start+0x16e0>
    1794:	0b3a0e03 	bleq	e84fa8 <__standby_start+0xe84fa8>
    1798:	0c27053b 	cfstr32eq	mvfx0, [r7], #-236	; 0xffffff14
    179c:	01111349 	tsteq	r1, r9, asr #6
    17a0:	0a400112 	beq	1001bf0 <__standby_start+0x1001bf0>
    17a4:	00001301 	andeq	r1, r0, r1, lsl #6
    17a8:	03000518 	movweq	r0, #1304	; 0x518
    17ac:	3b0b3a0e 	blcc	2cffec <__standby_start+0x2cffec>
    17b0:	02134905 	andseq	r4, r3, #81920	; 0x14000
    17b4:	19000006 	stmdbne	r0, {r1, r2}
    17b8:	0c3f012e 	ldfeqs	f0, [pc], #-184	; 1708 <__standby_start+0x1708>
    17bc:	0b3a0e03 	bleq	e84fd0 <__standby_start+0xe84fd0>
    17c0:	0c27053b 	cfstr32eq	mvfx0, [r7], #-236	; 0xffffff14
    17c4:	01111349 	tsteq	r1, r9, asr #6
    17c8:	06400112 			; <UNDEFINED> instruction: 0x06400112
    17cc:	00001301 	andeq	r1, r0, r1, lsl #6
    17d0:	0300341a 	movweq	r3, #1050	; 0x41a
    17d4:	3b0b3a0e 	blcc	2d0014 <__standby_start+0x2d0014>
    17d8:	02134905 	andseq	r4, r3, #81920	; 0x14000
    17dc:	1b000006 	blne	17fc <__standby_start+0x17fc>
    17e0:	0e030034 	mcreq	0, 0, r0, cr3, cr4, {1}
    17e4:	053b0b3a 	ldreq	r0, [fp, #-2874]!	; 0xb3a
    17e8:	0b1c1349 	bleq	706514 <__standby_start+0x706514>
    17ec:	341c0000 	ldrcc	r0, [ip], #-0
    17f0:	3a0e0300 	bcc	3823f8 <__standby_start+0x3823f8>
    17f4:	490b3b0b 	stmdbmi	fp, {r0, r1, r3, r8, r9, fp, ip, sp}
    17f8:	000a0213 	andeq	r0, sl, r3, lsl r2
    17fc:	11010000 	mrsne	r0, (UNDEF: 1)
    1800:	130e2501 	movwne	r2, #58625	; 0xe501
    1804:	1b0e030b 	blne	382438 <__standby_start+0x382438>
    1808:	1201110e 	andne	r1, r1, #-2147483645	; 0x80000003
    180c:	00061001 	andeq	r1, r6, r1
    1810:	00240200 	eoreq	r0, r4, r0, lsl #4
    1814:	0b3e0b0b 	bleq	f84448 <__standby_start+0xf84448>
    1818:	00000e03 	andeq	r0, r0, r3, lsl #28
    181c:	0b002403 	bleq	a830 <__standby_start+0xa830>
    1820:	030b3e0b 	movweq	r3, #48651	; 0xbe0b
    1824:	04000008 	streq	r0, [r0], #-8
    1828:	0e030104 	adfeqs	f0, f3, f4
    182c:	0b3a0b0b 	bleq	e84460 <__standby_start+0xe84460>
    1830:	13010b3b 	movwne	r0, #6971	; 0x1b3b
    1834:	28050000 	stmdacs	r5, {}	; <UNPREDICTABLE>
    1838:	1c0e0300 	stcne	3, cr0, [lr], {-0}
    183c:	0600000d 	streq	r0, [r0], -sp
    1840:	0e030113 	mcreq	1, 0, r0, cr3, cr3, {0}
    1844:	0b3a0b0b 	bleq	e84478 <__standby_start+0xe84478>
    1848:	13010b3b 	movwne	r0, #6971	; 0x1b3b
    184c:	0d070000 	stceq	0, cr0, [r7, #-0]
    1850:	3a0e0300 	bcc	382458 <__standby_start+0x382458>
    1854:	490b3b0b 	stmdbmi	fp, {r0, r1, r3, r8, r9, fp, ip, sp}
    1858:	000a3813 	andeq	r3, sl, r3, lsl r8
    185c:	00160800 	andseq	r0, r6, r0, lsl #16
    1860:	0b3a0e03 	bleq	e85074 <__standby_start+0xe85074>
    1864:	13490b3b 	movtne	r0, #39739	; 0x9b3b
    1868:	0d090000 	stceq	0, cr0, [r9, #-0]
    186c:	3a080300 	bcc	202474 <__standby_start+0x202474>
    1870:	490b3b0b 	stmdbmi	fp, {r0, r1, r3, r8, r9, fp, ip, sp}
    1874:	000a3813 	andeq	r3, sl, r3, lsl r8
    1878:	01010a00 	tsteq	r1, r0, lsl #20
    187c:	13011349 	movwne	r1, #4937	; 0x1349
    1880:	210b0000 	mrscs	r0, (UNDEF: 11)
    1884:	2f134900 	svccs	0x00134900
    1888:	0c00000b 	stceq	0, cr0, [r0], {11}
    188c:	0b0b000f 	bleq	2c18d0 <__standby_start+0x2c18d0>
    1890:	00001349 	andeq	r1, r0, r9, asr #6
    1894:	0301130d 	movweq	r1, #4877	; 0x130d
    1898:	3a050b0e 	bcc	1444d8 <__standby_start+0x1444d8>
    189c:	010b3b0b 	tsteq	fp, fp, lsl #22
    18a0:	0e000013 	mcreq	0, 0, r0, cr0, cr3, {0}
    18a4:	0e03000d 	cdpeq	0, 0, cr0, cr3, cr13, {0}
    18a8:	053b0b3a 	ldreq	r0, [fp, #-2874]!	; 0xb3a
    18ac:	0a381349 	beq	e065d8 <__standby_start+0xe065d8>
    18b0:	160f0000 	strne	r0, [pc], -r0
    18b4:	3a0e0300 	bcc	3824bc <__standby_start+0x3824bc>
    18b8:	49053b0b 	stmdbmi	r5, {r0, r1, r3, r8, r9, fp, ip, sp}
    18bc:	10000013 	andne	r0, r0, r3, lsl r0
    18c0:	0e030113 	mcreq	1, 0, r0, cr3, cr3, {0}
    18c4:	0b3a050b 	bleq	e82cf8 <__standby_start+0xe82cf8>
    18c8:	1301053b 	movwne	r0, #5435	; 0x153b
    18cc:	0d110000 	ldceq	0, cr0, [r1, #-0]
    18d0:	3a080300 	bcc	2024d8 <__standby_start+0x2024d8>
    18d4:	49053b0b 	stmdbmi	r5, {r0, r1, r3, r8, r9, fp, ip, sp}
    18d8:	000a3813 	andeq	r3, sl, r3, lsl r8
    18dc:	01131200 	tsteq	r3, r0, lsl #4
    18e0:	0b0b0e03 	bleq	2c50f4 <__standby_start+0x2c50f4>
    18e4:	053b0b3a 	ldreq	r0, [fp, #-2874]!	; 0xb3a
    18e8:	00001301 	andeq	r1, r0, r1, lsl #6
    18ec:	0b000f13 	bleq	5540 <__standby_start+0x5540>
    18f0:	1400000b 	strne	r0, [r0], #-11
    18f4:	0c270115 	stfeqs	f0, [r7], #-84	; 0xffffffac
    18f8:	13011349 	movwne	r1, #4937	; 0x1349
    18fc:	05150000 	ldreq	r0, [r5, #-0]
    1900:	00134900 	andseq	r4, r3, r0, lsl #18
    1904:	00351600 	eorseq	r1, r5, r0, lsl #12
    1908:	00001349 	andeq	r1, r0, r9, asr #6
    190c:	00003517 	andeq	r3, r0, r7, lsl r5
    1910:	002e1800 	eoreq	r1, lr, r0, lsl #16
    1914:	0e030c3f 	mcreq	12, 0, r0, cr3, cr15, {1}
    1918:	0b3b0b3a 	bleq	ec4608 <__standby_start+0xec4608>
    191c:	13490c27 	movtne	r0, #39975	; 0x9c27
    1920:	01120111 	tsteq	r2, r1, lsl r1
    1924:	00000640 	andeq	r0, r0, r0, asr #12
    1928:	3f012e19 	svccc	0x00012e19
    192c:	3a0e030c 	bcc	382564 <__standby_start+0x382564>
    1930:	270b3b0b 	strcs	r3, [fp, -fp, lsl #22]
    1934:	1113490c 	tstne	r3, ip, lsl #18
    1938:	40011201 	andmi	r1, r1, r1, lsl #4
    193c:	00130106 	andseq	r0, r3, r6, lsl #2
    1940:	00051a00 	andeq	r1, r5, r0, lsl #20
    1944:	0b3a0e03 	bleq	e85158 <__standby_start+0xe85158>
    1948:	13490b3b 	movtne	r0, #39739	; 0x9b3b
    194c:	00000602 	andeq	r0, r0, r2, lsl #12
    1950:	0300341b 	movweq	r3, #1051	; 0x41b
    1954:	3b0b3a0e 	blcc	2d0194 <__standby_start+0x2d0194>
    1958:	0213490b 	andseq	r4, r3, #180224	; 0x2c000
    195c:	1c000006 	stcne	0, cr0, [r0], {6}
    1960:	0e030034 	mcreq	0, 0, r0, cr3, cr4, {1}
    1964:	0b3b0b3a 	bleq	ec4654 <__standby_start+0xec4654>
    1968:	0a021349 	beq	86694 <__standby_start+0x86694>
    196c:	341d0000 	ldrcc	r0, [sp], #-0
    1970:	3a0e0300 	bcc	382578 <__standby_start+0x382578>
    1974:	490b3b0b 	stmdbmi	fp, {r0, r1, r3, r8, r9, fp, ip, sp}
    1978:	020c3f13 	andeq	r3, ip, #76	; 0x4c
    197c:	0000000a 	andeq	r0, r0, sl
    1980:	25011101 	strcs	r1, [r1, #-257]	; 0x101
    1984:	030b130e 	movweq	r1, #45838	; 0xb30e
    1988:	110e1b0e 	tstne	lr, lr, lsl #22
    198c:	10011201 	andne	r1, r1, r1, lsl #4
    1990:	02000006 	andeq	r0, r0, #6
    1994:	0b0b0024 	bleq	2c1a2c <__standby_start+0x2c1a2c>
    1998:	0e030b3e 	vmoveq.16	d3[0], r0
    199c:	24030000 	strcs	r0, [r3], #-0
    19a0:	3e0b0b00 	vmlacc.f64	d0, d11, d0
    19a4:	0008030b 	andeq	r0, r8, fp, lsl #6
    19a8:	00160400 	andseq	r0, r6, r0, lsl #8
    19ac:	0b3a0e03 	bleq	e851c0 <__standby_start+0xe851c0>
    19b0:	13490b3b 	movtne	r0, #39739	; 0x9b3b
    19b4:	0f050000 	svceq	0x00050000
    19b8:	000b0b00 	andeq	r0, fp, r0, lsl #22
    19bc:	01040600 	tsteq	r4, r0, lsl #12
    19c0:	0b0b0e03 	bleq	2c51d4 <__standby_start+0x2c51d4>
    19c4:	0b3b0b3a 	bleq	ec46b4 <__standby_start+0xec46b4>
    19c8:	00001301 	andeq	r1, r0, r1, lsl #6
    19cc:	03002807 	movweq	r2, #2055	; 0x807
    19d0:	000d1c0e 	andeq	r1, sp, lr, lsl #24
    19d4:	00350800 	eorseq	r0, r5, r0, lsl #16
    19d8:	00001349 	andeq	r1, r0, r9, asr #6
    19dc:	0b000f09 	bleq	5608 <__standby_start+0x5608>
    19e0:	0013490b 	andseq	r4, r3, fp, lsl #18
    19e4:	01150a00 	tsteq	r5, r0, lsl #20
    19e8:	13490c27 	movtne	r0, #39975	; 0x9c27
    19ec:	00001301 	andeq	r1, r0, r1, lsl #6
    19f0:	4900050b 	stmdbmi	r0, {r0, r1, r3, r8, sl}
    19f4:	0c000013 	stceq	0, cr0, [r0], {19}
    19f8:	0e030113 	mcreq	1, 0, r0, cr3, cr3, {0}
    19fc:	0b3a0b0b 	bleq	e84630 <__standby_start+0xe84630>
    1a00:	13010b3b 	movwne	r0, #6971	; 0x1b3b
    1a04:	0d0d0000 	stceq	0, cr0, [sp, #-0]
    1a08:	3a0e0300 	bcc	382610 <__standby_start+0x382610>
    1a0c:	490b3b0b 	stmdbmi	fp, {r0, r1, r3, r8, r9, fp, ip, sp}
    1a10:	000a3813 	andeq	r3, sl, r3, lsl r8
    1a14:	000d0e00 	andeq	r0, sp, r0, lsl #28
    1a18:	0b3a0803 	bleq	e83a2c <__standby_start+0xe83a2c>
    1a1c:	13490b3b 	movtne	r0, #39739	; 0x9b3b
    1a20:	00000a38 	andeq	r0, r0, r8, lsr sl
    1a24:	0000350f 	andeq	r3, r0, pc, lsl #10
    1a28:	01011000 	mrseq	r1, (UNDEF: 1)
    1a2c:	13011349 	movwne	r1, #4937	; 0x1349
    1a30:	21110000 	tstcs	r1, r0
    1a34:	2f134900 	svccs	0x00134900
    1a38:	1200000b 	andne	r0, r0, #11
    1a3c:	0c3f012e 	ldfeqs	f0, [pc], #-184	; 198c <__standby_start+0x198c>
    1a40:	0b3a0e03 	bleq	e85254 <__standby_start+0xe85254>
    1a44:	0c27053b 	cfstr32eq	mvfx0, [r7], #-236	; 0xffffff14
    1a48:	0b201349 	bleq	806774 <__standby_start+0x806774>
    1a4c:	00001301 	andeq	r1, r0, r1, lsl #6
    1a50:	03000513 	movweq	r0, #1299	; 0x513
    1a54:	3b0b3a0e 	blcc	2d0294 <__standby_start+0x2d0294>
    1a58:	00134905 	andseq	r4, r3, r5, lsl #18
    1a5c:	012e1400 	teqeq	lr, r0, lsl #8
    1a60:	0e030c3f 	mcreq	12, 0, r0, cr3, cr15, {1}
    1a64:	0b3b0b3a 	bleq	ec4754 <__standby_start+0xec4754>
    1a68:	13490c27 	movtne	r0, #39975	; 0x9c27
    1a6c:	13010b20 	movwne	r0, #6944	; 0x1b20
    1a70:	05150000 	ldreq	r0, [r5, #-0]
    1a74:	3a0e0300 	bcc	38267c <__standby_start+0x38267c>
    1a78:	490b3b0b 	stmdbmi	fp, {r0, r1, r3, r8, r9, fp, ip, sp}
    1a7c:	16000013 			; <UNDEFINED> instruction: 0x16000013
    1a80:	0c3f002e 	ldceq	0, cr0, [pc], #-184	; 19d0 <__standby_start+0x19d0>
    1a84:	0b3a0e03 	bleq	e85298 <__standby_start+0xe85298>
    1a88:	0c270b3b 	stceq	11, cr0, [r7], #-236	; 0xffffff14
    1a8c:	01111349 	tsteq	r1, r9, asr #6
    1a90:	0a400112 	beq	1001ee0 <__standby_start+0x1001ee0>
    1a94:	2e170000 	cdpcs	0, 1, cr0, cr7, cr0, {0}
    1a98:	030c3f01 	movweq	r3, #52993	; 0xcf01
    1a9c:	3b0b3a0e 	blcc	2d02dc <__standby_start+0x2d02dc>
    1aa0:	490c270b 	stmdbmi	ip, {r0, r1, r3, r8, r9, sl, sp}
    1aa4:	12011113 	andne	r1, r1, #-1073741820	; 0xc0000004
    1aa8:	01064001 	tsteq	r6, r1
    1aac:	18000013 	stmdane	r0, {r0, r1, r4}
    1ab0:	0e030005 	cdpeq	0, 0, cr0, cr3, cr5, {0}
    1ab4:	0b3b0b3a 	bleq	ec47a4 <__standby_start+0xec47a4>
    1ab8:	06021349 	streq	r1, [r2], -r9, asr #6
    1abc:	34190000 	ldrcc	r0, [r9], #-0
    1ac0:	3a0e0300 	bcc	3826c8 <__standby_start+0x3826c8>
    1ac4:	490b3b0b 	stmdbmi	fp, {r0, r1, r3, r8, r9, fp, ip, sp}
    1ac8:	00060213 	andeq	r0, r6, r3, lsl r2
    1acc:	00051a00 	andeq	r1, r5, r0, lsl #20
    1ad0:	0b3a0e03 	bleq	e852e4 <__standby_start+0xe852e4>
    1ad4:	13490b3b 	movtne	r0, #39739	; 0x9b3b
    1ad8:	00000a02 	andeq	r0, r0, r2, lsl #20
    1adc:	31012e1b 	tstcc	r1, fp, lsl lr
    1ae0:	12011113 	andne	r1, r1, #-1073741820	; 0xc0000004
    1ae4:	010a4001 	tsteq	sl, r1
    1ae8:	1c000013 	stcne	0, cr0, [r0], {19}
    1aec:	13310005 	teqne	r1, #5
    1af0:	00000602 	andeq	r0, r0, r2, lsl #12
    1af4:	3100051d 	tstcc	r0, sp, lsl r5
    1af8:	000a0213 	andeq	r0, sl, r3, lsl r2
    1afc:	010b1e00 	tsteq	fp, r0, lsl #28
    1b00:	13010655 	movwne	r0, #5717	; 0x1655
    1b04:	1d1f0000 	ldcne	0, cr0, [pc, #-0]	; 1b0c <__standby_start+0x1b0c>
    1b08:	52133101 	andspl	r3, r3, #1073741824	; 0x40000000
    1b0c:	58065501 	stmdapl	r6, {r0, r8, sl, ip, lr}
    1b10:	010b590b 	tsteq	fp, fp, lsl #18
    1b14:	20000013 	andcs	r0, r0, r3, lsl r0
    1b18:	1331011d 	teqne	r1, #1073741831	; 0x40000007
    1b1c:	01120111 	tsteq	r2, r1, lsl r1
    1b20:	05590b58 	ldrbeq	r0, [r9, #-2904]	; 0xb58
    1b24:	0b210000 	bleq	841b2c <__standby_start+0x841b2c>
    1b28:	12011101 	andne	r1, r1, #1073741824	; 0x40000000
    1b2c:	22000001 	andcs	r0, r0, #1
    1b30:	0e030034 	mcreq	0, 0, r0, cr3, cr4, {1}
    1b34:	053b0b3a 	ldreq	r0, [fp, #-2874]!	; 0xb3a
    1b38:	06021349 	streq	r1, [r2], -r9, asr #6
    1b3c:	1d230000 	stcne	0, cr0, [r3, #-0]
    1b40:	52133101 	andspl	r3, r3, #1073741824	; 0x40000000
    1b44:	58065501 	stmdapl	r6, {r0, r8, sl, ip, lr}
    1b48:	0105590b 	tsteq	r5, fp, lsl #18
    1b4c:	24000013 	strcs	r0, [r0], #-19
    1b50:	0e030034 	mcreq	0, 0, r0, cr3, cr4, {1}
    1b54:	0b3b0b3a 	bleq	ec4844 <__standby_start+0xec4844>
    1b58:	0c3f1349 	ldceq	3, cr1, [pc], #-292	; 1a3c <__standby_start+0x1a3c>
    1b5c:	00000c3c 	andeq	r0, r0, ip, lsr ip
    1b60:	01110100 	tsteq	r1, r0, lsl #2
    1b64:	0b130e25 	bleq	4c5400 <__standby_start+0x4c5400>
    1b68:	0e1b0e03 	cdpeq	14, 1, cr0, cr11, cr3, {0}
    1b6c:	01120111 	tsteq	r2, r1, lsl r1
    1b70:	00000610 	andeq	r0, r0, r0, lsl r6
    1b74:	0b002402 	bleq	ab84 <__standby_start+0xab84>
    1b78:	030b3e0b 	movweq	r3, #48651	; 0xbe0b
    1b7c:	0300000e 	movweq	r0, #14
    1b80:	0b0b0024 	bleq	2c1c18 <__standby_start+0x2c1c18>
    1b84:	08030b3e 	stmdaeq	r3, {r1, r2, r3, r4, r5, r8, r9, fp}
    1b88:	2e040000 	cdpcs	0, 0, cr0, cr4, cr0, {0}
    1b8c:	030c3f00 	movweq	r3, #52992	; 0xcf00
    1b90:	3b0b3a0e 	blcc	2d03d0 <__standby_start+0x2d03d0>
    1b94:	490c270b 	stmdbmi	ip, {r0, r1, r3, r8, r9, sl, sp}
    1b98:	12011113 	andne	r1, r1, #-1073741820	; 0xc0000004
    1b9c:	000a4001 	andeq	r4, sl, r1
    1ba0:	012e0500 	teqeq	lr, r0, lsl #10
    1ba4:	0e030c3f 	mcreq	12, 0, r0, cr3, cr15, {1}
    1ba8:	0b3b0b3a 	bleq	ec4898 <__standby_start+0xec4898>
    1bac:	13490c27 	movtne	r0, #39975	; 0x9c27
    1bb0:	01120111 	tsteq	r2, r1, lsl r1
    1bb4:	13010a40 	movwne	r0, #6720	; 0x1a40
    1bb8:	05060000 	streq	r0, [r6, #-0]
    1bbc:	3a0e0300 	bcc	3827c4 <__standby_start+0x3827c4>
    1bc0:	490b3b0b 	stmdbmi	fp, {r0, r1, r3, r8, r9, fp, ip, sp}
    1bc4:	00060213 	andeq	r0, r6, r3, lsl r2
    1bc8:	00050700 	andeq	r0, r5, r0, lsl #14
    1bcc:	0b3a0e03 	bleq	e853e0 <__standby_start+0xe853e0>
    1bd0:	13490b3b 	movtne	r0, #39739	; 0x9b3b
    1bd4:	00000a02 	andeq	r0, r0, r2, lsl #20
    1bd8:	3f012e08 	svccc	0x00012e08
    1bdc:	3a0e030c 	bcc	382814 <__standby_start+0x382814>
    1be0:	270b3b0b 	strcs	r3, [fp, -fp, lsl #22]
    1be4:	1113490c 	tstne	r3, ip, lsl #18
    1be8:	40011201 	andmi	r1, r1, r1, lsl #4
    1bec:	0000000a 	andeq	r0, r0, sl
    1bf0:	25011101 	strcs	r1, [r1, #-257]	; 0x101
    1bf4:	030b130e 	movweq	r1, #45838	; 0xb30e
    1bf8:	110e1b0e 	tstne	lr, lr, lsl #22
    1bfc:	10011201 	andne	r1, r1, r1, lsl #4
    1c00:	02000006 	andeq	r0, r0, #6
    1c04:	0b0b0024 	bleq	2c1c9c <__standby_start+0x2c1c9c>
    1c08:	0e030b3e 	vmoveq.16	d3[0], r0
    1c0c:	24030000 	strcs	r0, [r3], #-0
    1c10:	3e0b0b00 	vmlacc.f64	d0, d11, d0
    1c14:	0008030b 	andeq	r0, r8, fp, lsl #6
    1c18:	01040400 	tsteq	r4, r0, lsl #8
    1c1c:	0b0b0e03 	bleq	2c5430 <__standby_start+0x2c5430>
    1c20:	0b3b0b3a 	bleq	ec4910 <__standby_start+0xec4910>
    1c24:	00001301 	andeq	r1, r0, r1, lsl #6
    1c28:	03002805 	movweq	r2, #2053	; 0x805
    1c2c:	000d1c0e 	andeq	r1, sp, lr, lsl #24
    1c30:	000f0600 	andeq	r0, pc, r0, lsl #12
    1c34:	00000b0b 	andeq	r0, r0, fp, lsl #22
    1c38:	03001607 	movweq	r1, #1543	; 0x607
    1c3c:	3b0b3a0e 	blcc	2d047c <__standby_start+0x2d047c>
    1c40:	0013490b 	andseq	r4, r3, fp, lsl #18
    1c44:	000f0800 	andeq	r0, pc, r0, lsl #16
    1c48:	13490b0b 	movtne	r0, #39691	; 0x9b0b
    1c4c:	15090000 	strne	r0, [r9, #-0]
    1c50:	490c2701 	stmdbmi	ip, {r0, r8, r9, sl, sp}
    1c54:	00130113 	andseq	r0, r3, r3, lsl r1
    1c58:	00050a00 	andeq	r0, r5, r0, lsl #20
    1c5c:	00001349 	andeq	r1, r0, r9, asr #6
    1c60:	0301130b 	movweq	r1, #4875	; 0x130b
    1c64:	3a0b0b0e 	bcc	2c48a4 <__standby_start+0x2c48a4>
    1c68:	010b3b0b 	tsteq	fp, fp, lsl #22
    1c6c:	0c000013 	stceq	0, cr0, [r0], {19}
    1c70:	0e03000d 	cdpeq	0, 0, cr0, cr3, cr13, {0}
    1c74:	0b3b0b3a 	bleq	ec4964 <__standby_start+0xec4964>
    1c78:	0a381349 	beq	e069a4 <__standby_start+0xe069a4>
    1c7c:	0d0d0000 	stceq	0, cr0, [sp, #-0]
    1c80:	3a080300 	bcc	202888 <__standby_start+0x202888>
    1c84:	490b3b0b 	stmdbmi	fp, {r0, r1, r3, r8, r9, fp, ip, sp}
    1c88:	000a3813 	andeq	r3, sl, r3, lsl r8
    1c8c:	00350e00 	eorseq	r0, r5, r0, lsl #28
    1c90:	00001349 	andeq	r1, r0, r9, asr #6
    1c94:	0000350f 	andeq	r3, r0, pc, lsl #10
    1c98:	01011000 	mrseq	r1, (UNDEF: 1)
    1c9c:	13011349 	movwne	r1, #4937	; 0x1349
    1ca0:	21110000 	tstcs	r1, r0
    1ca4:	2f134900 	svccs	0x00134900
    1ca8:	1200000b 	andne	r0, r0, #11
    1cac:	0c3f002e 	ldceq	0, cr0, [pc], #-184	; 1bfc <__standby_start+0x1bfc>
    1cb0:	0b3a0e03 	bleq	e854c4 <__standby_start+0xe854c4>
    1cb4:	0c270b3b 	stceq	11, cr0, [r7], #-236	; 0xffffff14
    1cb8:	01111349 	tsteq	r1, r9, asr #6
    1cbc:	0a400112 	beq	100210c <__standby_start+0x100210c>
    1cc0:	2e130000 	cdpcs	0, 1, cr0, cr3, cr0, {0}
    1cc4:	030c3f01 	movweq	r3, #52993	; 0xcf01
    1cc8:	3b0b3a0e 	blcc	2d0508 <__standby_start+0x2d0508>
    1ccc:	490c270b 	stmdbmi	ip, {r0, r1, r3, r8, r9, sl, sp}
    1cd0:	12011113 	andne	r1, r1, #-1073741820	; 0xc0000004
    1cd4:	01064001 	tsteq	r6, r1
    1cd8:	14000013 	strne	r0, [r0], #-19
    1cdc:	0e030005 	cdpeq	0, 0, cr0, cr3, cr5, {0}
    1ce0:	0b3b0b3a 	bleq	ec49d0 <__standby_start+0xec49d0>
    1ce4:	06021349 	streq	r1, [r2], -r9, asr #6
    1ce8:	34150000 	ldrcc	r0, [r5], #-0
    1cec:	3a0e0300 	bcc	3828f4 <__standby_start+0x3828f4>
    1cf0:	490b3b0b 	stmdbmi	fp, {r0, r1, r3, r8, r9, fp, ip, sp}
    1cf4:	00060213 	andeq	r0, r6, r3, lsl r2
    1cf8:	012e1600 	teqeq	lr, r0, lsl #12
    1cfc:	0e030c3f 	mcreq	12, 0, r0, cr3, cr15, {1}
    1d00:	0b3b0b3a 	bleq	ec49f0 <__standby_start+0xec49f0>
    1d04:	01110c27 	tsteq	r1, r7, lsr #24
    1d08:	06400112 			; <UNDEFINED> instruction: 0x06400112
    1d0c:	00001301 	andeq	r1, r0, r1, lsl #6
    1d10:	03003417 	movweq	r3, #1047	; 0x417
    1d14:	3b0b3a0e 	blcc	2d0554 <__standby_start+0x2d0554>
    1d18:	0213490b 	andseq	r4, r3, #180224	; 0x2c000
    1d1c:	1800000a 	stmdane	r0, {r1, r3}
    1d20:	0e030034 	mcreq	0, 0, r0, cr3, cr4, {1}
    1d24:	0b3b0b3a 	bleq	ec4a14 <__standby_start+0xec4a14>
    1d28:	0c3f1349 	ldceq	3, cr1, [pc], #-292	; 1c0c <__standby_start+0x1c0c>
    1d2c:	00000c3c 	andeq	r0, r0, ip, lsr ip
    1d30:	01110100 	tsteq	r1, r0, lsl #2
    1d34:	0b130e25 	bleq	4c55d0 <__standby_start+0x4c55d0>
    1d38:	0e1b0e03 	cdpeq	14, 1, cr0, cr11, cr3, {0}
    1d3c:	01120111 	tsteq	r2, r1, lsl r1
    1d40:	00000610 	andeq	r0, r0, r0, lsl r6
    1d44:	0b002402 	bleq	ad54 <__standby_start+0xad54>
    1d48:	030b3e0b 	movweq	r3, #48651	; 0xbe0b
    1d4c:	0300000e 	movweq	r0, #14
    1d50:	0e030016 	mcreq	0, 0, r0, cr3, cr6, {0}
    1d54:	0b3b0b3a 	bleq	ec4a44 <__standby_start+0xec4a44>
    1d58:	00001349 	andeq	r1, r0, r9, asr #6
    1d5c:	0b002404 	bleq	ad74 <__standby_start+0xad74>
    1d60:	030b3e0b 	movweq	r3, #48651	; 0xbe0b
    1d64:	05000008 	streq	r0, [r0, #-8]
    1d68:	0e030104 	adfeqs	f0, f3, f4
    1d6c:	0b3a0b0b 	bleq	e849a0 <__standby_start+0xe849a0>
    1d70:	13010b3b 	movwne	r0, #6971	; 0x1b3b
    1d74:	28060000 	stmdacs	r6, {}	; <UNPREDICTABLE>
    1d78:	1c0e0300 	stcne	3, cr0, [lr], {-0}
    1d7c:	0700000d 	streq	r0, [r0, -sp]
    1d80:	0e03012e 	adfeqsp	f0, f3, #0.5
    1d84:	0b3b0b3a 	bleq	ec4a74 <__standby_start+0xec4a74>
    1d88:	13490c27 	movtne	r0, #39975	; 0x9c27
    1d8c:	13010b20 	movwne	r0, #6944	; 0x1b20
    1d90:	34080000 	strcc	r0, [r8], #-0
    1d94:	3a0e0300 	bcc	38299c <__standby_start+0x38299c>
    1d98:	490b3b0b 	stmdbmi	fp, {r0, r1, r3, r8, r9, fp, ip, sp}
    1d9c:	09000013 	stmdbeq	r0, {r0, r1, r4}
    1da0:	0e03012e 	adfeqsp	f0, f3, #0.5
    1da4:	0b3b0b3a 	bleq	ec4a94 <__standby_start+0xec4a94>
    1da8:	0b200c27 	bleq	804e4c <__standby_start+0x804e4c>
    1dac:	00001301 	andeq	r1, r0, r1, lsl #6
    1db0:	0300050a 	movweq	r0, #1290	; 0x50a
    1db4:	3b0b3a0e 	blcc	2d05f4 <__standby_start+0x2d05f4>
    1db8:	0013490b 	andseq	r4, r3, fp, lsl #18
    1dbc:	012e0b00 	teqeq	lr, r0, lsl #22
    1dc0:	0e030c3f 	mcreq	12, 0, r0, cr3, cr15, {1}
    1dc4:	0b3b0b3a 	bleq	ec4ab4 <__standby_start+0xec4ab4>
    1dc8:	13490c27 	movtne	r0, #39975	; 0x9c27
    1dcc:	01120111 	tsteq	r2, r1, lsl r1
    1dd0:	13010a40 	movwne	r0, #6720	; 0x1a40
    1dd4:	050c0000 	streq	r0, [ip, #-0]
    1dd8:	3a0e0300 	bcc	3829e0 <__standby_start+0x3829e0>
    1ddc:	490b3b0b 	stmdbmi	fp, {r0, r1, r3, r8, r9, fp, ip, sp}
    1de0:	00060213 	andeq	r0, r6, r3, lsl r2
    1de4:	012e0d00 	teqeq	lr, r0, lsl #26
    1de8:	0e030c3f 	mcreq	12, 0, r0, cr3, cr15, {1}
    1dec:	0b3b0b3a 	bleq	ec4adc <__standby_start+0xec4adc>
    1df0:	13490c27 	movtne	r0, #39975	; 0x9c27
    1df4:	01120111 	tsteq	r2, r1, lsl r1
    1df8:	13010640 	movwne	r0, #5696	; 0x1640
    1dfc:	340e0000 	strcc	r0, [lr], #-0
    1e00:	3a0e0300 	bcc	382a08 <__standby_start+0x382a08>
    1e04:	490b3b0b 	stmdbmi	fp, {r0, r1, r3, r8, r9, fp, ip, sp}
    1e08:	00060213 	andeq	r0, r6, r3, lsl r2
    1e0c:	011d0f00 	tsteq	sp, r0, lsl #30
    1e10:	01111331 	tsteq	r1, r1, lsr r3
    1e14:	0b580112 	bleq	1602264 <__standby_start+0x1602264>
    1e18:	13010b59 	movwne	r0, #7001	; 0x1b59
    1e1c:	0b100000 	bleq	401e24 <__standby_start+0x401e24>
    1e20:	12011101 	andne	r1, r1, #1073741824	; 0x40000000
    1e24:	11000001 	tstne	r0, r1
    1e28:	13310034 	teqne	r1, #52	; 0x34
    1e2c:	00000602 	andeq	r0, r0, r2, lsl #12
    1e30:	31011d12 	tstcc	r1, r2, lsl sp
    1e34:	12011113 	andne	r1, r1, #-1073741820	; 0xc0000004
    1e38:	590b5801 	stmdbpl	fp, {r0, fp, ip, lr}
    1e3c:	1300000b 	movwne	r0, #11
    1e40:	13310005 	teqne	r1, #5
    1e44:	00000602 	andeq	r0, r0, r2, lsl #12
    1e48:	31011d14 	tstcc	r1, r4, lsl sp
    1e4c:	55015213 	strpl	r5, [r1, #-531]	; 0x213
    1e50:	590b5806 	stmdbpl	fp, {r1, r2, fp, ip, lr}
    1e54:	1500000b 	strne	r0, [r0, #-11]
    1e58:	13310005 	teqne	r1, #5
    1e5c:	00000a02 	andeq	r0, r0, r2, lsl #20
    1e60:	31003416 	tstcc	r0, r6, lsl r4
    1e64:	000a0213 	andeq	r0, sl, r3, lsl r2
    1e68:	00341700 	eorseq	r1, r4, r0, lsl #14
    1e6c:	0b3a0e03 	bleq	e85680 <__standby_start+0xe85680>
    1e70:	13490b3b 	movtne	r0, #39739	; 0x9b3b
    1e74:	00000a02 	andeq	r0, r0, r2, lsl #20
	...

Disassembly of section .debug_loc:

00000000 <.debug_loc>:
       0:	00000000 	andeq	r0, r0, r0
       4:	00000004 	andeq	r0, r0, r4
       8:	007d0002 	rsbseq	r0, sp, r2
       c:	00000004 	andeq	r0, r0, r4
      10:	000003c8 	andeq	r0, r0, r8, asr #7
      14:	187d0002 	ldmdane	sp!, {r1}^
	...
      24:	0000000c 	andeq	r0, r0, ip
      28:	0c500001 	mrrceq	0, 0, r0, r0, cr1	; <UNPREDICTABLE>
      2c:	c8000000 	stmdagt	r0, {}	; <UNPREDICTABLE>
      30:	01000003 	tsteq	r0, r3
      34:	00005500 	andeq	r5, r0, r0, lsl #10
      38:	00000000 	andeq	r0, r0, r0
      3c:	00200000 	eoreq	r0, r0, r0
      40:	00370000 	eorseq	r0, r7, r0
      44:	00010000 	andeq	r0, r1, r0
      48:	00000053 	andeq	r0, r0, r3, asr r0
	...
      54:	00000c00 	andeq	r0, r0, r0, lsl #24
      58:	50000100 	andpl	r0, r0, r0, lsl #2
	...
      68:	00000018 	andeq	r0, r0, r8, lsl r0
      6c:	18510001 	ldmdane	r1, {r0}^
      70:	1c000000 	stcne	0, cr0, [r0], {-0}
      74:	03000000 	movweq	r0, #0
      78:	9f017100 	svcls	0x00017100
	...
      88:	0000001c 	andeq	r0, r0, ip, lsl r0
      8c:	00520001 	subseq	r0, r2, r1
      90:	00000000 	andeq	r0, r0, r0
      94:	60000000 	andvs	r0, r0, r0
      98:	70000000 	andvc	r0, r0, r0
      9c:	01000000 	mrseq	r0, (UNDEF: 0)
      a0:	00705200 	rsbseq	r5, r0, r0, lsl #4
      a4:	00740000 	rsbseq	r0, r4, r0
      a8:	00060000 	andeq	r0, r6, r0
      ac:	f8090072 			; <UNDEFINED> instruction: 0xf8090072
      b0:	00749f1a 	rsbseq	r9, r4, sl, lsl pc
      b4:	00880000 	addeq	r0, r8, r0
      b8:	00010000 	andeq	r0, r1, r0
      bc:	00000052 	andeq	r0, r0, r2, asr r0
	...
      c8:	00000400 	andeq	r0, r0, r0, lsl #8
      cc:	7d000200 	sfmvc	f0, 4, [r0, #-0]
      d0:	00000400 	andeq	r0, r0, r0, lsl #8
      d4:	00005800 	andeq	r5, r0, r0, lsl #16
      d8:	7d000200 	sfmvc	f0, 4, [r0, #-0]
      dc:	00000010 	andeq	r0, r0, r0, lsl r0
	...
      e8:	00000800 	andeq	r0, r0, r0, lsl #16
      ec:	7d000200 	sfmvc	f0, 4, [r0, #-0]
      f0:	00000800 	andeq	r0, r0, r0, lsl #16
      f4:	00000c00 	andeq	r0, r0, r0, lsl #24
      f8:	7d000200 	sfmvc	f0, 4, [r0, #-0]
      fc:	00000c14 	andeq	r0, r0, r4, lsl ip
     100:	0001a000 	andeq	sl, r1, r0
     104:	7d000200 	sfmvc	f0, 4, [r0, #-0]
     108:	00000020 	andeq	r0, r0, r0, lsr #32
	...
     114:	00004400 	andeq	r4, r0, r0, lsl #8
     118:	50000100 	andpl	r0, r0, r0, lsl #2
     11c:	0000004c 	andeq	r0, r0, ip, asr #32
     120:	0000007c 	andeq	r0, r0, ip, ror r0
     124:	f8500001 			; <UNDEFINED> instruction: 0xf8500001
     128:	10000000 	andne	r0, r0, r0
     12c:	01000001 	tsteq	r0, r1
     130:	01485000 	mrseq	r5, (UNDEF: 72)
     134:	01540000 	cmpeq	r4, r0
     138:	00010000 	andeq	r0, r1, r0
     13c:	00000050 	andeq	r0, r0, r0, asr r0
	...
     148:	00004400 	andeq	r4, r0, r0, lsl #8
     14c:	51000100 	mrspl	r0, (UNDEF: 16)
     150:	0000004c 	andeq	r0, r0, ip, asr #32
     154:	00000080 	andeq	r0, r0, r0, lsl #1
     158:	f8510001 			; <UNDEFINED> instruction: 0xf8510001
     15c:	1c000000 	stcne	0, cr0, [r0], {-0}
     160:	01000001 	tsteq	r0, r1
     164:	01485100 	mrseq	r5, (UNDEF: 88)
     168:	01540000 	cmpeq	r4, r0
     16c:	00010000 	andeq	r0, r1, r0
     170:	00000051 	andeq	r0, r0, r1, asr r0
	...
     17c:	00004400 	andeq	r4, r0, r0, lsl #8
     180:	30000200 	andcc	r0, r0, r0, lsl #4
     184:	00004c9f 	muleq	r0, pc, ip	; <UNPREDICTABLE>
     188:	00005000 	andeq	r5, r0, r0
     18c:	30000200 	andcc	r0, r0, r0, lsl #4
     190:	0000009f 	muleq	r0, pc, r0	; <UNPREDICTABLE>
     194:	00000000 	andeq	r0, r0, r0
     198:	00008800 	andeq	r8, r0, r0, lsl #16
     19c:	00009800 	andeq	r9, r0, r0, lsl #16
     1a0:	50000100 	andpl	r0, r0, r0, lsl #2
     1a4:	00000098 	muleq	r0, r8, r0
     1a8:	000000e0 	andeq	r0, r0, r0, ror #1
     1ac:	28570001 	ldmdacs	r7, {r0}^
     1b0:	34000001 	strcc	r0, [r0], #-1
     1b4:	01000001 	tsteq	r0, r1
     1b8:	01345000 	teqeq	r4, r0
     1bc:	01380000 	teqeq	r8, r0
     1c0:	00030000 	andeq	r0, r3, r0
     1c4:	389f7a70 	ldmcc	pc, {r4, r5, r6, r9, fp, ip, sp, lr}	; <UNPREDICTABLE>
     1c8:	48000001 	stmdami	r0, {r0}
     1cc:	03000001 	movweq	r0, #1
     1d0:	9f007000 	svcls	0x00007000
     1d4:	00000154 	andeq	r0, r0, r4, asr r1
     1d8:	00000178 	andeq	r0, r0, r8, ror r1
     1dc:	88500001 	ldmdahi	r0, {r0}^
     1e0:	8c000001 	stchi	0, cr0, [r0], {1}
     1e4:	03000001 	movweq	r0, #1
     1e8:	9f7b7000 	svcls	0x007b7000
     1ec:	0000018c 	andeq	r0, r0, ip, lsl #3
     1f0:	000001a0 	andeq	r0, r0, r0, lsr #3
     1f4:	00700003 	rsbseq	r0, r0, r3
     1f8:	0000009f 	muleq	r0, pc, r0	; <UNPREDICTABLE>
     1fc:	00000000 	andeq	r0, r0, r0
     200:	0000c800 	andeq	ip, r0, r0, lsl #16
     204:	0000f800 	andeq	pc, r0, r0, lsl #16
     208:	56000100 	strpl	r0, [r0], -r0, lsl #2
	...
     214:	00000044 	andeq	r0, r0, r4, asr #32
     218:	0000004c 	andeq	r0, r0, ip, asr #32
     21c:	5f910002 	svcpl	0x00910002
     220:	000000c0 	andeq	r0, r0, r0, asr #1
     224:	000000f8 	strdeq	r0, [r0], -r8
     228:	5f910002 	svcpl	0x00910002
	...
     234:	00000004 	andeq	r0, r0, r4
     238:	00000044 	andeq	r0, r0, r4, asr #32
     23c:	4c500001 	mrrcmi	0, 0, r0, r0, cr1	; <UNPREDICTABLE>
     240:	7c000000 	stcvc	0, cr0, [r0], {-0}
     244:	01000000 	mrseq	r0, (UNDEF: 0)
     248:	00f85000 	rscseq	r5, r8, r0
     24c:	01100000 	tsteq	r0, r0
     250:	00010000 	andeq	r0, r1, r0
     254:	00014850 	andeq	r4, r1, r0, asr r8
     258:	00015400 	andeq	r5, r1, r0, lsl #8
     25c:	50000100 	andpl	r0, r0, r0, lsl #2
	...
     268:	00000004 	andeq	r0, r0, r4
     26c:	00000020 	andeq	r0, r0, r0, lsr #32
     270:	40030006 	andmi	r0, r3, r6
     274:	9ff00039 	svcls	0x00f00039
     278:	00000034 	andeq	r0, r0, r4, lsr r0
     27c:	00000044 	andeq	r0, r0, r4, asr #32
     280:	4c540001 	mrrcmi	0, 0, r0, r4, cr1
     284:	50000000 	andpl	r0, r0, r0
     288:	06000000 	streq	r0, [r0], -r0
     28c:	39400300 	stmdbcc	r0, {r8, r9}^
     290:	009ff000 	addseq	pc, pc, r0
     294:	00000000 	andeq	r0, r0, r0
     298:	04000000 	streq	r0, [r0], #-0
     29c:	20000000 	andcs	r0, r0, r0
     2a0:	02000000 	andeq	r0, r0, #0
     2a4:	3c9f3000 	ldccc	0, cr3, [pc], {0}
     2a8:	44000000 	strmi	r0, [r0], #-0
     2ac:	01000000 	mrseq	r0, (UNDEF: 0)
     2b0:	004c5200 	subeq	r5, ip, r0, lsl #4
     2b4:	00500000 	subseq	r0, r0, r0
     2b8:	00020000 	andeq	r0, r2, r0
     2bc:	00009f30 	andeq	r9, r0, r0, lsr pc
     2c0:	00000000 	andeq	r0, r0, r0
     2c4:	00500000 	subseq	r0, r0, r0
     2c8:	00800000 	addeq	r0, r0, r0
     2cc:	00010000 	andeq	r0, r1, r0
     2d0:	0000f851 	andeq	pc, r0, r1, asr r8	; <UNPREDICTABLE>
     2d4:	00011c00 	andeq	r1, r1, r0, lsl #24
     2d8:	51000100 	mrspl	r0, (UNDEF: 16)
     2dc:	00000148 	andeq	r0, r0, r8, asr #2
     2e0:	00000154 	andeq	r0, r0, r4, asr r1
     2e4:	00510001 	subseq	r0, r1, r1
     2e8:	00000000 	andeq	r0, r0, r0
     2ec:	a0000000 	andge	r0, r0, r0
     2f0:	a8000001 	stmdage	r0, {r0}
     2f4:	02000001 	andeq	r0, r0, #1
     2f8:	a8007d00 	stmdage	r0, {r8, sl, fp, ip, sp, lr}
     2fc:	b0000001 	andlt	r0, r0, r1
     300:	02000001 	andeq	r0, r0, #1
     304:	b00c7d00 	andlt	r7, ip, r0, lsl #26
     308:	58000001 	stmdapl	r0, {r0}
     30c:	02000002 	andeq	r0, r0, #2
     310:	00187d00 	andseq	r7, r8, r0, lsl #26
     314:	00000000 	andeq	r0, r0, r0
     318:	a0000000 	andge	r0, r0, r0
     31c:	bc000001 	stclt	0, cr0, [r0], {1}
     320:	01000001 	tsteq	r0, r1
     324:	01c45000 	biceq	r5, r4, r0
     328:	02580000 	subseq	r0, r8, #0
     32c:	00010000 	andeq	r0, r1, r0
     330:	00000054 	andeq	r0, r0, r4, asr r0
     334:	00000000 	andeq	r0, r0, r0
     338:	0001a000 	andeq	sl, r1, r0
     33c:	0001ec00 	andeq	lr, r1, r0, lsl #24
     340:	30000200 	andcc	r0, r0, r0, lsl #4
     344:	0001f49f 	muleq	r1, pc, r4	; <UNPREDICTABLE>
     348:	0001f800 	andeq	pc, r1, r0, lsl #16
     34c:	30000200 	andcc	r0, r0, r0, lsl #4
     350:	0000009f 	muleq	r0, pc, r0	; <UNPREDICTABLE>
     354:	00000000 	andeq	r0, r0, r0
     358:	00021c00 	andeq	r1, r2, r0, lsl #24
     35c:	00022000 	andeq	r2, r2, r0
     360:	91000200 	mrsls	r0, R8_usr
     364:	00023067 	andeq	r3, r2, r7, rrx
     368:	00024000 	andeq	r4, r2, r0
     36c:	51000100 	mrspl	r0, (UNDEF: 16)
     370:	00000244 	andeq	r0, r0, r4, asr #4
     374:	0000024c 	andeq	r0, r0, ip, asr #4
     378:	00530001 	subseq	r0, r3, r1
     37c:	00000000 	andeq	r0, r0, r0
     380:	ac000000 	stcge	0, cr0, [r0], {-0}
     384:	c4000001 	strgt	r0, [r0], #-1
     388:	01000001 	tsteq	r0, r1
     38c:	01c45000 	biceq	r5, r4, r0
     390:	02580000 	subseq	r0, r8, #0
     394:	00010000 	andeq	r0, r1, r0
     398:	00000054 	andeq	r0, r0, r4, asr r0
     39c:	00000000 	andeq	r0, r0, r0
     3a0:	0001ac00 	andeq	sl, r1, r0, lsl #24
     3a4:	0001c400 	andeq	ip, r1, r0, lsl #8
     3a8:	03000600 	movweq	r0, #1536	; 0x600
     3ac:	f0003940 			; <UNDEFINED> instruction: 0xf0003940
     3b0:	0001d89f 	muleq	r1, pc, r8	; <UNPREDICTABLE>
     3b4:	0001ec00 	andeq	lr, r1, r0, lsl #24
     3b8:	55000100 	strpl	r0, [r0, #-256]	; 0x100
     3bc:	000001f4 	strdeq	r0, [r0], -r4
     3c0:	000001f8 	strdeq	r0, [r0], -r8
     3c4:	40030006 	andmi	r0, r3, r6
     3c8:	9ff00039 	svcls	0x00f00039
	...
     3d4:	000001ac 	andeq	r0, r0, ip, lsr #3
     3d8:	000001c4 	andeq	r0, r0, r4, asr #3
     3dc:	9f300002 	svcls	0x00300002
     3e0:	000001e0 	andeq	r0, r0, r0, ror #3
     3e4:	000001ec 	andeq	r0, r0, ip, ror #3
     3e8:	f4520001 			; <UNDEFINED> instruction: 0xf4520001
     3ec:	f8000001 			; <UNDEFINED> instruction: 0xf8000001
     3f0:	02000001 	andeq	r0, r0, #1
     3f4:	009f3000 	addseq	r3, pc, r0
	...
     400:	18000000 	stmdane	r0, {}	; <UNPREDICTABLE>
     404:	01000000 	mrseq	r0, (UNDEF: 0)
     408:	00005000 	andeq	r5, r0, r0
     40c:	00000000 	andeq	r0, r0, r0
     410:	004c0000 	subeq	r0, ip, r0
     414:	00500000 	subseq	r0, r0, r0
     418:	00020000 	andeq	r0, r2, r0
     41c:	0050007d 	subseq	r0, r0, sp, ror r0
     420:	00940000 	addseq	r0, r4, r0
     424:	00020000 	andeq	r0, r2, r0
     428:	0000087d 	andeq	r0, r0, sp, ror r8
     42c:	00000000 	andeq	r0, r0, r0
     430:	00940000 	addseq	r0, r4, r0
     434:	009c0000 	addseq	r0, ip, r0
     438:	00020000 	andeq	r0, r2, r0
     43c:	009c007d 	addseq	r0, ip, sp, ror r0
     440:	03480000 	movteq	r0, #32768	; 0x8000
     444:	00020000 	andeq	r0, r2, r0
     448:	0000087d 	andeq	r0, r0, sp, ror r8
     44c:	00000000 	andeq	r0, r0, r0
     450:	00940000 	addseq	r0, r4, r0
     454:	01900000 	orrseq	r0, r0, r0
     458:	00010000 	andeq	r0, r1, r0
     45c:	0002ec50 	andeq	lr, r2, r0, asr ip
     460:	00033800 	andeq	r3, r3, r0, lsl #16
     464:	50000100 	andpl	r0, r0, r0, lsl #2
	...
     470:	00000094 	muleq	r0, r4, r0
     474:	000000fc 	strdeq	r0, [r0], -ip
     478:	00510001 	subseq	r0, r1, r1
     47c:	00000000 	andeq	r0, r0, r0
     480:	94000000 	strls	r0, [r0], #-0
     484:	48000000 	stmdami	r0, {}	; <UNPREDICTABLE>
     488:	01000001 	tsteq	r0, r1
     48c:	00005200 	andeq	r5, r0, r0, lsl #4
     490:	00000000 	andeq	r0, r0, r0
     494:	00940000 	addseq	r0, r4, r0
     498:	02540000 	subseq	r0, r4, #0
     49c:	00010000 	andeq	r0, r1, r0
     4a0:	0002ec53 	andeq	lr, r2, r3, asr ip
     4a4:	0002f400 	andeq	pc, r2, r0, lsl #8
     4a8:	53000100 	movwpl	r0, #256	; 0x100
	...
     4b4:	000000ac 	andeq	r0, r0, ip, lsr #1
     4b8:	000000b0 	strheq	r0, [r0], -r0	; <UNPREDICTABLE>
     4bc:	ec540001 	mrrc	0, 0, r0, r4, cr1
     4c0:	f0000000 			; <UNDEFINED> instruction: 0xf0000000
     4c4:	01000000 	mrseq	r0, (UNDEF: 0)
     4c8:	01345400 	teqeq	r4, r0, lsl #8
     4cc:	01380000 	teqeq	r8, r0
     4d0:	00010000 	andeq	r0, r1, r0
     4d4:	00017854 	andeq	r7, r1, r4, asr r8
     4d8:	00017c00 	andeq	r7, r1, r0, lsl #24
     4dc:	52000100 	andpl	r0, r0, #0
     4e0:	000001c4 	andeq	r0, r0, r4, asr #3
     4e4:	000001c8 	andeq	r0, r0, r8, asr #3
     4e8:	0c520001 	mrrceq	0, 0, r0, r2, cr1
     4ec:	10000002 	andne	r0, r0, r2
     4f0:	01000002 	tsteq	r0, r2
     4f4:	02545200 	subseq	r5, r4, #0
     4f8:	02580000 	subseq	r0, r8, #0
     4fc:	00010000 	andeq	r0, r1, r0
     500:	00032853 	andeq	r2, r3, r3, asr r8
     504:	00032c00 	andeq	r2, r3, r0, lsl #24
     508:	53000100 	movwpl	r0, #256	; 0x100
	...
     514:	000000c8 	andeq	r0, r0, r8, asr #1
     518:	000000cc 	andeq	r0, r0, ip, asr #1
     51c:	ff0a0004 			; <UNDEFINED> instruction: 0xff0a0004
     520:	00cc9f02 	sbceq	r9, ip, r2, lsl #30
     524:	00d00000 	sbcseq	r0, r0, r0
     528:	00010000 	andeq	r0, r1, r0
     52c:	0000d054 	andeq	sp, r0, r4, asr r0
     530:	0000d400 	andeq	sp, r0, r0, lsl #8
     534:	74000300 	strvc	r0, [r0], #-768	; 0x300
     538:	00d49f01 	sbcseq	r9, r4, r1, lsl #30
     53c:	00e80000 	rsceq	r0, r8, r0
     540:	00010000 	andeq	r0, r1, r0
     544:	00011054 	andeq	r1, r1, r4, asr r0
     548:	00011400 	andeq	r1, r1, r0, lsl #8
     54c:	0a000400 	beq	1554 <__standby_start+0x1554>
     550:	149f02ff 	ldrne	r0, [pc], #767	; 558 <__standby_start+0x558>
     554:	18000001 	stmdane	r0, {r0}
     558:	01000001 	tsteq	r0, r1
     55c:	01185400 	tsteq	r8, r0, lsl #8
     560:	011c0000 	tsteq	ip, r0
     564:	00030000 	andeq	r0, r3, r0
     568:	1c9f0174 	ldfnes	f0, [pc], {116}	; 0x74
     56c:	30000001 	andcc	r0, r0, r1
     570:	01000001 	tsteq	r0, r1
     574:	01545400 	cmpeq	r4, r0, lsl #8
     578:	01580000 	cmpeq	r8, r0
     57c:	00040000 	andeq	r0, r4, r0
     580:	9f02ff0a 	svcls	0x0002ff0a
     584:	00000158 	andeq	r0, r0, r8, asr r1
     588:	0000015c 	andeq	r0, r0, ip, asr r1
     58c:	5c520001 	mrrcpl	0, 0, r0, r2, cr1
     590:	60000001 	andvs	r0, r0, r1
     594:	03000001 	movweq	r0, #1
     598:	9f017200 	svcls	0x00017200
     59c:	00000160 	andeq	r0, r0, r0, ror #2
     5a0:	00000174 	andeq	r0, r0, r4, ror r1
     5a4:	a0520001 	subsge	r0, r2, r1
     5a8:	a4000001 	strge	r0, [r0], #-1
     5ac:	04000001 	streq	r0, [r0], #-1
     5b0:	02ff0a00 	rscseq	r0, pc, #0
     5b4:	0001a49f 	muleq	r1, pc, r4	; <UNPREDICTABLE>
     5b8:	0001a800 	andeq	sl, r1, r0, lsl #16
     5bc:	52000100 	andpl	r0, r0, #0
     5c0:	000001a8 	andeq	r0, r0, r8, lsr #3
     5c4:	000001ac 	andeq	r0, r0, ip, lsr #3
     5c8:	01720003 	cmneq	r2, r3
     5cc:	0001ac9f 	muleq	r1, pc, ip	; <UNPREDICTABLE>
     5d0:	0001c000 	andeq	ip, r1, r0
     5d4:	52000100 	andpl	r0, r0, #0
     5d8:	000001e8 	andeq	r0, r0, r8, ror #3
     5dc:	000001ec 	andeq	r0, r0, ip, ror #3
     5e0:	ff0a0004 			; <UNDEFINED> instruction: 0xff0a0004
     5e4:	01ec9f02 	mvneq	r9, r2, lsl #30
     5e8:	01f00000 	mvnseq	r0, r0
     5ec:	00010000 	andeq	r0, r1, r0
     5f0:	0001f052 	andeq	pc, r1, r2, asr r0	; <UNPREDICTABLE>
     5f4:	0001f400 	andeq	pc, r1, r0, lsl #8
     5f8:	72000300 	andvc	r0, r0, #0
     5fc:	01f49f01 	mvnseq	r9, r1, lsl #30
     600:	02080000 	andeq	r0, r8, #0
     604:	00010000 	andeq	r0, r1, r0
     608:	00022852 	andeq	r2, r2, r2, asr r8
     60c:	00022c00 	andeq	r2, r2, r0, lsl #24
     610:	0a000400 	beq	1618 <__standby_start+0x1618>
     614:	2c9f02ff 	lfmcs	f0, 4, [pc], {255}	; 0xff
     618:	30000002 	andcc	r0, r0, r2
     61c:	01000002 	tsteq	r0, r2
     620:	02305200 	eorseq	r5, r0, #0
     624:	02340000 	eorseq	r0, r4, #0
     628:	00030000 	andeq	r0, r3, r0
     62c:	349f0172 	ldrcc	r0, [pc], #370	; 634 <__standby_start+0x634>
     630:	48000002 	stmdami	r0, {r1}
     634:	01000002 	tsteq	r0, r2
     638:	03045200 	movweq	r5, #16896	; 0x4200
     63c:	03080000 	movweq	r0, #32768	; 0x8000
     640:	00040000 	andeq	r0, r4, r0
     644:	9f02ff0a 	svcls	0x0002ff0a
     648:	00000308 	andeq	r0, r0, r8, lsl #6
     64c:	0000030c 	andeq	r0, r0, ip, lsl #6
     650:	0c530001 	mrrceq	0, 0, r0, r3, cr1
     654:	10000003 	andne	r0, r0, r3
     658:	03000003 	movweq	r0, #3
     65c:	9f017300 	svcls	0x00017300
     660:	00000310 	andeq	r0, r0, r0, lsl r3
     664:	00000324 	andeq	r0, r0, r4, lsr #6
     668:	00530001 	subseq	r0, r3, r1
     66c:	00000000 	andeq	r0, r0, r0
     670:	94000000 	strls	r0, [r0], #-0
     674:	6c000000 	stcvs	0, cr0, [r0], {-0}
     678:	03000002 	movweq	r0, #2
     67c:	9fff0900 	svcls	0x00ff0900
     680:	0000026c 	andeq	r0, r0, ip, ror #4
     684:	000002ec 	andeq	r0, r0, ip, ror #5
     688:	ec500001 	mrrc	0, 0, r0, r0, cr1	; <UNPREDICTABLE>
     68c:	3c000002 	stccc	0, cr0, [r0], {2}
     690:	03000003 	movweq	r0, #3
     694:	9fff0900 	svcls	0x00ff0900
     698:	0000033c 	andeq	r0, r0, ip, lsr r3
     69c:	00000348 	andeq	r0, r0, r8, asr #6
     6a0:	00500001 	subseq	r0, r0, r1
     6a4:	00000000 	andeq	r0, r0, r0
     6a8:	6c000000 	stcvs	0, cr0, [r0], {-0}
     6ac:	88000002 	stmdahi	r0, {r1}
     6b0:	04000002 	streq	r0, [r0], #-2
     6b4:	02ff0a00 	rscseq	r0, pc, #0
     6b8:	0002889f 	muleq	r2, pc, r8	; <UNPREDICTABLE>
     6bc:	00028c00 	andeq	r8, r2, r0, lsl #24
     6c0:	53000100 	movwpl	r0, #256	; 0x100
     6c4:	0000028c 	andeq	r0, r0, ip, lsl #5
     6c8:	00000290 	muleq	r0, r0, r2
     6cc:	01730003 	cmneq	r3, r3
     6d0:	0002909f 	muleq	r2, pc, r0	; <UNPREDICTABLE>
     6d4:	0002a400 	andeq	sl, r2, r0, lsl #8
     6d8:	53000100 	movwpl	r0, #256	; 0x100
     6dc:	000002b0 			; <UNDEFINED> instruction: 0x000002b0
     6e0:	000002b4 			; <UNDEFINED> instruction: 0x000002b4
     6e4:	b4530001 	ldrblt	r0, [r3], #-1
     6e8:	b8000002 	stmdalt	r0, {r1}
     6ec:	03000002 	movweq	r0, #2
     6f0:	9f017300 	svcls	0x00017300
     6f4:	000002b8 			; <UNDEFINED> instruction: 0x000002b8
     6f8:	000002cc 	andeq	r0, r0, ip, asr #5
     6fc:	3c530001 	mrrccc	0, 0, r0, r3, cr1
     700:	40000003 	andmi	r0, r0, r3
     704:	03000003 	movweq	r0, #3
     708:	9f017300 	svcls	0x00017300
     70c:	00000340 	andeq	r0, r0, r0, asr #6
     710:	00000348 	andeq	r0, r0, r8, asr #6
     714:	81730004 	cmnhi	r3, r4
     718:	00009f7a 	andeq	r9, r0, sl, ror pc
     71c:	00000000 	andeq	r0, r0, r0
     720:	00100000 	andseq	r0, r0, r0
     724:	00140000 	andseq	r0, r4, r0
     728:	00010000 	andeq	r0, r1, r0
     72c:	00000050 	andeq	r0, r0, r0, asr r0
	...
     738:	00000400 	andeq	r0, r0, r0, lsl #8
     73c:	7d000200 	sfmvc	f0, 4, [r0, #-0]
     740:	00000400 	andeq	r0, r0, r0, lsl #8
     744:	00002000 	andeq	r2, r0, r0
     748:	7d000200 	sfmvc	f0, 4, [r0, #-0]
     74c:	00000008 	andeq	r0, r0, r8
     750:	00000000 	andeq	r0, r0, r0
     754:	00007000 	andeq	r7, r0, r0
     758:	00007400 	andeq	r7, r0, r0, lsl #8
     75c:	7d000200 	sfmvc	f0, 4, [r0, #-0]
     760:	00007400 	andeq	r7, r0, r0, lsl #8
     764:	00010400 	andeq	r0, r1, r0, lsl #8
     768:	7d000200 	sfmvc	f0, 4, [r0, #-0]
     76c:	00000008 	andeq	r0, r0, r8
     770:	00000000 	andeq	r0, r0, r0
     774:	00007000 	andeq	r7, r0, r0
     778:	0000a000 	andeq	sl, r0, r0
     77c:	31000200 	mrscc	r0, R8_usr
     780:	0000009f 	muleq	r0, pc, r0	; <UNPREDICTABLE>
     784:	00000000 	andeq	r0, r0, r0
     788:	00010800 	andeq	r0, r1, r0, lsl #16
     78c:	00010c00 	andeq	r0, r1, r0, lsl #24
     790:	7d000200 	sfmvc	f0, 4, [r0, #-0]
     794:	00010c00 	andeq	r0, r1, r0, lsl #24
     798:	00011000 	andeq	r1, r1, r0
     79c:	7d000200 	sfmvc	f0, 4, [r0, #-0]
     7a0:	00011008 	andeq	r1, r1, r8
     7a4:	00019c00 	andeq	r9, r1, r0, lsl #24
     7a8:	7d000200 	sfmvc	f0, 4, [r0, #-0]
     7ac:	00000010 	andeq	r0, r0, r0, lsl r0
     7b0:	00000000 	andeq	r0, r0, r0
     7b4:	00010800 	andeq	r0, r1, r0, lsl #16
     7b8:	00011c00 	andeq	r1, r1, r0, lsl #24
     7bc:	50000100 	andpl	r0, r0, r0, lsl #2
     7c0:	0000011c 	andeq	r0, r0, ip, lsl r1
     7c4:	0000019c 	muleq	r0, ip, r1
     7c8:	6c910002 	ldcvs	0, cr0, [r1], {2}
	...
     7d4:	0000019c 	muleq	r0, ip, r1
     7d8:	000001a0 	andeq	r0, r0, r0, lsr #3
     7dc:	007d0002 	rsbseq	r0, sp, r2
     7e0:	000001a0 	andeq	r0, r0, r0, lsr #3
     7e4:	000001f0 	strdeq	r0, [r0], -r0	; <UNPREDICTABLE>
     7e8:	087d0002 	ldmdaeq	sp!, {r1}^
	...
     7f4:	0000019c 	muleq	r0, ip, r1
     7f8:	000001e4 	andeq	r0, r0, r4, ror #3
     7fc:	9f300002 	svcls	0x00300002
     800:	000001e4 	andeq	r0, r0, r4, ror #3
     804:	000001f0 	strdeq	r0, [r0], -r0	; <UNPREDICTABLE>
     808:	4003000c 	andmi	r0, r3, ip
     80c:	94f0003a 	ldrbtls	r0, [r0], #58	; 0x3a
     810:	48244801 	stmdami	r4!, {r0, fp, lr}
     814:	00009f25 	andeq	r9, r0, r5, lsr #30
     818:	00000000 	andeq	r0, r0, r0
     81c:	01f00000 	mvnseq	r0, r0
     820:	01f40000 	mvnseq	r0, r0
     824:	00020000 	andeq	r0, r2, r0
     828:	01f4007d 	mvnseq	r0, sp, ror r0
     82c:	02680000 	rsbeq	r0, r8, #0
     830:	00020000 	andeq	r0, r2, r0
     834:	0000107d 	andeq	r1, r0, sp, ror r0
     838:	00000000 	andeq	r0, r0, r0
     83c:	01f00000 	mvnseq	r0, r0
     840:	02000000 	andeq	r0, r0, #0
     844:	00020000 	andeq	r0, r2, r0
     848:	02349f31 	eorseq	r9, r4, #196	; 0xc4
     84c:	02400000 	subeq	r0, r0, #0
     850:	00010000 	andeq	r0, r1, r0
     854:	00000054 	andeq	r0, r0, r4, asr r0
     858:	00000000 	andeq	r0, r0, r0
     85c:	0001f000 	andeq	pc, r1, r0
     860:	00020000 	andeq	r0, r2, r0
     864:	30000200 	andcc	r0, r0, r0, lsl #4
     868:	0002209f 	muleq	r2, pc, r0	; <UNPREDICTABLE>
     86c:	00023300 	andeq	r3, r2, r0, lsl #6
     870:	03000c00 	movweq	r0, #3072	; 0xc00
     874:	f0003a40 			; <UNDEFINED> instruction: 0xf0003a40
     878:	24480194 	strbcs	r0, [r8], #-404	; 0x194
     87c:	009f2548 	addseq	r2, pc, r8, asr #10
     880:	00000000 	andeq	r0, r0, r0
     884:	68000000 	stmdavs	r0, {}	; <UNPREDICTABLE>
     888:	6c000002 	stcvs	0, cr0, [r0], {2}
     88c:	02000002 	andeq	r0, r0, #2
     890:	6c007d00 	stcvs	13, cr7, [r0], {-0}
     894:	70000002 	andvc	r0, r0, r2
     898:	02000002 	andeq	r0, r0, #2
     89c:	700c7d00 	andvc	r7, ip, r0, lsl #26
     8a0:	fc000002 	stc2	0, cr0, [r0], {2}
     8a4:	02000002 	andeq	r0, r0, #2
     8a8:	00187d00 	andseq	r7, r8, r0, lsl #26
     8ac:	00000000 	andeq	r0, r0, r0
     8b0:	68000000 	stmdavs	r0, {}	; <UNPREDICTABLE>
     8b4:	7c000002 	stcvc	0, cr0, [r0], {2}
     8b8:	01000002 	tsteq	r0, r2
     8bc:	027c5000 	rsbseq	r5, ip, #0
     8c0:	02fc0000 	rscseq	r0, ip, #0
     8c4:	00020000 	andeq	r0, r2, r0
     8c8:	00006491 	muleq	r0, r1, r4
     8cc:	00000000 	andeq	r0, r0, r0
     8d0:	03440000 	movteq	r0, #16384	; 0x4000
     8d4:	03480000 	movteq	r0, #32768	; 0x8000
     8d8:	00020000 	andeq	r0, r2, r0
     8dc:	0348007d 	movteq	r0, #32893	; 0x807d
     8e0:	03780000 	cmneq	r8, #0
     8e4:	00020000 	andeq	r0, r2, r0
     8e8:	0000107d 	andeq	r1, r0, sp, ror r0
     8ec:	00000000 	andeq	r0, r0, r0
     8f0:	03440000 	movteq	r0, #16384	; 0x4000
     8f4:	035c0000 	cmpeq	ip, #0
     8f8:	00010000 	andeq	r0, r1, r0
     8fc:	00000050 	andeq	r0, r0, r0, asr r0
     900:	00000000 	andeq	r0, r0, r0
     904:	00036000 	andeq	r6, r3, r0
     908:	00037000 	andeq	r7, r3, r0
     90c:	56000100 	strpl	r0, [r0], -r0, lsl #2
     910:	00000370 	andeq	r0, r0, r0, ror r3
     914:	00000378 	andeq	r0, r0, r8, ror r3
     918:	00550001 	subseq	r0, r5, r1
	...
     924:	08000000 	stmdaeq	r0, {}	; <UNPREDICTABLE>
     928:	01000000 	mrseq	r0, (UNDEF: 0)
     92c:	00005000 	andeq	r5, r0, r0
	...
     938:	000c0000 	andeq	r0, ip, r0
     93c:	00020000 	andeq	r0, r2, r0
     940:	000c9f31 	andeq	r9, ip, r1, lsr pc
     944:	00140000 	andseq	r0, r4, r0
     948:	00010000 	andeq	r0, r1, r0
     94c:	00001450 	andeq	r1, r0, r0, asr r4
     950:	00001800 	andeq	r1, r0, r0, lsl #16
     954:	70000500 	andvc	r0, r0, r0, lsl #10
     958:	9f214000 	svcls	0x00214000
     95c:	00000018 	andeq	r0, r0, r8, lsl r0
     960:	0000001c 	andeq	r0, r0, ip, lsl r0
     964:	1c500001 	mrrcne	0, 0, r0, r0, cr1	; <UNPREDICTABLE>
     968:	34000000 	strcc	r0, [r0], #-0
     96c:	06000000 	streq	r0, [r0], -r0
     970:	0f049e00 	svceq	0x00049e00
     974:	00800000 	addeq	r0, r0, r0
     978:	00000000 	andeq	r0, r0, r0
     97c:	7c000000 	stcvc	0, cr0, [r0], {-0}
     980:	80000000 	andhi	r0, r0, r0
     984:	02000000 	andeq	r0, r0, #0
     988:	809f3000 	addshi	r3, pc, r0
     98c:	84000000 	strhi	r0, [r0], #-0
     990:	05000000 	streq	r0, [r0, #-0]
     994:	34007300 	strcc	r7, [r0], #-768	; 0x300
     998:	00849f21 	addeq	r9, r4, r1, lsr #30
     99c:	008c0000 	addeq	r0, ip, r0
     9a0:	00010000 	andeq	r0, r1, r0
     9a4:	00000053 	andeq	r0, r0, r3, asr r0
     9a8:	00000000 	andeq	r0, r0, r0
     9ac:	00008c00 	andeq	r8, r0, r0, lsl #24
     9b0:	00009000 	andeq	r9, r0, r0
     9b4:	7d000200 	sfmvc	f0, 4, [r0, #-0]
     9b8:	00009000 	andeq	r9, r0, r0
     9bc:	0000c000 	andeq	ip, r0, r0
     9c0:	7d000200 	sfmvc	f0, 4, [r0, #-0]
     9c4:	00000008 	andeq	r0, r0, r8
     9c8:	00000000 	andeq	r0, r0, r0
     9cc:	00008c00 	andeq	r8, r0, r0, lsl #24
     9d0:	00009400 	andeq	r9, r0, r0, lsl #8
     9d4:	30000200 	andcc	r0, r0, r0, lsl #4
     9d8:	0000009f 	muleq	r0, pc, r0	; <UNPREDICTABLE>
     9dc:	00000000 	andeq	r0, r0, r0
     9e0:	00008c00 	andeq	r8, r0, r0, lsl #24
     9e4:	00009800 	andeq	r9, r0, r0, lsl #16
     9e8:	30000200 	andcc	r0, r0, r0, lsl #4
     9ec:	0000009f 	muleq	r0, pc, r0	; <UNPREDICTABLE>
     9f0:	00000000 	andeq	r0, r0, r0
     9f4:	00009400 	andeq	r9, r0, r0, lsl #8
     9f8:	0000a400 	andeq	sl, r0, r0, lsl #8
     9fc:	52000100 	andpl	r0, r0, #0
	...
     a08:	00000098 	muleq	r0, r8, r0
     a0c:	000000a8 	andeq	r0, r0, r8, lsr #1
     a10:	00530001 	subseq	r0, r3, r1
     a14:	00000000 	andeq	r0, r0, r0
     a18:	c0000000 	andgt	r0, r0, r0
     a1c:	c4000000 	strgt	r0, [r0], #-0
     a20:	02000000 	andeq	r0, r0, #0
     a24:	c4007d00 	strgt	r7, [r0], #-3328	; 0xd00
     a28:	48000000 	stmdami	r0, {}	; <UNPREDICTABLE>
     a2c:	02000001 	andeq	r0, r0, #1
     a30:	00107d00 	andseq	r7, r0, r0, lsl #26
     a34:	00000000 	andeq	r0, r0, r0
     a38:	c0000000 	andgt	r0, r0, r0
     a3c:	d0000000 	andle	r0, r0, r0
     a40:	01000000 	mrseq	r0, (UNDEF: 0)
     a44:	00d05000 	sbcseq	r5, r0, r0
     a48:	00d80000 	sbcseq	r0, r8, r0
     a4c:	00010000 	andeq	r0, r1, r0
     a50:	0000e455 	andeq	lr, r0, r5, asr r4
     a54:	0000f800 	andeq	pc, r0, r0, lsl #16
     a58:	55000100 	strpl	r0, [r0, #-256]	; 0x100
	...
     a64:	000000c0 	andeq	r0, r0, r0, asr #1
     a68:	000000d8 	ldrdeq	r0, [r0], -r8
     a6c:	9f300002 	svcls	0x00300002
     a70:	000000e4 	andeq	r0, r0, r4, ror #1
     a74:	000000ec 	andeq	r0, r0, ip, ror #1
     a78:	9f300002 	svcls	0x00300002
     a7c:	000000ec 	andeq	r0, r0, ip, ror #1
     a80:	000000f8 	strdeq	r0, [r0], -r8
     a84:	01700006 	cmneq	r0, r6
     a88:	9f1e0075 	svcls	0x001e0075
	...
     a94:	000000c0 	andeq	r0, r0, r0, asr #1
     a98:	000000d8 	ldrdeq	r0, [r0], -r8
     a9c:	9f300002 	svcls	0x00300002
     aa0:	000000e4 	andeq	r0, r0, r4, ror #1
     aa4:	000000f0 	strdeq	r0, [r0], -r0	; <UNPREDICTABLE>
     aa8:	9f300002 	svcls	0x00300002
     aac:	0000012c 	andeq	r0, r0, ip, lsr #2
     ab0:	00000130 	andeq	r0, r0, r0, lsr r1
     ab4:	34530001 	ldrbcc	r0, [r3], #-1
     ab8:	38000001 	stmdacc	r0, {r0}
     abc:	01000001 	tsteq	r0, r1
     ac0:	00005300 	andeq	r5, r0, r0, lsl #6
     ac4:	00000000 	andeq	r0, r0, r0
     ac8:	00c00000 	sbceq	r0, r0, r0
     acc:	00d80000 	sbcseq	r0, r8, r0
     ad0:	00020000 	andeq	r0, r2, r0
     ad4:	00e49f30 	rsceq	r9, r4, r0, lsr pc
     ad8:	01000000 	mrseq	r0, (UNDEF: 0)
     adc:	00020000 	andeq	r0, r2, r0
     ae0:	01009f30 	tsteq	r0, r0, lsr pc
     ae4:	01480000 	mrseq	r0, (UNDEF: 72)
     ae8:	00010000 	andeq	r0, r1, r0
     aec:	00000055 	andeq	r0, r0, r5, asr r0
     af0:	00000000 	andeq	r0, r0, r0
     af4:	0000c000 	andeq	ip, r0, r0
     af8:	0000d800 	andeq	sp, r0, r0, lsl #16
     afc:	30000200 	andcc	r0, r0, r0, lsl #4
     b00:	0000e49f 	muleq	r0, pc, r4	; <UNPREDICTABLE>
     b04:	00010400 	andeq	r0, r1, r0, lsl #8
     b08:	30000200 	andcc	r0, r0, r0, lsl #4
     b0c:	0001049f 	muleq	r1, pc, r4	; <UNPREDICTABLE>
     b10:	00010800 	andeq	r0, r1, r0, lsl #16
     b14:	52000100 	andpl	r0, r0, #0
	...
     b20:	00000110 	andeq	r0, r0, r0, lsl r1
     b24:	00000130 	andeq	r0, r0, r0, lsr r1
     b28:	9f300002 	svcls	0x00300002
	...
     b34:	00000110 	andeq	r0, r0, r0, lsl r1
     b38:	00000130 	andeq	r0, r0, r0, lsr r1
     b3c:	9f310002 	svcls	0x00310002
	...
     b48:	00000110 	andeq	r0, r0, r0, lsl r1
     b4c:	00000118 	andeq	r0, r0, r8, lsl r1
     b50:	9f470002 	svcls	0x00470002
     b54:	00000118 	andeq	r0, r0, r8, lsl r1
     b58:	00000130 	andeq	r0, r0, r0, lsr r1
     b5c:	049e0006 	ldreq	r0, [lr], #6
     b60:	8000000f 	andhi	r0, r0, pc
	...
     b6c:	00000134 	andeq	r0, r0, r4, lsr r1
     b70:	00000138 	andeq	r0, r0, r8, lsr r1
     b74:	00530001 	subseq	r0, r3, r1
     b78:	00000000 	andeq	r0, r0, r0
     b7c:	48000000 	stmdami	r0, {}	; <UNPREDICTABLE>
     b80:	50000001 	andpl	r0, r0, r1
     b84:	02000001 	andeq	r0, r0, #1
     b88:	50007d00 	andpl	r7, r0, r0, lsl #26
     b8c:	7c000001 	stcvc	0, cr0, [r0], {1}
     b90:	02000001 	andeq	r0, r0, #1
     b94:	00087d00 	andeq	r7, r8, r0, lsl #26
     b98:	00000000 	andeq	r0, r0, r0
     b9c:	48000000 	stmdami	r0, {}	; <UNPREDICTABLE>
     ba0:	58000001 	stmdapl	r0, {r0}
     ba4:	01000001 	tsteq	r0, r1
     ba8:	01585000 	cmpeq	r8, r0
     bac:	01600000 	cmneq	r0, r0
     bb0:	00010000 	andeq	r0, r1, r0
     bb4:	00016054 	andeq	r6, r1, r4, asr r0
     bb8:	00016400 	andeq	r6, r1, r0, lsl #8
     bbc:	74000300 	strvc	r0, [r0], #-768	; 0x300
     bc0:	01649f0a 	cmneq	r4, sl, lsl #30
     bc4:	017c0000 	cmneq	ip, r0
     bc8:	00010000 	andeq	r0, r1, r0
     bcc:	00000054 	andeq	r0, r0, r4, asr r0
     bd0:	00000000 	andeq	r0, r0, r0
     bd4:	00017c00 	andeq	r7, r1, r0, lsl #24
     bd8:	00018400 	andeq	r8, r1, r0, lsl #8
     bdc:	50000100 	andpl	r0, r0, r0, lsl #2
	...
     be8:	0000017c 	andeq	r0, r0, ip, ror r1
     bec:	00000188 	andeq	r0, r0, r8, lsl #3
     bf0:	9f310002 	svcls	0x00310002
     bf4:	00000188 	andeq	r0, r0, r8, lsl #3
     bf8:	00000190 	muleq	r0, r0, r1
     bfc:	90500001 	subsls	r0, r0, r1
     c00:	94000001 	strls	r0, [r0], #-1
     c04:	05000001 	streq	r0, [r0, #-1]
     c08:	40007000 	andmi	r7, r0, r0
     c0c:	01949f21 	orrseq	r9, r4, r1, lsr #30
     c10:	01980000 	orrseq	r0, r8, r0
     c14:	00010000 	andeq	r0, r1, r0
     c18:	00019850 	andeq	r9, r1, r0, asr r8
     c1c:	0001a800 	andeq	sl, r1, r0, lsl #16
     c20:	9e000600 	cfmadd32ls	mvax0, mvfx0, mvfx0, mvfx0
     c24:	00000f04 	andeq	r0, r0, r4, lsl #30
     c28:	00000080 	andeq	r0, r0, r0, lsl #1
     c2c:	00000000 	andeq	r0, r0, r0
     c30:	0001a800 	andeq	sl, r1, r0, lsl #16
     c34:	0001b800 	andeq	fp, r1, r0, lsl #16
     c38:	30000200 	andcc	r0, r0, r0, lsl #4
     c3c:	0000009f 	muleq	r0, pc, r0	; <UNPREDICTABLE>
     c40:	00000000 	andeq	r0, r0, r0
     c44:	0001d400 	andeq	sp, r1, r0, lsl #8
     c48:	0001d800 	andeq	sp, r1, r0, lsl #16
     c4c:	50000100 	andpl	r0, r0, r0, lsl #2
     c50:	000001d8 	ldrdeq	r0, [r0], -r8
     c54:	00000200 	andeq	r0, r0, r0, lsl #4
     c58:	02700003 	rsbseq	r0, r0, #3
     c5c:	0000009f 	muleq	r0, pc, r0	; <UNPREDICTABLE>
     c60:	00000000 	andeq	r0, r0, r0
     c64:	0001d400 	andeq	sp, r1, r0, lsl #8
     c68:	0001e800 	andeq	lr, r1, r0, lsl #16
     c6c:	30000200 	andcc	r0, r0, r0, lsl #4
     c70:	0001e89f 	muleq	r1, pc, r8	; <UNPREDICTABLE>
     c74:	00020000 	andeq	r0, r2, r0
     c78:	53000100 	movwpl	r0, #256	; 0x100
	...
     c84:	000001d4 	ldrdeq	r0, [r0], -r4
     c88:	000001f0 	strdeq	r0, [r0], -r0	; <UNPREDICTABLE>
     c8c:	9f300002 	svcls	0x00300002
     c90:	000001f0 	strdeq	r0, [r0], -r0	; <UNPREDICTABLE>
     c94:	00000200 	andeq	r0, r0, r0, lsl #4
     c98:	00500001 	subseq	r0, r0, r1
	...
     ca4:	04000000 	streq	r0, [r0], #-0
     ca8:	02000000 	andeq	r0, r0, #0
     cac:	04007d00 	streq	r7, [r0], #-3328	; 0xd00
     cb0:	a8000000 	stmdage	r0, {}	; <UNPREDICTABLE>
     cb4:	02000000 	andeq	r0, r0, #0
     cb8:	00107d00 	andseq	r7, r0, r0, lsl #26
	...
     cc4:	0f000000 	svceq	0x00000000
     cc8:	01000000 	mrseq	r0, (UNDEF: 0)
     ccc:	000f5000 	andeq	r5, pc, r0
     cd0:	00a80000 	adceq	r0, r8, r0
     cd4:	00010000 	andeq	r0, r1, r0
     cd8:	00000054 	andeq	r0, r0, r4, asr r0
	...
     ce4:	00000f00 	andeq	r0, r0, r0, lsl #30
     ce8:	51000100 	mrspl	r0, (UNDEF: 16)
     cec:	0000000f 	andeq	r0, r0, pc
     cf0:	000000a8 	andeq	r0, r0, r8, lsr #1
     cf4:	00550001 	subseq	r0, r5, r1
	...
     d00:	48000000 	stmdami	r0, {}	; <UNPREDICTABLE>
     d04:	02000000 	andeq	r0, r0, #0
     d08:	489f3000 	ldmmi	pc, {ip, sp}	; <UNPREDICTABLE>
     d0c:	7c000000 	stcvc	0, cr0, [r0], {-0}
     d10:	01000000 	mrseq	r0, (UNDEF: 0)
     d14:	007c5300 	rsbseq	r5, ip, r0, lsl #6
     d18:	009c0000 	addseq	r0, ip, r0
     d1c:	00020000 	andeq	r0, r2, r0
     d20:	00a09f30 	adceq	r9, r0, r0, lsr pc
     d24:	00a80000 	adceq	r0, r8, r0
     d28:	00060000 	andeq	r0, r6, r0
     d2c:	08b4049e 	ldmeq	r4!, {r1, r2, r3, r4, r7, sl}
     d30:	0000f1c2 	andeq	pc, r0, r2, asr #3
	...
     d3c:	00480000 	subeq	r0, r8, r0
     d40:	00020000 	andeq	r0, r2, r0
     d44:	007c9f30 	rsbseq	r9, ip, r0, lsr pc
     d48:	00a80000 	adceq	r0, r8, r0
     d4c:	00020000 	andeq	r0, r2, r0
     d50:	00009f30 	andeq	r9, r0, r0, lsr pc
	...
     d5c:	00480000 	subeq	r0, r8, r0
     d60:	00020000 	andeq	r0, r2, r0
     d64:	00489f30 	subeq	r9, r8, r0, lsr pc
     d68:	006c0000 	rsbeq	r0, ip, r0
     d6c:	00010000 	andeq	r0, r1, r0
     d70:	00007c52 	andeq	r7, r0, r2, asr ip
     d74:	0000a800 	andeq	sl, r0, r0, lsl #16
     d78:	30000200 	andcc	r0, r0, r0, lsl #4
     d7c:	0000009f 	muleq	r0, pc, r0	; <UNPREDICTABLE>
     d80:	00000000 	andeq	r0, r0, r0
     d84:	0000a800 	andeq	sl, r0, r0, lsl #16
     d88:	0000ac00 	andeq	sl, r0, r0, lsl #24
     d8c:	7d000200 	sfmvc	f0, 4, [r0, #-0]
     d90:	0000ac00 	andeq	sl, r0, r0, lsl #24
     d94:	00015400 	andeq	r5, r1, r0, lsl #8
     d98:	7d000200 	sfmvc	f0, 4, [r0, #-0]
     d9c:	00000010 	andeq	r0, r0, r0, lsl r0
     da0:	00000000 	andeq	r0, r0, r0
     da4:	0000a800 	andeq	sl, r0, r0, lsl #16
     da8:	0000b300 	andeq	fp, r0, r0, lsl #6
     dac:	50000100 	andpl	r0, r0, r0, lsl #2
     db0:	000000b3 	strheq	r0, [r0], -r3
     db4:	000000e8 	andeq	r0, r0, r8, ror #1
     db8:	00540001 	subseq	r0, r4, r1
     dbc:	00000000 	andeq	r0, r0, r0
     dc0:	a8000000 	stmdage	r0, {}	; <UNPREDICTABLE>
     dc4:	cc000000 	stcgt	0, cr0, [r0], {-0}
     dc8:	02000000 	andeq	r0, r0, #0
     dcc:	cc9f3000 	ldcgt	0, cr3, [pc], {0}
     dd0:	df000000 	svcle	0x00000000
     dd4:	01000000 	mrseq	r0, (UNDEF: 0)
     dd8:	00005000 	andeq	r5, r0, r0
     ddc:	00000000 	andeq	r0, r0, r0
     de0:	00a80000 	adceq	r0, r8, r0
     de4:	00fc0000 	rscseq	r0, ip, r0
     de8:	00020000 	andeq	r0, r2, r0
     dec:	00fc9f30 	rscseq	r9, ip, r0, lsr pc
     df0:	01230000 	teqeq	r3, r0
     df4:	00010000 	andeq	r0, r1, r0
     df8:	00012350 	andeq	r2, r1, r0, asr r3
     dfc:	00015400 	andeq	r5, r1, r0, lsl #8
     e00:	55000100 	strpl	r0, [r0, #-256]	; 0x100
	...
     e0c:	000000a8 	andeq	r0, r0, r8, lsr #1
     e10:	00000108 	andeq	r0, r0, r8, lsl #2
     e14:	9f300002 	svcls	0x00300002
     e18:	00000108 	andeq	r0, r0, r8, lsl #2
     e1c:	0000012c 	andeq	r0, r0, ip, lsr #2
     e20:	d80c0006 	stmdale	ip, {r1, r2}
     e24:	9f01c202 	svcls	0x0001c202
     e28:	0000012c 	andeq	r0, r0, ip, lsr #2
     e2c:	00000154 	andeq	r0, r0, r4, asr r1
     e30:	6c0c0006 	stcvs	0, cr0, [ip], {6}
     e34:	9f01c200 	svcls	0x0001c200
	...
     e40:	000000a8 	andeq	r0, r0, r8, lsr #1
     e44:	000000b4 	strheq	r0, [r0], -r4
     e48:	9f300002 	svcls	0x00300002
     e4c:	000000b4 	strheq	r0, [r0], -r4
     e50:	000000c8 	andeq	r0, r0, r8, asr #1
     e54:	00500001 	subseq	r0, r0, r1
     e58:	00000000 	andeq	r0, r0, r0
     e5c:	b8000000 	stmdalt	r0, {}	; <UNPREDICTABLE>
     e60:	d8000000 	stmdale	r0, {}	; <UNPREDICTABLE>
     e64:	01000000 	mrseq	r0, (UNDEF: 0)
     e68:	00005300 	andeq	r5, r0, r0, lsl #6
     e6c:	00000000 	andeq	r0, r0, r0
     e70:	01940000 	orrseq	r0, r4, r0
     e74:	01980000 	orrseq	r0, r8, r0
     e78:	00020000 	andeq	r0, r2, r0
     e7c:	0198007d 	orrseq	r0, r8, sp, ror r0
     e80:	02180000 	andseq	r0, r8, #0
     e84:	00020000 	andeq	r0, r2, r0
     e88:	0000107d 	andeq	r1, r0, sp, ror r0
     e8c:	00000000 	andeq	r0, r0, r0
     e90:	01940000 	orrseq	r0, r4, r0
     e94:	01a00000 	moveq	r0, r0
     e98:	00010000 	andeq	r0, r1, r0
     e9c:	0001a050 	andeq	sl, r1, r0, asr r0
     ea0:	0001a300 	andeq	sl, r1, r0, lsl #6
     ea4:	51000100 	mrspl	r0, (UNDEF: 16)
	...
     eb0:	00000194 	muleq	r0, r4, r1
     eb4:	000001c0 	andeq	r0, r0, r0, asr #3
     eb8:	9f300002 	svcls	0x00300002
     ebc:	000001c0 	andeq	r0, r0, r0, asr #3
     ec0:	000001e8 	andeq	r0, r0, r8, ror #3
     ec4:	00730005 	rsbseq	r0, r3, r5
     ec8:	009f2544 	addseq	r2, pc, r4, asr #10
     ecc:	00000000 	andeq	r0, r0, r0
     ed0:	94000000 	strls	r0, [r0], #-0
     ed4:	c8000001 	stmdagt	r0, {r0}
     ed8:	02000001 	andeq	r0, r0, #1
     edc:	c89f3000 	ldmgt	pc, {ip, sp}	; <UNPREDICTABLE>
     ee0:	e0000001 	and	r0, r0, r1
     ee4:	01000001 	tsteq	r0, r1
     ee8:	00005000 	andeq	r5, r0, r0
     eec:	00000000 	andeq	r0, r0, r0
     ef0:	01940000 	orrseq	r0, r4, r0
     ef4:	01ac0000 			; <UNDEFINED> instruction: 0x01ac0000
     ef8:	00020000 	andeq	r0, r2, r0
     efc:	01ac9f30 			; <UNDEFINED> instruction: 0x01ac9f30
     f00:	01b40000 			; <UNDEFINED> instruction: 0x01b40000
     f04:	00010000 	andeq	r0, r1, r0
     f08:	0001b450 	andeq	fp, r1, r0, asr r4
     f0c:	0001c800 	andeq	ip, r1, r0, lsl #16
     f10:	70000500 	andvc	r0, r0, r0, lsl #10
     f14:	9f47e080 	svcls	0x0047e080
	...
     f20:	00000218 	andeq	r0, r0, r8, lsl r2
     f24:	00000220 	andeq	r0, r0, r0, lsr #4
     f28:	007d0002 	rsbseq	r0, sp, r2
     f2c:	00000220 	andeq	r0, r0, r0, lsr #4
     f30:	000002c8 	andeq	r0, r0, r8, asr #5
     f34:	047d0002 	ldrbteq	r0, [sp], #-2
	...
     f40:	00000218 	andeq	r0, r0, r8, lsl r2
     f44:	0000022c 	andeq	r0, r0, ip, lsr #4
     f48:	30500001 	subscc	r0, r0, r1
     f4c:	44000002 	strmi	r0, [r0], #-2
     f50:	01000002 	tsteq	r0, r2
     f54:	02445000 	subeq	r5, r4, #0
     f58:	024c0000 	subeq	r0, ip, #0
     f5c:	00030000 	andeq	r0, r3, r0
     f60:	009f0170 	addseq	r0, pc, r0, ror r1	; <UNPREDICTABLE>
     f64:	00000000 	andeq	r0, r0, r0
     f68:	58000000 	stmdapl	r0, {}	; <UNPREDICTABLE>
     f6c:	8c000002 	stchi	0, cr0, [r0], {2}
     f70:	01000002 	tsteq	r0, r2
     f74:	00005c00 	andeq	r5, r0, r0, lsl #24
     f78:	00000000 	andeq	r0, r0, r0
     f7c:	02c80000 	sbceq	r0, r8, #0
     f80:	02d00000 	sbcseq	r0, r0, #0
     f84:	00020000 	andeq	r0, r2, r0
     f88:	02d0007d 	sbcseq	r0, r0, #125	; 0x7d
     f8c:	03540000 	cmpeq	r4, #0
     f90:	00020000 	andeq	r0, r2, r0
     f94:	0000047d 	andeq	r0, r0, sp, ror r4
     f98:	00000000 	andeq	r0, r0, r0
     f9c:	02c80000 	sbceq	r0, r8, #0
     fa0:	02dc0000 	sbcseq	r0, ip, #0
     fa4:	00010000 	andeq	r0, r1, r0
     fa8:	00000050 	andeq	r0, r0, r0, asr r0
     fac:	00000000 	andeq	r0, r0, r0
     fb0:	0002c800 	andeq	ip, r2, r0, lsl #16
     fb4:	0002e000 	andeq	lr, r2, r0
     fb8:	30000200 	andcc	r0, r0, r0, lsl #4
     fbc:	0002e89f 	muleq	r2, pc, r8	; <UNPREDICTABLE>
     fc0:	00030000 	andeq	r0, r3, r0
     fc4:	30000200 	andcc	r0, r0, r0, lsl #4
     fc8:	0003449f 	muleq	r3, pc, r4	; <UNPREDICTABLE>
     fcc:	00035400 	andeq	r5, r3, r0, lsl #8
     fd0:	54000100 	strpl	r0, [r0], #-256	; 0x100
	...
     fdc:	000002c8 	andeq	r0, r0, r8, asr #5
     fe0:	000002e0 	andeq	r0, r0, r0, ror #5
     fe4:	9f300002 	svcls	0x00300002
     fe8:	000002e8 	andeq	r0, r0, r8, ror #5
     fec:	00000300 	andeq	r0, r0, r0, lsl #6
     ff0:	9f300002 	svcls	0x00300002
	...
     ffc:	00000308 	andeq	r0, r0, r8, lsl #6
    1000:	0000030c 	andeq	r0, r0, ip, lsl #6
    1004:	0c530001 	mrrceq	0, 0, r0, r3, cr1
    1008:	10000003 	andne	r0, r0, r3
    100c:	03000003 	movweq	r0, #3
    1010:	9f017300 	svcls	0x00017300
    1014:	00000310 	andeq	r0, r0, r0, lsl r3
    1018:	00000324 	andeq	r0, r0, r4, lsr #6
    101c:	00530001 	subseq	r0, r3, r1
    1020:	00000000 	andeq	r0, r0, r0
    1024:	7c000000 	stcvc	0, cr0, [r0], {-0}
    1028:	80000003 	andhi	r0, r0, r3
    102c:	02000003 	andeq	r0, r0, #3
    1030:	80007d00 	andhi	r7, r0, r0, lsl #26
    1034:	08000003 	stmdaeq	r0, {r0, r1}
    1038:	02000004 	andeq	r0, r0, #4
    103c:	00107d00 	andseq	r7, r0, r0, lsl #26
    1040:	00000000 	andeq	r0, r0, r0
    1044:	7c000000 	stcvc	0, cr0, [r0], {-0}
    1048:	94000003 	strls	r0, [r0], #-3
    104c:	01000003 	tsteq	r0, r3
    1050:	03945000 	orrseq	r5, r4, #0
    1054:	039b0000 	orrseq	r0, fp, #0
    1058:	00010000 	andeq	r0, r1, r0
    105c:	00000051 	andeq	r0, r0, r1, asr r0
    1060:	00000000 	andeq	r0, r0, r0
    1064:	00037c00 	andeq	r7, r3, r0, lsl #24
    1068:	0003a400 	andeq	sl, r3, r0, lsl #8
    106c:	30000200 	andcc	r0, r0, r0, lsl #4
    1070:	0003a49f 	muleq	r3, pc, r4	; <UNPREDICTABLE>
    1074:	0003ac00 	andeq	sl, r3, r0, lsl #24
    1078:	50000100 	andpl	r0, r0, r0, lsl #2
    107c:	000003ac 	andeq	r0, r0, ip, lsr #7
    1080:	000003c0 	andeq	r0, r0, r0, asr #7
    1084:	80700005 	rsbshi	r0, r0, r5
    1088:	009f47e0 	addseq	r4, pc, r0, ror #15
    108c:	00000000 	andeq	r0, r0, r0
    1090:	7c000000 	stcvc	0, cr0, [r0], {-0}
    1094:	b8000003 	stmdalt	r0, {r0, r1}
    1098:	02000003 	andeq	r0, r0, #3
    109c:	b89f3000 	ldmlt	pc, {ip, sp}	; <UNPREDICTABLE>
    10a0:	d8000003 	stmdale	r0, {r0, r1}
    10a4:	05000003 	streq	r0, [r0, #-3]
    10a8:	44007300 	strmi	r7, [r0], #-768	; 0x300
    10ac:	00009f25 	andeq	r9, r0, r5, lsr #30
    10b0:	00000000 	andeq	r0, r0, r0
    10b4:	037c0000 	cmneq	ip, #0
    10b8:	03c00000 	biceq	r0, r0, #0
    10bc:	00020000 	andeq	r0, r2, r0
    10c0:	03c09f30 	biceq	r9, r0, #192	; 0xc0
    10c4:	03d00000 	bicseq	r0, r0, #0
    10c8:	00010000 	andeq	r0, r1, r0
    10cc:	00000050 	andeq	r0, r0, r0, asr r0
    10d0:	00000000 	andeq	r0, r0, r0
    10d4:	00040800 	andeq	r0, r4, r0, lsl #16
    10d8:	00041000 	andeq	r1, r4, r0
    10dc:	7d000200 	sfmvc	f0, 4, [r0, #-0]
    10e0:	00041000 	andeq	r1, r4, r0
    10e4:	0004b800 	andeq	fp, r4, r0, lsl #16
    10e8:	7d000200 	sfmvc	f0, 4, [r0, #-0]
    10ec:	00000004 	andeq	r0, r0, r4
    10f0:	00000000 	andeq	r0, r0, r0
    10f4:	00040800 	andeq	r0, r4, r0, lsl #16
    10f8:	00041c00 	andeq	r1, r4, r0, lsl #24
    10fc:	50000100 	andpl	r0, r0, r0, lsl #2
    1100:	00000420 	andeq	r0, r0, r0, lsr #8
    1104:	00000434 	andeq	r0, r0, r4, lsr r4
    1108:	34500001 	ldrbcc	r0, [r0], #-1
    110c:	3c000004 	stccc	0, cr0, [r0], {4}
    1110:	03000004 	movweq	r0, #4
    1114:	9f017000 	svcls	0x00017000
	...
    1120:	00000448 	andeq	r0, r0, r8, asr #8
    1124:	0000047c 	andeq	r0, r0, ip, ror r4
    1128:	005c0001 	subseq	r0, ip, r1
    112c:	00000000 	andeq	r0, r0, r0
    1130:	b8000000 	stmdalt	r0, {}	; <UNPREDICTABLE>
    1134:	c0000004 	andgt	r0, r0, r4
    1138:	02000004 	andeq	r0, r0, #4
    113c:	c0007d00 	andgt	r7, r0, r0, lsl #26
    1140:	44000004 	strmi	r0, [r0], #-4
    1144:	02000005 	andeq	r0, r0, #5
    1148:	00047d00 	andeq	r7, r4, r0, lsl #26
    114c:	00000000 	andeq	r0, r0, r0
    1150:	b8000000 	stmdalt	r0, {}	; <UNPREDICTABLE>
    1154:	cc000004 	stcgt	0, cr0, [r0], {4}
    1158:	01000004 	tsteq	r0, r4
    115c:	00005000 	andeq	r5, r0, r0
    1160:	00000000 	andeq	r0, r0, r0
    1164:	04b80000 	ldrteq	r0, [r8], #0
    1168:	04d00000 	ldrbeq	r0, [r0], #0
    116c:	00020000 	andeq	r0, r2, r0
    1170:	04d89f30 	ldrbeq	r9, [r8], #3888	; 0xf30
    1174:	04f00000 	ldrbteq	r0, [r0], #0
    1178:	00020000 	andeq	r0, r2, r0
    117c:	05349f30 	ldreq	r9, [r4, #-3888]!	; 0xf30
    1180:	05440000 	strbeq	r0, [r4, #-0]
    1184:	00010000 	andeq	r0, r1, r0
    1188:	00000054 	andeq	r0, r0, r4, asr r0
    118c:	00000000 	andeq	r0, r0, r0
    1190:	0004b800 	andeq	fp, r4, r0, lsl #16
    1194:	0004d000 	andeq	sp, r4, r0
    1198:	30000200 	andcc	r0, r0, r0, lsl #4
    119c:	0004d89f 	muleq	r4, pc, r8	; <UNPREDICTABLE>
    11a0:	0004f000 	andeq	pc, r4, r0
    11a4:	30000200 	andcc	r0, r0, r0, lsl #4
    11a8:	0000009f 	muleq	r0, pc, r0	; <UNPREDICTABLE>
    11ac:	00000000 	andeq	r0, r0, r0
    11b0:	0004f800 	andeq	pc, r4, r0, lsl #16
    11b4:	0004fc00 	andeq	pc, r4, r0, lsl #24
    11b8:	53000100 	movwpl	r0, #256	; 0x100
    11bc:	000004fc 	strdeq	r0, [r0], -ip
    11c0:	00000500 	andeq	r0, r0, r0, lsl #10
    11c4:	01730003 	cmneq	r3, r3
    11c8:	0005009f 	muleq	r5, pc, r0	; <UNPREDICTABLE>
    11cc:	00051400 	andeq	r1, r5, r0, lsl #8
    11d0:	53000100 	movwpl	r0, #256	; 0x100
	...
    11e0:	00000004 	andeq	r0, r0, r4
    11e4:	007d0002 	rsbseq	r0, sp, r2
    11e8:	00000004 	andeq	r0, r0, r4
    11ec:	0000001c 	andeq	r0, r0, ip, lsl r0
    11f0:	1c7d0002 	ldclne	0, cr0, [sp], #-8
    11f4:	0000001c 	andeq	r0, r0, ip, lsl r0
    11f8:	000000bc 	strheq	r0, [r0], -ip
    11fc:	c87d0003 	ldmdagt	sp!, {r0, r1}^
	...
    120c:	00002c00 	andeq	r2, r0, r0, lsl #24
    1210:	50000100 	andpl	r0, r0, r0, lsl #2
    1214:	0000002c 	andeq	r0, r0, ip, lsr #32
    1218:	0000004c 	andeq	r0, r0, ip, asr #32
    121c:	4c540001 	mrrcmi	0, 0, r0, r4, cr1
    1220:	50000000 	andpl	r0, r0, r0
    1224:	01000000 	mrseq	r0, (UNDEF: 0)
    1228:	00785000 	rsbseq	r5, r8, r0
    122c:	00ac0000 	adceq	r0, ip, r0
    1230:	00010000 	andeq	r0, r1, r0
    1234:	00000050 	andeq	r0, r0, r0, asr r0
	...
    1240:	00002c00 	andeq	r2, r0, r0, lsl #24
    1244:	51000100 	mrspl	r0, (UNDEF: 16)
    1248:	0000002c 	andeq	r0, r0, ip, lsr #32
    124c:	000000bc 	strheq	r0, [r0], -ip
    1250:	00570001 	subseq	r0, r7, r1
	...
    125c:	2c000000 	stccs	0, cr0, [r0], {-0}
    1260:	01000000 	mrseq	r0, (UNDEF: 0)
    1264:	002c5200 	eoreq	r5, ip, r0, lsl #4
    1268:	00bc0000 	adcseq	r0, ip, r0
    126c:	00010000 	andeq	r0, r1, r0
    1270:	00000055 	andeq	r0, r0, r5, asr r0
    1274:	00000000 	andeq	r0, r0, r0
    1278:	00004c00 	andeq	r4, r0, r0, lsl #24
    127c:	00005000 	andeq	r5, r0, r0
    1280:	53000100 	movwpl	r0, #256	; 0x100
    1284:	00000080 	andeq	r0, r0, r0, lsl #1
    1288:	00000084 	andeq	r0, r0, r4, lsl #1
    128c:	84530001 	ldrbhi	r0, [r3], #-1
    1290:	90000000 	andls	r0, r0, r0
    1294:	01000000 	mrseq	r0, (UNDEF: 0)
    1298:	00005800 	andeq	r5, r0, r0, lsl #16
    129c:	00000000 	andeq	r0, r0, r0
    12a0:	00840000 	addeq	r0, r4, r0
    12a4:	00900000 	addseq	r0, r0, r0
    12a8:	00020000 	andeq	r0, r2, r0
    12ac:	00009f30 	andeq	r9, r0, r0, lsr pc
    12b0:	00000000 	andeq	r0, r0, r0
    12b4:	00bc0000 	adcseq	r0, ip, r0
    12b8:	00c00000 	sbceq	r0, r0, r0
    12bc:	00020000 	andeq	r0, r2, r0
    12c0:	00c0007d 	sbceq	r0, r0, sp, ror r0
    12c4:	00d80000 	sbcseq	r0, r8, r0
    12c8:	00020000 	andeq	r0, r2, r0
    12cc:	00d8107d 	sbcseq	r1, r8, sp, ror r0
    12d0:	01640000 	cmneq	r4, r0
    12d4:	00020000 	andeq	r0, r2, r0
    12d8:	0000287d 	andeq	r2, r0, sp, ror r8
    12dc:	00000000 	andeq	r0, r0, r0
    12e0:	00bc0000 	adcseq	r0, ip, r0
    12e4:	00e00000 	rsceq	r0, r0, r0
    12e8:	00010000 	andeq	r0, r1, r0
    12ec:	0000e050 	andeq	lr, r0, r0, asr r0
    12f0:	00011400 	andeq	r1, r1, r0, lsl #8
    12f4:	55000100 	strpl	r0, [r0, #-256]	; 0x100
	...
    1300:	000000bc 	strheq	r0, [r0], -ip
    1304:	000000e0 	andeq	r0, r0, r0, ror #1
    1308:	e0510001 	subs	r0, r1, r1
    130c:	64000000 	strvs	r0, [r0], #-0
    1310:	01000001 	tsteq	r0, r1
    1314:	00005700 	andeq	r5, r0, r0, lsl #14
    1318:	00000000 	andeq	r0, r0, r0
    131c:	00bc0000 	adcseq	r0, ip, r0
    1320:	00e00000 	rsceq	r0, r0, r0
    1324:	00010000 	andeq	r0, r1, r0
    1328:	0000e052 	andeq	lr, r0, r2, asr r0
    132c:	00016400 	andeq	r6, r1, r0, lsl #8
    1330:	56000100 	strpl	r0, [r0], -r0, lsl #2
	...
    133c:	00000100 	andeq	r0, r0, r0, lsl #2
    1340:	00000130 	andeq	r0, r0, r0, lsr r1
    1344:	30500001 	subscc	r0, r0, r1
    1348:	48000001 	stmdami	r0, {r0}
    134c:	01000001 	tsteq	r0, r1
    1350:	01485100 	mrseq	r5, (UNDEF: 88)
    1354:	014c0000 	mrseq	r0, (UNDEF: 76)
    1358:	00030000 	andeq	r0, r3, r0
    135c:	4c9f7f71 	ldcmi	15, cr7, [pc], {113}	; 0x71
    1360:	54000001 	strpl	r0, [r0], #-1
    1364:	01000001 	tsteq	r0, r1
    1368:	00005100 	andeq	r5, r0, r0, lsl #2
    136c:	00000000 	andeq	r0, r0, r0
    1370:	01000000 	mrseq	r0, (UNDEF: 0)
    1374:	012c0000 	teqeq	ip, r0
    1378:	00030000 	andeq	r0, r3, r0
    137c:	2c9f707c 	ldccs	0, cr7, [pc], {124}	; 0x7c
    1380:	30000001 	andcc	r0, r0, r1
    1384:	03000001 	movweq	r0, #1
    1388:	9f549100 	svcls	0x00549100
	...
    1394:	00000100 	andeq	r0, r0, r0, lsl #2
    1398:	00000114 	andeq	r0, r0, r4, lsl r1
    139c:	14550001 	ldrbne	r0, [r5], #-1
    13a0:	18000001 	stmdane	r0, {r0}
    13a4:	01000001 	tsteq	r0, r1
    13a8:	01185300 	tsteq	r8, r0, lsl #6
    13ac:	01200000 	teqeq	r0, r0
    13b0:	00010000 	andeq	r0, r1, r0
    13b4:	00012055 	andeq	r2, r1, r5, asr r0
    13b8:	00012800 	andeq	r2, r1, r0, lsl #16
    13bc:	53000100 	movwpl	r0, #256	; 0x100
    13c0:	00000128 	andeq	r0, r0, r8, lsr #2
    13c4:	00000130 	andeq	r0, r0, r0, lsr r1
    13c8:	30550001 	subscc	r0, r5, r1
    13cc:	34000001 	strcc	r0, [r0], #-1
    13d0:	01000001 	tsteq	r0, r1
    13d4:	01345300 	teqeq	r4, r0, lsl #6
    13d8:	01440000 	mrseq	r0, (UNDEF: 68)
    13dc:	00010000 	andeq	r0, r1, r0
    13e0:	00014455 	andeq	r4, r1, r5, asr r4
    13e4:	00015400 	andeq	r5, r1, r0, lsl #8
    13e8:	53000100 	movwpl	r0, #256	; 0x100
	...
    13f4:	00000100 	andeq	r0, r0, r0, lsl #2
    13f8:	00000114 	andeq	r0, r0, r4, lsl r1
    13fc:	00550001 	subseq	r0, r5, r1
    1400:	00000000 	andeq	r0, r0, r0
    1404:	64000000 	strvs	r0, [r0], #-0
    1408:	68000001 	stmdavs	r0, {r0}
    140c:	02000001 	andeq	r0, r0, #1
    1410:	68007d00 	stmdavs	r0, {r8, sl, fp, ip, sp, lr}
    1414:	7c000001 	stcvc	0, cr0, [r0], {1}
    1418:	02000001 	andeq	r0, r0, #1
    141c:	7c147d00 	ldcvc	13, cr7, [r4], {-0}
    1420:	4c000001 	stcmi	0, cr0, [r0], {1}
    1424:	03000002 	movweq	r0, #2
    1428:	00c07d00 	sbceq	r7, r0, r0, lsl #26
	...
    1434:	00000164 	andeq	r0, r0, r4, ror #2
    1438:	00000184 	andeq	r0, r0, r4, lsl #3
    143c:	84500001 	ldrbhi	r0, [r0], #-1
    1440:	d8000001 	stmdale	r0, {r0}
    1444:	01000001 	tsteq	r0, r1
    1448:	01d85c00 	bicseq	r5, r8, r0, lsl #24
    144c:	01e80000 	mvneq	r0, r0
    1450:	00010000 	andeq	r0, r1, r0
    1454:	0001e852 	andeq	lr, r1, r2, asr r8
    1458:	0001fc00 	andeq	pc, r1, r0, lsl #24
    145c:	5c000100 	stfpls	f0, [r0], {-0}
	...
    1468:	00000164 	andeq	r0, r0, r4, ror #2
    146c:	00000184 	andeq	r0, r0, r4, lsl #3
    1470:	84510001 	ldrbhi	r0, [r1], #-1
    1474:	4c000001 	stcmi	0, cr0, [r0], {1}
    1478:	01000002 	tsteq	r0, r2
    147c:	00005600 	andeq	r5, r0, r0, lsl #12
    1480:	00000000 	andeq	r0, r0, r0
    1484:	01640000 	cmneq	r4, r0
    1488:	01a00000 	moveq	r0, r0
    148c:	00020000 	andeq	r0, r2, r0
    1490:	01a09f30 	lsreq	r9, r0, pc
    1494:	01b00000 	movseq	r0, r0
    1498:	00020000 	andeq	r0, r2, r0
    149c:	01b09f31 	lsrseq	r9, r1, pc
    14a0:	02040000 	andeq	r0, r4, #0
    14a4:	00010000 	andeq	r0, r1, r0
    14a8:	00000057 	andeq	r0, r0, r7, asr r0
    14ac:	00000000 	andeq	r0, r0, r0
    14b0:	0001b000 	andeq	fp, r1, r0
    14b4:	0001c000 	andeq	ip, r1, r0
    14b8:	30000200 	andcc	r0, r0, r0, lsl #4
    14bc:	0001c09f 	muleq	r1, pc, r0	; <UNPREDICTABLE>
    14c0:	0001c400 	andeq	ip, r1, r0, lsl #8
    14c4:	54000100 	strpl	r0, [r0], #-256	; 0x100
    14c8:	000001d8 	ldrdeq	r0, [r0], -r8
    14cc:	00000208 	andeq	r0, r0, r8, lsl #4
    14d0:	08540001 	ldmdaeq	r4, {r0}^
    14d4:	30000002 	andcc	r0, r0, r2
    14d8:	01000002 	tsteq	r0, r2
    14dc:	00005300 	andeq	r5, r0, r0, lsl #6
    14e0:	00000000 	andeq	r0, r0, r0
    14e4:	01fc0000 	mvnseq	r0, r0
    14e8:	02080000 	andeq	r0, r8, #0
    14ec:	00020000 	andeq	r0, r2, r0
    14f0:	02089f30 	andeq	r9, r8, #192	; 0xc0
    14f4:	02140000 	andseq	r0, r4, #0
    14f8:	00010000 	andeq	r0, r1, r0
    14fc:	00000057 	andeq	r0, r0, r7, asr r0
    1500:	00000000 	andeq	r0, r0, r0
    1504:	00024c00 	andeq	r4, r2, r0, lsl #24
    1508:	00025000 	andeq	r5, r2, r0
    150c:	7d000200 	sfmvc	f0, 4, [r0, #-0]
    1510:	00025000 	andeq	r5, r2, r0
    1514:	00025400 	andeq	r5, r2, r0, lsl #8
    1518:	7d000200 	sfmvc	f0, 4, [r0, #-0]
    151c:	00025410 	andeq	r5, r2, r0, lsl r4
    1520:	00025800 	andeq	r5, r2, r0, lsl #16
    1524:	7d000200 	sfmvc	f0, 4, [r0, #-0]
    1528:	00025830 	andeq	r5, r2, r0, lsr r8
    152c:	00051c00 	andeq	r1, r5, r0, lsl #24
    1530:	7d000300 	stcvc	3, cr0, [r0, #-0]
    1534:	000000c8 	andeq	r0, r0, r8, asr #1
    1538:	00000000 	andeq	r0, r0, r0
    153c:	024c0000 	subeq	r0, ip, #0
    1540:	02640000 	rsbeq	r0, r4, #0
    1544:	00020000 	andeq	r0, r2, r0
    1548:	02647091 	rsbeq	r7, r4, #145	; 0x91
    154c:	02880000 	addeq	r0, r8, #0
    1550:	00020000 	andeq	r0, r2, r0
    1554:	02884891 	addeq	r4, r8, #9502720	; 0x910000
    1558:	02a40000 	adceq	r0, r4, #0
    155c:	00010000 	andeq	r0, r1, r0
    1560:	0002a454 	andeq	sl, r2, r4, asr r4
    1564:	0002bc00 	andeq	fp, r2, r0, lsl #24
    1568:	74000300 	strvc	r0, [r0], #-768	; 0x300
    156c:	02c49f01 	sbceq	r9, r4, #4
    1570:	051c0000 	ldreq	r0, [ip, #-0]
    1574:	00010000 	andeq	r0, r1, r0
    1578:	00000054 	andeq	r0, r0, r4, asr r0
    157c:	00000000 	andeq	r0, r0, r0
    1580:	00024c00 	andeq	r4, r2, r0, lsl #24
    1584:	00028800 	andeq	r8, r2, r0, lsl #16
    1588:	03000600 	movweq	r0, #1536	; 0x600
    158c:	f0003a70 			; <UNDEFINED> instruction: 0xf0003a70
    1590:	0002889f 	muleq	r2, pc, r8	; <UNPREDICTABLE>
    1594:	00029800 	andeq	r9, r2, r0, lsl #16
    1598:	55000100 	strpl	r0, [r0, #-256]	; 0x100
    159c:	00000338 	andeq	r0, r0, r8, lsr r3
    15a0:	00000350 	andeq	r0, r0, r0, asr r3
    15a4:	bc550001 	mrrclt	0, 0, r0, r5, cr1
    15a8:	c0000003 	andgt	r0, r0, r3
    15ac:	01000003 	tsteq	r0, r3
    15b0:	040c5500 	streq	r5, [ip], #-1280	; 0x500
    15b4:	04100000 	ldreq	r0, [r0], #-0
    15b8:	00010000 	andeq	r0, r1, r0
    15bc:	00047c55 	andeq	r7, r4, r5, asr ip
    15c0:	00048000 	andeq	r8, r4, r0
    15c4:	55000100 	strpl	r0, [r0, #-256]	; 0x100
    15c8:	0000049c 	muleq	r0, ip, r4
    15cc:	000004a8 	andeq	r0, r0, r8, lsr #9
    15d0:	01750003 	cmneq	r5, r3
    15d4:	0004a89f 	muleq	r4, pc, r8	; <UNPREDICTABLE>
    15d8:	0004ac00 	andeq	sl, r4, r0, lsl #24
    15dc:	55000100 	strpl	r0, [r0, #-256]	; 0x100
    15e0:	00000514 	andeq	r0, r0, r4, lsl r5
    15e4:	0000051c 	andeq	r0, r0, ip, lsl r5
    15e8:	00550001 	subseq	r0, r5, r1
    15ec:	00000000 	andeq	r0, r0, r0
    15f0:	d4000000 	strle	r0, [r0], #-0
    15f4:	10000003 	andne	r0, r0, r3
    15f8:	04000004 	streq	r0, [r0], #-4
    15fc:	7fa49100 	svcvc	0x00a49100
    1600:	00000006 	andeq	r0, r0, r6
    1604:	00000000 	andeq	r0, r0, r0
    1608:	0002c000 	andeq	ip, r2, r0
    160c:	00032c00 	andeq	r2, r3, r0, lsl #24
    1610:	57000100 	strpl	r0, [r0, -r0, lsl #2]
    1614:	00000350 	andeq	r0, r0, r0, asr r3
    1618:	0000051c 	andeq	r0, r0, ip, lsl r5
    161c:	00570001 	subseq	r0, r7, r1
    1620:	00000000 	andeq	r0, r0, r0
    1624:	4c000000 	stcmi	0, cr0, [r0], {-0}
    1628:	88000002 	stmdahi	r0, {r1}
    162c:	02000002 	andeq	r0, r0, #2
    1630:	8c9f3000 	ldchi	0, cr3, [pc], {0}
    1634:	a4000003 	strge	r0, [r0], #-3
    1638:	01000003 	tsteq	r0, r3
    163c:	03a45a00 			; <UNDEFINED> instruction: 0x03a45a00
    1640:	03c00000 	biceq	r0, r0, #0
    1644:	00010000 	andeq	r0, r1, r0
    1648:	00044c50 	andeq	r4, r4, r0, asr ip
    164c:	00046400 	andeq	r6, r4, r0, lsl #8
    1650:	5a000100 	bpl	1a58 <__standby_start+0x1a58>
    1654:	00000464 	andeq	r0, r0, r4, ror #8
    1658:	00000480 	andeq	r0, r0, r0, lsl #9
    165c:	e4500001 	ldrb	r0, [r0], #-1
    1660:	fc000004 	stc2	0, cr0, [r0], {4}
    1664:	01000004 	tsteq	r0, r4
    1668:	04fc5a00 	ldrbteq	r5, [ip], #2560	; 0xa00
    166c:	051c0000 	ldreq	r0, [ip, #-0]
    1670:	00010000 	andeq	r0, r1, r0
    1674:	00000050 	andeq	r0, r0, r0, asr r0
    1678:	00000000 	andeq	r0, r0, r0
    167c:	00036c00 	andeq	r6, r3, r0, lsl #24
    1680:	0003c000 	andeq	ip, r3, r0
    1684:	56000100 	strpl	r0, [r0], -r0, lsl #2
	...
    1690:	0000036c 	andeq	r0, r0, ip, ror #6
    1694:	0000037c 	andeq	r0, r0, ip, ror r3
    1698:	7c560001 	mrrcvc	0, 0, r0, r6, cr1
    169c:	80000003 	andhi	r0, r0, r3
    16a0:	01000003 	tsteq	r0, r3
    16a4:	03805a00 	orreq	r5, r0, #0
    16a8:	038c0000 	orreq	r0, ip, #0
    16ac:	00030000 	andeq	r0, r3, r0
    16b0:	009f7f7a 	addseq	r7, pc, sl, ror pc	; <UNPREDICTABLE>
    16b4:	00000000 	andeq	r0, r0, r0
    16b8:	a4000000 	strge	r0, [r0], #-0
    16bc:	a8000003 	stmdage	r0, {r0, r1}
    16c0:	01000003 	tsteq	r0, r3
    16c4:	00005600 	andeq	r5, r0, r0, lsl #12
    16c8:	00000000 	andeq	r0, r0, r0
    16cc:	03a40000 			; <UNDEFINED> instruction: 0x03a40000
    16d0:	03a80000 			; <UNDEFINED> instruction: 0x03a80000
    16d4:	00010000 	andeq	r0, r1, r0
    16d8:	0003a855 	andeq	sl, r3, r5, asr r8
    16dc:	0003c000 	andeq	ip, r3, r0
    16e0:	51000100 	mrspl	r0, (UNDEF: 16)
	...
    16ec:	000003a4 	andeq	r0, r0, r4, lsr #7
    16f0:	000003bc 			; <UNDEFINED> instruction: 0x000003bc
    16f4:	00550001 	subseq	r0, r5, r1
    16f8:	00000000 	andeq	r0, r0, r0
    16fc:	d4000000 	strle	r0, [r0], #-0
    1700:	d8000003 	stmdale	r0, {r0, r1}
    1704:	04000003 	streq	r0, [r0], #-3
    1708:	7fa49100 	svcvc	0x00a49100
    170c:	00000006 	andeq	r0, r0, r6
    1710:	00000000 	andeq	r0, r0, r0
    1714:	0003d400 	andeq	sp, r3, r0, lsl #8
    1718:	0003d800 	andeq	sp, r3, r0, lsl #16
    171c:	55000100 	strpl	r0, [r0, #-256]	; 0x100
    1720:	000003d8 	ldrdeq	r0, [r0], -r8
    1724:	00000410 	andeq	r0, r0, r0, lsl r4
    1728:	00510001 	subseq	r0, r1, r1
    172c:	00000000 	andeq	r0, r0, r0
    1730:	d4000000 	strle	r0, [r0], #-0
    1734:	0c000003 	stceq	0, cr0, [r0], {3}
    1738:	01000004 	tsteq	r0, r4
    173c:	00005500 	andeq	r5, r0, r0, lsl #10
    1740:	00000000 	andeq	r0, r0, r0
    1744:	03e80000 	mvneq	r0, #0
    1748:	03f80000 	mvnseq	r0, #0
    174c:	00040000 	andeq	r0, r4, r0
    1750:	067fa491 			; <UNDEFINED> instruction: 0x067fa491
    1754:	000003f8 	strdeq	r0, [r0], -r8
    1758:	000003fc 	strdeq	r0, [r0], -ip
    175c:	fc530001 	mrrc2	0, 0, r0, r3, cr1
    1760:	08000003 	stmdaeq	r0, {r0, r1}
    1764:	03000004 	movweq	r0, #4
    1768:	9f7f7300 	svcls	0x007f7300
	...
    1774:	0000042c 	andeq	r0, r0, ip, lsr #8
    1778:	00000480 	andeq	r0, r0, r0, lsl #9
    177c:	00560001 	subseq	r0, r6, r1
    1780:	00000000 	andeq	r0, r0, r0
    1784:	2c000000 	stccs	0, cr0, [r0], {-0}
    1788:	3c000004 	stccc	0, cr0, [r0], {4}
    178c:	01000004 	tsteq	r0, r4
    1790:	043c5600 	ldrteq	r5, [ip], #-1536	; 0x600
    1794:	04400000 	strbeq	r0, [r0], #-0
    1798:	00010000 	andeq	r0, r1, r0
    179c:	0004405a 	andeq	r4, r4, sl, asr r0
    17a0:	00044c00 	andeq	r4, r4, r0, lsl #24
    17a4:	7a000300 	bvc	23ac <__standby_start+0x23ac>
    17a8:	00009f7f 	andeq	r9, r0, pc, ror pc
    17ac:	00000000 	andeq	r0, r0, r0
    17b0:	04640000 	strbteq	r0, [r4], #-0
    17b4:	04680000 	strbteq	r0, [r8], #-0
    17b8:	00010000 	andeq	r0, r1, r0
    17bc:	00000056 	andeq	r0, r0, r6, asr r0
    17c0:	00000000 	andeq	r0, r0, r0
    17c4:	00046400 	andeq	r6, r4, r0, lsl #8
    17c8:	00046800 	andeq	r6, r4, r0, lsl #16
    17cc:	55000100 	strpl	r0, [r0, #-256]	; 0x100
    17d0:	00000468 	andeq	r0, r0, r8, ror #8
    17d4:	00000480 	andeq	r0, r0, r0, lsl #9
    17d8:	00510001 	subseq	r0, r1, r1
    17dc:	00000000 	andeq	r0, r0, r0
    17e0:	64000000 	strvs	r0, [r0], #-0
    17e4:	7c000004 	stcvc	0, cr0, [r0], {4}
    17e8:	01000004 	tsteq	r0, r4
    17ec:	00005500 	andeq	r5, r0, r0, lsl #10
    17f0:	00000000 	andeq	r0, r0, r0
    17f4:	04c40000 	strbeq	r0, [r4], #0
    17f8:	04d40000 	ldrbeq	r0, [r4], #0
    17fc:	00010000 	andeq	r0, r1, r0
    1800:	0004d456 	andeq	sp, r4, r6, asr r4
    1804:	0004d800 	andeq	sp, r4, r0, lsl #16
    1808:	5a000100 	bpl	1c10 <__standby_start+0x1c10>
    180c:	000004d8 	ldrdeq	r0, [r0], -r8
    1810:	000004e4 	andeq	r0, r0, r4, ror #9
    1814:	7f7a0003 	svcvc	0x007a0003
    1818:	0000009f 	muleq	r0, pc, r0	; <UNPREDICTABLE>
    181c:	00000000 	andeq	r0, r0, r0
    1820:	0004fc00 	andeq	pc, r4, r0, lsl #24
    1824:	00050000 	andeq	r0, r5, r0
    1828:	56000100 	strpl	r0, [r0], -r0, lsl #2
	...
    1834:	000004fc 	strdeq	r0, [r0], -ip
    1838:	00000500 	andeq	r0, r0, r0, lsl #10
    183c:	00550001 	subseq	r0, r5, r1
    1840:	1c000005 	stcne	0, cr0, [r0], {5}
    1844:	01000005 	tsteq	r0, r5
    1848:	00005100 	andeq	r5, r0, r0, lsl #2
    184c:	00000000 	andeq	r0, r0, r0
    1850:	04fc0000 	ldrbteq	r0, [ip], #0
    1854:	05140000 	ldreq	r0, [r4, #-0]
    1858:	00010000 	andeq	r0, r1, r0
    185c:	00000055 	andeq	r0, r0, r5, asr r0
    1860:	00000000 	andeq	r0, r0, r0
    1864:	00051c00 	andeq	r1, r5, r0, lsl #24
    1868:	00052000 	andeq	r2, r5, r0
    186c:	7d000200 	sfmvc	f0, 4, [r0, #-0]
    1870:	00052000 	andeq	r2, r5, r0
    1874:	00052400 	andeq	r2, r5, r0, lsl #8
    1878:	7d000200 	sfmvc	f0, 4, [r0, #-0]
    187c:	00052410 	andeq	r2, r5, r0, lsl r4
    1880:	00052800 	andeq	r2, r5, r0, lsl #16
    1884:	7d000200 	sfmvc	f0, 4, [r0, #-0]
    1888:	00052830 	andeq	r2, r5, r0, lsr r8
    188c:	0007ec00 	andeq	lr, r7, r0, lsl #24
    1890:	7d000300 	stcvc	3, cr0, [r0, #-0]
    1894:	000000c8 	andeq	r0, r0, r8, asr #1
    1898:	00000000 	andeq	r0, r0, r0
    189c:	051c0000 	ldreq	r0, [ip, #-0]
    18a0:	05340000 	ldreq	r0, [r4, #-0]!
    18a4:	00020000 	andeq	r0, r2, r0
    18a8:	05347091 	ldreq	r7, [r4, #-145]!	; 0x91
    18ac:	05580000 	ldrbeq	r0, [r8, #-0]
    18b0:	00020000 	andeq	r0, r2, r0
    18b4:	05584891 	ldrbeq	r4, [r8, #-2193]	; 0x891
    18b8:	05740000 	ldrbeq	r0, [r4, #-0]!
    18bc:	00010000 	andeq	r0, r1, r0
    18c0:	00057454 	andeq	r7, r5, r4, asr r4
    18c4:	00058c00 	andeq	r8, r5, r0, lsl #24
    18c8:	74000300 	strvc	r0, [r0], #-768	; 0x300
    18cc:	05949f01 	ldreq	r9, [r4, #3841]	; 0xf01
    18d0:	07ec0000 	strbeq	r0, [ip, r0]!
    18d4:	00010000 	andeq	r0, r1, r0
    18d8:	00000054 	andeq	r0, r0, r4, asr r0
    18dc:	00000000 	andeq	r0, r0, r0
    18e0:	00051c00 	andeq	r1, r5, r0, lsl #24
    18e4:	00055800 	andeq	r5, r5, r0, lsl #16
    18e8:	03000600 	movweq	r0, #1536	; 0x600
    18ec:	f0003a70 			; <UNDEFINED> instruction: 0xf0003a70
    18f0:	0005589f 	muleq	r5, pc, r8	; <UNPREDICTABLE>
    18f4:	00056800 	andeq	r6, r5, r0, lsl #16
    18f8:	55000100 	strpl	r0, [r0, #-256]	; 0x100
    18fc:	00000608 	andeq	r0, r0, r8, lsl #12
    1900:	00000620 	andeq	r0, r0, r0, lsr #12
    1904:	8c550001 	mrrchi	0, 0, r0, r5, cr1
    1908:	90000006 	andls	r0, r0, r6
    190c:	01000006 	tsteq	r0, r6
    1910:	06dc5500 	ldrbeq	r5, [ip], r0, lsl #10
    1914:	06e00000 	strbteq	r0, [r0], r0
    1918:	00010000 	andeq	r0, r1, r0
    191c:	00074c55 	andeq	r4, r7, r5, asr ip
    1920:	00075000 	andeq	r5, r7, r0
    1924:	55000100 	strpl	r0, [r0, #-256]	; 0x100
    1928:	0000076c 	andeq	r0, r0, ip, ror #14
    192c:	00000778 	andeq	r0, r0, r8, ror r7
    1930:	01750003 	cmneq	r5, r3
    1934:	0007789f 	muleq	r7, pc, r8	; <UNPREDICTABLE>
    1938:	00077c00 	andeq	r7, r7, r0, lsl #24
    193c:	55000100 	strpl	r0, [r0, #-256]	; 0x100
    1940:	000007e4 	andeq	r0, r0, r4, ror #15
    1944:	000007ec 	andeq	r0, r0, ip, ror #15
    1948:	00550001 	subseq	r0, r5, r1
    194c:	00000000 	andeq	r0, r0, r0
    1950:	a4000000 	strge	r0, [r0], #-0
    1954:	e0000006 	and	r0, r0, r6
    1958:	04000006 	streq	r0, [r0], #-6
    195c:	7fa49100 	svcvc	0x00a49100
    1960:	00000006 	andeq	r0, r0, r6
    1964:	00000000 	andeq	r0, r0, r0
    1968:	00059000 	andeq	r9, r5, r0
    196c:	0005fc00 	andeq	pc, r5, r0, lsl #24
    1970:	57000100 	strpl	r0, [r0, -r0, lsl #2]
    1974:	00000620 	andeq	r0, r0, r0, lsr #12
    1978:	000007ec 	andeq	r0, r0, ip, ror #15
    197c:	00570001 	subseq	r0, r7, r1
    1980:	00000000 	andeq	r0, r0, r0
    1984:	1c000000 	stcne	0, cr0, [r0], {-0}
    1988:	58000005 	stmdapl	r0, {r0, r2}
    198c:	02000005 	andeq	r0, r0, #5
    1990:	5c9f3000 	ldcpl	0, cr3, [pc], {0}
    1994:	74000006 	strvc	r0, [r0], #-6
    1998:	01000006 	tsteq	r0, r6
    199c:	06745a00 	ldrbteq	r5, [r4], -r0, lsl #20
    19a0:	06900000 	ldreq	r0, [r0], r0
    19a4:	00010000 	andeq	r0, r1, r0
    19a8:	00071c50 	andeq	r1, r7, r0, asr ip
    19ac:	00073400 	andeq	r3, r7, r0, lsl #8
    19b0:	5a000100 	bpl	1db8 <__standby_start+0x1db8>
    19b4:	00000734 	andeq	r0, r0, r4, lsr r7
    19b8:	00000750 	andeq	r0, r0, r0, asr r7
    19bc:	b4500001 	ldrblt	r0, [r0], #-1
    19c0:	cc000007 	stcgt	0, cr0, [r0], {7}
    19c4:	01000007 	tsteq	r0, r7
    19c8:	07cc5a00 	strbeq	r5, [ip, r0, lsl #20]
    19cc:	07ec0000 	strbeq	r0, [ip, r0]!
    19d0:	00010000 	andeq	r0, r1, r0
    19d4:	00000050 	andeq	r0, r0, r0, asr r0
    19d8:	00000000 	andeq	r0, r0, r0
    19dc:	00063c00 	andeq	r3, r6, r0, lsl #24
    19e0:	00069000 	andeq	r9, r6, r0
    19e4:	56000100 	strpl	r0, [r0], -r0, lsl #2
	...
    19f0:	0000063c 	andeq	r0, r0, ip, lsr r6
    19f4:	0000064c 	andeq	r0, r0, ip, asr #12
    19f8:	4c560001 	mrrcmi	0, 0, r0, r6, cr1
    19fc:	50000006 	andpl	r0, r0, r6
    1a00:	01000006 	tsteq	r0, r6
    1a04:	06505a00 	ldrbeq	r5, [r0], -r0, lsl #20
    1a08:	065c0000 	ldrbeq	r0, [ip], -r0
    1a0c:	00030000 	andeq	r0, r3, r0
    1a10:	009f7f7a 	addseq	r7, pc, sl, ror pc	; <UNPREDICTABLE>
    1a14:	00000000 	andeq	r0, r0, r0
    1a18:	74000000 	strvc	r0, [r0], #-0
    1a1c:	78000006 	stmdavc	r0, {r1, r2}
    1a20:	01000006 	tsteq	r0, r6
    1a24:	00005600 	andeq	r5, r0, r0, lsl #12
    1a28:	00000000 	andeq	r0, r0, r0
    1a2c:	06740000 	ldrbteq	r0, [r4], -r0
    1a30:	06780000 	ldrbteq	r0, [r8], -r0
    1a34:	00010000 	andeq	r0, r1, r0
    1a38:	00067855 	andeq	r7, r6, r5, asr r8
    1a3c:	00069000 	andeq	r9, r6, r0
    1a40:	51000100 	mrspl	r0, (UNDEF: 16)
	...
    1a4c:	00000674 	andeq	r0, r0, r4, ror r6
    1a50:	0000068c 	andeq	r0, r0, ip, lsl #13
    1a54:	00550001 	subseq	r0, r5, r1
    1a58:	00000000 	andeq	r0, r0, r0
    1a5c:	a4000000 	strge	r0, [r0], #-0
    1a60:	a8000006 	stmdage	r0, {r1, r2}
    1a64:	04000006 	streq	r0, [r0], #-6
    1a68:	7fa49100 	svcvc	0x00a49100
    1a6c:	00000006 	andeq	r0, r0, r6
    1a70:	00000000 	andeq	r0, r0, r0
    1a74:	0006a400 	andeq	sl, r6, r0, lsl #8
    1a78:	0006a800 	andeq	sl, r6, r0, lsl #16
    1a7c:	55000100 	strpl	r0, [r0, #-256]	; 0x100
    1a80:	000006a8 	andeq	r0, r0, r8, lsr #13
    1a84:	000006e0 	andeq	r0, r0, r0, ror #13
    1a88:	00510001 	subseq	r0, r1, r1
    1a8c:	00000000 	andeq	r0, r0, r0
    1a90:	a4000000 	strge	r0, [r0], #-0
    1a94:	dc000006 	stcle	0, cr0, [r0], {6}
    1a98:	01000006 	tsteq	r0, r6
    1a9c:	00005500 	andeq	r5, r0, r0, lsl #10
    1aa0:	00000000 	andeq	r0, r0, r0
    1aa4:	06b80000 	ldrteq	r0, [r8], r0
    1aa8:	06c80000 	strbeq	r0, [r8], r0
    1aac:	00040000 	andeq	r0, r4, r0
    1ab0:	067fa491 			; <UNDEFINED> instruction: 0x067fa491
    1ab4:	000006c8 	andeq	r0, r0, r8, asr #13
    1ab8:	000006cc 	andeq	r0, r0, ip, asr #13
    1abc:	cc530001 	mrrcgt	0, 0, r0, r3, cr1
    1ac0:	d8000006 	stmdale	r0, {r1, r2}
    1ac4:	03000006 	movweq	r0, #6
    1ac8:	9f7f7300 	svcls	0x007f7300
	...
    1ad4:	000006fc 	strdeq	r0, [r0], -ip
    1ad8:	00000750 	andeq	r0, r0, r0, asr r7
    1adc:	00560001 	subseq	r0, r6, r1
    1ae0:	00000000 	andeq	r0, r0, r0
    1ae4:	fc000000 	stc2	0, cr0, [r0], {-0}
    1ae8:	0c000006 	stceq	0, cr0, [r0], {6}
    1aec:	01000007 	tsteq	r0, r7
    1af0:	070c5600 	streq	r5, [ip, -r0, lsl #12]
    1af4:	07100000 	ldreq	r0, [r0, -r0]
    1af8:	00010000 	andeq	r0, r1, r0
    1afc:	0007105a 	andeq	r1, r7, sl, asr r0
    1b00:	00071c00 	andeq	r1, r7, r0, lsl #24
    1b04:	7a000300 	bvc	270c <__standby_start+0x270c>
    1b08:	00009f7f 	andeq	r9, r0, pc, ror pc
    1b0c:	00000000 	andeq	r0, r0, r0
    1b10:	07340000 	ldreq	r0, [r4, -r0]!
    1b14:	07380000 	ldreq	r0, [r8, -r0]!
    1b18:	00010000 	andeq	r0, r1, r0
    1b1c:	00000056 	andeq	r0, r0, r6, asr r0
    1b20:	00000000 	andeq	r0, r0, r0
    1b24:	00073400 	andeq	r3, r7, r0, lsl #8
    1b28:	00073800 	andeq	r3, r7, r0, lsl #16
    1b2c:	55000100 	strpl	r0, [r0, #-256]	; 0x100
    1b30:	00000738 	andeq	r0, r0, r8, lsr r7
    1b34:	00000750 	andeq	r0, r0, r0, asr r7
    1b38:	00510001 	subseq	r0, r1, r1
    1b3c:	00000000 	andeq	r0, r0, r0
    1b40:	34000000 	strcc	r0, [r0], #-0
    1b44:	4c000007 	stcmi	0, cr0, [r0], {7}
    1b48:	01000007 	tsteq	r0, r7
    1b4c:	00005500 	andeq	r5, r0, r0, lsl #10
    1b50:	00000000 	andeq	r0, r0, r0
    1b54:	07940000 	ldreq	r0, [r4, r0]
    1b58:	07a40000 	streq	r0, [r4, r0]!
    1b5c:	00010000 	andeq	r0, r1, r0
    1b60:	0007a456 	andeq	sl, r7, r6, asr r4
    1b64:	0007a800 	andeq	sl, r7, r0, lsl #16
    1b68:	5a000100 	bpl	1f70 <__standby_start+0x1f70>
    1b6c:	000007a8 	andeq	r0, r0, r8, lsr #15
    1b70:	000007b4 			; <UNDEFINED> instruction: 0x000007b4
    1b74:	7f7a0003 	svcvc	0x007a0003
    1b78:	0000009f 	muleq	r0, pc, r0	; <UNPREDICTABLE>
    1b7c:	00000000 	andeq	r0, r0, r0
    1b80:	0007cc00 	andeq	ip, r7, r0, lsl #24
    1b84:	0007d000 	andeq	sp, r7, r0
    1b88:	56000100 	strpl	r0, [r0], -r0, lsl #2
	...
    1b94:	000007cc 	andeq	r0, r0, ip, asr #15
    1b98:	000007d0 	ldrdeq	r0, [r0], -r0	; <UNPREDICTABLE>
    1b9c:	d0550001 	subsle	r0, r5, r1
    1ba0:	ec000007 	stc	0, cr0, [r0], {7}
    1ba4:	01000007 	tsteq	r0, r7
    1ba8:	00005100 	andeq	r5, r0, r0, lsl #2
    1bac:	00000000 	andeq	r0, r0, r0
    1bb0:	07cc0000 	strbeq	r0, [ip, r0]
    1bb4:	07e40000 	strbeq	r0, [r4, r0]!
    1bb8:	00010000 	andeq	r0, r1, r0
    1bbc:	00000055 	andeq	r0, r0, r5, asr r0
    1bc0:	00000000 	andeq	r0, r0, r0
    1bc4:	00000c00 	andeq	r0, r0, r0, lsl #24
    1bc8:	00005400 	andeq	r5, r0, r0, lsl #8
    1bcc:	50000100 	andpl	r0, r0, r0, lsl #2
	...
    1bd8:	0000000c 	andeq	r0, r0, ip
    1bdc:	00000010 	andeq	r0, r0, r0, lsl r0
    1be0:	00510001 	subseq	r0, r1, r1
    1be4:	00000000 	andeq	r0, r0, r0
    1be8:	0c000000 	stceq	0, cr0, [r0], {-0}
    1bec:	20000000 	andcs	r0, r0, r0
    1bf0:	01000000 	mrseq	r0, (UNDEF: 0)
    1bf4:	00205100 	eoreq	r5, r0, r0, lsl #2
    1bf8:	00240000 	eoreq	r0, r4, r0
    1bfc:	00050000 	andeq	r0, r5, r0
    1c00:	24310071 	ldrtcs	r0, [r1], #-113	; 0x71
    1c04:	0000249f 	muleq	r0, pc, r4	; <UNPREDICTABLE>
    1c08:	00002800 	andeq	r2, r0, r0, lsl #16
    1c0c:	51000100 	mrspl	r0, (UNDEF: 16)
    1c10:	00000030 	andeq	r0, r0, r0, lsr r0
    1c14:	00000058 	andeq	r0, r0, r8, asr r0
    1c18:	00510001 	subseq	r0, r1, r1
    1c1c:	00000000 	andeq	r0, r0, r0
    1c20:	0c000000 	stceq	0, cr0, [r0], {-0}
    1c24:	30000000 	andcc	r0, r0, r0
    1c28:	02000000 	andeq	r0, r0, #0
    1c2c:	309f3000 	addscc	r3, pc, r0
    1c30:	40000000 	andmi	r0, r0, r0
    1c34:	01000000 	mrseq	r0, (UNDEF: 0)
    1c38:	00445200 	subeq	r5, r4, r0, lsl #4
    1c3c:	00500000 	subseq	r0, r0, r0
    1c40:	00010000 	andeq	r0, r1, r0
    1c44:	00000052 	andeq	r0, r0, r2, asr r0
    1c48:	00000000 	andeq	r0, r0, r0
    1c4c:	00000c00 	andeq	r0, r0, r0, lsl #24
    1c50:	00002000 	andeq	r2, r0, r0
    1c54:	30000200 	andcc	r0, r0, r0, lsl #4
    1c58:	0000289f 	muleq	r0, pc, r8	; <UNPREDICTABLE>
    1c5c:	00002c00 	andeq	r2, r0, r0, lsl #24
    1c60:	53000100 	movwpl	r0, #256	; 0x100
    1c64:	00000030 	andeq	r0, r0, r0, lsr r0
    1c68:	00000048 	andeq	r0, r0, r8, asr #32
    1c6c:	00530001 	subseq	r0, r3, r1
	...
    1c78:	10000000 	andne	r0, r0, r0
    1c7c:	02000000 	andeq	r0, r0, #0
    1c80:	10007d00 	andne	r7, r0, r0, lsl #26
    1c84:	90000000 	andls	r0, r0, r0
    1c88:	02000000 	andeq	r0, r0, #0
    1c8c:	00087d00 	andeq	r7, r8, r0, lsl #26
	...
    1c98:	30000000 	andcc	r0, r0, r0
    1c9c:	02000000 	andeq	r0, r0, #0
    1ca0:	6c9f3000 	ldcvs	0, cr3, [pc], {0}
    1ca4:	7f000000 	svcvc	0x00000000
    1ca8:	01000000 	mrseq	r0, (UNDEF: 0)
    1cac:	00005100 	andeq	r5, r0, r0, lsl #2
    1cb0:	00000000 	andeq	r0, r0, r0
    1cb4:	00900000 	addseq	r0, r0, r0
    1cb8:	00980000 	addseq	r0, r8, r0
    1cbc:	00020000 	andeq	r0, r2, r0
    1cc0:	0098007d 	addseq	r0, r8, sp, ror r0
    1cc4:	00e40000 	rsceq	r0, r4, r0
    1cc8:	00020000 	andeq	r0, r2, r0
    1ccc:	0000087d 	andeq	r0, r0, sp, ror r8
    1cd0:	00000000 	andeq	r0, r0, r0
    1cd4:	00900000 	addseq	r0, r0, r0
    1cd8:	00b00000 	adcseq	r0, r0, r0
    1cdc:	00020000 	andeq	r0, r2, r0
    1ce0:	00cc9f30 	sbceq	r9, ip, r0, lsr pc
    1ce4:	00e40000 	rsceq	r0, r4, r0
    1ce8:	00010000 	andeq	r0, r1, r0
    1cec:	00000053 	andeq	r0, r0, r3, asr r0
    1cf0:	00000000 	andeq	r0, r0, r0
    1cf4:	0000a000 	andeq	sl, r0, r0
    1cf8:	0000b400 	andeq	fp, r0, r0, lsl #8
    1cfc:	91000200 	mrsls	r0, R8_usr
    1d00:	0000b474 	andeq	fp, r0, r4, ror r4
    1d04:	0000bc00 	andeq	fp, r0, r0, lsl #24
    1d08:	51000100 	mrspl	r0, (UNDEF: 16)
    1d0c:	000000bc 	strheq	r0, [r0], -ip
    1d10:	000000e4 	andeq	r0, r0, r4, ror #1
    1d14:	74910002 	ldrvc	r0, [r1], #2
	...
    1d20:	000000e4 	andeq	r0, r0, r4, ror #1
    1d24:	00000118 	andeq	r0, r0, r8, lsl r1
    1d28:	34500001 	ldrbcc	r0, [r0], #-1
    1d2c:	38000001 	stmdacc	r0, {r0}
    1d30:	01000001 	tsteq	r0, r1
    1d34:	00005000 	andeq	r5, r0, r0
    1d38:	00000000 	andeq	r0, r0, r0
    1d3c:	00e40000 	rsceq	r0, r4, r0
    1d40:	01180000 	tsteq	r8, r0
    1d44:	00050000 	andeq	r0, r5, r0
    1d48:	25350070 	ldrcs	r0, [r5, #-112]!	; 0x70
    1d4c:	0001189f 	muleq	r1, pc, r8	; <UNPREDICTABLE>
    1d50:	00011c00 	andeq	r1, r1, r0, lsl #24
    1d54:	73000300 	movwvc	r0, #768	; 0x300
    1d58:	01349f40 	teqeq	r4, r0, asr #30
    1d5c:	01380000 	teqeq	r8, r0
    1d60:	00050000 	andeq	r0, r5, r0
    1d64:	25350070 	ldrcs	r0, [r5, #-112]!	; 0x70
    1d68:	0000009f 	muleq	r0, pc, r0	; <UNPREDICTABLE>
    1d6c:	00000000 	andeq	r0, r0, r0
    1d70:	0000e400 	andeq	lr, r0, r0, lsl #8
    1d74:	00011800 	andeq	r1, r1, r0, lsl #16
    1d78:	70000500 	andvc	r0, r0, r0, lsl #10
    1d7c:	9f1a4f00 	svcls	0x001a4f00
    1d80:	00000118 	andeq	r0, r0, r8, lsl r1
    1d84:	0000012c 	andeq	r0, r0, ip, lsr #2
    1d88:	34520001 	ldrbcc	r0, [r2], #-1
    1d8c:	38000001 	stmdacc	r0, {r0}
    1d90:	05000001 	streq	r0, [r0, #-1]
    1d94:	4f007000 	svcmi	0x00007000
    1d98:	00009f1a 	andeq	r9, r0, sl, lsl pc
    1d9c:	00000000 	andeq	r0, r0, r0
    1da0:	01400000 	mrseq	r0, (UNDEF: 64)
    1da4:	016c0000 	cmneq	ip, r0
    1da8:	00010000 	andeq	r0, r1, r0
    1dac:	00019050 	andeq	r9, r1, r0, asr r0
    1db0:	00019400 	andeq	r9, r1, r0, lsl #8
    1db4:	50000100 	andpl	r0, r0, r0, lsl #2
	...
    1dc0:	00000140 	andeq	r0, r0, r0, asr #2
    1dc4:	00000180 	andeq	r0, r0, r0, lsl #3
    1dc8:	9f300002 	svcls	0x00300002
    1dcc:	00000190 	muleq	r0, r0, r1
    1dd0:	0000019c 	muleq	r0, ip, r1
    1dd4:	9f300002 	svcls	0x00300002
	...
    1de0:	00000140 	andeq	r0, r0, r0, asr #2
    1de4:	0000016c 	andeq	r0, r0, ip, ror #2
    1de8:	00700005 	rsbseq	r0, r0, r5
    1dec:	6c9f2535 	cfldr32vs	mvfx2, [pc], {53}	; 0x35
    1df0:	70000001 	andvc	r0, r0, r1
    1df4:	01000001 	tsteq	r0, r1
    1df8:	01705300 	cmneq	r0, r0, lsl #6
    1dfc:	01740000 	cmneq	r4, r0
    1e00:	00040000 	andeq	r0, r4, r0
    1e04:	9f7f8073 	svcls	0x007f8073
    1e08:	00000190 	muleq	r0, r0, r1
    1e0c:	00000194 	muleq	r0, r4, r1
    1e10:	00700005 	rsbseq	r0, r0, r5
    1e14:	009f2535 	addseq	r2, pc, r5, lsr r5	; <UNPREDICTABLE>
    1e18:	00000000 	andeq	r0, r0, r0
    1e1c:	40000000 	andmi	r0, r0, r0
    1e20:	6c000001 	stcvs	0, cr0, [r0], {1}
    1e24:	05000001 	streq	r0, [r0, #-1]
    1e28:	4f007000 	svcmi	0x00007000
    1e2c:	016c9f1a 	cmneq	ip, sl, lsl pc
    1e30:	018c0000 	orreq	r0, ip, r0
    1e34:	00010000 	andeq	r0, r1, r0
    1e38:	00019050 	andeq	r9, r1, r0, asr r0
    1e3c:	00019400 	andeq	r9, r1, r0, lsl #8
    1e40:	70000500 	andvc	r0, r0, r0, lsl #10
    1e44:	9f1a4f00 	svcls	0x001a4f00
	...
    1e54:	0000000c 	andeq	r0, r0, ip
    1e58:	0c500001 	mrrceq	0, 0, r0, r0, cr1	; <UNPREDICTABLE>
    1e5c:	14000000 	strne	r0, [r0], #-0
    1e60:	03000000 	movweq	r0, #0
    1e64:	9f047000 	svcls	0x00047000
	...
    1e74:	00000014 	andeq	r0, r0, r4, lsl r0
    1e78:	9f300002 	svcls	0x00300002
	...
    1e84:	0000002c 	andeq	r0, r0, ip, lsr #32
    1e88:	00000038 	andeq	r0, r0, r8, lsr r0
    1e8c:	38500001 	ldmdacc	r0, {r0}^
    1e90:	40000000 	andmi	r0, r0, r0
    1e94:	03000000 	movweq	r0, #0
    1e98:	9f047000 	svcls	0x00047000
	...
    1ea4:	0000002c 	andeq	r0, r0, ip, lsr #32
    1ea8:	00000040 	andeq	r0, r0, r0, asr #32
    1eac:	9f300002 	svcls	0x00300002
	...
    1eb8:	00000058 	andeq	r0, r0, r8, asr r0
    1ebc:	00000080 	andeq	r0, r0, r0, lsl #1
    1ec0:	00500001 	subseq	r0, r0, r1
    1ec4:	00000000 	andeq	r0, r0, r0
    1ec8:	58000000 	stmdapl	r0, {}	; <UNPREDICTABLE>
    1ecc:	84000000 	strhi	r0, [r0], #-0
    1ed0:	02000000 	andeq	r0, r0, #0
    1ed4:	009f3000 	addseq	r3, pc, r0
	...
    1ee0:	10000000 	andne	r0, r0, r0
    1ee4:	01000000 	mrseq	r0, (UNDEF: 0)
    1ee8:	00105000 	andseq	r5, r0, r0
    1eec:	00600000 	rsbeq	r0, r0, r0
    1ef0:	00010000 	andeq	r0, r1, r0
    1ef4:	00000052 	andeq	r0, r0, r2, asr r0
    1ef8:	00000000 	andeq	r0, r0, r0
    1efc:	00006000 	andeq	r6, r0, r0
    1f00:	00007800 	andeq	r7, r0, r0, lsl #16
    1f04:	50000100 	andpl	r0, r0, r0, lsl #2
    1f08:	00000078 	andeq	r0, r0, r8, ror r0
    1f0c:	000000a8 	andeq	r0, r0, r8, lsr #1
    1f10:	00520001 	subseq	r0, r2, r1
    1f14:	00000000 	andeq	r0, r0, r0
    1f18:	98000000 	stmdals	r0, {}	; <UNPREDICTABLE>
    1f1c:	b4000001 	strlt	r0, [r0], #-1
    1f20:	01000001 	tsteq	r0, r1
    1f24:	00005000 	andeq	r5, r0, r0
	...
    1f30:	00100000 	andseq	r0, r0, r0
    1f34:	00010000 	andeq	r0, r1, r0
    1f38:	00001050 	andeq	r1, r0, r0, asr r0
    1f3c:	00003000 	andeq	r3, r0, r0
    1f40:	52000100 	andpl	r0, r0, #0
	...
    1f4c:	00000030 	andeq	r0, r0, r0, lsr r0
    1f50:	00000048 	andeq	r0, r0, r8, asr #32
    1f54:	48500001 	ldmdami	r0, {r0}^
    1f58:	50000000 	andpl	r0, r0, r0
    1f5c:	01000000 	mrseq	r0, (UNDEF: 0)
    1f60:	00005200 	andeq	r5, r0, r0, lsl #4
	...
    1f6c:	001c0000 	andseq	r0, ip, r0
    1f70:	00010000 	andeq	r0, r1, r0
    1f74:	00000050 	andeq	r0, r0, r0, asr r0
    1f78:	00000000 	andeq	r0, r0, r0
    1f7c:	00004000 	andeq	r4, r0, r0
    1f80:	00005000 	andeq	r5, r0, r0
    1f84:	50000100 	andpl	r0, r0, r0, lsl #2
    1f88:	00000050 	andeq	r0, r0, r0, asr r0
    1f8c:	0000007c 	andeq	r0, r0, ip, ror r0
    1f90:	00520001 	subseq	r0, r2, r1
    1f94:	00000000 	andeq	r0, r0, r0
    1f98:	7c000000 	stcvc	0, cr0, [r0], {-0}
    1f9c:	94000000 	strls	r0, [r0], #-0
    1fa0:	01000000 	mrseq	r0, (UNDEF: 0)
    1fa4:	00945000 	addseq	r5, r4, r0
    1fa8:	00a80000 	adceq	r0, r8, r0
    1fac:	00010000 	andeq	r0, r1, r0
    1fb0:	00000052 	andeq	r0, r0, r2, asr r0
    1fb4:	00000000 	andeq	r0, r0, r0
    1fb8:	0000b000 	andeq	fp, r0, r0
    1fbc:	0000b400 	andeq	fp, r0, r0, lsl #8
    1fc0:	7d000200 	sfmvc	f0, 4, [r0, #-0]
    1fc4:	0000b400 	andeq	fp, r0, r0, lsl #8
    1fc8:	00012000 	andeq	r2, r1, r0
    1fcc:	7d000200 	sfmvc	f0, 4, [r0, #-0]
    1fd0:	00000010 	andeq	r0, r0, r0, lsl r0
    1fd4:	00000000 	andeq	r0, r0, r0
    1fd8:	0000b000 	andeq	fp, r0, r0
    1fdc:	0000d000 	andeq	sp, r0, r0
    1fe0:	50000100 	andpl	r0, r0, r0, lsl #2
    1fe4:	000000d0 	ldrdeq	r0, [r0], -r0	; <UNPREDICTABLE>
    1fe8:	00000120 	andeq	r0, r0, r0, lsr #2
    1fec:	00540001 	subseq	r0, r4, r1
    1ff0:	00000000 	andeq	r0, r0, r0
    1ff4:	20000000 	andcs	r0, r0, r0
    1ff8:	28000001 	stmdacs	r0, {r0}
    1ffc:	02000001 	andeq	r0, r0, #1
    2000:	28007d00 	stmdacs	r0, {r8, sl, fp, ip, sp, lr}
    2004:	68000001 	stmdavs	r0, {r0}
    2008:	02000001 	andeq	r0, r0, #1
    200c:	00047d00 	andeq	r7, r4, r0, lsl #26
    2010:	00000000 	andeq	r0, r0, r0
    2014:	20000000 	andcs	r0, r0, r0
    2018:	2c000001 	stccs	0, cr0, [r0], {1}
    201c:	01000001 	tsteq	r0, r1
    2020:	012c5000 	teqeq	ip, r0
    2024:	01680000 	cmneq	r8, r0
    2028:	00010000 	andeq	r0, r1, r0
    202c:	00000052 	andeq	r0, r0, r2, asr r0
    2030:	00000000 	andeq	r0, r0, r0
    2034:	00016800 	andeq	r6, r1, r0, lsl #16
    2038:	00018000 	andeq	r8, r1, r0
    203c:	7d000200 	sfmvc	f0, 4, [r0, #-0]
    2040:	00018000 	andeq	r8, r1, r0
    2044:	0001bc00 	andeq	fp, r1, r0, lsl #24
    2048:	7d000200 	sfmvc	f0, 4, [r0, #-0]
    204c:	00000004 	andeq	r0, r0, r4
    2050:	00000000 	andeq	r0, r0, r0
    2054:	00016800 	andeq	r6, r1, r0, lsl #16
    2058:	00018800 	andeq	r8, r1, r0, lsl #16
    205c:	50000100 	andpl	r0, r0, r0, lsl #2
    2060:	00000188 	andeq	r0, r0, r8, lsl #3
    2064:	000001a8 	andeq	r0, r0, r8, lsr #3
    2068:	00510001 	subseq	r0, r1, r1
    206c:	00000000 	andeq	r0, r0, r0
    2070:	bc000000 	stclt	0, cr0, [r0], {-0}
    2074:	d0000001 	andle	r0, r0, r1
    2078:	02000001 	andeq	r0, r0, #1
    207c:	d0007d00 	andle	r7, r0, r0, lsl #26
    2080:	04000001 	streq	r0, [r0], #-1
    2084:	02000002 	andeq	r0, r0, #2
    2088:	00087d00 	andeq	r7, r8, r0, lsl #26
    208c:	00000000 	andeq	r0, r0, r0
    2090:	bc000000 	stclt	0, cr0, [r0], {-0}
    2094:	dc000001 	stcle	0, cr0, [r0], {1}
    2098:	01000001 	tsteq	r0, r1
    209c:	01dc5000 	bicseq	r5, ip, r0
    20a0:	02040000 	andeq	r0, r4, #0
    20a4:	00010000 	andeq	r0, r1, r0
    20a8:	00000051 	andeq	r0, r0, r1, asr r0
    20ac:	00000000 	andeq	r0, r0, r0
    20b0:	00020400 	andeq	r0, r2, r0, lsl #8
    20b4:	00020c00 	andeq	r0, r2, r0, lsl #24
    20b8:	50000100 	andpl	r0, r0, r0, lsl #2
    20bc:	0000020c 	andeq	r0, r0, ip, lsl #4
    20c0:	0000028c 	andeq	r0, r0, ip, lsl #5
    20c4:	00520001 	subseq	r0, r2, r1
    20c8:	00000000 	andeq	r0, r0, r0
    20cc:	b8000000 	stmdalt	r0, {}	; <UNPREDICTABLE>
    20d0:	c8000002 	stmdagt	r0, {r1}
    20d4:	01000002 	tsteq	r0, r2
    20d8:	02c85000 	sbceq	r5, r8, #0
    20dc:	03480000 	movteq	r0, #32768	; 0x8000
    20e0:	00010000 	andeq	r0, r1, r0
    20e4:	00000052 	andeq	r0, r0, r2, asr r0
    20e8:	00000000 	andeq	r0, r0, r0
    20ec:	00034800 	andeq	r4, r3, r0, lsl #16
    20f0:	00035000 	andeq	r5, r3, r0
    20f4:	7d000200 	sfmvc	f0, 4, [r0, #-0]
    20f8:	00035000 	andeq	r5, r3, r0
    20fc:	0003a400 	andeq	sl, r3, r0, lsl #8
    2100:	7d000200 	sfmvc	f0, 4, [r0, #-0]
    2104:	00000004 	andeq	r0, r0, r4
    2108:	00000000 	andeq	r0, r0, r0
    210c:	00034800 	andeq	r4, r3, r0, lsl #16
    2110:	00038000 	andeq	r8, r3, r0
    2114:	31000200 	mrscc	r0, R8_usr
    2118:	0003809f 	muleq	r3, pc, r0	; <UNPREDICTABLE>
    211c:	00039000 	andeq	r9, r3, r0
    2120:	50000100 	andpl	r0, r0, r0, lsl #2
	...
    212c:	00000348 	andeq	r0, r0, r8, asr #6
    2130:	00000384 	andeq	r0, r0, r4, lsl #7
    2134:	9f310002 	svcls	0x00310002
    2138:	00000384 	andeq	r0, r0, r4, lsl #7
    213c:	0000039f 	muleq	r0, pc, r3	; <UNPREDICTABLE>
    2140:	017c0003 	cmneq	ip, r3
    2144:	0000009f 	muleq	r0, pc, r0	; <UNPREDICTABLE>
    2148:	00000000 	andeq	r0, r0, r0
    214c:	00034800 	andeq	r4, r3, r0, lsl #16
    2150:	00038c00 	andeq	r8, r3, r0, lsl #24
    2154:	31000200 	mrscc	r0, R8_usr
    2158:	00038c9f 	muleq	r3, pc, ip	; <UNPREDICTABLE>
    215c:	00039800 	andeq	r9, r3, r0, lsl #16
    2160:	51000100 	mrspl	r0, (UNDEF: 16)
	...
    216c:	00000348 	andeq	r0, r0, r8, asr #6
    2170:	00000360 	andeq	r0, r0, r0, ror #6
    2174:	9f300002 	svcls	0x00300002
	...
    2180:	00000348 	andeq	r0, r0, r8, asr #6
    2184:	00000364 	andeq	r0, r0, r4, ror #6
    2188:	9f300002 	svcls	0x00300002
    218c:	00000364 	andeq	r0, r0, r4, ror #6
    2190:	00000370 	andeq	r0, r0, r0, ror r3
    2194:	c00a0004 	andgt	r0, sl, r4
    2198:	03709f5d 	cmneq	r0, #372	; 0x174
    219c:	03a40000 			; <UNDEFINED> instruction: 0x03a40000
    21a0:	00020000 	andeq	r0, r2, r0
    21a4:	00009f30 	andeq	r9, r0, r0, lsr pc
	...
    21b0:	00080000 	andeq	r0, r8, r0
    21b4:	00020000 	andeq	r0, r2, r0
    21b8:	0008007d 	andeq	r0, r8, sp, ror r0
    21bc:	002c0000 	eoreq	r0, ip, r0
    21c0:	00020000 	andeq	r0, r2, r0
    21c4:	0000087d 	andeq	r0, r0, sp, ror r8
    21c8:	00000000 	andeq	r0, r0, r0
    21cc:	002c0000 	eoreq	r0, ip, r0
    21d0:	00300000 	eorseq	r0, r0, r0
    21d4:	00020000 	andeq	r0, r2, r0
    21d8:	0030007d 	eorseq	r0, r0, sp, ror r0
    21dc:	00580000 	subseq	r0, r8, r0
    21e0:	00020000 	andeq	r0, r2, r0
    21e4:	0000087d 	andeq	r0, r0, sp, ror r8
    21e8:	00000000 	andeq	r0, r0, r0
    21ec:	00580000 	subseq	r0, r8, r0
    21f0:	005c0000 	subseq	r0, ip, r0
    21f4:	00020000 	andeq	r0, r2, r0
    21f8:	005c007d 	subseq	r0, ip, sp, ror r0
    21fc:	00d00000 	sbcseq	r0, r0, r0
    2200:	00020000 	andeq	r0, r2, r0
    2204:	0000107d 	andeq	r1, r0, sp, ror r0
    2208:	00000000 	andeq	r0, r0, r0
    220c:	00580000 	subseq	r0, r8, r0
    2210:	00640000 	rsbeq	r0, r4, r0
    2214:	00010000 	andeq	r0, r1, r0
    2218:	00006450 	andeq	r6, r0, r0, asr r4
    221c:	00007400 	andeq	r7, r0, r0, lsl #8
    2220:	55000100 	strpl	r0, [r0, #-256]	; 0x100
    2224:	000000c8 	andeq	r0, r0, r8, asr #1
    2228:	000000d0 	ldrdeq	r0, [r0], -r0	; <UNPREDICTABLE>
    222c:	00550001 	subseq	r0, r5, r1
    2230:	00000000 	andeq	r0, r0, r0
    2234:	68000000 	stmdavs	r0, {}	; <UNPREDICTABLE>
    2238:	93000000 	movwls	r0, #0
    223c:	01000000 	mrseq	r0, (UNDEF: 0)
    2240:	00935000 	addseq	r5, r3, r0
    2244:	00d00000 	sbcseq	r0, r0, r0
    2248:	00010000 	andeq	r0, r1, r0
    224c:	00000054 	andeq	r0, r0, r4, asr r0
    2250:	00000000 	andeq	r0, r0, r0
    2254:	00007000 	andeq	r7, r0, r0
    2258:	00007800 	andeq	r7, r0, r0, lsl #16
    225c:	30000200 	andcc	r0, r0, r0, lsl #4
    2260:	0000789f 	muleq	r0, pc, r8	; <UNPREDICTABLE>
    2264:	0000a400 	andeq	sl, r0, r0, lsl #8
    2268:	32000200 	andcc	r0, r0, #0
    226c:	0000a49f 	muleq	r0, pc, r4	; <UNPREDICTABLE>
    2270:	0000c800 	andeq	ip, r0, r0, lsl #16
    2274:	30000200 	andcc	r0, r0, r0, lsl #4
    2278:	0000009f 	muleq	r0, pc, r0	; <UNPREDICTABLE>
    227c:	00000000 	andeq	r0, r0, r0
    2280:	0000d000 	andeq	sp, r0, r0
    2284:	0000d400 	andeq	sp, r0, r0, lsl #8
    2288:	7d000200 	sfmvc	f0, 4, [r0, #-0]
    228c:	0000d400 	andeq	sp, r0, r0, lsl #8
    2290:	00015400 	andeq	r5, r1, r0, lsl #8
    2294:	7d000200 	sfmvc	f0, 4, [r0, #-0]
    2298:	00000008 	andeq	r0, r0, r8
    229c:	00000000 	andeq	r0, r0, r0
    22a0:	0000ec00 	andeq	lr, r0, r0, lsl #24
    22a4:	0000f400 	andeq	pc, r0, r0, lsl #8
    22a8:	50000100 	andpl	r0, r0, r0, lsl #2
    22ac:	000000f4 	strdeq	r0, [r0], -r4
    22b0:	0000012f 	andeq	r0, r0, pc, lsr #2
    22b4:	40530001 	subsmi	r0, r3, r1
    22b8:	43000001 	movwmi	r0, #1
    22bc:	01000001 	tsteq	r0, r1
    22c0:	01485300 	mrseq	r5, (UNDEF: 120)
    22c4:	01540000 	cmpeq	r4, r0
    22c8:	00010000 	andeq	r0, r1, r0
    22cc:	00000053 	andeq	r0, r0, r3, asr r0
    22d0:	00000000 	andeq	r0, r0, r0
    22d4:	00015400 	andeq	r5, r1, r0, lsl #8
    22d8:	00015800 	andeq	r5, r1, r0, lsl #16
    22dc:	7d000200 	sfmvc	f0, 4, [r0, #-0]
    22e0:	00015800 	andeq	r5, r1, r0, lsl #16
    22e4:	0001f000 	andeq	pc, r1, r0
    22e8:	7d000200 	sfmvc	f0, 4, [r0, #-0]
    22ec:	00000010 	andeq	r0, r0, r0, lsl r0
    22f0:	00000000 	andeq	r0, r0, r0
    22f4:	00015400 	andeq	r5, r1, r0, lsl #8
    22f8:	00017400 	andeq	r7, r1, r0, lsl #8
    22fc:	50000100 	andpl	r0, r0, r0, lsl #2
    2300:	00000174 	andeq	r0, r0, r4, ror r1
    2304:	000001f0 	strdeq	r0, [r0], -r0	; <UNPREDICTABLE>
    2308:	00550001 	subseq	r0, r5, r1
    230c:	00000000 	andeq	r0, r0, r0
    2310:	7c000000 	stcvc	0, cr0, [r0], {-0}
    2314:	bc000001 	stclt	0, cr0, [r0], {1}
    2318:	01000001 	tsteq	r0, r1
    231c:	01bc5000 			; <UNDEFINED> instruction: 0x01bc5000
    2320:	01c30000 	biceq	r0, r3, r0
    2324:	00010000 	andeq	r0, r1, r0
    2328:	0001d453 	andeq	sp, r1, r3, asr r4
    232c:	0001d700 	andeq	sp, r1, r0, lsl #14
    2330:	50000100 	andpl	r0, r0, r0, lsl #2
    2334:	000001dc 	ldrdeq	r0, [r0], -ip
    2338:	000001e0 	andeq	r0, r0, r0, ror #3
    233c:	e0500001 	subs	r0, r0, r1
    2340:	e4000001 	str	r0, [r0], #-1
    2344:	01000001 	tsteq	r0, r1
    2348:	00005300 	andeq	r5, r0, r0, lsl #6
    234c:	00000000 	andeq	r0, r0, r0
    2350:	01f00000 	mvnseq	r0, r0
    2354:	01f40000 	mvnseq	r0, r0
    2358:	00020000 	andeq	r0, r2, r0
    235c:	01f4007d 	mvnseq	r0, sp, ror r0
    2360:	02680000 	rsbeq	r0, r8, #0
    2364:	00020000 	andeq	r0, r2, r0
    2368:	0000107d 	andeq	r1, r0, sp, ror r0
    236c:	00000000 	andeq	r0, r0, r0
    2370:	01f00000 	mvnseq	r0, r0
    2374:	01fc0000 	mvnseq	r0, r0
    2378:	00010000 	andeq	r0, r1, r0
    237c:	0001fc50 	andeq	pc, r1, r0, asr ip	; <UNPREDICTABLE>
    2380:	00026800 	andeq	r6, r2, r0, lsl #16
    2384:	55000100 	strpl	r0, [r0, #-256]	; 0x100
	...
    2390:	00000200 	andeq	r0, r0, r0, lsl #4
    2394:	00000214 	andeq	r0, r0, r4, lsl r2
    2398:	00500001 	subseq	r0, r0, r1
    239c:	00000000 	andeq	r0, r0, r0
    23a0:	f0000000 			; <UNDEFINED> instruction: 0xf0000000
    23a4:	5c000001 	stcpl	0, cr0, [r0], {1}
    23a8:	02000002 	andeq	r0, r0, #2
    23ac:	5c9f3000 	ldcpl	0, cr3, [pc], {0}
    23b0:	5f000002 	svcpl	0x00000002
    23b4:	01000002 	tsteq	r0, r2
    23b8:	025f5300 	subseq	r5, pc, #0
    23bc:	02680000 	rsbeq	r0, r8, #0
    23c0:	00010000 	andeq	r0, r1, r0
    23c4:	00000054 	andeq	r0, r0, r4, asr r0
    23c8:	00000000 	andeq	r0, r0, r0
    23cc:	00001000 	andeq	r1, r0, r0
    23d0:	00001800 	andeq	r1, r0, r0, lsl #16
    23d4:	7d000200 	sfmvc	f0, 4, [r0, #-0]
    23d8:	00001800 	andeq	r1, r0, r0, lsl #16
    23dc:	0000d400 	andeq	sp, r0, r0, lsl #8
    23e0:	7d000200 	sfmvc	f0, 4, [r0, #-0]
    23e4:	00000008 	andeq	r0, r0, r8
    23e8:	00000000 	andeq	r0, r0, r0
    23ec:	00001000 	andeq	r1, r0, r0
    23f0:	00001c00 	andeq	r1, r0, r0, lsl #24
    23f4:	50000100 	andpl	r0, r0, r0, lsl #2
	...
    2400:	00000010 	andeq	r0, r0, r0, lsl r0
    2404:	00000028 	andeq	r0, r0, r8, lsr #32
    2408:	00510001 	subseq	r0, r1, r1
    240c:	00000000 	andeq	r0, r0, r0
    2410:	5c000000 	stcpl	0, cr0, [r0], {-0}
    2414:	94000000 	strls	r0, [r0], #-0
    2418:	02000000 	andeq	r0, r0, #0
    241c:	b8749100 	ldmdalt	r4!, {r8, ip, pc}^
    2420:	d4000000 	strle	r0, [r0], #-0
    2424:	02000000 	andeq	r0, r0, #0
    2428:	00749100 	rsbseq	r9, r4, r0, lsl #2
    242c:	00000000 	andeq	r0, r0, r0
    2430:	d4000000 	strle	r0, [r0], #-0
    2434:	dc000000 	stcle	0, cr0, [r0], {-0}
    2438:	02000000 	andeq	r0, r0, #0
    243c:	dc007d00 	stcle	13, cr7, [r0], {-0}
    2440:	78000000 	stmdavc	r0, {}	; <UNPREDICTABLE>
    2444:	02000001 	andeq	r0, r0, #1
    2448:	00087d00 	andeq	r7, r8, r0, lsl #26
    244c:	00000000 	andeq	r0, r0, r0
    2450:	d4000000 	strle	r0, [r0], #-0
    2454:	10000000 	andne	r0, r0, r0
    2458:	01000001 	tsteq	r0, r1
    245c:	01285000 	teqeq	r8, r0
    2460:	01640000 	cmneq	r4, r0
    2464:	00010000 	andeq	r0, r1, r0
    2468:	00000050 	andeq	r0, r0, r0, asr r0
    246c:	00000000 	andeq	r0, r0, r0
    2470:	0000d400 	andeq	sp, r0, r0, lsl #8
    2474:	0000e800 	andeq	lr, r0, r0, lsl #16
    2478:	51000100 	mrspl	r0, (UNDEF: 16)
    247c:	00000128 	andeq	r0, r0, r8, lsr #2
    2480:	0000013c 	andeq	r0, r0, ip, lsr r1
    2484:	00510001 	subseq	r0, r1, r1
    2488:	00000000 	andeq	r0, r0, r0
    248c:	14000000 	strne	r0, [r0], #-0
    2490:	28000001 	stmdacs	r0, {r0}
    2494:	02000001 	andeq	r0, r0, #1
    2498:	68749100 	ldmdavs	r4!, {r8, ip, pc}^
    249c:	78000001 	stmdavc	r0, {r0}
    24a0:	02000001 	andeq	r0, r0, #1
    24a4:	00749100 	rsbseq	r9, r4, r0, lsl #2
    24a8:	00000000 	andeq	r0, r0, r0
    24ac:	78000000 	stmdavc	r0, {}	; <UNPREDICTABLE>
    24b0:	80000001 	andhi	r0, r0, r1
    24b4:	02000001 	andeq	r0, r0, #1
    24b8:	80007d00 	andhi	r7, r0, r0, lsl #26
    24bc:	cc000001 	stcgt	0, cr0, [r0], {1}
    24c0:	02000001 	andeq	r0, r0, #1
    24c4:	00087d00 	andeq	r7, r8, r0, lsl #26
    24c8:	00000000 	andeq	r0, r0, r0
    24cc:	78000000 	stmdavc	r0, {}	; <UNPREDICTABLE>
    24d0:	88000001 	stmdahi	r0, {r0}
    24d4:	01000001 	tsteq	r0, r1
    24d8:	00005000 	andeq	r5, r0, r0
    24dc:	00000000 	andeq	r0, r0, r0
    24e0:	01780000 	cmneq	r8, r0
    24e4:	01a00000 	moveq	r0, r0
    24e8:	00010000 	andeq	r0, r1, r0
    24ec:	00000051 	andeq	r0, r0, r1, asr r0
    24f0:	00000000 	andeq	r0, r0, r0
    24f4:	0001a000 	andeq	sl, r1, r0
    24f8:	0001a800 	andeq	sl, r1, r0, lsl #16
    24fc:	51000100 	mrspl	r0, (UNDEF: 16)
    2500:	000001a8 	andeq	r0, r0, r8, lsr #3
    2504:	000001ac 	andeq	r0, r0, ip, lsr #3
    2508:	74910002 	ldrvc	r0, [r1], #2
    250c:	000001b0 			; <UNDEFINED> instruction: 0x000001b0
    2510:	000001b4 			; <UNDEFINED> instruction: 0x000001b4
    2514:	b4510001 	ldrblt	r0, [r1], #-1
    2518:	b8000001 	stmdalt	r0, {r0}
    251c:	02000001 	andeq	r0, r0, #1
    2520:	bc749100 	ldfltp	f1, [r4], #-0
    2524:	c0000001 	andgt	r0, r0, r1
    2528:	01000001 	tsteq	r0, r1
    252c:	01c05200 	biceq	r5, r0, r0, lsl #4
    2530:	01cc0000 	biceq	r0, ip, r0
    2534:	00020000 	andeq	r0, r2, r0
    2538:	00007491 	muleq	r0, r1, r4
    253c:	00000000 	andeq	r0, r0, r0
    2540:	01cc0000 	biceq	r0, ip, r0
    2544:	01d40000 	bicseq	r0, r4, r0
    2548:	00020000 	andeq	r0, r2, r0
    254c:	01d4007d 	bicseq	r0, r4, sp, ror r0
    2550:	01f80000 	mvnseq	r0, r0
    2554:	00020000 	andeq	r0, r2, r0
    2558:	0000087d 	andeq	r0, r0, sp, ror r8
    255c:	00000000 	andeq	r0, r0, r0
    2560:	01cc0000 	biceq	r0, ip, r0
    2564:	01dc0000 	bicseq	r0, ip, r0
    2568:	00010000 	andeq	r0, r1, r0
    256c:	00000050 	andeq	r0, r0, r0, asr r0
    2570:	00000000 	andeq	r0, r0, r0
    2574:	0001e000 	andeq	lr, r1, r0
    2578:	0001ec00 	andeq	lr, r1, r0, lsl #24
    257c:	53000100 	movwpl	r0, #256	; 0x100
    2580:	000001ec 	andeq	r0, r0, ip, ror #3
    2584:	000001f8 	strdeq	r0, [r0], -r8
    2588:	74910002 	ldrvc	r0, [r1], #2
	...
    2594:	000001f8 	strdeq	r0, [r0], -r8
    2598:	000001fc 	strdeq	r0, [r0], -ip
    259c:	00500001 	subseq	r0, r0, r1
    25a0:	00000000 	andeq	r0, r0, r0
    25a4:	18000000 	stmdane	r0, {}	; <UNPREDICTABLE>
    25a8:	20000002 	andcs	r0, r0, r2
    25ac:	02000002 	andeq	r0, r0, #2
    25b0:	20007d00 	andcs	r7, r0, r0, lsl #26
    25b4:	04000002 	streq	r0, [r0], #-2
    25b8:	02000003 	andeq	r0, r0, #3
    25bc:	00087d00 	andeq	r7, r8, r0, lsl #26
    25c0:	00000000 	andeq	r0, r0, r0
    25c4:	18000000 	stmdane	r0, {}	; <UNPREDICTABLE>
    25c8:	4c000002 	stcmi	0, cr0, [r0], {2}
    25cc:	02000002 	andeq	r0, r0, #2
    25d0:	4c9f3000 	ldcmi	0, cr3, [pc], {0}
    25d4:	84000002 	strhi	r0, [r0], #-2
    25d8:	01000002 	tsteq	r0, r2
    25dc:	028c5000 	addeq	r5, ip, #0
    25e0:	02b80000 	adcseq	r0, r8, #0
    25e4:	00020000 	andeq	r0, r2, r0
    25e8:	02b89f30 	adcseq	r9, r8, #192	; 0xc0
    25ec:	02dc0000 	sbcseq	r0, ip, #0
    25f0:	00010000 	andeq	r0, r1, r0
    25f4:	0002dc51 	andeq	sp, r2, r1, asr ip
    25f8:	0002fc00 	andeq	pc, r2, r0, lsl #24
    25fc:	50000100 	andpl	r0, r0, r0, lsl #2
	...
    2608:	00000234 	andeq	r0, r0, r4, lsr r2
    260c:	0000023c 	andeq	r0, r0, ip, lsr r2
    2610:	3c530001 	mrrccc	0, 0, r0, r3, cr1
    2614:	8c000002 	stchi	0, cr0, [r0], {2}
    2618:	02000002 	andeq	r0, r0, #2
    261c:	f8749100 			; <UNDEFINED> instruction: 0xf8749100
    2620:	04000002 	streq	r0, [r0], #-2
    2624:	02000003 	andeq	r0, r0, #3
    2628:	00749100 	rsbseq	r9, r4, r0, lsl #2
    262c:	00000000 	andeq	r0, r0, r0
    2630:	4c000000 	stcmi	0, cr0, [r0], {-0}
    2634:	84000002 	strhi	r0, [r0], #-2
    2638:	01000002 	tsteq	r0, r2
    263c:	02f85000 	rscseq	r5, r8, #0
    2640:	02fc0000 	rscseq	r0, ip, #0
    2644:	00010000 	andeq	r0, r1, r0
    2648:	00000050 	andeq	r0, r0, r0, asr r0
    264c:	00000000 	andeq	r0, r0, r0
    2650:	00027400 	andeq	r7, r2, r0, lsl #8
    2654:	00028400 	andeq	r8, r2, r0, lsl #8
    2658:	31000200 	mrscc	r0, R8_usr
    265c:	0000009f 	muleq	r0, pc, r0	; <UNPREDICTABLE>
    2660:	00000000 	andeq	r0, r0, r0
    2664:	00027400 	andeq	r7, r2, r0, lsl #8
    2668:	00028400 	andeq	r8, r2, r0, lsl #8
    266c:	30000200 	andcc	r0, r0, r0, lsl #4
    2670:	0000009f 	muleq	r0, pc, r0	; <UNPREDICTABLE>
    2674:	00000000 	andeq	r0, r0, r0
    2678:	00028400 	andeq	r8, r2, r0, lsl #8
    267c:	00028c00 	andeq	r8, r2, r0, lsl #24
    2680:	91000200 	mrsls	r0, R8_usr
    2684:	0002a074 	andeq	sl, r2, r4, ror r0
    2688:	0002a800 	andeq	sl, r2, r0, lsl #16
    268c:	53000100 	movwpl	r0, #256	; 0x100
    2690:	000002a8 	andeq	r0, r0, r8, lsr #5
    2694:	000002f8 	strdeq	r0, [r0], -r8
    2698:	74910002 	ldrvc	r0, [r1], #2
	...
    26a4:	000002b8 			; <UNDEFINED> instruction: 0x000002b8
    26a8:	000002dc 	ldrdeq	r0, [r0], -ip
    26ac:	dc510001 	mrrcle	0, 0, r0, r1, cr1
    26b0:	f8000002 			; <UNDEFINED> instruction: 0xf8000002
    26b4:	01000002 	tsteq	r0, r2
    26b8:	00005000 	andeq	r5, r0, r0
    26bc:	00000000 	andeq	r0, r0, r0
    26c0:	02e40000 	rsceq	r0, r4, #0
    26c4:	02f80000 	rscseq	r0, r8, #0
    26c8:	00020000 	andeq	r0, r2, r0
    26cc:	00009f31 	andeq	r9, r0, r1, lsr pc
    26d0:	00000000 	andeq	r0, r0, r0
    26d4:	02e40000 	rsceq	r0, r4, #0
    26d8:	02f80000 	rscseq	r0, r8, #0
    26dc:	00020000 	andeq	r0, r2, r0
    26e0:	00009f32 	andeq	r9, r0, r2, lsr pc
    26e4:	00000000 	andeq	r0, r0, r0
    26e8:	03040000 	movweq	r0, #16384	; 0x4000
    26ec:	03240000 	teqeq	r4, #0
    26f0:	00010000 	andeq	r0, r1, r0
    26f4:	00032c50 	andeq	r2, r3, r0, asr ip
    26f8:	00033000 	andeq	r3, r3, r0
    26fc:	50000100 	andpl	r0, r0, r0, lsl #2
	...
    2708:	00000010 	andeq	r0, r0, r0, lsl r0
    270c:	00000030 	andeq	r0, r0, r0, lsr r0
    2710:	00500001 	subseq	r0, r0, r1
    2714:	00000000 	andeq	r0, r0, r0
    2718:	34000000 	strcc	r0, [r0], #-0
    271c:	48000000 	stmdami	r0, {}	; <UNPREDICTABLE>
    2720:	01000000 	mrseq	r0, (UNDEF: 0)
    2724:	00005000 	andeq	r5, r0, r0
    2728:	00000000 	andeq	r0, r0, r0
    272c:	00300000 	eorseq	r0, r0, r0
    2730:	00340000 	eorseq	r0, r4, r0
    2734:	00020000 	andeq	r0, r2, r0
    2738:	0034007d 	eorseq	r0, r4, sp, ror r0
    273c:	00c40000 	sbceq	r0, r4, r0
    2740:	00020000 	andeq	r0, r2, r0
    2744:	0000107d 	andeq	r1, r0, sp, ror r0
    2748:	00000000 	andeq	r0, r0, r0
    274c:	00300000 	eorseq	r0, r0, r0
    2750:	00400000 	subeq	r0, r0, r0
    2754:	00010000 	andeq	r0, r1, r0
    2758:	00004050 	andeq	r4, r0, r0, asr r0
    275c:	0000a800 	andeq	sl, r0, r0, lsl #16
    2760:	54000100 	strpl	r0, [r0], #-256	; 0x100
	...
    276c:	00000030 	andeq	r0, r0, r0, lsr r0
    2770:	0000004c 	andeq	r0, r0, ip, asr #32
    2774:	9f300002 	svcls	0x00300002
    2778:	0000004c 	andeq	r0, r0, ip, asr #32
    277c:	00000068 	andeq	r0, r0, r8, rrx
    2780:	a4030005 	strge	r0, [r3], #-5
    2784:	68f0003b 	ldmvs	r0!, {r0, r1, r3, r4, r5}^
    2788:	78000000 	stmdavc	r0, {}	; <UNPREDICTABLE>
    278c:	01000000 	mrseq	r0, (UNDEF: 0)
    2790:	00785500 	rsbseq	r5, r8, r0, lsl #10
    2794:	007c0000 	rsbseq	r0, ip, r0
    2798:	00010000 	andeq	r0, r1, r0
    279c:	00007c53 	andeq	r7, r0, r3, asr ip
    27a0:	00008400 	andeq	r8, r0, r0, lsl #8
    27a4:	55000100 	strpl	r0, [r0, #-256]	; 0x100
    27a8:	00000094 	muleq	r0, r4, r0
    27ac:	0000009c 	muleq	r0, ip, r0
    27b0:	9c530001 	mrrcls	0, 0, r0, r3, cr1
    27b4:	c4000000 	strgt	r0, [r0], #-0
    27b8:	01000000 	mrseq	r0, (UNDEF: 0)
    27bc:	00005500 	andeq	r5, r0, r0, lsl #10
    27c0:	00000000 	andeq	r0, r0, r0
    27c4:	00300000 	eorseq	r0, r0, r0
    27c8:	00980000 	addseq	r0, r8, r0
    27cc:	00020000 	andeq	r0, r2, r0
    27d0:	00989f30 	addseq	r9, r8, r0, lsr pc
    27d4:	009c0000 	addseq	r0, ip, r0
    27d8:	00010000 	andeq	r0, r1, r0
    27dc:	00009c53 	andeq	r9, r0, r3, asr ip
    27e0:	0000c400 	andeq	ip, r0, r0, lsl #8
    27e4:	55000100 	strpl	r0, [r0, #-256]	; 0x100
	...
    27f0:	000000c4 	andeq	r0, r0, r4, asr #1
    27f4:	000000c8 	andeq	r0, r0, r8, asr #1
    27f8:	007d0002 	rsbseq	r0, sp, r2
    27fc:	000000c8 	andeq	r0, r0, r8, asr #1
    2800:	000000f0 	strdeq	r0, [r0], -r0	; <UNPREDICTABLE>
    2804:	087d0002 	ldmdaeq	sp!, {r1}^
	...
    2810:	000000c4 	andeq	r0, r0, r4, asr #1
    2814:	000000d4 	ldrdeq	r0, [r0], -r4
    2818:	d4500001 	ldrble	r0, [r0], #-1
    281c:	f0000000 			; <UNDEFINED> instruction: 0xf0000000
    2820:	01000000 	mrseq	r0, (UNDEF: 0)
    2824:	00005400 	andeq	r5, r0, r0, lsl #8
	...
    2830:	00180000 	andseq	r0, r8, r0
    2834:	00010000 	andeq	r0, r1, r0
    2838:	00000050 	andeq	r0, r0, r0, asr r0
    283c:	00000000 	andeq	r0, r0, r0
    2840:	00003000 	andeq	r3, r0, r0
    2844:	00003400 	andeq	r3, r0, r0, lsl #8
    2848:	7d000200 	sfmvc	f0, 4, [r0, #-0]
    284c:	00003400 	andeq	r3, r0, r0, lsl #8
    2850:	0000ac00 	andeq	sl, r0, r0, lsl #24
    2854:	7d000200 	sfmvc	f0, 4, [r0, #-0]
    2858:	00000008 	andeq	r0, r0, r8
    285c:	00000000 	andeq	r0, r0, r0
    2860:	00003000 	andeq	r3, r0, r0
    2864:	00008400 	andeq	r8, r0, r0, lsl #8
    2868:	50000100 	andpl	r0, r0, r0, lsl #2
    286c:	00000088 	andeq	r0, r0, r8, lsl #1
    2870:	00000090 	muleq	r0, r0, r0
    2874:	9c500001 	mrrcls	0, 0, r0, r0, cr1	; <UNPREDICTABLE>
    2878:	a0000000 	andge	r0, r0, r0
    287c:	01000000 	mrseq	r0, (UNDEF: 0)
    2880:	00005000 	andeq	r5, r0, r0
    2884:	00000000 	andeq	r0, r0, r0
    2888:	00300000 	eorseq	r0, r0, r0
    288c:	00600000 	rsbeq	r0, r0, r0
    2890:	00010000 	andeq	r0, r1, r0
    2894:	00009c51 	andeq	r9, r0, r1, asr ip
    2898:	0000ac00 	andeq	sl, r0, r0, lsl #24
    289c:	51000100 	mrspl	r0, (UNDEF: 16)
	...
    28a8:	00000030 	andeq	r0, r0, r0, lsr r0
    28ac:	00000064 	andeq	r0, r0, r4, rrx
    28b0:	00710005 	rsbseq	r0, r1, r5
    28b4:	649f243a 	ldrvs	r2, [pc], #1082	; 28bc <__standby_start+0x28bc>
    28b8:	6c000000 	stcvs	0, cr0, [r0], {-0}
    28bc:	01000000 	mrseq	r0, (UNDEF: 0)
    28c0:	006c5100 	rsbeq	r5, ip, r0, lsl #2
    28c4:	00700000 	rsbseq	r0, r0, r0
    28c8:	00030000 	andeq	r0, r3, r0
    28cc:	709f7f71 	addsvc	r7, pc, r1, ror pc	; <UNPREDICTABLE>
    28d0:	74000000 	strvc	r0, [r0], #-0
    28d4:	01000000 	mrseq	r0, (UNDEF: 0)
    28d8:	00745100 	rsbseq	r5, r4, r0, lsl #2
    28dc:	00880000 	addeq	r0, r8, r0
    28e0:	00030000 	andeq	r0, r3, r0
    28e4:	9c9f7f71 	ldcls	15, cr7, [pc], {113}	; 0x71
    28e8:	ac000000 	stcge	0, cr0, [r0], {-0}
    28ec:	05000000 	streq	r0, [r0, #-0]
    28f0:	3a007100 	bcc	1ecf8 <__standby_start+0x1ecf8>
    28f4:	00009f24 	andeq	r9, r0, r4, lsr #30
    28f8:	00000000 	andeq	r0, r0, r0
    28fc:	003c0000 	eorseq	r0, ip, r0
    2900:	00930000 	addseq	r0, r3, r0
    2904:	00010000 	andeq	r0, r1, r0
    2908:	00009c5c 	andeq	r9, r0, ip, asr ip
    290c:	0000ac00 	andeq	sl, r0, r0, lsl #24
    2910:	5c000100 	stfpls	f0, [r0], {-0}
	...
    291c:	00000088 	andeq	r0, r0, r8, lsl #1
    2920:	00000093 	muleq	r0, r3, r0
    2924:	005c0001 	subseq	r0, ip, r1
    2928:	00000000 	andeq	r0, r0, r0
    292c:	ac000000 	stcge	0, cr0, [r0], {-0}
    2930:	d8000000 	stmdale	r0, {}	; <UNPREDICTABLE>
    2934:	01000000 	mrseq	r0, (UNDEF: 0)
    2938:	00005000 	andeq	r5, r0, r0
    293c:	00000000 	andeq	r0, r0, r0
    2940:	00dc0000 	sbcseq	r0, ip, r0
    2944:	012c0000 	teqeq	ip, r0
    2948:	00010000 	andeq	r0, r1, r0
    294c:	00013050 	andeq	r3, r1, r0, asr r0
    2950:	00013800 	andeq	r3, r1, r0, lsl #16
    2954:	50000100 	andpl	r0, r0, r0, lsl #2
    2958:	0000013c 	andeq	r0, r0, ip, lsr r1
    295c:	00000140 	andeq	r0, r0, r0, asr #2
    2960:	00500001 	subseq	r0, r0, r1
    2964:	00000000 	andeq	r0, r0, r0
    2968:	dc000000 	stcle	0, cr0, [r0], {-0}
    296c:	0c000000 	stceq	0, cr0, [r0], {-0}
    2970:	01000001 	tsteq	r0, r1
    2974:	013c5100 	teqeq	ip, r0, lsl #2
    2978:	01480000 	mrseq	r0, (UNDEF: 72)
    297c:	00010000 	andeq	r0, r1, r0
    2980:	00000051 	andeq	r0, r0, r1, asr r0
    2984:	00000000 	andeq	r0, r0, r0
    2988:	0000dc00 	andeq	sp, r0, r0, lsl #24
    298c:	00010c00 	andeq	r0, r1, r0, lsl #24
    2990:	71000500 	tstvc	r0, r0, lsl #10
    2994:	9f243a00 	svcls	0x00243a00
    2998:	0000010c 	andeq	r0, r0, ip, lsl #2
    299c:	00000114 	andeq	r0, r0, r4, lsl r1
    29a0:	14510001 	ldrbne	r0, [r1], #-1
    29a4:	18000001 	stmdane	r0, {r0}
    29a8:	03000001 	movweq	r0, #1
    29ac:	9f7f7100 	svcls	0x007f7100
    29b0:	00000118 	andeq	r0, r0, r8, lsl r1
    29b4:	0000011c 	andeq	r0, r0, ip, lsl r1
    29b8:	1c510001 	mrrcne	0, 0, r0, r1, cr1
    29bc:	30000001 	andcc	r0, r0, r1
    29c0:	03000001 	movweq	r0, #1
    29c4:	9f7f7100 	svcls	0x007f7100
    29c8:	0000013c 	andeq	r0, r0, ip, lsr r1
    29cc:	00000148 	andeq	r0, r0, r8, asr #2
    29d0:	00710005 	rsbseq	r0, r1, r5
    29d4:	009f243a 	addseq	r2, pc, sl, lsr r4	; <UNPREDICTABLE>
    29d8:	00000000 	andeq	r0, r0, r0
    29dc:	30000000 	andcc	r0, r0, r0
    29e0:	3c000001 	stccc	0, cr0, [r0], {1}
    29e4:	01000001 	tsteq	r0, r1
    29e8:	00005c00 	andeq	r5, r0, r0, lsl #24
    29ec:	00000000 	andeq	r0, r0, r0
    29f0:	01480000 	mrseq	r0, (UNDEF: 72)
    29f4:	01740000 	cmneq	r4, r0
    29f8:	00010000 	andeq	r0, r1, r0
    29fc:	00000050 	andeq	r0, r0, r0, asr r0
    2a00:	00000000 	andeq	r0, r0, r0
	...

Disassembly of section .debug_aranges:

00000000 <.debug_aranges>:
   0:	0000001c 	andeq	r0, r0, ip, lsl r0
   4:	00000002 	andeq	r0, r0, r2
   8:	00040000 	andeq	r0, r4, r0
   c:	00000000 	andeq	r0, r0, r0
  10:	f0000000 			; <UNDEFINED> instruction: 0xf0000000
  14:	000003c8 	andeq	r0, r0, r8, asr #7
	...
  20:	0000001c 	andeq	r0, r0, ip, lsl r0
  24:	08700002 	ldmdaeq	r0!, {r1}^
  28:	00040000 	andeq	r0, r4, r0
  2c:	00000000 	andeq	r0, r0, r0
  30:	f00003c8 			; <UNDEFINED> instruction: 0xf00003c8
  34:	00000030 	andeq	r0, r0, r0, lsr r0
	...
  40:	0000001c 	andeq	r0, r0, ip, lsl r0
  44:	09440002 	stmdbeq	r4, {r1}^
  48:	00040000 	andeq	r0, r4, r0
  4c:	00000000 	andeq	r0, r0, r0
  50:	f00003f8 			; <UNDEFINED> instruction: 0xf00003f8
  54:	000000a8 	andeq	r0, r0, r8, lsr #1
	...
  60:	0000001c 	andeq	r0, r0, ip, lsl r0
  64:	16c80002 	strbne	r0, [r8], r2
  68:	00040000 	andeq	r0, r4, r0
  6c:	00000000 	andeq	r0, r0, r0
  70:	f00004a0 			; <UNDEFINED> instruction: 0xf00004a0
  74:	00000020 	andeq	r0, r0, r0, lsr #32
	...
  80:	0000001c 	andeq	r0, r0, ip, lsl r0
  84:	179f0002 	ldrne	r0, [pc, r2]
  88:	00040000 	andeq	r0, r4, r0
  8c:	00000000 	andeq	r0, r0, r0
  90:	f00004c0 			; <UNDEFINED> instruction: 0xf00004c0
  94:	000000a0 	andeq	r0, r0, r0, lsr #1
	...
  a0:	0000001c 	andeq	r0, r0, ip, lsl r0
  a4:	19940002 	ldmibne	r4, {r1}
  a8:	00040000 	andeq	r0, r4, r0
  ac:	00000000 	andeq	r0, r0, r0
  b0:	f0000560 			; <UNDEFINED> instruction: 0xf0000560
  b4:	00000258 	andeq	r0, r0, r8, asr r2
	...
  c0:	0000001c 	andeq	r0, r0, ip, lsl r0
  c4:	1d4d0002 	stclne	0, cr0, [sp, #-8]
  c8:	00040000 	andeq	r0, r4, r0
  cc:	00000000 	andeq	r0, r0, r0
  d0:	f00007b8 			; <UNDEFINED> instruction: 0xf00007b8
  d4:	00000348 	andeq	r0, r0, r8, asr #6
	...
  e0:	0000001c 	andeq	r0, r0, ip, lsl r0
  e4:	20860002 	addcs	r0, r6, r2
  e8:	00040000 	andeq	r0, r4, r0
  ec:	00000000 	andeq	r0, r0, r0
  f0:	f0000b00 			; <UNDEFINED> instruction: 0xf0000b00
  f4:	00000020 	andeq	r0, r0, r0, lsr #32
	...
 100:	0000001c 	andeq	r0, r0, ip, lsl r0
 104:	217c0002 	cmncs	ip, r2
 108:	00040000 	andeq	r0, r4, r0
 10c:	00000000 	andeq	r0, r0, r0
 110:	f0000b20 			; <UNDEFINED> instruction: 0xf0000b20
 114:	00000378 	andeq	r0, r0, r8, ror r3
	...
 120:	0000001c 	andeq	r0, r0, ip, lsl r0
 124:	255d0002 	ldrbcs	r0, [sp, #-2]
 128:	00040000 	andeq	r0, r4, r0
 12c:	00000000 	andeq	r0, r0, r0
 130:	f0000e98 			; <UNDEFINED> instruction: 0xf0000e98
 134:	00000200 	andeq	r0, r0, r0, lsl #4
	...
 140:	0000001c 	andeq	r0, r0, ip, lsl r0
 144:	2a570002 	bcs	15c0154 <__standby_start+0x15c0154>
 148:	00040000 	andeq	r0, r4, r0
 14c:	00000000 	andeq	r0, r0, r0
 150:	f00010a0 			; <UNDEFINED> instruction: 0xf00010a0
 154:	000000a0 	andeq	r0, r0, r0, lsr #1
	...
 160:	0000001c 	andeq	r0, r0, ip, lsl r0
 164:	2ba60002 	blcs	fe980174 <__bss_end+0xe97c3c8>
 168:	00040000 	andeq	r0, r4, r0
 16c:	00000000 	andeq	r0, r0, r0
 170:	f0001140 			; <UNDEFINED> instruction: 0xf0001140
 174:	0000054c 	andeq	r0, r0, ip, asr #10
	...
 180:	0000001c 	andeq	r0, r0, ip, lsl r0
 184:	2c270002 	stccs	0, cr0, [r7], #-8
 188:	00040000 	andeq	r0, r4, r0
 18c:	00000000 	andeq	r0, r0, r0
 190:	f00016a0 			; <UNDEFINED> instruction: 0xf00016a0
 194:	00000544 	andeq	r0, r0, r4, asr #10
	...
 1a0:	0000001c 	andeq	r0, r0, ip, lsl r0
 1a4:	3de40002 	stclcc	0, cr0, [r4, #8]!
 1a8:	00040000 	andeq	r0, r4, r0
 1ac:	00000000 	andeq	r0, r0, r0
 1b0:	f0001be4 			; <UNDEFINED> instruction: 0xf0001be4
 1b4:	000007ec 	andeq	r0, r0, ip, ror #15
	...
 1c0:	0000001c 	andeq	r0, r0, ip, lsl r0
 1c4:	46280002 	strtmi	r0, [r8], -r2
 1c8:	00040000 	andeq	r0, r4, r0
 1cc:	00000000 	andeq	r0, r0, r0
 1d0:	f00023d0 			; <UNDEFINED> instruction: 0xf00023d0
 1d4:	000001dc 	ldrdeq	r0, [r0], -ip
	...
 1e0:	0000001c 	andeq	r0, r0, ip, lsl r0
 1e4:	46a50002 	strtmi	r0, [r5], r2
 1e8:	00040000 	andeq	r0, r4, r0
 1ec:	00000000 	andeq	r0, r0, r0
 1f0:	f00025ac 			; <UNDEFINED> instruction: 0xf00025ac
 1f4:	00000058 	andeq	r0, r0, r8, asr r0
	...
 200:	0000001c 	andeq	r0, r0, ip, lsl r0
 204:	479f0002 	ldrmi	r0, [pc, r2]
 208:	00040000 	andeq	r0, r4, r0
 20c:	00000000 	andeq	r0, r0, r0
 210:	f0002604 			; <UNDEFINED> instruction: 0xf0002604
 214:	0000019c 	muleq	r0, ip, r1
	...
 220:	0000001c 	andeq	r0, r0, ip, lsl r0
 224:	4a700002 	bmi	1c00234 <__standby_start+0x1c00234>
 228:	00040000 	andeq	r0, r4, r0
 22c:	00000000 	andeq	r0, r0, r0
 230:	f00027a0 			; <UNDEFINED> instruction: 0xf00027a0
 234:	000000a0 	andeq	r0, r0, r0, lsr #1
	...
 240:	0000001c 	andeq	r0, r0, ip, lsl r0
 244:	4bda0002 	blmi	ff680254 <__bss_end+0xf67c4a8>
 248:	00040000 	andeq	r0, r4, r0
 24c:	00000000 	andeq	r0, r0, r0
 250:	f0002840 			; <UNDEFINED> instruction: 0xf0002840
 254:	000001e8 	andeq	r0, r0, r8, ror #3
	...
 260:	0000001c 	andeq	r0, r0, ip, lsl r0
 264:	50660002 	rsbpl	r0, r6, r2
 268:	00040000 	andeq	r0, r4, r0
 26c:	00000000 	andeq	r0, r0, r0
 270:	f0002a28 			; <UNDEFINED> instruction: 0xf0002a28
 274:	00000058 	andeq	r0, r0, r8, asr r0
	...
 280:	0000001c 	andeq	r0, r0, ip, lsl r0
 284:	52200002 	eorpl	r0, r0, #2
 288:	00040000 	andeq	r0, r4, r0
 28c:	00000000 	andeq	r0, r0, r0
 290:	f0002a80 			; <UNDEFINED> instruction: 0xf0002a80
 294:	000003a4 	andeq	r0, r0, r4, lsr #7
	...
 2a0:	0000001c 	andeq	r0, r0, ip, lsl r0
 2a4:	62a30002 	adcvs	r0, r3, #2
 2a8:	00040000 	andeq	r0, r4, r0
 2ac:	00000000 	andeq	r0, r0, r0
 2b0:	f0002e24 			; <UNDEFINED> instruction: 0xf0002e24
 2b4:	00000268 	andeq	r0, r0, r8, ror #4
	...
 2c0:	0000001c 	andeq	r0, r0, ip, lsl r0
 2c4:	694b0002 	stmdbvs	fp, {r1}^
 2c8:	00040000 	andeq	r0, r4, r0
 2cc:	00000000 	andeq	r0, r0, r0
 2d0:	f000308c 			; <UNDEFINED> instruction: 0xf000308c
 2d4:	00000338 	andeq	r0, r0, r8, lsr r3
	...
 2e0:	0000001c 	andeq	r0, r0, ip, lsl r0
 2e4:	6db80002 	ldcvs	0, cr0, [r8, #8]!
 2e8:	00040000 	andeq	r0, r4, r0
 2ec:	00000000 	andeq	r0, r0, r0
 2f0:	f00033c4 			; <UNDEFINED> instruction: 0xf00033c4
 2f4:	00000054 	andeq	r0, r0, r4, asr r0
	...
 300:	0000001c 	andeq	r0, r0, ip, lsl r0
 304:	6eb50002 	cdpvs	0, 11, cr0, cr5, cr2, {0}
 308:	00040000 	andeq	r0, r4, r0
 30c:	00000000 	andeq	r0, r0, r0
 310:	f0003418 			; <UNDEFINED> instruction: 0xf0003418
 314:	000000f0 	strdeq	r0, [r0], -r0	; <UNPREDICTABLE>
	...
 320:	0000001c 	andeq	r0, r0, ip, lsl r0
 324:	71600002 	cmnvc	r0, r2
 328:	00040000 	andeq	r0, r4, r0
 32c:	00000000 	andeq	r0, r0, r0
 330:	f0003508 			; <UNDEFINED> instruction: 0xf0003508
 334:	00000178 	andeq	r0, r0, r8, ror r1
	...

Disassembly of section .debug_ranges:

00000000 <.debug_ranges>:
   0:	000000d4 	ldrdeq	r0, [r0], -r4
   4:	000001bc 			; <UNDEFINED> instruction: 0x000001bc
   8:	00000214 	andeq	r0, r0, r4, lsl r2
   c:	00000230 	andeq	r0, r0, r0, lsr r2
  10:	000002bc 			; <UNDEFINED> instruction: 0x000002bc
  14:	000003c8 	andeq	r0, r0, r8, asr #7
	...
  20:	000000d4 	ldrdeq	r0, [r0], -r4
  24:	000001bc 			; <UNDEFINED> instruction: 0x000001bc
  28:	00000214 	andeq	r0, r0, r4, lsl r2
  2c:	00000230 	andeq	r0, r0, r0, lsr r2
  30:	000002bc 			; <UNDEFINED> instruction: 0x000002bc
  34:	000003c8 	andeq	r0, r0, r8, asr #7
	...
  40:	000000f8 	strdeq	r0, [r0], -r8
  44:	00000104 	andeq	r0, r0, r4, lsl #2
  48:	00000108 	andeq	r0, r0, r8, lsl #2
  4c:	00000110 	andeq	r0, r0, r0, lsl r1
	...
  58:	000000f8 	strdeq	r0, [r0], -r8
  5c:	00000104 	andeq	r0, r0, r4, lsl #2
  60:	00000108 	andeq	r0, r0, r8, lsl #2
  64:	00000110 	andeq	r0, r0, r0, lsl r1
	...
  70:	000002c8 	andeq	r0, r0, r8, asr #5
  74:	000002f8 	strdeq	r0, [r0], -r8
  78:	000002fc 	strdeq	r0, [r0], -ip
  7c:	00000300 	andeq	r0, r0, r0, lsl #6
	...
  8c:	00000004 	andeq	r0, r0, r4
  90:	0000000c 	andeq	r0, r0, ip
  94:	00000044 	andeq	r0, r0, r4, asr #32
  98:	0000004c 	andeq	r0, r0, ip, asr #32
  9c:	00000050 	andeq	r0, r0, r0, asr r0
	...
  ac:	00000004 	andeq	r0, r0, r4
  b0:	0000000c 	andeq	r0, r0, ip
  b4:	00000044 	andeq	r0, r0, r4, asr #32
  b8:	0000004c 	andeq	r0, r0, ip, asr #32
  bc:	00000050 	andeq	r0, r0, r0, asr r0
	...
  c8:	000001a0 	andeq	r0, r0, r0, lsr #3
  cc:	000001a4 	andeq	r0, r0, r4, lsr #3
  d0:	000001b0 			; <UNDEFINED> instruction: 0x000001b0
  d4:	000001ec 	andeq	r0, r0, ip, ror #3
  d8:	000001f4 	strdeq	r0, [r0], -r4
  dc:	000001f8 	strdeq	r0, [r0], -r8
	...
  e8:	000001a0 	andeq	r0, r0, r0, lsr #3
  ec:	000001a4 	andeq	r0, r0, r4, lsr #3
  f0:	000001b0 			; <UNDEFINED> instruction: 0x000001b0
  f4:	000001ec 	andeq	r0, r0, ip, ror #3
  f8:	000001f4 	strdeq	r0, [r0], -r4
  fc:	000001f8 	strdeq	r0, [r0], -r8
	...
 108:	0000026c 	andeq	r0, r0, ip, ror #4
 10c:	000002a8 	andeq	r0, r0, r8, lsr #5
 110:	000002b0 			; <UNDEFINED> instruction: 0x000002b0
 114:	000002ec 	andeq	r0, r0, ip, ror #5
 118:	0000033c 	andeq	r0, r0, ip, lsr r3
 11c:	00000348 	andeq	r0, r0, r8, asr #6
	...
 128:	0000026c 	andeq	r0, r0, ip, ror #4
 12c:	000002a8 	andeq	r0, r0, r8, lsr #5
 130:	000002b0 			; <UNDEFINED> instruction: 0x000002b0
 134:	000002ec 	andeq	r0, r0, ip, ror #5
 138:	0000033c 	andeq	r0, r0, ip, lsr r3
 13c:	00000348 	andeq	r0, r0, r8, asr #6
	...
 148:	000000e4 	andeq	r0, r0, r4, ror #1
 14c:	000000f4 	strdeq	r0, [r0], -r4
 150:	000000fc 	strdeq	r0, [r0], -ip
 154:	00000108 	andeq	r0, r0, r8, lsl #2
	...
 160:	000000e4 	andeq	r0, r0, r4, ror #1
 164:	000000f4 	strdeq	r0, [r0], -r4
 168:	000000fc 	strdeq	r0, [r0], -ip
 16c:	00000108 	andeq	r0, r0, r8, lsl #2
	...
 178:	000001d0 	ldrdeq	r0, [r0], -r0	; <UNPREDICTABLE>
 17c:	000001d8 	ldrdeq	r0, [r0], -r8
 180:	00000210 	andeq	r0, r0, r0, lsl r2
 184:	00000214 	andeq	r0, r0, r4, lsl r2
	...
 190:	0000023c 	andeq	r0, r0, ip, lsr r2
 194:	00000240 	andeq	r0, r0, r0, asr #4
 198:	00000244 	andeq	r0, r0, r4, asr #4
 19c:	0000024c 	andeq	r0, r0, ip, asr #4
 1a0:	00000298 	muleq	r0, r8, r2
 1a4:	000002c8 	andeq	r0, r0, r8, asr #5
	...
 1b0:	000002f4 	strdeq	r0, [r0], -r4
 1b4:	000002f8 	strdeq	r0, [r0], -r8
 1b8:	000002fc 	strdeq	r0, [r0], -ip
 1bc:	00000300 	andeq	r0, r0, r0, lsl #6
 1c0:	00000308 	andeq	r0, r0, r8, lsl #6
 1c4:	00000324 	andeq	r0, r0, r4, lsr #6
 1c8:	0000032c 	andeq	r0, r0, ip, lsr #6
 1cc:	00000334 	andeq	r0, r0, r4, lsr r3
	...
 1d8:	000002f4 	strdeq	r0, [r0], -r4
 1dc:	000002f8 	strdeq	r0, [r0], -r8
 1e0:	000002fc 	strdeq	r0, [r0], -ip
 1e4:	00000300 	andeq	r0, r0, r0, lsl #6
 1e8:	00000308 	andeq	r0, r0, r8, lsl #6
 1ec:	00000324 	andeq	r0, r0, r4, lsr #6
 1f0:	0000032c 	andeq	r0, r0, ip, lsr #6
 1f4:	00000334 	andeq	r0, r0, r4, lsr r3
	...
 200:	0000042c 	andeq	r0, r0, ip, lsr #8
 204:	00000430 	andeq	r0, r0, r0, lsr r4
 208:	00000434 	andeq	r0, r0, r4, lsr r4
 20c:	0000043c 	andeq	r0, r0, ip, lsr r4
 210:	00000488 	andeq	r0, r0, r8, lsl #9
 214:	000004b8 			; <UNDEFINED> instruction: 0x000004b8
	...
 220:	000004e4 	andeq	r0, r0, r4, ror #9
 224:	000004e8 	andeq	r0, r0, r8, ror #9
 228:	000004ec 	andeq	r0, r0, ip, ror #9
 22c:	000004f0 	strdeq	r0, [r0], -r0	; <UNPREDICTABLE>
 230:	000004f8 	strdeq	r0, [r0], -r8
 234:	00000514 	andeq	r0, r0, r4, lsl r5
 238:	0000051c 	andeq	r0, r0, ip, lsl r5
 23c:	00000524 	andeq	r0, r0, r4, lsr #10
	...
 248:	000004e4 	andeq	r0, r0, r4, ror #9
 24c:	000004e8 	andeq	r0, r0, r8, ror #9
 250:	000004ec 	andeq	r0, r0, ip, ror #9
 254:	000004f0 	strdeq	r0, [r0], -r0	; <UNPREDICTABLE>
 258:	000004f8 	strdeq	r0, [r0], -r8
 25c:	00000514 	andeq	r0, r0, r4, lsl r5
 260:	0000051c 	andeq	r0, r0, ip, lsl r5
 264:	00000524 	andeq	r0, r0, r4, lsr #10
	...
 270:	000000f8 	strdeq	r0, [r0], -r8
 274:	000000fc 	strdeq	r0, [r0], -ip
 278:	00000100 	andeq	r0, r0, r0, lsl #2
 27c:	00000154 	andeq	r0, r0, r4, asr r1
	...
 288:	000000f8 	strdeq	r0, [r0], -r8
 28c:	000000fc 	strdeq	r0, [r0], -ip
 290:	00000100 	andeq	r0, r0, r0, lsl #2
 294:	00000154 	andeq	r0, r0, r4, asr r1
	...
 2a0:	00000230 	andeq	r0, r0, r0, lsr r2
 2a4:	00000284 	andeq	r0, r0, r4, lsl #5
 2a8:	000002f8 	strdeq	r0, [r0], -r8
 2ac:	00000304 	andeq	r0, r0, r4, lsl #6
	...
 2b8:	00000244 	andeq	r0, r0, r4, asr #4
 2bc:	00000248 	andeq	r0, r0, r8, asr #4
 2c0:	0000024c 	andeq	r0, r0, ip, asr #4
 2c4:	00000260 	andeq	r0, r0, r0, ror #4
 2c8:	000002f8 	strdeq	r0, [r0], -r8
 2cc:	00000304 	andeq	r0, r0, r4, lsl #6
	...
 2d8:	000002b0 			; <UNDEFINED> instruction: 0x000002b0
 2dc:	000002b4 			; <UNDEFINED> instruction: 0x000002b4
 2e0:	000002b8 			; <UNDEFINED> instruction: 0x000002b8
 2e4:	000002cc 	andeq	r0, r0, ip, asr #5
	...
 2f0:	000000b0 	strheq	r0, [r0], -r0	; <UNPREDICTABLE>
 2f4:	000000b4 	strheq	r0, [r0], -r4
 2f8:	000000c0 	andeq	r0, r0, r0, asr #1
 2fc:	000000c4 	andeq	r0, r0, r4, asr #1
 300:	000000c8 	andeq	r0, r0, r8, asr #1
 304:	000000cc 	andeq	r0, r0, ip, asr #1
 308:	000000d0 	ldrdeq	r0, [r0], -r0	; <UNPREDICTABLE>
 30c:	000000d4 	ldrdeq	r0, [r0], -r4
	...
 318:	0000014c 	andeq	r0, r0, ip, asr #2
 31c:	00000150 	andeq	r0, r0, r0, asr r1
 320:	0000015c 	andeq	r0, r0, ip, asr r1
 324:	00000160 	andeq	r0, r0, r0, ror #2
 328:	00000164 	andeq	r0, r0, r4, ror #2
 32c:	00000168 	andeq	r0, r0, r8, ror #2
 330:	0000016c 	andeq	r0, r0, ip, ror #2
 334:	00000170 	andeq	r0, r0, r0, ror r1
	...

Disassembly of section .debug_line:

00000000 <.debug_line>:
       0:	00000189 	andeq	r0, r0, r9, lsl #3
       4:	00c10002 	sbceq	r0, r1, r2
       8:	01020000 	mrseq	r0, (UNDEF: 2)
       c:	000d0efb 	strdeq	r0, [sp], -fp
      10:	01010101 	tsteq	r1, r1, lsl #2
      14:	01000000 	mrseq	r0, (UNDEF: 0)
      18:	61010000 	mrsvs	r0, (UNDEF: 1)
      1c:	2f686372 	svccs	0x00686372
      20:	2f6d7261 	svccs	0x006d7261
      24:	6863616d 	stmdavs	r3!, {r0, r2, r3, r5, r6, r8, sp, lr}^
      28:	6e75732d 	cdpvs	3, 7, cr7, cr5, cr13, {1}
      2c:	702f6978 	eorvc	r6, pc, r8, ror r9	; <UNPREDICTABLE>
      30:	74732f6d 	ldrbtvc	r2, [r3], #-3949	; 0xf6d
      34:	62646e61 	rsbvs	r6, r4, #1552	; 0x610
      38:	72610079 	rsbvc	r0, r1, #121	; 0x79
      3c:	612f6863 	teqvs	pc, r3, ror #16
      40:	6d2f6d72 	stcvs	13, cr6, [pc, #-456]!	; fffffe80 <__bss_end+0xfffc0d4>
      44:	2d686361 	stclcs	3, cr6, [r8, #-388]!	; 0xfffffe7c
      48:	786e7573 	stmdavc	lr!, {r0, r1, r4, r5, r6, r8, sl, ip, sp, lr}^
      4c:	6d702f69 	ldclvs	15, cr2, [r0, #-420]!	; 0xfffffe5c
      50:	6174732f 	cmnvs	r4, pc, lsr #6
      54:	7962646e 	stmdbvc	r2!, {r1, r2, r3, r5, r6, sl, sp, lr}^
      58:	002e2e2f 	eoreq	r2, lr, pc, lsr #28
      5c:	6c636e69 	stclvs	14, cr6, [r3], #-420	; 0xfffffe5c
      60:	2f656475 	svccs	0x00656475
      64:	756e696c 	strbvc	r6, [lr, #-2412]!	; 0x96c
      68:	6f702f78 	svcvs	0x00702f78
      6c:	00726577 	rsbseq	r6, r2, r7, ror r5
      70:	61747300 	cmnvs	r4, r0, lsl #6
      74:	7962646e 	stmdbvc	r2!, {r1, r2, r3, r5, r6, sl, sp, lr}^
      78:	0100632e 	tsteq	r0, lr, lsr #6
      7c:	6d700000 	ldclvs	0, cr0, [r0, #-0]
      80:	6265645f 	rsbvs	r6, r5, #1593835520	; 0x5f000000
      84:	682e6775 	stmdavs	lr!, {r0, r2, r4, r5, r6, r8, r9, sl, sp, lr}
      88:	00000200 	andeq	r0, r0, r0, lsl #4
      8c:	5f6d656d 	svcpl	0x006d656d
      90:	2e746e69 	cdpcs	14, 7, cr6, cr4, cr9, {3}
      94:	00020068 	andeq	r0, r2, r8, rrx
      98:	70786100 	rsbsvc	r6, r8, r0, lsl #2
      9c:	7065645f 	rsbvc	r6, r5, pc, asr r4
      a0:	2e646e65 	cdpcs	14, 6, cr6, cr4, cr5, {3}
      a4:	00030068 	andeq	r0, r3, r8, rrx
      a8:	5f776100 	svcpl	0x00776100
      ac:	682e6d70 	stmdavs	lr!, {r4, r5, r6, r8, sl, fp, sp, lr}
      b0:	00000300 	andeq	r0, r0, r0, lsl #6
      b4:	745f6d70 	ldrbvc	r6, [pc], #-3440	; bc <__standby_start+0xbc>
      b8:	73657079 	cmnvc	r5, #121	; 0x79
      bc:	0200682e 	andeq	r6, r0, #3014656	; 0x2e0000
      c0:	6d700000 	ldclvs	0, cr0, [r0, #-0]
      c4:	0200682e 	andeq	r6, r0, #3014656	; 0x2e0000
      c8:	00000000 	andeq	r0, r0, r0
      cc:	00000205 	andeq	r0, r0, r5, lsl #4
      d0:	d503f000 	strle	pc, [r3, #-0]
      d4:	30310100 	eorscc	r0, r1, r0, lsl #2
      d8:	7703352c 	strvc	r3, [r3, -ip, lsr #10]
      dc:	2e0c032e 	cdpcs	3, 0, cr0, cr12, cr14, {1}
      e0:	01040200 	mrseq	r0, R12_usr
      e4:	69064a06 	stmdbvs	r6, {r1, r2, r9, fp, lr}
      e8:	4d4c2933 	stclmi	9, cr2, [ip, #-204]	; 0xffffff34
      ec:	2f673485 	svccs	0x00673485
      f0:	6e4c314c 	dvfvsem	f3, f4, #4.0
      f4:	4c9f4b67 	fldmiaxmi	pc, {d4-d54}	;@ Deprecated
      f8:	8b036a4f 	blhi	daa3c <__standby_start+0xdaa3c>
      fc:	2f4b4a02 	svccs	0x004b4a02
     100:	31302931 	teqcc	r0, r1, lsr r9
     104:	2e3f0331 	mrccs	3, 1, r0, cr15, cr1, {1}
     108:	5703302f 	strpl	r3, [r3, -pc, lsr #32]
     10c:	2e29032e 	cdpcs	3, 2, cr0, cr9, cr14, {1}
     110:	2e420330 	mcrcs	3, 2, r0, cr2, cr0, {1}
     114:	032e1303 	teqeq	lr, #201326592	; 0xc000000
     118:	4c2f2e6d 	stcmi	14, cr2, [pc], #-436	; ffffff6c <__bss_end+0xfffc1c0>
     11c:	4c4c4c2f 	mcrrmi	12, 2, r4, ip, cr15
     120:	4b302c30 	blmi	c0b1e8 <__standby_start+0xc0b1e8>
     124:	2b4d4b2d 	blcs	1352de0 <__standby_start+0x1352de0>
     128:	4b494c85 	blmi	1253344 <__standby_start+0x1253344>
     12c:	0b03362d 	bleq	cd9e8 <__standby_start+0xcd9e8>
     130:	032f4c4a 	teqeq	pc, #18944	; 0x4a00
     134:	4c667dc5 	stclmi	13, cr7, [r6], #-788	; 0xfffffcec
     138:	2a31336b 	bcs	c4ceec <__standby_start+0xc4ceec>
     13c:	1603312f 	strne	r3, [r3], -pc, lsr #2
     140:	2f67672e 	svccs	0x0067672e
     144:	01fd034c 	mvnseq	r0, ip, asr #6
     148:	ed03674a 	stc	7, cr6, [r3, #-296]	; 0xfffffed8
     14c:	4b4b8200 	blmi	12e0954 <__standby_start+0x12e0954>
     150:	67674b4b 	strbvs	r4, [r7, -fp, asr #22]!
     154:	ca036767 	bgt	d9ef8 <__standby_start+0xd9ef8>
     158:	672f827c 			; <UNDEFINED> instruction: 0x672f827c
     15c:	6600c103 	strvs	ip, [r0], -r3, lsl #2
     160:	2e59032f 	cdpcs	3, 5, cr0, cr9, cr15, {1}
     164:	4a02b803 	bmi	ae178 <__standby_start+0xae178>
     168:	6600e803 	strvs	lr, [r0], -r3, lsl #16
     16c:	03676783 	cmneq	r7, #34340864	; 0x20c0000
     170:	034a7f88 	movteq	r7, #44936	; 0xaf88
     174:	032e00f8 	teqeq	lr, #248	; 0xf8
     178:	082e7f88 	stmdaeq	lr!, {r3, r7, r8, r9, sl, fp, ip, sp, lr}
     17c:	00fe033d 	rscseq	r0, lr, sp, lsr r3
     180:	8383834a 	orrhi	r8, r3, #671088641	; 0x28000001
     184:	9e7f8203 	cdpls	2, 7, cr8, cr15, cr3, {0}
     188:	01002a02 	tsteq	r0, r2, lsl #20
     18c:	00006801 	andeq	r6, r0, r1, lsl #16
     190:	3e000200 	cdpcc	2, 0, cr0, cr0, cr0, {0}
     194:	02000000 	andeq	r0, r0, #0
     198:	0d0efb01 	vstreq	d15, [lr, #-4]
     19c:	01010100 	mrseq	r0, (UNDEF: 17)
     1a0:	00000001 	andeq	r0, r0, r1
     1a4:	01000001 	tsteq	r0, r1
     1a8:	68637261 	stmdavs	r3!, {r0, r5, r6, r9, ip, sp, lr}^
     1ac:	6d72612f 	ldfvse	f6, [r2, #-188]!	; 0xffffff44
     1b0:	63616d2f 	cmnvs	r1, #3008	; 0xbc0
     1b4:	75732d68 	ldrbvc	r2, [r3, #-3432]!	; 0xd68
     1b8:	2f69786e 	svccs	0x0069786e
     1bc:	732f6d70 	teqvc	pc, #7168	; 0x1c00
     1c0:	646e6174 	strbtvs	r6, [lr], #-372	; 0x174
     1c4:	00007962 	andeq	r7, r0, r2, ror #18
     1c8:	6d6d6f63 	stclvs	15, cr6, [sp, #-396]!	; 0xfffffe74
     1cc:	632e6e6f 	teqvs	lr, #1776	; 0x6f0
     1d0:	00000100 	andeq	r0, r0, r0, lsl #2
     1d4:	02050000 	andeq	r0, r5, #0
     1d8:	f00003c8 			; <UNDEFINED> instruction: 0xf00003c8
     1dc:	16012303 	strne	r2, [r1], -r3, lsl #6
     1e0:	01040200 	mrseq	r0, R12_usr
     1e4:	4a76036b 	bmi	1d80f98 <__standby_start+0x1d80f98>
     1e8:	02040200 	andeq	r0, r4, #0
     1ec:	004a0b03 	subeq	r0, sl, r3, lsl #22
     1f0:	49020402 	stmdbmi	r2, {r1, sl}
     1f4:	01000602 	tsteq	r0, r2, lsl #12
     1f8:	0000f301 	andeq	pc, r0, r1, lsl #6
     1fc:	b1000200 	mrslt	r0, R8_usr
     200:	02000000 	andeq	r0, r0, #0
     204:	0d0efb01 	vstreq	d15, [lr, #-4]
     208:	01010100 	mrseq	r0, (UNDEF: 17)
     20c:	00000001 	andeq	r0, r0, r1
     210:	01000001 	tsteq	r0, r1
     214:	68637261 	stmdavs	r3!, {r0, r5, r6, r9, ip, sp, lr}^
     218:	6d72612f 	ldfvse	f6, [r2, #-188]!	; 0xffffff44
     21c:	63616d2f 	cmnvs	r1, #3008	; 0xbc0
     220:	75732d68 	ldrbvc	r2, [r3, #-3432]!	; 0xd68
     224:	2f69786e 	svccs	0x0069786e
     228:	732f6d70 	teqvc	pc, #7168	; 0x1c00
     22c:	646e6174 	strbtvs	r6, [lr], #-372	; 0x174
     230:	61007962 	tstvs	r0, r2, ror #18
     234:	2f686372 	svccs	0x00686372
     238:	2f6d7261 	svccs	0x006d7261
     23c:	6863616d 	stmdavs	r3!, {r0, r2, r3, r5, r6, r8, sp, lr}^
     240:	6e75732d 	cdpvs	3, 7, cr7, cr5, cr13, {1}
     244:	702f6978 	eorvc	r6, pc, r8, ror r9	; <UNPREDICTABLE>
     248:	74732f6d 	ldrbtvc	r2, [r3], #-3949	; 0xf6d
     24c:	62646e61 	rsbvs	r6, r4, #1552	; 0x610
     250:	2e2e2f79 	mcrcs	15, 1, r2, cr14, cr9, {3}
     254:	636e6900 	cmnvs	lr, #0
     258:	6564756c 	strbvs	r7, [r4, #-1388]!	; 0x56c
     25c:	6e696c2f 	cdpvs	12, 6, cr6, cr9, cr15, {1}
     260:	702f7875 	eorvc	r7, pc, r5, ror r8	; <UNPREDICTABLE>
     264:	7265776f 	rsbvc	r7, r5, #29097984	; 0x1bc0000
     268:	74730000 	ldrbtvc	r0, [r3], #-0
     26c:	62646e61 	rsbvs	r6, r4, #1552	; 0x610
     270:	6c635f79 	stclvs	15, cr5, [r3], #-484	; 0xfffffe1c
     274:	2e6b636f 	cdpcs	3, 6, cr6, cr11, cr15, {3}
     278:	00010063 	andeq	r0, r1, r3, rrx
     27c:	5f6d7000 	svcpl	0x006d7000
     280:	65707974 	ldrbvs	r7, [r0, #-2420]!	; 0x974
     284:	00682e73 	rsbeq	r2, r8, r3, ror lr
     288:	6d000002 	stcvs	0, cr0, [r0, #-8]
     28c:	635f6d65 	cmpvs	pc, #6464	; 0x1940
     290:	2d756d63 	ldclcs	13, cr6, [r5, #-396]!	; 0xfffffe74
     294:	386e7573 	stmdacc	lr!, {r0, r1, r4, r5, r6, r8, sl, ip, sp, lr}^
     298:	70367769 	eorsvc	r7, r6, r9, ror #14
     29c:	00682e31 	rsbeq	r2, r8, r1, lsr lr
     2a0:	61000002 	tstvs	r0, r2
     2a4:	645f7078 	ldrbvs	r7, [pc], #-120	; 2ac <__standby_start+0x2ac>
     2a8:	6e657065 	cdpvs	0, 6, cr7, cr5, cr5, {3}
     2ac:	00682e64 	rsbeq	r2, r8, r4, ror #28
     2b0:	00000003 	andeq	r0, r0, r3
     2b4:	f8020500 			; <UNDEFINED> instruction: 0xf8020500
     2b8:	03f00003 	mvnseq	r0, #3
     2bc:	15010685 	strne	r0, [r1, #-1669]	; 0x685
     2c0:	2b4d2b4d 	blcs	134affc <__standby_start+0x134affc>
     2c4:	03322a35 	teqeq	r2, #217088	; 0x35000
     2c8:	03152e12 	tsteq	r5, #288	; 0x120
     2cc:	83134a0d 	tsthi	r3, #53248	; 0xd000
     2d0:	2903304b 	stmdbcs	r3, {r0, r1, r3, r6, ip, sp}
     2d4:	016b032e 	cmneq	fp, lr, lsr #6
     2d8:	312f2f83 	smlawbcc	pc, r3, pc, r2	; <UNPREDICTABLE>
     2dc:	2f312f30 	svccs	0x00312f30
     2e0:	2e0c032f 	cdpcs	3, 0, cr0, cr12, cr15, {1}
     2e4:	132e0c03 	teqne	lr, #768	; 0x300
     2e8:	02304b83 	eorseq	r4, r0, #134144	; 0x20c00
     2ec:	01010002 	tsteq	r1, r2
     2f0:	00000094 	muleq	r0, r4, r0
     2f4:	00720002 	rsbseq	r0, r2, r2
     2f8:	01020000 	mrseq	r0, (UNDEF: 2)
     2fc:	000d0efb 	strdeq	r0, [sp], -fp
     300:	01010101 	tsteq	r1, r1, lsl #2
     304:	01000000 	mrseq	r0, (UNDEF: 0)
     308:	61010000 	mrsvs	r0, (UNDEF: 1)
     30c:	2f686372 	svccs	0x00686372
     310:	2f6d7261 	svccs	0x006d7261
     314:	6863616d 	stmdavs	r3!, {r0, r2, r3, r5, r6, r8, sp, lr}^
     318:	6e75732d 	cdpvs	3, 7, cr7, cr5, cr13, {1}
     31c:	702f6978 	eorvc	r6, pc, r8, ror r9	; <UNPREDICTABLE>
     320:	74732f6d 	ldrbtvc	r2, [r3], #-3949	; 0xf6d
     324:	62646e61 	rsbvs	r6, r4, #1552	; 0x610
     328:	72610079 	rsbvc	r0, r1, #121	; 0x79
     32c:	612f6863 	teqvs	pc, r3, ror #16
     330:	6d2f6d72 	stcvs	13, cr6, [pc, #-456]!	; 170 <__standby_start+0x170>
     334:	2d686361 	stclcs	3, cr6, [r8, #-388]!	; 0xfffffe7c
     338:	786e7573 	stmdavc	lr!, {r0, r1, r4, r5, r6, r8, sl, ip, sp, lr}^
     33c:	6d702f69 	ldclvs	15, cr2, [r0, #-420]!	; 0xfffffe5c
     340:	6174732f 	cmnvs	r4, pc, lsr #6
     344:	7962646e 	stmdbvc	r2!, {r1, r2, r3, r5, r6, sl, sp, lr}^
     348:	002e2e2f 	eoreq	r2, lr, pc, lsr #28
     34c:	61747300 	cmnvs	r4, r0, lsl #6
     350:	7962646e 	stmdbvc	r2!, {r1, r2, r3, r5, r6, sl, sp, lr}^
     354:	2e72695f 	mrccs	9, 3, r6, cr2, cr15, {2}
     358:	00010063 	andeq	r0, r1, r3, rrx
     35c:	5f6d7000 	svcpl	0x006d7000
     360:	65707974 	ldrbvs	r7, [r0, #-2420]!	; 0x974
     364:	00682e73 	rsbeq	r2, r8, r3, ror lr
     368:	00000002 	andeq	r0, r0, r2
     36c:	a0020500 	andge	r0, r2, r0, lsl #10
     370:	03f00004 	mvnseq	r0, #4
     374:	03140123 	tsteq	r4, #-1073741816	; 0xc0000008
     378:	03144a11 	tsteq	r4, #69632	; 0x11000
     37c:	03144a11 	tsteq	r4, #69632	; 0x11000
     380:	02144a10 	andseq	r4, r4, #65536	; 0x10000
     384:	01010004 	tsteq	r1, r4
     388:	000000e2 	andeq	r0, r0, r2, ror #1
     38c:	00a80002 	adceq	r0, r8, r2
     390:	01020000 	mrseq	r0, (UNDEF: 2)
     394:	000d0efb 	strdeq	r0, [sp], -fp
     398:	01010101 	tsteq	r1, r1, lsl #2
     39c:	01000000 	mrseq	r0, (UNDEF: 0)
     3a0:	61010000 	mrsvs	r0, (UNDEF: 1)
     3a4:	2f686372 	svccs	0x00686372
     3a8:	2f6d7261 	svccs	0x006d7261
     3ac:	6863616d 	stmdavs	r3!, {r0, r2, r3, r5, r6, r8, sp, lr}^
     3b0:	6e75732d 	cdpvs	3, 7, cr7, cr5, cr13, {1}
     3b4:	702f6978 	eorvc	r6, pc, r8, ror r9	; <UNPREDICTABLE>
     3b8:	74732f6d 	ldrbtvc	r2, [r3], #-3949	; 0xf6d
     3bc:	62646e61 	rsbvs	r6, r4, #1552	; 0x610
     3c0:	72610079 	rsbvc	r0, r1, #121	; 0x79
     3c4:	612f6863 	teqvs	pc, r3, ror #16
     3c8:	6d2f6d72 	stcvs	13, cr6, [pc, #-456]!	; 208 <__standby_start+0x208>
     3cc:	2d686361 	stclcs	3, cr6, [r8, #-388]!	; 0xfffffe7c
     3d0:	786e7573 	stmdavc	lr!, {r0, r1, r4, r5, r6, r8, sl, ip, sp, lr}^
     3d4:	6d702f69 	ldclvs	15, cr2, [r0, #-420]!	; 0xfffffe5c
     3d8:	6174732f 	cmnvs	r4, pc, lsr #6
     3dc:	7962646e 	stmdbvc	r2!, {r1, r2, r3, r5, r6, sl, sp, lr}^
     3e0:	002e2e2f 	eoreq	r2, lr, pc, lsr #28
     3e4:	6c636e69 	stclvs	14, cr6, [r3], #-420	; 0xfffffe5c
     3e8:	2f656475 	svccs	0x00656475
     3ec:	756e696c 	strbvc	r6, [lr, #-2412]!	; 0x96c
     3f0:	6f702f78 	svcvs	0x00702f78
     3f4:	00726577 	rsbseq	r6, r2, r7, ror r5
     3f8:	61747300 	cmnvs	r4, r0, lsl #6
     3fc:	7962646e 	stmdbvc	r2!, {r1, r2, r3, r5, r6, sl, sp, lr}^
     400:	79656b5f 	stmdbvc	r5!, {r0, r1, r2, r3, r4, r6, r8, r9, fp, sp, lr}^
     404:	0100632e 	tsteq	r0, lr, lsr #6
     408:	6d700000 	ldclvs	0, cr0, [r0, #-0]
     40c:	7079745f 	rsbsvc	r7, r9, pc, asr r4
     410:	682e7365 	stmdavs	lr!, {r0, r2, r5, r6, r8, r9, ip, sp, lr}
     414:	00000200 	andeq	r0, r0, r0, lsl #4
     418:	6e617473 	mcrvs	4, 3, r7, cr1, cr3, {3}
     41c:	5f796264 	svcpl	0x00796264
     420:	2e79656b 	cdpcs	5, 7, cr6, cr9, cr11, {3}
     424:	00010068 	andeq	r0, r1, r8, rrx
     428:	70786100 	rsbsvc	r6, r8, r0, lsl #2
     42c:	7065645f 	rsbvc	r6, r5, pc, asr r4
     430:	2e646e65 	cdpcs	14, 6, cr6, cr4, cr5, {3}
     434:	00030068 	andeq	r0, r3, r8, rrx
     438:	05000000 	streq	r0, [r0, #-0]
     43c:	0004c002 	andeq	ip, r4, r2
     440:	012703f0 	strdeq	r0, [r7, -r0]!	; <UNPREDICTABLE>
     444:	4f2b3130 	svcmi	0x002b3130
     448:	4b2f3129 	blmi	bcc8f4 <__standby_start+0xbcc8f4>
     44c:	2f4b2f2f 	svccs	0x004b2f2f
     450:	2f29332d 	svccs	0x0029332d
     454:	0f03312f 	svceq	0x0003312f
     458:	2b31132e 	blcs	c45118 <__standby_start+0xc45118>
     45c:	302f2d4b 	eorcc	r2, pc, fp, asr #26
     460:	132e0f03 	teqne	lr, #12
     464:	312d2f84 	smlawbcc	sp, r4, pc, r2	; <UNPREDICTABLE>
     468:	0004022f 	andeq	r0, r4, pc, lsr #4
     46c:	013f0101 	teqeq	pc, r1, lsl #2
     470:	00020000 	andeq	r0, r2, r0
     474:	000000bd 	strheq	r0, [r0], -sp
     478:	0efb0102 	cdpeq	1, 15, cr0, cr11, cr2, {0}
     47c:	0101000d 	tsteq	r1, sp
     480:	00000101 	andeq	r0, r0, r1, lsl #2
     484:	00000100 	andeq	r0, r0, r0, lsl #2
     488:	63726101 	cmnvs	r2, #1073741824	; 0x40000000
     48c:	72612f68 	rsbvc	r2, r1, #416	; 0x1a0
     490:	616d2f6d 	cmnvs	sp, sp, ror #30
     494:	732d6863 	teqvc	sp, #6488064	; 0x630000
     498:	69786e75 	ldmdbvs	r8!, {r0, r2, r4, r5, r6, r9, sl, fp, sp, lr}^
     49c:	2f6d702f 	svccs	0x006d702f
     4a0:	6e617473 	mcrvs	4, 3, r7, cr1, cr3, {3}
     4a4:	00796264 	rsbseq	r6, r9, r4, ror #4
     4a8:	68637261 	stmdavs	r3!, {r0, r5, r6, r9, ip, sp, lr}^
     4ac:	6d72612f 	ldfvse	f6, [r2, #-188]!	; 0xffffff44
     4b0:	63616d2f 	cmnvs	r1, #3008	; 0xbc0
     4b4:	75732d68 	ldrbvc	r2, [r3, #-3432]!	; 0xd68
     4b8:	2f69786e 	svccs	0x0069786e
     4bc:	732f6d70 	teqvc	pc, #7168	; 0x1c00
     4c0:	646e6174 	strbtvs	r6, [lr], #-372	; 0x174
     4c4:	2e2f7962 	cdpcs	9, 2, cr7, cr15, cr2, {3}
     4c8:	6e69002e 	cdpvs	0, 6, cr0, cr9, cr14, {1}
     4cc:	64756c63 	ldrbtvs	r6, [r5], #-3171	; 0xc63
     4d0:	696c2f65 	stmdbvs	ip!, {r0, r2, r5, r6, r8, r9, sl, fp, sp}^
     4d4:	2f78756e 	svccs	0x0078756e
     4d8:	65776f70 	ldrbvs	r6, [r7, #-3952]!	; 0xf70
     4dc:	73000072 	movwvc	r0, #114	; 0x72
     4e0:	646e6174 	strbtvs	r6, [lr], #-372	; 0x174
     4e4:	705f7962 	subsvc	r7, pc, r2, ror #18
     4e8:	7265776f 	rsbvc	r7, r5, #29097984	; 0x1bc0000
     4ec:	0100632e 	tsteq	r0, lr, lsr #6
     4f0:	6d700000 	ldclvs	0, cr0, [r0, #-0]
     4f4:	7079745f 	rsbsvc	r7, r9, pc, asr r4
     4f8:	682e7365 	stmdavs	lr!, {r0, r2, r5, r6, r8, r9, ip, sp, lr}
     4fc:	00000200 	andeq	r0, r0, r0, lsl #4
     500:	5f707861 	svcpl	0x00707861
     504:	65706564 	ldrbvs	r6, [r0, #-1380]!	; 0x564
     508:	682e646e 	stmdavs	lr!, {r1, r2, r3, r5, r6, sl, sp, lr}
     50c:	00000300 	andeq	r0, r0, r0, lsl #6
     510:	6e617473 	mcrvs	4, 3, r7, cr1, cr3, {3}
     514:	5f796264 	svcpl	0x00796264
     518:	65776f70 	ldrbvs	r6, [r7, #-3952]!	; 0xf70
     51c:	00682e72 	rsbeq	r2, r8, r2, ror lr
     520:	73000001 	movwvc	r0, #1
     524:	646e6174 	strbtvs	r6, [lr], #-372	; 0x174
     528:	745f7962 	ldrbvc	r7, [pc], #-2402	; 530 <__standby_start+0x530>
     52c:	682e6977 	stmdavs	lr!, {r0, r1, r2, r4, r5, r6, r8, fp, sp, lr}
     530:	00000100 	andeq	r0, r0, r0, lsl #2
     534:	02050000 	andeq	r0, r5, #0
     538:	f0000560 			; <UNDEFINED> instruction: 0xf0000560
     53c:	0100c803 	tsteq	r0, r3, lsl #16
     540:	03016a03 	movweq	r6, #6659	; 0x1a03
     544:	6a032e16 	bvs	cbda4 <__standby_start+0xcbda4>
     548:	4c2d9d4a 	stcmi	13, cr9, [sp], #-296	; 0xfffffed8
     54c:	03482f2d 	movteq	r2, #36653	; 0x8f2d
     550:	034a00c7 	movteq	r0, #41159	; 0xa0c7
     554:	034a7fba 	movteq	r7, #44986	; 0xafba
     558:	3f032e65 	svccc	0x00032e65
     55c:	17034bba 			; <UNDEFINED> instruction: 0x17034bba
     560:	804c3c08 	subhi	r3, ip, r8, lsl #24
     564:	322a3068 	eorcc	r3, sl, #104	; 0x68
     568:	2f2d2f67 	svccs	0x002d2f67
     56c:	65032f65 	strvs	r2, [r3, #-3941]	; 0xf65
     570:	67f3864a 	ldrbvs	r8, [r3, sl, asr #12]!
     574:	4d6e7d2d 	stclmi	13, cr7, [lr, #-180]!	; 0xffffff4c
     578:	032dd185 	teqeq	sp, #1073741857	; 0x40000021
     57c:	a9039e29 	stmdbge	r3, {r0, r3, r5, r9, sl, fp, ip, pc}
     580:	d703017f 	smlsdxle	r3, pc, r1, r0	; <UNPREDICTABLE>
     584:	a9032e00 	stmdbge	r3, {r9, sl, fp, sp}
     588:	2d9d667f 	ldccs	6, cr6, [sp, #508]	; 0x1fc
     58c:	482f2d4c 	stmdami	pc!, {r2, r3, r6, r8, sl, fp, sp}	; <UNPREDICTABLE>
     590:	4a00df03 	bmi	381a4 <__standby_start+0x381a4>
     594:	032e0b03 	teqeq	lr, #3072	; 0xc00
     598:	034a7f97 	movteq	r7, #44951	; 0xaf97
     59c:	a02e00e1 	eorge	r0, lr, r1, ror #1
     5a0:	312d2d68 	teqcc	sp, r8, ror #26
     5a4:	2c4e2a30 	vmovcs	s1, s2, r2, lr
     5a8:	302c322c 	eorcc	r3, ip, ip, lsr #4
     5ac:	01000802 	tsteq	r0, r2, lsl #16
     5b0:	00019201 	andeq	r9, r1, r1, lsl #4
     5b4:	a8000200 	stmdage	r0, {r9}
     5b8:	02000000 	andeq	r0, r0, #0
     5bc:	0d0efb01 	vstreq	d15, [lr, #-4]
     5c0:	01010100 	mrseq	r0, (UNDEF: 17)
     5c4:	00000001 	andeq	r0, r0, r1
     5c8:	01000001 	tsteq	r0, r1
     5cc:	68637261 	stmdavs	r3!, {r0, r5, r6, r9, ip, sp, lr}^
     5d0:	6d72612f 	ldfvse	f6, [r2, #-188]!	; 0xffffff44
     5d4:	63616d2f 	cmnvs	r1, #3008	; 0xbc0
     5d8:	75732d68 	ldrbvc	r2, [r3, #-3432]!	; 0xd68
     5dc:	2f69786e 	svccs	0x0069786e
     5e0:	732f6d70 	teqvc	pc, #7168	; 0x1c00
     5e4:	646e6174 	strbtvs	r6, [lr], #-372	; 0x174
     5e8:	61007962 	tstvs	r0, r2, ror #18
     5ec:	2f686372 	svccs	0x00686372
     5f0:	2f6d7261 	svccs	0x006d7261
     5f4:	6863616d 	stmdavs	r3!, {r0, r2, r3, r5, r6, r8, sp, lr}^
     5f8:	6e75732d 	cdpvs	3, 7, cr7, cr5, cr13, {1}
     5fc:	702f6978 	eorvc	r6, pc, r8, ror r9	; <UNPREDICTABLE>
     600:	74732f6d 	ldrbtvc	r2, [r3], #-3949	; 0xf6d
     604:	62646e61 	rsbvs	r6, r4, #1552	; 0x610
     608:	2e2e2f79 	mcrcs	15, 1, r2, cr14, cr9, {3}
     60c:	636e6900 	cmnvs	lr, #0
     610:	6564756c 	strbvs	r7, [r4, #-1388]!	; 0x56c
     614:	6e696c2f 	cdpvs	12, 6, cr6, cr9, cr15, {1}
     618:	702f7875 	eorvc	r7, pc, r5, ror r8	; <UNPREDICTABLE>
     61c:	7265776f 	rsbvc	r7, r5, #29097984	; 0x1bc0000
     620:	74730000 	ldrbtvc	r0, [r3], #-0
     624:	62646e61 	rsbvs	r6, r4, #1552	; 0x610
     628:	77745f79 			; <UNDEFINED> instruction: 0x77745f79
     62c:	00632e69 	rsbeq	r2, r3, r9, ror #28
     630:	70000001 	andvc	r0, r0, r1
     634:	79745f6d 	ldmdbvc	r4!, {r0, r2, r3, r5, r6, r8, r9, sl, fp, ip, lr}^
     638:	2e736570 	mrccs	5, 3, r6, cr3, cr0, {3}
     63c:	00020068 	andeq	r0, r2, r8, rrx
     640:	61747300 	cmnvs	r4, r0, lsl #6
     644:	7962646e 	stmdbvc	r2!, {r1, r2, r3, r5, r6, sl, sp, lr}^
     648:	6977745f 	ldmdbvs	r7!, {r0, r1, r2, r3, r4, r6, sl, ip, sp, lr}^
     64c:	0100682e 	tsteq	r0, lr, lsr #16
     650:	78610000 	stmdavc	r1!, {}^	; <UNPREDICTABLE>
     654:	65645f70 	strbvs	r5, [r4, #-3952]!	; 0xf70
     658:	646e6570 	strbtvs	r6, [lr], #-1392	; 0x570
     65c:	0300682e 	movweq	r6, #2094	; 0x82e
     660:	00000000 	andeq	r0, r0, r0
     664:	07b80205 	ldreq	r0, [r8, r5, lsl #4]!
     668:	2e03f000 	cdpcs	0, 0, cr15, cr3, cr0, {0}
     66c:	2a321301 	bcs	c85278 <__standby_start+0xc85278>
     670:	30302f4b 	eorscc	r2, r0, fp, asr #30
     674:	322f2d2a 	eorcc	r2, pc, #2688	; 0xa80
     678:	01040200 	mrseq	r0, R12_usr
     67c:	1003694b 	andne	r6, r3, fp, asr #18
     680:	2fbc3066 	svccs	0x00bc3066
     684:	2c2c324d 	sfmcs	f3, 4, [ip], #-308	; 0xfffffecc
     688:	c2036830 	andgt	r6, r3, #3145728	; 0x300000
     68c:	29172e00 	ldmdbcs	r7, {r9, sl, fp, sp}
     690:	032f6833 	teqeq	pc, #3342336	; 0x330000
     694:	2d2f660b 	stccs	6, cr6, [pc, #-44]!	; 670 <__standby_start+0x670>
     698:	0402004c 	streq	r0, [r2], #-76	; 0x4c
     69c:	002e0602 	eoreq	r0, lr, r2, lsl #12
     6a0:	4a010402 	bmi	416b0 <__standby_start+0x416b0>
     6a4:	2f4e6706 	svccs	0x004e6706
     6a8:	2f2c306c 	svccs	0x002c306c
     6ac:	04020068 	streq	r0, [r2], #-104	; 0x68
     6b0:	002e0602 	eoreq	r0, lr, r2, lsl #12
     6b4:	4a010402 	bmi	416c4 <__standby_start+0x416c4>
     6b8:	2f4e6706 	svccs	0x004e6706
     6bc:	682d306c 	stmdavs	sp!, {r2, r3, r5, r6, ip, sp}
     6c0:	02040200 	andeq	r0, r4, #0
     6c4:	02002e06 	andeq	r2, r0, #96	; 0x60
     6c8:	064a0104 	strbeq	r0, [sl], -r4, lsl #2
     6cc:	6b2f4e67 	blvs	bd4070 <__standby_start+0xbd4070>
     6d0:	2f4a1403 	svccs	0x004a1403
     6d4:	0200682d 	andeq	r6, r0, #2949120	; 0x2d0000
     6d8:	2e060204 	cdpcs	2, 0, cr0, cr6, cr4, {0}
     6dc:	01040200 	mrseq	r0, R12_usr
     6e0:	4e67064a 	cdpmi	6, 6, cr0, cr7, cr10, {2}
     6e4:	2c306c2f 	ldccs	12, cr6, [r0], #-188	; 0xffffff44
     6e8:	0200682f 	andeq	r6, r0, #3080192	; 0x2f0000
     6ec:	2e060204 	cdpcs	2, 0, cr0, cr6, cr4, {0}
     6f0:	01040200 	mrseq	r0, R12_usr
     6f4:	4e67064a 	cdpmi	6, 6, cr0, cr7, cr10, {2}
     6f8:	2d2f6c2f 	stccs	12, cr6, [pc, #-188]!	; 644 <__standby_start+0x644>
     6fc:	0402004c 	streq	r0, [r2], #-76	; 0x4c
     700:	002e0602 	eoreq	r0, lr, r2, lsl #12
     704:	4a010402 	bmi	41714 <__standby_start+0x41714>
     708:	4b4e6706 	blmi	139a328 <__standby_start+0x139a328>
     70c:	7f8b032f 	svcvc	0x008b032f
     710:	9e4f032e 	cdpls	3, 4, cr0, cr15, cr14, {1}
     714:	4d68302c 	stclmi	0, cr3, [r8, #-176]!	; 0xffffff50
     718:	01ae039f 			; <UNDEFINED> instruction: 0x01ae039f
     71c:	7ed80366 	cdpvc	3, 13, cr0, cr8, cr6, {3}
     720:	51499f4a 	cmppl	r9, sl, asr #30
     724:	ba00dc03 	blt	37738 <__standby_start+0x37738>
     728:	682f2c30 	stmdavs	pc!, {r4, r5, sl, fp, sp}	; <UNPREDICTABLE>
     72c:	02040200 	andeq	r0, r4, #0
     730:	02002e06 	andeq	r2, r0, #96	; 0x60
     734:	064a0104 	strbeq	r0, [sl], -r4, lsl #2
     738:	032f4e67 	teqeq	pc, #1648	; 0x670
     73c:	032e7fb9 	teqeq	lr, #740	; 0x2e4
     740:	06028254 			; <UNDEFINED> instruction: 0x06028254
     744:	95010100 	strls	r0, [r1, #-256]	; 0x100
     748:	02000000 	andeq	r0, r0, #0
     74c:	00007300 	andeq	r7, r0, r0, lsl #6
     750:	fb010200 	blx	40f5a <__standby_start+0x40f5a>
     754:	01000d0e 	tsteq	r0, lr, lsl #26
     758:	00010101 	andeq	r0, r1, r1, lsl #2
     75c:	00010000 	andeq	r0, r1, r0
     760:	72610100 	rsbvc	r0, r1, #0
     764:	612f6863 	teqvs	pc, r3, ror #16
     768:	6d2f6d72 	stcvs	13, cr6, [pc, #-456]!	; 5a8 <__standby_start+0x5a8>
     76c:	2d686361 	stclcs	3, cr6, [r8, #-388]!	; 0xfffffe7c
     770:	786e7573 	stmdavc	lr!, {r0, r1, r4, r5, r6, r8, sl, ip, sp, lr}^
     774:	6d702f69 	ldclvs	15, cr2, [r0, #-420]!	; 0xfffffe5c
     778:	6174732f 	cmnvs	r4, pc, lsr #6
     77c:	7962646e 	stmdbvc	r2!, {r1, r2, r3, r5, r6, sl, sp, lr}^
     780:	63726100 	cmnvs	r2, #0
     784:	72612f68 	rsbvc	r2, r1, #416	; 0x1a0
     788:	616d2f6d 	cmnvs	sp, sp, ror #30
     78c:	732d6863 	teqvc	sp, #6488064	; 0x630000
     790:	69786e75 	ldmdbvs	r8!, {r0, r2, r4, r5, r6, r9, sl, fp, sp, lr}^
     794:	2f6d702f 	svccs	0x006d702f
     798:	6e617473 	mcrvs	4, 3, r7, cr1, cr3, {3}
     79c:	2f796264 	svccs	0x00796264
     7a0:	00002e2e 	andeq	r2, r0, lr, lsr #28
     7a4:	6e617473 	mcrvs	4, 3, r7, cr1, cr3, {3}
     7a8:	5f796264 	svcpl	0x00796264
     7ac:	2e627375 	mcrcs	3, 3, r7, cr2, cr5, {3}
     7b0:	00010063 	andeq	r0, r1, r3, rrx
     7b4:	5f6d7000 	svcpl	0x006d7000
     7b8:	65707974 	ldrbvs	r7, [r0, #-2420]!	; 0x974
     7bc:	00682e73 	rsbeq	r2, r8, r3, ror lr
     7c0:	00000002 	andeq	r0, r0, r2
     7c4:	00020500 	andeq	r0, r2, r0, lsl #10
     7c8:	03f0000b 	mvnseq	r0, #11
     7cc:	03140126 	tsteq	r4, #-2147483639	; 0x80000009
     7d0:	03144a0f 	tsteq	r4, #61440	; 0xf000
     7d4:	03144a12 	tsteq	r4, #73728	; 0x12000
     7d8:	02144a11 	andseq	r4, r4, #69632	; 0x11000
     7dc:	01010004 	tsteq	r1, r4
     7e0:	0000014b 	andeq	r0, r0, fp, asr #2
     7e4:	00850002 	addeq	r0, r5, r2
     7e8:	01020000 	mrseq	r0, (UNDEF: 2)
     7ec:	000d0efb 	strdeq	r0, [sp], -fp
     7f0:	01010101 	tsteq	r1, r1, lsl #2
     7f4:	01000000 	mrseq	r0, (UNDEF: 0)
     7f8:	61010000 	mrsvs	r0, (UNDEF: 1)
     7fc:	2f686372 	svccs	0x00686372
     800:	2f6d7261 	svccs	0x006d7261
     804:	6863616d 	stmdavs	r3!, {r0, r2, r3, r5, r6, r8, sp, lr}^
     808:	6e75732d 	cdpvs	3, 7, cr7, cr5, cr13, {1}
     80c:	702f6978 	eorvc	r6, pc, r8, ror r9	; <UNPREDICTABLE>
     810:	74732f6d 	ldrbtvc	r2, [r3], #-3949	; 0xf6d
     814:	62646e61 	rsbvs	r6, r4, #1552	; 0x610
     818:	2f2e2f79 	svccs	0x002e2f79
     81c:	69002e2e 	stmdbvs	r0, {r1, r2, r3, r5, r9, sl, fp, sp}
     820:	756c636e 	strbvc	r6, [ip, #-878]!	; 0x36e
     824:	6c2f6564 	cfstr32vs	mvfx6, [pc], #-400	; 69c <__standby_start+0x69c>
     828:	78756e69 	ldmdavc	r5!, {r0, r3, r5, r6, r9, sl, fp, sp, lr}^
     82c:	776f702f 	strbvc	r7, [pc, -pc, lsr #32]!
     830:	00007265 	andeq	r7, r0, r5, ror #4
     834:	645f6d70 	ldrbvs	r6, [pc], #-3440	; 83c <__standby_start+0x83c>
     838:	67756265 	ldrbvs	r6, [r5, -r5, ror #4]!
     83c:	0100632e 	tsteq	r0, lr, lsr #6
     840:	6d700000 	ldclvs	0, cr0, [r0, #-0]
     844:	6265645f 	rsbvs	r6, r5, #1593835520	; 0x5f000000
     848:	682e6775 	stmdavs	lr!, {r0, r2, r4, r5, r6, r8, r9, sl, sp, lr}
     84c:	00000100 	andeq	r0, r0, r0, lsl #2
     850:	745f6d70 	ldrbvc	r6, [pc], #-3440	; 858 <__standby_start+0x858>
     854:	73657079 	cmnvc	r5, #121	; 0x79
     858:	0100682e 	tsteq	r0, lr, lsr #16
     85c:	78610000 	stmdavc	r1!, {}^	; <UNPREDICTABLE>
     860:	65645f70 	strbvs	r5, [r4, #-3952]!	; 0xf70
     864:	646e6570 	strbtvs	r6, [lr], #-1392	; 0x570
     868:	0200682e 	andeq	r6, r0, #3014656	; 0x2e0000
     86c:	00000000 	andeq	r0, r0, r0
     870:	0b200205 	bleq	80108c <__standby_start+0x80108c>
     874:	0b03f000 	bleq	fc87c <__standby_start+0xfc87c>
     878:	02003001 	andeq	r3, r0, #1
     87c:	6a4b0104 	bvs	12c0c94 <__standby_start+0x12c0c94>
     880:	19361a51 	ldmdbne	r6!, {r0, r4, r6, r9, fp, ip}
     884:	2d4b1336 	stclcs	3, cr1, [fp, #-216]	; 0xffffff28
     888:	322b314b 	eorcc	r3, fp, #-1073741806	; 0xc0000012
     88c:	4b133211 	blmi	4cd0d8 <__standby_start+0x4cd0d8>
     890:	2b314b2d 	blcs	c5354c <__standby_start+0xc5354c>
     894:	32321132 	eorscc	r1, r2, #-2147483636	; 0x8000000c
     898:	672d2f2d 	strvs	r2, [sp, -sp, lsr #30]!
     89c:	780336a0 	stmdavc	r3, {r5, r7, r9, sl, ip, sp}
     8a0:	2f2f2d2e 	svccs	0x002f2d2e
     8a4:	2f2d2f2f 	svccs	0x002d2f2f
     8a8:	2f672f4b 	svccs	0x00672f4b
     8ac:	2e770367 	cdpcs	3, 7, cr0, cr7, cr7, {3}
     8b0:	302e0c03 	eorcc	r0, lr, r3, lsl #24
     8b4:	31144f2c 	tstcc	r4, ip, lsr #30
     8b8:	4b9f2f4a 	blmi	fe7cc5e8 <__bss_end+0xe7c883c>
     8bc:	2e770336 	mrccs	3, 3, r0, cr7, cr6, {1}
     8c0:	2f4b2c30 	svccs	0x004b2c30
     8c4:	4b2f2d2f 	blmi	bcbd88 <__standby_start+0xbcbd88>
     8c8:	672f672f 	strvs	r6, [pc, -pc, lsr #14]!
     8cc:	302f312f 	eorcc	r3, pc, pc, lsr #2
     8d0:	484c3069 	stmdami	ip, {r0, r3, r5, r6, ip, sp}^
     8d4:	2b316768 	blcs	c5a67c <__standby_start+0xc5a67c>
     8d8:	69334b4c 	ldmdbvs	r3!, {r2, r3, r6, r8, r9, fp, lr}
     8dc:	474d4d2f 	strbmi	r4, [sp, -pc, lsr #26]
     8e0:	2c686e4d 	stclcs	14, cr6, [r8], #-308	; 0xfffffecc
     8e4:	032e7403 	teqeq	lr, #50331648	; 0x3000000
     8e8:	75034a10 	strvc	r4, [r3, #-2576]	; 0xa10
     8ec:	4c2b312e 	stfmis	f3, [fp], #-184	; 0xffffff48
     8f0:	820b034b 	andhi	r0, fp, #738197505	; 0x2c000001
     8f4:	0e032f4a 	cdpeq	15, 0, cr2, cr3, cr10, {2}
     8f8:	4a73039e 	bmi	1cc1778 <__standby_start+0x1cc1778>
     8fc:	7703364b 	strvc	r3, [r3, -fp, asr #12]
     900:	4b2c302e 	blmi	b0c9c0 <__standby_start+0xb0c9c0>
     904:	2f2d2f2f 	svccs	0x002d2f2f
     908:	2f672f4b 	svccs	0x00672f4b
     90c:	03463367 	movteq	r3, #25447	; 0x6367
     910:	144a00cd 	strbne	r0, [sl], #-205	; 0xcd
     914:	671631a1 	ldrvs	r3, [r6, -r1, lsr #3]
     918:	1531312f 	ldrne	r3, [r1, #-303]!	; 0x12f
     91c:	34312f68 	ldrtcc	r2, [r1], #-3944	; 0xf68
     920:	2a4c4c30 	bcs	13139e8 <__standby_start+0x13139e8>
     924:	2c312f30 	ldccs	15, cr2, [r1], #-192	; 0xffffff40
     928:	02023131 	andeq	r3, r2, #1073741836	; 0x4000000c
     92c:	33010100 	movwcc	r0, #4352	; 0x1100
     930:	02000001 	andeq	r0, r0, #1
     934:	0000ad00 	andeq	sl, r0, r0, lsl #26
     938:	fb010200 	blx	41142 <__standby_start+0x41142>
     93c:	01000d0e 	tsteq	r0, lr, lsl #26
     940:	00010101 	andeq	r0, r1, r1, lsl #2
     944:	00010000 	andeq	r0, r1, r0
     948:	72610100 	rsbvc	r0, r1, #0
     94c:	612f6863 	teqvs	pc, r3, ror #16
     950:	6d2f6d72 	stcvs	13, cr6, [pc, #-456]!	; 790 <__standby_start+0x790>
     954:	2d686361 	stclcs	3, cr6, [r8, #-388]!	; 0xfffffe7c
     958:	786e7573 	stmdavc	lr!, {r0, r1, r4, r5, r6, r8, sl, ip, sp, lr}^
     95c:	6d702f69 	ldclvs	15, cr2, [r0, #-420]!	; 0xfffffe5c
     960:	6174732f 	cmnvs	r4, pc, lsr #6
     964:	7962646e 	stmdbvc	r2!, {r1, r2, r3, r5, r6, sl, sp, lr}^
     968:	2e2f2e2f 	cdpcs	14, 2, cr2, cr15, cr15, {1}
     96c:	7261002e 	rsbvc	r0, r1, #46	; 0x2e
     970:	612f6863 	teqvs	pc, r3, ror #16
     974:	6d2f6d72 	stcvs	13, cr6, [pc, #-456]!	; 7b4 <__standby_start+0x7b4>
     978:	2d686361 	stclcs	3, cr6, [r8, #-388]!	; 0xfffffe7c
     97c:	786e7573 	stmdavc	lr!, {r0, r1, r4, r5, r6, r8, sl, ip, sp, lr}^
     980:	6d702f69 	ldclvs	15, cr2, [r0, #-420]!	; 0xfffffe5c
     984:	6174732f 	cmnvs	r4, pc, lsr #6
     988:	7962646e 	stmdbvc	r2!, {r1, r2, r3, r5, r6, sl, sp, lr}^
     98c:	2e2f2e2f 	cdpcs	14, 2, cr2, cr15, cr15, {1}
     990:	002e2f2e 	eoreq	r2, lr, lr, lsr #30
     994:	6c636e69 	stclvs	14, cr6, [r3], #-420	; 0xfffffe5c
     998:	2f656475 	svccs	0x00656475
     99c:	756e696c 	strbvc	r6, [lr, #-2412]!	; 0x96c
     9a0:	6f702f78 	svcvs	0x00702f78
     9a4:	00726577 	rsbseq	r6, r2, r7, ror r5
     9a8:	6d656d00 	stclvs	13, cr6, [r5, #-0]
     9ac:	6d69745f 	cfstrdvs	mvd7, [r9, #-380]!	; 0xfffffe84
     9b0:	2e676e69 	cdpcs	14, 6, cr6, cr7, cr9, {3}
     9b4:	00010063 	andeq	r0, r1, r3, rrx
     9b8:	5f6d7000 	svcpl	0x006d7000
     9bc:	65707974 	ldrbvs	r7, [r0, #-2420]!	; 0x974
     9c0:	00682e73 	rsbeq	r2, r8, r3, ror lr
     9c4:	70000001 	andvc	r0, r0, r1
     9c8:	65645f6d 	strbvs	r5, [r4, #-3949]!	; 0xf6d
     9cc:	2e677562 	cdpcs	5, 6, cr7, cr7, cr2, {3}
     9d0:	00020068 	andeq	r0, r2, r8, rrx
     9d4:	70786100 	rsbsvc	r6, r8, r0, lsl #2
     9d8:	7065645f 	rsbvc	r6, r5, pc, asr r4
     9dc:	2e646e65 	cdpcs	14, 6, cr6, cr4, cr5, {3}
     9e0:	00030068 	andeq	r0, r3, r8, rrx
     9e4:	05000000 	streq	r0, [r0, #-0]
     9e8:	000e9802 	andeq	r9, lr, r2, lsl #16
     9ec:	010c03f0 	strdeq	r0, [ip, -r0]
     9f0:	66090314 			; <UNDEFINED> instruction: 0x66090314
     9f4:	3231302f 	eorscc	r3, r1, #47	; 0x2f
     9f8:	312f2f4d 	teqcc	pc, sp, asr #30
     9fc:	4c851431 	cfstrsmi	mvf1, [r5], {49}	; 0x31
     a00:	84851531 	strhi	r1, [r5], #1329	; 0x531
     a04:	31301531 	teqcc	r0, r1, lsr r5
     a08:	2f312f15 	svccs	0x00312f15
     a0c:	2e700331 	mrccs	3, 3, r0, cr0, cr1, {1}
     a10:	bc4a1903 	mcrrlt	9, 0, r1, sl, cr3
     a14:	362e504b 	strtcc	r5, [lr], -fp, asr #32
     a18:	2f823203 	svccs	0x00823203
     a1c:	2e4c0330 	mcrcs	3, 2, r0, cr12, cr0, {1}
     a20:	034a5503 	movteq	r5, #42243	; 0xa503
     a24:	79032e32 	stmdbvc	r3, {r1, r4, r5, r9, sl, fp, sp}
     a28:	2f4d352e 	svccs	0x004d352e
     a2c:	667fa303 	ldrbtvs	sl, [pc], -r3, lsl #6
     a30:	2f2f4d4e 	svccs	0x002f4d4e
     a34:	034a1e03 	movteq	r1, #44547	; 0xae03
     a38:	2b032e3a 	blcs	cc328 <__standby_start+0xcc328>
     a3c:	2e2d139e 	mcrcs	3, 1, r1, cr13, cr14, {4}
     a40:	2d2f2f2f 	stccs	15, cr2, [pc, #-188]!	; 98c <__standby_start+0x98c>
     a44:	2c4c4f2d 	mcrrcs	15, 2, r4, ip, cr13
     a48:	142e2003 	strtne	r2, [lr], #-3
     a4c:	2f660903 	svccs	0x00660903
     a50:	4d323130 	ldfmis	f3, [r2, #-192]!	; 0xffffff40
     a54:	31a43131 			; <UNDEFINED> instruction: 0x31a43131
     a58:	4e312f30 	mrcmi	15, 1, r2, cr1, cr0, {1}
     a5c:	2f3031a4 	svccs	0x003031a4
     a60:	00040231 	andeq	r0, r4, r1, lsr r2
     a64:	00b00101 	adcseq	r0, r0, r1, lsl #2
     a68:	00020000 	andeq	r0, r2, r0
     a6c:	00000083 	andeq	r0, r0, r3, lsl #1
     a70:	0efb0102 	cdpeq	1, 15, cr0, cr11, cr2, {0}
     a74:	0101000d 	tsteq	r1, sp
     a78:	00000101 	andeq	r0, r0, r1, lsl #2
     a7c:	00000100 	andeq	r0, r0, r0, lsl #2
     a80:	63726101 	cmnvs	r2, #1073741824	; 0x40000000
     a84:	72612f68 	rsbvc	r2, r1, #416	; 0x1a0
     a88:	616d2f6d 	cmnvs	sp, sp, ror #30
     a8c:	732d6863 	teqvc	sp, #6488064	; 0x630000
     a90:	69786e75 	ldmdbvs	r8!, {r0, r2, r4, r5, r6, r9, sl, fp, sp, lr}^
     a94:	2f6d702f 	svccs	0x006d702f
     a98:	6e617473 	mcrvs	4, 3, r7, cr1, cr3, {3}
     a9c:	2f796264 	svccs	0x00796264
     aa0:	2e2e2f2e 	cdpcs	15, 2, cr2, cr14, cr14, {1}
     aa4:	63726100 	cmnvs	r2, #0
     aa8:	72612f68 	rsbvc	r2, r1, #416	; 0x1a0
     aac:	616d2f6d 	cmnvs	sp, sp, ror #30
     ab0:	732d6863 	teqvc	sp, #6488064	; 0x630000
     ab4:	69786e75 	ldmdbvs	r8!, {r0, r2, r4, r5, r6, r9, sl, fp, sp, lr}^
     ab8:	2f6d702f 	svccs	0x006d702f
     abc:	6e617473 	mcrvs	4, 3, r7, cr1, cr3, {3}
     ac0:	2f796264 	svccs	0x00796264
     ac4:	2e2e2f2e 	cdpcs	15, 2, cr2, cr14, cr14, {1}
     ac8:	00002e2f 	andeq	r2, r0, pc, lsr #28
     acc:	5f6d656d 	svcpl	0x006d656d
     ad0:	5f756d6d 	svcpl	0x00756d6d
     ad4:	632e6370 	teqvs	lr, #-1073741823	; 0xc0000001
     ad8:	00000100 	andeq	r0, r0, r0, lsl #2
     adc:	682e6d70 	stmdavs	lr!, {r4, r5, r6, r8, sl, fp, sp, lr}
     ae0:	00000200 	andeq	r0, r0, r0, lsl #4
     ae4:	745f6d70 	ldrbvc	r6, [pc], #-3440	; aec <__standby_start+0xaec>
     ae8:	73657079 	cmnvc	r5, #121	; 0x79
     aec:	0100682e 	tsteq	r0, lr, lsr #16
     af0:	00000000 	andeq	r0, r0, r0
     af4:	10a00205 	adcne	r0, r0, r5, lsl #4
     af8:	1419f000 	ldrne	pc, [r9], #-0
     afc:	4b4f4d4c 	blmi	13d4034 <__standby_start+0x13d4034>
     b00:	314d4d4b 	cmpcc	sp, fp, asr #26
     b04:	4e4c4c16 	mcrmi	12, 2, r4, cr12, cr6, {0}
     b08:	bb4b2f4b 	bllt	12cc83c <__standby_start+0x12cc83c>
     b0c:	32131313 	andscc	r1, r3, #1275068416	; 0x4c000000
     b10:	2f2f2f4c 	svccs	0x002f2f4c
     b14:	00020231 	andeq	r0, r2, r1, lsr r2
     b18:	01b10101 			; <UNDEFINED> instruction: 0x01b10101
     b1c:	00020000 	andeq	r0, r2, r0
     b20:	0000004b 	andeq	r0, r0, fp, asr #32
     b24:	0efb0102 	cdpeq	1, 15, cr0, cr11, cr2, {0}
     b28:	0101000d 	tsteq	r1, sp
     b2c:	00000101 	andeq	r0, r0, r1, lsl #2
     b30:	00000100 	andeq	r0, r0, r0, lsl #2
     b34:	63726101 	cmnvs	r2, #1073741824	; 0x40000000
     b38:	72612f68 	rsbvc	r2, r1, #416	; 0x1a0
     b3c:	616d2f6d 	cmnvs	sp, sp, ror #30
     b40:	732d6863 	teqvc	sp, #6488064	; 0x630000
     b44:	69786e75 	ldmdbvs	r8!, {r0, r2, r4, r5, r6, r9, sl, fp, sp, lr}^
     b48:	2f6d702f 	svccs	0x006d702f
     b4c:	6e617473 	mcrvs	4, 3, r7, cr1, cr3, {3}
     b50:	2f796264 	svccs	0x00796264
     b54:	2e2e2f2e 	cdpcs	15, 2, cr2, cr14, cr14, {1}
     b58:	656d0000 	strbvs	r0, [sp, #-0]!
     b5c:	6d6d5f6d 	stclvs	15, cr5, [sp, #-436]!	; 0xfffffe4c
     b60:	63705f75 	cmnvs	r0, #468	; 0x1d4
     b64:	6d73615f 	ldfvse	f6, [r3, #-380]!	; 0xfffffe84
     b68:	0100532e 	tsteq	r0, lr, lsr #6
     b6c:	00000000 	andeq	r0, r0, r0
     b70:	11400205 	cmpne	r0, r5, lsl #4
     b74:	0a03f000 	beq	fcb7c <__standby_start+0xfcb7c>
     b78:	332f2f01 	teqcc	pc, #4
     b7c:	2f332f2f 	svccs	0x00332f2f
     b80:	2f6b2f33 	svccs	0x006b2f33
     b84:	4a130330 	bmi	4c184c <__standby_start+0x4c184c>
     b88:	2f2f2f2f 	svccs	0x002f2f2f
     b8c:	2f2f302f 	svccs	0x002f302f
     b90:	2f2f2f2f 	svccs	0x002f2f2f
     b94:	2f2f2f2f 	svccs	0x002f2f2f
     b98:	2f2f2f2f 	svccs	0x002f2f2f
     b9c:	2f2f3030 	svccs	0x002f3030
     ba0:	2f2f2f2f 	svccs	0x002f2f2f
     ba4:	302f2f30 	eorcc	r2, pc, r0, lsr pc	; <UNPREDICTABLE>
     ba8:	302f2f30 	eorcc	r2, pc, r0, lsr pc	; <UNPREDICTABLE>
     bac:	2f2f2f33 	svccs	0x002f2f33
     bb0:	2f332f2f 	svccs	0x00332f2f
     bb4:	2f2f2f2f 	svccs	0x002f2f2f
     bb8:	2f2f302f 	svccs	0x002f302f
     bbc:	2f2f2f2f 	svccs	0x002f2f2f
     bc0:	2f2f2f2f 	svccs	0x002f2f2f
     bc4:	2f2f2f2f 	svccs	0x002f2f2f
     bc8:	2f2f3030 	svccs	0x002f3030
     bcc:	2f2f2f2f 	svccs	0x002f2f2f
     bd0:	302f2f30 	eorcc	r2, pc, r0, lsr pc	; <UNPREDICTABLE>
     bd4:	2f2f2f30 	svccs	0x002f2f30
     bd8:	2f2f342f 	svccs	0x002f342f
     bdc:	2f2f2f2f 	svccs	0x002f2f2f
     be0:	2f332f2f 	svccs	0x00332f2f
     be4:	2f2f2f2f 	svccs	0x002f2f2f
     be8:	2f332f2f 	svccs	0x00332f2f
     bec:	2f2f2f2f 	svccs	0x002f2f2f
     bf0:	2f2f332f 	svccs	0x002f332f
     bf4:	2f2f2f2f 	svccs	0x002f2f2f
     bf8:	2f2f2f34 	svccs	0x002f2f34
     bfc:	332f2f2f 	teqcc	pc, #188	; 0xbc
     c00:	2f2f2f2f 	svccs	0x002f2f2f
     c04:	332f2f2f 	teqcc	pc, #188	; 0xbc
     c08:	2f2f2f2f 	svccs	0x002f2f2f
     c0c:	0a032f2f 	beq	cc8d0 <__standby_start+0xcc8d0>
     c10:	2f2f2f2e 	svccs	0x002f2f2e
     c14:	2f342f2f 	svccs	0x00342f2f
     c18:	2f2f2f2f 	svccs	0x002f2f2f
     c1c:	2f2f332f 	svccs	0x002f332f
     c20:	2f2f2f2f 	svccs	0x002f2f2f
     c24:	2f2e0903 	svccs	0x002e0903
     c28:	2f303030 	svccs	0x00303030
     c2c:	332f2f2f 	teqcc	pc, #188	; 0xbc
     c30:	2f2f2f30 	svccs	0x002f2f30
     c34:	2f2f2f2f 	svccs	0x002f2f2f
     c38:	2f2f2f31 	svccs	0x002f2f31
     c3c:	2f2f2f2f 	svccs	0x002f2f2f
     c40:	2f2f2f2f 	svccs	0x002f2f2f
     c44:	2f2f2f2f 	svccs	0x002f2f2f
     c48:	2f2f2f2f 	svccs	0x002f2f2f
     c4c:	2f2f2f2f 	svccs	0x002f2f2f
     c50:	2f2f2f2f 	svccs	0x002f2f2f
     c54:	2f2f2f2f 	svccs	0x002f2f2f
     c58:	2f2f2f2f 	svccs	0x002f2f2f
     c5c:	2f2f2f2f 	svccs	0x002f2f2f
     c60:	2f2f2f30 	svccs	0x002f2f30
     c64:	2f2f2f2f 	svccs	0x002f2f2f
     c68:	2f2f2f2f 	svccs	0x002f2f2f
     c6c:	2f312f2f 	svccs	0x00312f2f
     c70:	0a032f30 	beq	cc938 <__standby_start+0xcc938>
     c74:	2f2f2f2e 	svccs	0x002f2f2e
     c78:	2f2f30c0 	svccs	0x002f30c0
     c7c:	2f2f3430 	svccs	0x002f3430
     c80:	2f30f82f 	svccs	0x0030f82f
     c84:	0d03302f 	stceq	0, cr3, [r3, #-188]	; 0xffffff44
     c88:	302f2f2e 	eorcc	r2, pc, lr, lsr #30
     c8c:	2f820c03 	svccs	0x00820c03
     c90:	2f2f2f2f 	svccs	0x002f2f2f
     c94:	6d2f502f 	stcvs	0, cr5, [pc, #-188]!	; be0 <__standby_start+0xbe0>
     c98:	30302f2f 	eorscc	r2, r0, pc, lsr #30
     c9c:	2f302f2f 	svccs	0x00302f2f
     ca0:	7ca40330 	stcvc	3, cr0, [r4], #192	; 0xc0
     ca4:	3903352e 	stmdbcc	r3, {r1, r2, r3, r5, r8, sl, ip, sp}
     ca8:	e803312e 	stmda	r3, {r1, r2, r3, r5, r8, ip, sp}
     cac:	30302e01 	eorscc	r2, r0, r1, lsl #28
     cb0:	30303032 	eorscc	r3, r0, r2, lsr r0
     cb4:	30303030 	eorscc	r3, r0, r0, lsr r0
     cb8:	30303030 	eorscc	r3, r0, r0, lsr r0
     cbc:	30303030 	eorscc	r3, r0, r0, lsr r0
     cc0:	30303030 	eorscc	r3, r0, r0, lsr r0
     cc4:	30303031 	eorscc	r3, r0, r1, lsr r0
     cc8:	02023230 	andeq	r3, r2, #3
     ccc:	09010100 	stmdbeq	r1, {r8}
     cd0:	02000002 	andeq	r0, r0, #2
     cd4:	00009100 	andeq	r9, r0, r0, lsl #2
     cd8:	fb010200 	blx	414e2 <__standby_start+0x414e2>
     cdc:	01000d0e 	tsteq	r0, lr, lsl #26
     ce0:	00010101 	andeq	r0, r1, r1, lsl #2
     ce4:	00010000 	andeq	r0, r1, r0
     ce8:	72610100 	rsbvc	r0, r1, #0
     cec:	612f6863 	teqvs	pc, r3, ror #16
     cf0:	6d2f6d72 	stcvs	13, cr6, [pc, #-456]!	; b30 <__standby_start+0xb30>
     cf4:	2d686361 	stclcs	3, cr6, [r8, #-388]!	; 0xfffffe7c
     cf8:	786e7573 	stmdavc	lr!, {r0, r1, r4, r5, r6, r8, sl, ip, sp, lr}^
     cfc:	6d702f69 	ldclvs	15, cr2, [r0, #-420]!	; 0xfffffe5c
     d00:	6174732f 	cmnvs	r4, pc, lsr #6
     d04:	7962646e 	stmdbvc	r2!, {r1, r2, r3, r5, r6, sl, sp, lr}^
     d08:	2e2f2e2f 	cdpcs	14, 2, cr2, cr15, cr15, {1}
     d0c:	6e69002e 	cdpvs	0, 6, cr0, cr9, cr14, {1}
     d10:	64756c63 	ldrbtvs	r6, [r5], #-3171	; 0xc63
     d14:	696c2f65 	stmdbvs	ip!, {r0, r2, r5, r6, r8, r9, sl, fp, sp}^
     d18:	2f78756e 	svccs	0x0078756e
     d1c:	65776f70 	ldrbvs	r6, [r7, #-3952]!	; 0xf70
     d20:	6d000072 	stcvs	0, cr0, [r0, #-456]	; 0xfffffe38
     d24:	735f6d65 	cmpvc	pc, #6464	; 0x1940
     d28:	61697265 	cmnvs	r9, r5, ror #4
     d2c:	00632e6c 	rsbeq	r2, r3, ip, ror #28
     d30:	70000001 	andvc	r0, r0, r1
     d34:	79745f6d 	ldmdbvc	r4!, {r0, r2, r3, r5, r6, r8, r9, sl, fp, ip, lr}^
     d38:	2e736570 	mrccs	5, 3, r6, cr3, cr0, {3}
     d3c:	00010068 	andeq	r0, r1, r8, rrx
     d40:	6d656d00 	stclvs	13, cr6, [r5, #-0]
     d44:	6d63635f 	stclvs	3, cr6, [r3, #-380]!	; 0xfffffe84
     d48:	75732d75 	ldrbvc	r2, [r3, #-3445]!	; 0xd75
     d4c:	7769386e 	strbvc	r3, [r9, -lr, ror #16]!
     d50:	2e317036 	mrccs	0, 1, r7, cr1, cr6, {1}
     d54:	00010068 	andeq	r0, r1, r8, rrx
     d58:	70786100 	rsbsvc	r6, r8, r0, lsl #2
     d5c:	7065645f 	rsbvc	r6, r5, pc, asr r4
     d60:	2e646e65 	cdpcs	14, 6, cr6, cr4, cr5, {3}
     d64:	00020068 	andeq	r0, r2, r8, rrx
     d68:	05000000 	streq	r0, [r0, #-0]
     d6c:	0016a002 	andseq	sl, r6, r2
     d70:	01d903f0 	ldrsheq	r0, [r9, #48]	; 0x30
     d74:	34512e01 	ldrbcc	r2, [r1], #-3585	; 0xe01
     d78:	080c034f 	stmdaeq	ip, {r0, r1, r2, r3, r6, r8, r9}
     d7c:	312f6774 	teqcc	pc, r4, ror r7	; <UNPREDICTABLE>
     d80:	2f67302f 	svccs	0x0067302f
     d84:	2e640331 	mcrcs	3, 3, r0, cr4, cr1, {1}
     d88:	75032d67 	strvc	r2, [r3, #-3431]	; 0xd67
     d8c:	2e0c034a 	cdpcs	3, 0, cr0, cr12, cr10, {2}
     d90:	7ea9032d 	cdpvc	3, 10, cr0, cr9, cr13, {1}
     d94:	0b032e66 	bleq	cc734 <__standby_start+0xcc734>
     d98:	2a322f2e 	bcs	c8ca58 <__standby_start+0xc8ca58>
     d9c:	17032a4e 	strne	r2, [r3, -lr, asr #20]
     da0:	0330a52e 	teqeq	r0, #192937984	; 0xb800000
     da4:	63038214 	movwvs	r8, #12820	; 0x3214
     da8:	2e09032e 	cdpcs	3, 0, cr0, cr9, cr14, {1}
     dac:	4a120330 	bmi	481a74 <__standby_start+0x481a74>
     db0:	4d2f6768 	stcmi	7, cr6, [pc, #-416]!	; c18 <__standby_start+0xc18>
     db4:	2e780336 	mrccs	3, 3, r0, cr8, cr6, {1}
     db8:	a7036c4c 	strge	r6, [r3, -ip, asr #24]
     dbc:	a0146601 	andsge	r6, r4, r1, lsl #12
     dc0:	034c4b4c 	movteq	r4, #52044	; 0xcb4c
     dc4:	032e0191 	teqeq	lr, #1073741860	; 0x40000024
     dc8:	034a7ef4 	movteq	r7, #44788	; 0xaef4
     dcc:	332e4a2a 	teqcc	lr, #172032	; 0x2a000
     dd0:	2d674d4b 	stclcs	13, cr4, [r7, #-300]!	; 0xfffffed4
     dd4:	d0034b2f 	andle	r4, r3, pc, lsr #22
     dd8:	b1034a00 	tstlt	r3, r0, lsl #20
     ddc:	2c314a7f 	ldccs	10, cr4, [r1], #-508	; 0xfffffe04
     de0:	2f2f2c2f 	svccs	0x002f2c2f
     de4:	312f2d30 	teqcc	pc, r0, lsr sp	; <UNPREDICTABLE>
     de8:	00c6034c 	sbceq	r0, r6, ip, asr #6
     dec:	7fbe034a 	svcvc	0x00be034a
     df0:	2e18032e 	cdpcs	3, 1, cr0, cr8, cr14, {1}
     df4:	4b312b15 	blmi	c4ba50 <__standby_start+0xc4ba50>
     df8:	0402002d 	streq	r0, [r2], #-45	; 0x2d
     dfc:	65033201 	strvs	r3, [r3, #-513]	; 0x201
     e00:	2e130366 	cdpcs	3, 1, cr0, cr3, cr6, {3}
     e04:	312e6d03 	teqcc	lr, r3, lsl #26
     e08:	502e1a03 	eorpl	r1, lr, r3, lsl #20
     e0c:	9f2e5d03 	svcls	0x002e5d03
     e10:	2f2f2f2f 	svccs	0x002f2f2f
     e14:	032e1603 	teqeq	lr, #3145728	; 0x300000
     e18:	032f660b 	teqeq	pc, #11534336	; 0xb00000
     e1c:	2f9f4a59 	svccs	0x009f4a59
     e20:	032f2f2f 	teqeq	pc, #188	; 0xbc
     e24:	2a166625 	bcs	59a6c0 <__standby_start+0x59a6c0>
     e28:	032d4b32 	teqeq	sp, #51200	; 0xc800
     e2c:	02002e0b 	andeq	r2, r0, #176	; 0xb0
     e30:	79030104 	stmdbvc	r3, {r2, r8}
     e34:	665b034a 	ldrbvs	r0, [fp], -sl, asr #6
     e38:	032e2503 	teqeq	lr, #12582912	; 0xc00000
     e3c:	25032e5b 	strcs	r2, [r3, #-3675]	; 0xe5b
     e40:	4a5b032e 	bmi	16c1b00 <__standby_start+0x16c1b00>
     e44:	4a24039f 	bmi	901cc8 <__standby_start+0x901cc8>
     e48:	034a5e03 	movteq	r5, #44547	; 0xae03
     e4c:	2a4c4a24 	bcs	13136e4 <__standby_start+0x13136e4>
     e50:	149e0a03 	ldrne	r0, [lr], #2563	; 0xa03
     e54:	84143184 	ldrhi	r3, [r4], #-388	; 0x184
     e58:	30332e30 	eorscc	r2, r3, r0, lsr lr
     e5c:	302c302c 	eorcc	r3, ip, ip, lsr #32
     e60:	2d674d2f 	stclcs	13, cr4, [r7, #-188]!	; 0xffffff44
     e64:	314b4b2f 	cmpcc	fp, pc, lsr #22
     e68:	2f2c2f2c 	svccs	0x002c2f2c
     e6c:	2f2d302f 	svccs	0x002d302f
     e70:	5e034c31 	mcrpl	12, 0, r4, cr3, cr1, {1}
     e74:	2e26034a 	cdpcs	3, 2, cr0, cr6, cr10, {2}
     e78:	152e2603 	strne	r2, [lr, #-1539]!	; 0x603
     e7c:	2d4b312b 	stfcse	f3, [fp, #-172]	; 0xffffff54
     e80:	01040200 	mrseq	r0, R12_usr
     e84:	66590332 			; <UNDEFINED> instruction: 0x66590332
     e88:	032e1f03 	teqeq	lr, #12
     e8c:	03312e61 	teqeq	r1, #1552	; 0x610
     e90:	03502e26 	cmpeq	r0, #608	; 0x260
     e94:	2f9f2e51 	svccs	0x009f2e51
     e98:	032f2f2f 	teqeq	pc, #188	; 0xbc
     e9c:	0b032e22 	bleq	cc72c <__standby_start+0xcc72c>
     ea0:	4d032f66 	stcmi	15, cr2, [r3, #-408]	; 0xfffffe68
     ea4:	2f2f9f4a 	svccs	0x002f9f4a
     ea8:	32032f2f 	andcc	r2, r3, #188	; 0xbc
     eac:	322a1666 	eorcc	r1, sl, #106954752	; 0x6600000
     eb0:	0b032d4b 	bleq	cc3e4 <__standby_start+0xcc3e4>
     eb4:	0402002e 	streq	r0, [r2], #-46	; 0x2e
     eb8:	4a790301 	bmi	1e41ac4 <__standby_start+0x1e41ac4>
     ebc:	03664e03 	cmneq	r6, #48	; 0x30
     ec0:	4e032e32 	mcrmi	14, 0, r2, cr3, cr2, {1}
     ec4:	2e32032e 	cdpcs	3, 3, cr0, cr2, cr14, {1}
     ec8:	9f4a4e03 	svcls	0x004a4e03
     ecc:	034a3103 	movteq	r3, #41219	; 0xa103
     ed0:	31034a51 	tstcc	r3, r1, asr sl
     ed4:	022a4c4a 	eoreq	r4, sl, #18944	; 0x4a00
     ed8:	0101000a 	tsteq	r1, sl
     edc:	0000034a 	andeq	r0, r0, sl, asr #6
     ee0:	01160002 	tsteq	r6, r2
     ee4:	01020000 	mrseq	r0, (UNDEF: 2)
     ee8:	000d0efb 	strdeq	r0, [sp], -fp
     eec:	01010101 	tsteq	r1, r1, lsl #2
     ef0:	01000000 	mrseq	r0, (UNDEF: 0)
     ef4:	61010000 	mrsvs	r0, (UNDEF: 1)
     ef8:	2f686372 	svccs	0x00686372
     efc:	2f6d7261 	svccs	0x006d7261
     f00:	6863616d 	stmdavs	r3!, {r0, r2, r3, r5, r6, r8, sp, lr}^
     f04:	6e75732d 	cdpvs	3, 7, cr7, cr5, cr13, {1}
     f08:	702f6978 	eorvc	r6, pc, r8, ror r9	; <UNPREDICTABLE>
     f0c:	74732f6d 	ldrbtvc	r2, [r3], #-3949	; 0xf6d
     f10:	62646e61 	rsbvs	r6, r4, #1552	; 0x610
     f14:	2f2e2f79 	svccs	0x002e2f79
     f18:	2f002e2e 	svccs	0x00002e2e
     f1c:	656d6f68 	strbvs	r6, [sp, #-3944]!	; 0xf68
     f20:	6d6f742f 	cfstrdvs	mvd7, [pc, #-188]!	; e6c <__standby_start+0xe6c>
     f24:	7362742f 	cmnvc	r2, #788529152	; 0x2f000000
     f28:	6261745f 	rsbvs	r7, r1, #1593835520	; 0x5f000000
     f2c:	2f74656c 	svccs	0x0074656c
     f30:	6863696c 	stmdavs	r3!, {r2, r3, r5, r6, r8, fp, sp, lr}^
     f34:	6f2f6565 	svcvs	0x002f6565
     f38:	732f7475 	teqvc	pc, #1962934272	; 0x75000000
     f3c:	69386e75 	ldmdbvs	r8!, {r0, r2, r4, r5, r6, r9, sl, fp, sp, lr}
     f40:	31703677 	cmncc	r0, r7, ror r6
     f44:	6e696c2f 	cdpvs	12, 6, cr6, cr9, cr15, {1}
     f48:	632f7875 	teqvs	pc, #7667712	; 0x750000
     f4c:	6f6d6d6f 	svcvs	0x006d6d6f
     f50:	75622f6e 	strbvc	r2, [r2, #-3950]!	; 0xf6e
     f54:	72646c69 	rsbvc	r6, r4, #26880	; 0x6900
     f58:	2f746f6f 	svccs	0x00746f6f
     f5c:	65747865 	ldrbvs	r7, [r4, #-2149]!	; 0x865
     f60:	6c616e72 	stclvs	14, cr6, [r1], #-456	; 0xfffffe38
     f64:	6f6f742d 	svcvs	0x006f742d
     f68:	6168636c 	cmnvs	r8, ip, ror #6
     f6c:	622f6e69 	eorvs	r6, pc, #1680	; 0x690
     f70:	2e2f6e69 	cdpcs	14, 2, cr6, cr15, cr9, {3}
     f74:	696c2f2e 	stmdbvs	ip!, {r1, r2, r3, r5, r8, r9, sl, fp, sp}^
     f78:	63672f62 	cmnvs	r7, #392	; 0x188
     f7c:	72612f63 	rsbvc	r2, r1, #396	; 0x18c
     f80:	696c2d6d 	stmdbvs	ip!, {r0, r2, r3, r5, r6, r8, sl, fp, sp}^
     f84:	2d78756e 	cfldr64cs	mvdx7, [r8, #-440]!	; 0xfffffe48
     f88:	65756e67 	ldrbvs	r6, [r5, #-3687]!	; 0xe67
     f8c:	2f696261 	svccs	0x00696261
     f90:	2e362e34 	mrccs	14, 1, r2, cr6, cr4, {1}
     f94:	6e692f33 	mcrvs	15, 3, r2, cr9, cr3, {1}
     f98:	64756c63 	ldrbtvs	r6, [r5], #-3171	; 0xc63
     f9c:	6e690065 	cdpvs	0, 6, cr0, cr9, cr5, {3}
     fa0:	64756c63 	ldrbtvs	r6, [r5], #-3171	; 0xc63
     fa4:	696c2f65 	stmdbvs	ip!, {r0, r2, r5, r6, r8, r9, sl, fp, sp}^
     fa8:	2f78756e 	svccs	0x0078756e
     fac:	65776f70 	ldrbvs	r6, [r7, #-3952]!	; 0xf70
     fb0:	6d000072 	stcvs	0, cr0, [r0, #-456]	; 0xfffffe38
     fb4:	705f6d65 	subsvc	r6, pc, r5, ror #26
     fb8:	746e6972 	strbtvc	r6, [lr], #-2418	; 0x972
     fbc:	00632e6b 	rsbeq	r2, r3, fp, ror #28
     fc0:	70000001 	andvc	r0, r0, r1
     fc4:	79745f6d 	ldmdbvc	r4!, {r0, r2, r3, r5, r6, r8, r9, sl, fp, ip, lr}^
     fc8:	2e736570 	mrccs	5, 3, r6, cr3, cr0, {3}
     fcc:	00010068 	andeq	r0, r1, r8, rrx
     fd0:	64747300 	ldrbtvs	r7, [r4], #-768	; 0x300
     fd4:	2e677261 	cdpcs	2, 6, cr7, cr7, cr1, {3}
     fd8:	00020068 	andeq	r0, r2, r8, rrx
     fdc:	70786100 	rsbsvc	r6, r8, r0, lsl #2
     fe0:	7065645f 	rsbvc	r6, r5, pc, asr r4
     fe4:	2e646e65 	cdpcs	14, 6, cr6, cr4, cr5, {3}
     fe8:	00030068 	andeq	r0, r3, r8, rrx
     fec:	75623c00 	strbvc	r3, [r2, #-3072]!	; 0xc00
     ff0:	2d746c69 	ldclcs	12, cr6, [r4, #-420]!	; 0xfffffe5c
     ff4:	003e6e69 	eorseq	r6, lr, r9, ror #28
     ff8:	00000000 	andeq	r0, r0, r0
     ffc:	e4020500 	str	r0, [r2], #-1280	; 0x500
    1000:	03f0001b 	mvnseq	r0, #27
    1004:	340101ce 	strcc	r0, [r1], #-462	; 0x1ce
    1008:	2c882a2c 	vstmiacs	r8, {s4-s47}
    100c:	7a032fa3 	bvc	ccea0 <__standby_start+0xccea0>
    1010:	522b332e 	eorpl	r3, fp, #-1207959552	; 0xb8000000
    1014:	02040200 	andeq	r0, r4, #0
    1018:	04020031 	streq	r0, [r2], #-49	; 0x31
    101c:	02008302 	andeq	r8, r0, #134217728	; 0x8000000
    1020:	002d0204 	eoreq	r0, sp, r4, lsl #4
    1024:	4b020402 	blmi	82034 <__standby_start+0x82034>
    1028:	02040200 	andeq	r0, r4, #0
    102c:	0402002d 	streq	r0, [r2], #-45	; 0x2d
    1030:	02002f02 	andeq	r2, r0, #8
    1034:	032a0204 	teqeq	sl, #1073741824	; 0x40000000
    1038:	17036671 	smlsdxne	r3, r1, r6, r6
    103c:	04020066 	streq	r0, [r2], #-102	; 0x66
    1040:	002e0602 	eoreq	r0, lr, r2, lsl #12
    1044:	06020402 	streq	r0, [r2], -r2, lsl #8
    1048:	04020030 	streq	r0, [r2], #-48	; 0x30
    104c:	69332c02 	ldmdbvs	r3!, {r1, sl, fp, sp}
    1050:	8200fe03 	andhi	pc, r0, #48	; 0x30
    1054:	852b2d32 	strhi	r2, [fp, #-3378]!	; 0xd32
    1058:	2e78038a 	cdpcs	3, 7, cr0, cr8, cr10, {4}
    105c:	ed03312f 	stfs	f3, [r3, #-188]	; 0xffffff44
    1060:	93032e7d 	movwls	r2, #15997	; 0x3e7d
    1064:	ed032e02 	stc	14, cr2, [r3, #-8]
    1068:	03302e7d 	teqeq	r0, #2000	; 0x7d0
    106c:	03820289 	orreq	r0, r2, #-1879048184	; 0x90000008
    1070:	032e7df7 	teqeq	lr, #15808	; 0x3dc0
    1074:	032e0289 	teqeq	lr, #-1879048184	; 0x90000008
    1078:	522e7df7 	eorpl	r7, lr, #15808	; 0x3dc0
    107c:	034cbc46 	movteq	fp, #52294	; 0xcc46
    1080:	032e028e 	teqeq	lr, #-536870904	; 0xe0000008
    1084:	36827ea8 	strcc	r7, [r2], r8, lsr #29
    1088:	2e7a032c 	cdpcs	3, 7, cr0, cr10, cr12, {1}
    108c:	032f876c 	teqeq	pc, #28311552	; 0x1b00000
    1090:	2b332e7a 	blcs	ccca80 <__standby_start+0xccca80>
    1094:	032e1203 	teqeq	lr, #805306368	; 0x30000000
    1098:	032d2e7a 	teqeq	sp, #1952	; 0x7a0
    109c:	14032e70 	strne	r2, [r3], #-3696	; 0xe70
    10a0:	31474d2e 	cmpcc	r7, lr, lsr #26
    10a4:	31633163 	cmncc	r3, r3, ror #2
    10a8:	2e090363 	cdpcs	3, 0, cr0, cr9, cr3, {3}
    10ac:	032e7703 	teqeq	lr, #786432	; 0xc0000
    10b0:	5d032e0c 	stcpl	14, cr2, [r3, #-48]	; 0xffffffd0
    10b4:	66250366 	strtvs	r0, [r5], -r6, ror #6
    10b8:	5b032c4c 	blpl	cc1f0 <__standby_start+0xcc1f0>
    10bc:	2e2a034a 	cdpcs	3, 2, cr0, cr10, cr10, {2}
    10c0:	9e390369 	cdpls	3, 3, cr0, cr9, cr9, {3}
    10c4:	03660c03 	cmneq	r6, #768	; 0x300
    10c8:	0c032e74 	stceq	14, cr2, [r3], {116}	; 0x74
    10cc:	48302d2e 	ldmdami	r0!, {r1, r2, r3, r5, r8, sl, fp, sp}
    10d0:	00c10330 	sbceq	r0, r1, r0, lsr r3
    10d4:	2e68032e 	cdpcs	3, 6, cr0, cr8, cr14, {1}
    10d8:	4c2e5503 	cfstr32mi	mvfx5, [lr], #-12
    10dc:	2e00cb03 	vmlacs.f64	d12, d0, d3
    10e0:	2e7fb503 	cdpcs	5, 7, cr11, cr15, cr3, {0}
    10e4:	00c6034c 	sbceq	r0, r6, ip, asr #6
    10e8:	7fba032e 	svcvc	0x00ba032e
    10ec:	2f69312e 	svccs	0x0069312e
    10f0:	2e090329 	cdpcs	3, 0, cr0, cr9, cr9, {1}
    10f4:	c103342a 	tstgt	r3, sl, lsr #8
    10f8:	01340200 	teqeq	r4, r0, lsl #4
    10fc:	31302c30 	teqcc	r0, r0, lsr ip
    1100:	039e5403 	orrseq	r5, lr, #50331648	; 0x3000000
    1104:	03d67de6 	bicseq	r7, r6, #14720	; 0x3980
    1108:	0366029b 	cmneq	r6, #-1342177271	; 0xb0000009
    110c:	032e7de5 	teqeq	lr, #14656	; 0x3940
    1110:	0382029c 	orreq	r0, r2, #-1073741815	; 0xc0000009
    1114:	03d67df5 	bicseq	r7, r6, #15680	; 0x3d40
    1118:	2f82028d 	svccs	0x0082028d
    111c:	032e0b03 	teqeq	lr, #3072	; 0xc00
    1120:	032e7fb9 	teqeq	lr, #740	; 0x2e4
    1124:	032e00c7 	teqeq	lr, #199	; 0xc7
    1128:	03667fb9 	cmneq	r6, #740	; 0x2e4
    112c:	032e7eae 	teqeq	lr, #2784	; 0xae0
    1130:	ac03826f 	sfmge	f0, 1, [r3], {111}	; 0x6f
    1134:	032ff202 	msreq	CPSR_fsxc, #536870912	; 0x20000000
    1138:	f0032e63 			; <UNDEFINED> instruction: 0xf0032e63
    113c:	9103d67d 	tstls	r3, sp, ror r6
    1140:	ef036602 	svc	0x00036602
    1144:	92032e7d 	andls	r2, r3, #2000	; 0x7d0
    1148:	ff038202 			; <UNDEFINED> instruction: 0xff038202
    114c:	8d03d67d 	stchi	6, cr13, [r3, #-500]	; 0xfffffe0c
    1150:	9f508202 	svcls	0x00508202
    1154:	2f2e0d03 	svccs	0x002e0d03
    1158:	03825203 	orreq	r5, r2, #805306368	; 0x30000000
    115c:	03ba7dfb 			; <UNDEFINED> instruction: 0x03ba7dfb
    1160:	03660286 	cmneq	r6, #1610612744	; 0x60000008
    1164:	032e7dfa 	teqeq	lr, #16000	; 0x3e80
    1168:	03820287 	orreq	r0, r2, #1879048200	; 0x70000008
    116c:	03d67e8a 	bicseq	r7, r6, #2208	; 0x8a0
    1170:	0382028d 	orreq	r0, r2, #-805306360	; 0xd0000008
    1174:	0c03663b 	stceq	6, cr6, [r3], {59}	; 0x3b
    1178:	2e740366 	cdpcs	3, 7, cr0, cr4, cr6, {3}
    117c:	2d2e0c03 	stccs	12, cr0, [lr, #-12]!
    1180:	03304830 	teqeq	r0, #3145728	; 0x300000
    1184:	032e00c1 	teqeq	lr, #193	; 0xc1
    1188:	55032e68 	strpl	r2, [r3, #-3688]	; 0xe68
    118c:	cb034c2e 	blgt	d424c <__standby_start+0xd424c>
    1190:	b5032e00 	strlt	r2, [r3, #-3584]	; 0xe00
    1194:	034c2e7f 	movteq	r2, #52863	; 0xce7f
    1198:	032e00c6 	teqeq	lr, #198	; 0xc6
    119c:	312e7fba 			; <UNDEFINED> instruction: 0x312e7fba
    11a0:	03292f69 	teqeq	r9, #420	; 0x1a4
    11a4:	342a2e09 	strtcc	r2, [sl], #-3593	; 0xe09
    11a8:	0200c103 	andeq	ip, r0, #-1073741824	; 0xc0000000
    11ac:	2c300134 	ldfcss	f0, [r0], #-208	; 0xffffff30
    11b0:	54033130 	strpl	r3, [r3], #-304	; 0x130
    11b4:	7cf1039e 	ldclvc	3, cr0, [r1], #632	; 0x278
    11b8:	039003d6 	orrseq	r0, r0, #1476395011	; 0x58000003
    11bc:	7cf00366 	ldclvc	3, cr0, [r0], #408	; 0x198
    11c0:	0391032e 	orrseq	r0, r1, #-1207959552	; 0xb8000000
    11c4:	7d800382 	stcvc	3, cr0, [r0, #520]	; 0x208
    11c8:	038203d6 	orreq	r0, r2, #1476395011	; 0x58000003
    11cc:	0b032f82 	bleq	ccfdc <__standby_start+0xccfdc>
    11d0:	7fb9032e 	svcvc	0x00b9032e
    11d4:	00c7032e 	sbceq	r0, r7, lr, lsr #6
    11d8:	7fb9032e 	svcvc	0x00b9032e
    11dc:	7db90366 	ldcvc	3, cr0, [r9, #408]!	; 0x198
    11e0:	826f032e 	rsbhi	r0, pc, #-1207959552	; 0xb8000000
    11e4:	f203a103 	vrhadd.s8	d10, d3, d3
    11e8:	2e63032f 	cdpcs	3, 6, cr0, cr3, cr15, {1}
    11ec:	d67cfb03 	ldrbtle	pc, [ip], -r3, lsl #22	; <UNPREDICTABLE>
    11f0:	66038603 	strvs	r8, [r3], -r3, lsl #12
    11f4:	2e7cfa03 	vaddcs.f32	s31, s24, s6
    11f8:	82038703 	andhi	r8, r3, #786432	; 0xc0000
    11fc:	d67d8a03 	ldrbtle	r8, [sp], -r3, lsl #20
    1200:	82038203 	andhi	r8, r3, #805306368	; 0x30000000
    1204:	0d039f50 	stceq	15, cr9, [r3, #-320]	; 0xfffffec0
    1208:	52032f2e 	andpl	r2, r3, #184	; 0xb8
    120c:	7d860382 	stcvc	3, cr0, [r6, #520]	; 0x208
    1210:	02fb03ba 	rscseq	r0, fp, #-402653182	; 0xe8000002
    1214:	7d850366 	stcvc	3, cr0, [r5, #408]	; 0x198
    1218:	02fc032e 	rscseq	r0, ip, #-1207959552	; 0xb8000000
    121c:	7d950382 	ldcvc	3, cr0, [r5, #520]	; 0x208
    1220:	038203d6 	orreq	r0, r2, #1476395011	; 0x58000003
    1224:	00060282 	andeq	r0, r6, r2, lsl #5
    1228:	00ab0101 	adceq	r0, fp, r1, lsl #2
    122c:	00020000 	andeq	r0, r2, r0
    1230:	00000047 	andeq	r0, r0, r7, asr #32
    1234:	0efb0102 	cdpeq	1, 15, cr0, cr11, cr2, {0}
    1238:	0101000d 	tsteq	r1, sp
    123c:	00000101 	andeq	r0, r0, r1, lsl #2
    1240:	00000100 	andeq	r0, r0, r0, lsl #2
    1244:	63726101 	cmnvs	r2, #1073741824	; 0x40000000
    1248:	72612f68 	rsbvc	r2, r1, #416	; 0x1a0
    124c:	616d2f6d 	cmnvs	sp, sp, ror #30
    1250:	732d6863 	teqvc	sp, #6488064	; 0x630000
    1254:	69786e75 	ldmdbvs	r8!, {r0, r2, r4, r5, r6, r9, sl, fp, sp, lr}^
    1258:	2f6d702f 	svccs	0x006d702f
    125c:	6e617473 	mcrvs	4, 3, r7, cr1, cr3, {3}
    1260:	2f796264 	svccs	0x00796264
    1264:	2e2e2f2e 	cdpcs	15, 2, cr2, cr14, cr14, {1}
    1268:	656d0000 	strbvs	r0, [sp, #-0]!
    126c:	69645f6d 	stmdbvs	r4!, {r0, r2, r3, r5, r6, r8, r9, sl, fp, ip, lr}^
    1270:	62696c76 	rsbvs	r6, r9, #30208	; 0x7600
    1274:	0100532e 	tsteq	r0, lr, lsr #6
    1278:	00000000 	andeq	r0, r0, r0
    127c:	23d00205 	bicscs	r0, r0, #1342177280	; 0x50000000
    1280:	0e03f000 	cdpeq	0, 0, cr15, cr3, cr0, {0}
    1284:	302f2f01 	eorcc	r2, pc, r1, lsl #30
    1288:	2f2f2f2f 	svccs	0x002f2f2f
    128c:	2f342f30 	svccs	0x00342f30
    1290:	00d5032f 	sbcseq	r0, r5, pc, lsr #6
    1294:	2f2f2f2e 	svccs	0x002f2f2e
    1298:	2f2f2f33 	svccs	0x002f2f33
    129c:	302f2f2f 	eorcc	r2, pc, pc, lsr #30
    12a0:	2f142e02 	svccs	0x00142e02
    12a4:	302f2f30 	eorcc	r2, pc, r0, lsr pc	; <UNPREDICTABLE>
    12a8:	2f342f4c 	svccs	0x00342f4c
    12ac:	2f2f2f2f 	svccs	0x002f2f2f
    12b0:	2f2f2f2f 	svccs	0x002f2f2f
    12b4:	02302f2f 	eorseq	r2, r0, #188	; 0xbc
    12b8:	2f2f142e 	svccs	0x002f142e
    12bc:	302f2f30 	eorcc	r2, pc, r0, lsr pc	; <UNPREDICTABLE>
    12c0:	302f2f2f 	eorcc	r2, pc, pc, lsr #30
    12c4:	2f2f2f4c 	svccs	0x002f2f4c
    12c8:	2f2f2f33 	svccs	0x002f2f33
    12cc:	2f332f2f 	svccs	0x00332f2f
    12d0:	2f2f2f2f 	svccs	0x002f2f2f
    12d4:	01000202 	tsteq	r0, r2, lsl #4
    12d8:	00008401 	andeq	r8, r0, r1, lsl #8
    12dc:	56000200 	strpl	r0, [r0], -r0, lsl #4
    12e0:	02000000 	andeq	r0, r0, #0
    12e4:	0d0efb01 	vstreq	d15, [lr, #-4]
    12e8:	01010100 	mrseq	r0, (UNDEF: 17)
    12ec:	00000001 	andeq	r0, r0, r1
    12f0:	01000001 	tsteq	r0, r1
    12f4:	68637261 	stmdavs	r3!, {r0, r5, r6, r9, ip, sp, lr}^
    12f8:	6d72612f 	ldfvse	f6, [r2, #-188]!	; 0xffffff44
    12fc:	63616d2f 	cmnvs	r1, #3008	; 0xbc0
    1300:	75732d68 	ldrbvc	r2, [r3, #-3432]!	; 0xd68
    1304:	2f69786e 	svccs	0x0069786e
    1308:	732f6d70 	teqvc	pc, #7168	; 0x1c00
    130c:	646e6174 	strbtvs	r6, [lr], #-372	; 0x174
    1310:	2e2f7962 	cdpcs	9, 2, cr7, cr15, cr2, {3}
    1314:	002e2e2f 	eoreq	r2, lr, pc, lsr #28
    1318:	6d656d00 	stclvs	13, cr6, [r5, #-0]
    131c:	7669645f 			; <UNDEFINED> instruction: 0x7669645f
    1320:	6362696c 	cmnvs	r2, #1769472	; 0x1b0000
    1324:	0100632e 	tsteq	r0, lr, lsr #6
    1328:	6d700000 	ldclvs	0, cr0, [r0, #-0]
    132c:	7079745f 	rsbsvc	r7, r9, pc, asr r4
    1330:	682e7365 	stmdavs	lr!, {r0, r2, r5, r6, r8, r9, ip, sp, lr}
    1334:	00000100 	andeq	r0, r0, r0, lsl #2
    1338:	02050000 	andeq	r0, r5, #0
    133c:	f00025ac 			; <UNDEFINED> instruction: 0xf00025ac
    1340:	114b1315 	cmpne	fp, r5, lsl r3
    1344:	2b311732 	blcs	c47014 <__standby_start+0xc47014>
    1348:	01040200 	mrseq	r0, R12_usr
    134c:	064a0634 			; <UNDEFINED> instruction: 0x064a0634
    1350:	0b032b31 	bleq	cc01c <__standby_start+0xcc01c>
    1354:	33302b4a 	teqcc	r0, #75776	; 0x12800
    1358:	4d30342a 	cfldrsmi	mvf3, [r0, #-168]!	; 0xffffff58
    135c:	01000402 	tsteq	r0, r2, lsl #8
    1360:	00012301 	andeq	r2, r1, r1, lsl #6
    1364:	83000200 	movwhi	r0, #512	; 0x200
    1368:	02000000 	andeq	r0, r0, #0
    136c:	0d0efb01 	vstreq	d15, [lr, #-4]
    1370:	01010100 	mrseq	r0, (UNDEF: 17)
    1374:	00000001 	andeq	r0, r0, r1
    1378:	01000001 	tsteq	r0, r1
    137c:	68637261 	stmdavs	r3!, {r0, r5, r6, r9, ip, sp, lr}^
    1380:	6d72612f 	ldfvse	f6, [r2, #-188]!	; 0xffffff44
    1384:	63616d2f 	cmnvs	r1, #3008	; 0xbc0
    1388:	75732d68 	ldrbvc	r2, [r3, #-3432]!	; 0xd68
    138c:	2f69786e 	svccs	0x0069786e
    1390:	732f6d70 	teqvc	pc, #7168	; 0x1c00
    1394:	646e6174 	strbtvs	r6, [lr], #-372	; 0x174
    1398:	2e2f7962 	cdpcs	9, 2, cr7, cr15, cr2, {3}
    139c:	002e2e2f 	eoreq	r2, lr, pc, lsr #28
    13a0:	6c636e69 	stclvs	14, cr6, [r3], #-420	; 0xfffffe5c
    13a4:	2f656475 	svccs	0x00656475
    13a8:	756e696c 	strbvc	r6, [lr, #-2412]!	; 0x96c
    13ac:	6f702f78 	svcvs	0x00702f78
    13b0:	00726577 	rsbseq	r6, r2, r7, ror r5
    13b4:	6d656d00 	stclvs	13, cr6, [r5, #-0]
    13b8:	746e695f 	strbtvc	r6, [lr], #-2399	; 0x95f
    13bc:	0100632e 	tsteq	r0, lr, lsr #6
    13c0:	6d700000 	ldclvs	0, cr0, [r0, #-0]
    13c4:	7079745f 	rsbsvc	r7, r9, pc, asr r4
    13c8:	682e7365 	stmdavs	lr!, {r0, r2, r5, r6, r8, r9, ip, sp, lr}
    13cc:	00000100 	andeq	r0, r0, r0, lsl #2
    13d0:	5f6d656d 	svcpl	0x006d656d
    13d4:	2e746e69 	cdpcs	14, 7, cr6, cr4, cr9, {3}
    13d8:	00010068 	andeq	r0, r1, r8, rrx
    13dc:	70786100 	rsbsvc	r6, r8, r0, lsl #2
    13e0:	7065645f 	rsbvc	r6, r5, pc, asr r4
    13e4:	2e646e65 	cdpcs	14, 6, cr6, cr4, cr5, {3}
    13e8:	00020068 	andeq	r0, r2, r8, rrx
    13ec:	05000000 	streq	r0, [r0, #-0]
    13f0:	00260402 	eoreq	r0, r6, r2, lsl #8
    13f4:	012203f0 	strdeq	r0, [r2, -r0]!	; <UNPREDICTABLE>
    13f8:	0a032f14 	beq	cd050 <__standby_start+0xcd050>
    13fc:	2e73032e 	cdpcs	3, 7, cr0, cr3, cr14, {1}
    1400:	032f2d31 	teqeq	pc, #3136	; 0xc40
    1404:	032d2e0b 	teqeq	sp, #176	; 0xb0
    1408:	002f2e75 	eoreq	r2, pc, r5, ror lr	; <UNPREDICTABLE>
    140c:	03020402 	movweq	r0, #9218	; 0x2402
    1410:	02004a0b 	andeq	r4, r0, #45056	; 0xb000
    1414:	062d0204 	strteq	r0, [sp], -r4, lsl #4
    1418:	0b03064a 	bleq	c2d48 <__standby_start+0xc2d48>
    141c:	2e75032e 	cdpcs	3, 7, cr0, cr5, cr14, {1}
    1420:	2d2e0c03 	stccs	12, cr0, [lr, #-12]!
    1424:	02040200 	andeq	r0, r4, #0
    1428:	0402002f 	streq	r0, [r2], #-47	; 0x2f
    142c:	304e2d02 	subcc	r2, lr, r2, lsl #26
    1430:	2f4c4c2c 	svccs	0x004c4c2c
    1434:	820f034f 	andhi	r0, pc, #1006632961	; 0x3c000001
    1438:	2b332c14 	blcs	ccc490 <__standby_start+0xccc490>
    143c:	02040200 	andeq	r0, r4, #0
    1440:	040200a2 	streq	r0, [r2], #-162	; 0xa2
    1444:	02004b02 	andeq	r4, r0, #2048	; 0x800
    1448:	6c800204 	sfmvs	f0, 4, [r0], {4}
    144c:	16820f03 	strne	r0, [r2], r3, lsl #30
    1450:	2f2b304b 	svccs	0x002b304b
    1454:	2e7a034c 	cdpcs	3, 7, cr0, cr10, cr12, {2}
    1458:	2e0a032f 	cdpcs	3, 0, cr0, cr10, cr15, {1}
    145c:	2e7a0350 	mrccs	3, 3, r0, cr10, cr0, {2}
    1460:	2e7603c0 	cdpcs	3, 7, cr0, cr6, cr0, {6}
    1464:	032e0b03 	teqeq	lr, #3072	; 0xc00
    1468:	4b174a0f 	blmi	5d3cac <__standby_start+0x5d3cac>
    146c:	4c2f2b30 	stcmi	11, cr2, [pc], #-192	; 13b4 <__standby_start+0x13b4>
    1470:	032e7a03 	teqeq	lr, #12288	; 0x3000
    1474:	72032e0f 	andvc	r2, r3, #240	; 0xf0
    1478:	2e09032e 	cdpcs	3, 0, cr0, cr9, cr14, {1}
    147c:	827803a3 	rsbshi	r0, r8, #-1946157054	; 0x8c000002
    1480:	022e0903 	eoreq	r0, lr, #49152	; 0xc000
    1484:	01010004 	tsteq	r1, r4
    1488:	000000aa 	andeq	r0, r0, sl, lsr #1
    148c:	00610002 	rsbeq	r0, r1, r2
    1490:	01020000 	mrseq	r0, (UNDEF: 2)
    1494:	000d0efb 	strdeq	r0, [sp], -fp
    1498:	01010101 	tsteq	r1, r1, lsl #2
    149c:	01000000 	mrseq	r0, (UNDEF: 0)
    14a0:	61010000 	mrsvs	r0, (UNDEF: 1)
    14a4:	2f686372 	svccs	0x00686372
    14a8:	2f6d7261 	svccs	0x006d7261
    14ac:	6863616d 	stmdavs	r3!, {r0, r2, r3, r5, r6, r8, sp, lr}^
    14b0:	6e75732d 	cdpvs	3, 7, cr7, cr5, cr13, {1}
    14b4:	702f6978 	eorvc	r6, pc, r8, ror r9	; <UNPREDICTABLE>
    14b8:	74732f6d 	ldrbtvc	r2, [r3], #-3949	; 0xf6d
    14bc:	62646e61 	rsbvs	r6, r4, #1552	; 0x610
    14c0:	2f2e2f79 	svccs	0x002e2f79
    14c4:	00002e2e 	andeq	r2, r0, lr, lsr #28
    14c8:	5f6d656d 	svcpl	0x006d656d
    14cc:	6f697067 	svcvs	0x00697067
    14d0:	0100632e 	tsteq	r0, lr, lsr #6
    14d4:	6d700000 	ldclvs	0, cr0, [r0, #-0]
    14d8:	7079745f 	rsbsvc	r7, r9, pc, asr r4
    14dc:	682e7365 	stmdavs	lr!, {r0, r2, r5, r6, r8, r9, ip, sp, lr}
    14e0:	00000100 	andeq	r0, r0, r0, lsl #2
    14e4:	5f6d656d 	svcpl	0x006d656d
    14e8:	6f697067 	svcvs	0x00697067
    14ec:	0100682e 	tsteq	r0, lr, lsr #16
    14f0:	00000000 	andeq	r0, r0, r0
    14f4:	27a00205 	strcs	r0, [r0, r5, lsl #4]!
    14f8:	0f03f000 	svceq	0x0003f000
    14fc:	29331101 	ldmdbcs	r3!, {r0, r8, ip}
    1500:	0402004f 	streq	r0, [r2], #-79	; 0x4f
    1504:	02002f02 	andeq	r2, r0, #8
    1508:	002d0204 	eoreq	r0, sp, r4, lsl #4
    150c:	2f020402 	svccs	0x00020402
    1510:	02040200 	andeq	r0, r4, #0
    1514:	0e03322d 	cdpeq	2, 0, cr3, cr3, cr13, {1}
    1518:	2933114a 	ldmdbcs	r3!, {r1, r3, r6, r8, ip}
    151c:	0402004f 	streq	r0, [r2], #-79	; 0x4f
    1520:	02002f02 	andeq	r2, r0, #8
    1524:	03490204 	movteq	r0, #37380	; 0x9204
    1528:	154e4a0c 	strbne	r4, [lr, #-2572]	; 0xa0c
    152c:	2f2dde83 	svccs	0x002dde83
    1530:	0008022d 	andeq	r0, r8, sp, lsr #4
    1534:	00fe0101 	rscseq	r0, lr, r1, lsl #2
    1538:	00020000 	andeq	r0, r2, r0
    153c:	00000083 	andeq	r0, r0, r3, lsl #1
    1540:	0efb0102 	cdpeq	1, 15, cr0, cr11, cr2, {0}
    1544:	0101000d 	tsteq	r1, sp
    1548:	00000101 	andeq	r0, r0, r1, lsl #2
    154c:	00000100 	andeq	r0, r0, r0, lsl #2
    1550:	63726101 	cmnvs	r2, #1073741824	; 0x40000000
    1554:	72612f68 	rsbvc	r2, r1, #416	; 0x1a0
    1558:	616d2f6d 	cmnvs	sp, sp, ror #30
    155c:	732d6863 	teqvc	sp, #6488064	; 0x630000
    1560:	69786e75 	ldmdbvs	r8!, {r0, r2, r4, r5, r6, r9, sl, fp, sp, lr}^
    1564:	2f6d702f 	svccs	0x006d702f
    1568:	6e617473 	mcrvs	4, 3, r7, cr1, cr3, {3}
    156c:	2f796264 	svccs	0x00796264
    1570:	2e2e2f2e 	cdpcs	15, 2, cr2, cr14, cr14, {1}
    1574:	636e6900 	cmnvs	lr, #0
    1578:	6564756c 	strbvs	r7, [r4, #-1388]!	; 0x56c
    157c:	6e696c2f 	cdpvs	12, 6, cr6, cr9, cr15, {1}
    1580:	702f7875 	eorvc	r7, pc, r5, ror r8	; <UNPREDICTABLE>
    1584:	7265776f 	rsbvc	r7, r5, #29097984	; 0x1bc0000
    1588:	656d0000 	strbvs	r0, [sp, #-0]!
    158c:	6d745f6d 	ldclvs	15, cr5, [r4, #-436]!	; 0xfffffe4c
    1590:	00632e72 	rsbeq	r2, r3, r2, ror lr
    1594:	70000001 	andvc	r0, r0, r1
    1598:	79745f6d 	ldmdbvc	r4!, {r0, r2, r3, r5, r6, r8, r9, sl, fp, ip, lr}^
    159c:	2e736570 	mrccs	5, 3, r6, cr3, cr0, {3}
    15a0:	00010068 	andeq	r0, r1, r8, rrx
    15a4:	6d656d00 	stclvs	13, cr6, [r5, #-0]
    15a8:	726d745f 	rsbvc	r7, sp, #1593835520	; 0x5f000000
    15ac:	0100682e 	tsteq	r0, lr, lsr #16
    15b0:	78610000 	stmdavc	r1!, {}^	; <UNPREDICTABLE>
    15b4:	65645f70 	strbvs	r5, [r4, #-3952]!	; 0xf70
    15b8:	646e6570 	strbtvs	r6, [lr], #-1392	; 0x570
    15bc:	0200682e 	andeq	r6, r0, #3014656	; 0x2e0000
    15c0:	00000000 	andeq	r0, r0, r0
    15c4:	28400205 	stmdacs	r0, {r0, r2, r9}^
    15c8:	1103f000 	mrsne	pc, (UNDEF: 3)	; <UNPREDICTABLE>
    15cc:	7a031801 	bvc	c75d8 <__standby_start+0xc75d8>
    15d0:	312b342e 	teqcc	fp, lr, lsr #8
    15d4:	820c032b 	andhi	r0, ip, #-1409286144	; 0xac000000
    15d8:	2f2e7703 	svccs	0x002e7703
    15dc:	4b4b4b4b 	blmi	12d4310 <__standby_start+0x12d4310>
    15e0:	0f034d4b 	svceq	0x00034d4b
    15e4:	3064142e 	rsbcc	r1, r4, lr, lsr #8
    15e8:	032e0903 	teqeq	lr, #49152	; 0xc000
    15ec:	4b2f2e77 	blmi	bccfd0 <__standby_start+0xbccfd0>
    15f0:	4b4b4b4b 	blmi	12d4324 <__standby_start+0x12d4324>
    15f4:	2e0f034d 	cdpcs	3, 0, cr0, cr15, cr13, {2}
    15f8:	2c302c16 	ldccs	12, cr2, [r0], #-88	; 0xffffffa8
    15fc:	29512c30 	ldmdbcs	r1, {r4, r5, sl, fp, sp}^
    1600:	034d4b2f 	movteq	r4, #56111	; 0xdb2f
    1604:	33132e0f 	tstcc	r3, #240	; 0xf0
    1608:	2c2f4b29 	stccs	11, cr4, [pc], #-164	; 156c <__standby_start+0x156c>
    160c:	03312f2f 	teqeq	r1, #188	; 0xbc
    1610:	bb152e12 	bllt	54ce60 <__standby_start+0x54ce60>
    1614:	69694d68 	stmdbvs	r9!, {r3, r5, r6, r8, sl, fp, lr}^
    1618:	142e1203 	strtne	r1, [lr], #-515	; 0x203
    161c:	676969bb 			; <UNDEFINED> instruction: 0x676969bb
    1620:	142e1103 	strtne	r1, [lr], #-259	; 0x103
    1624:	3532296b 	ldrcc	r2, [r2, #-2411]!	; 0x96b
    1628:	2f2e7503 	svccs	0x002e7503
    162c:	2f2d3031 	svccs	0x002d3031
    1630:	0269672f 	rsbeq	r6, r9, #12320768	; 0xbc0000
    1634:	01010002 	tsteq	r1, r2
    1638:	000000b1 	strheq	r0, [r0], -r1
    163c:	00890002 	addeq	r0, r9, r2
    1640:	01020000 	mrseq	r0, (UNDEF: 2)
    1644:	000d0efb 	strdeq	r0, [sp], -fp
    1648:	01010101 	tsteq	r1, r1, lsl #2
    164c:	01000000 	mrseq	r0, (UNDEF: 0)
    1650:	61010000 	mrsvs	r0, (UNDEF: 1)
    1654:	2f686372 	svccs	0x00686372
    1658:	2f6d7261 	svccs	0x006d7261
    165c:	6863616d 	stmdavs	r3!, {r0, r2, r3, r5, r6, r8, sp, lr}^
    1660:	6e75732d 	cdpvs	3, 7, cr7, cr5, cr13, {1}
    1664:	702f6978 	eorvc	r6, pc, r8, ror r9	; <UNPREDICTABLE>
    1668:	74732f6d 	ldrbtvc	r2, [r3], #-3949	; 0xf6d
    166c:	62646e61 	rsbvs	r6, r4, #1552	; 0x610
    1670:	2f2e2f79 	svccs	0x002e2f79
    1674:	69002e2e 	stmdbvs	r0, {r1, r2, r3, r5, r9, sl, fp, sp}
    1678:	756c636e 	strbvc	r6, [ip, #-878]!	; 0x36e
    167c:	6c2f6564 	cfstr32vs	mvfx6, [pc], #-400	; 14f4 <__standby_start+0x14f4>
    1680:	78756e69 	ldmdavc	r5!, {r0, r3, r5, r6, r9, sl, fp, sp, lr}^
    1684:	776f702f 	strbvc	r7, [pc, -pc, lsr #32]!
    1688:	00007265 	andeq	r7, r0, r5, ror #4
    168c:	5f6d656d 	svcpl	0x006d656d
    1690:	74736d74 	ldrbtvc	r6, [r3], #-3444	; 0xd74
    1694:	632e706d 	teqvs	lr, #109	; 0x6d
    1698:	00000100 	andeq	r0, r0, r0, lsl #2
    169c:	745f6d70 	ldrbvc	r6, [pc], #-3440	; 16a4 <__standby_start+0x16a4>
    16a0:	73657079 	cmnvc	r5, #121	; 0x79
    16a4:	0100682e 	tsteq	r0, lr, lsr #16
    16a8:	656d0000 	strbvs	r0, [sp, #-0]!
    16ac:	6d745f6d 	ldclvs	15, cr5, [r4, #-436]!	; 0xfffffe4c
    16b0:	706d7473 	rsbvc	r7, sp, r3, ror r4
    16b4:	0100682e 	tsteq	r0, lr, lsr #16
    16b8:	78610000 	stmdavc	r1!, {}^	; <UNPREDICTABLE>
    16bc:	65645f70 	strbvs	r5, [r4, #-3952]!	; 0xf70
    16c0:	646e6570 	strbtvs	r6, [lr], #-1392	; 0x570
    16c4:	0200682e 	andeq	r6, r0, #3014656	; 0x2e0000
    16c8:	00000000 	andeq	r0, r0, r0
    16cc:	2a280205 	bcs	a01ee8 <__standby_start+0xa01ee8>
    16d0:	1103f000 	mrsne	pc, (UNDEF: 3)	; <UNPREDICTABLE>
    16d4:	312b1501 	teqcc	fp, r1, lsl #10
    16d8:	2a512b4d 	bcs	144c414 <__standby_start+0x144c414>
    16dc:	0f034d2f 	svceq	0x00034d2f
    16e0:	3064142e 	rsbcc	r1, r4, lr, lsr #8
    16e4:	4d2f2a32 	vstmdbmi	pc!, {s4-s53}
    16e8:	01000202 	tsteq	r0, r2, lsl #4
    16ec:	00019001 	andeq	r9, r1, r1
    16f0:	9b000200 	blls	1ef8 <__standby_start+0x1ef8>
    16f4:	02000000 	andeq	r0, r0, #0
    16f8:	0d0efb01 	vstreq	d15, [lr, #-4]
    16fc:	01010100 	mrseq	r0, (UNDEF: 17)
    1700:	00000001 	andeq	r0, r0, r1
    1704:	01000001 	tsteq	r0, r1
    1708:	68637261 	stmdavs	r3!, {r0, r5, r6, r9, ip, sp, lr}^
    170c:	6d72612f 	ldfvse	f6, [r2, #-188]!	; 0xffffff44
    1710:	63616d2f 	cmnvs	r1, #3008	; 0xbc0
    1714:	75732d68 	ldrbvc	r2, [r3, #-3432]!	; 0xd68
    1718:	2f69786e 	svccs	0x0069786e
    171c:	732f6d70 	teqvc	pc, #7168	; 0x1c00
    1720:	646e6174 	strbtvs	r6, [lr], #-372	; 0x174
    1724:	2e2f7962 	cdpcs	9, 2, cr7, cr15, cr2, {3}
    1728:	002e2e2f 	eoreq	r2, lr, pc, lsr #28
    172c:	6c636e69 	stclvs	14, cr6, [r3], #-420	; 0xfffffe5c
    1730:	2f656475 	svccs	0x00656475
    1734:	756e696c 	strbvc	r6, [lr, #-2412]!	; 0x96c
    1738:	6f702f78 	svcvs	0x00702f78
    173c:	00726577 	rsbseq	r6, r2, r7, ror r5
    1740:	6d656d00 	stclvs	13, cr6, [r5, #-0]
    1744:	6b6c635f 	blvs	1b1a4c8 <__standby_start+0x1b1a4c8>
    1748:	0100632e 	tsteq	r0, lr, lsr #6
    174c:	6d700000 	ldclvs	0, cr0, [r0, #-0]
    1750:	7079745f 	rsbsvc	r7, r9, pc, asr r4
    1754:	682e7365 	stmdavs	lr!, {r0, r2, r5, r6, r8, r9, ip, sp, lr}
    1758:	00000100 	andeq	r0, r0, r0, lsl #2
    175c:	5f6d656d 	svcpl	0x006d656d
    1760:	756d6363 	strbvc	r6, [sp, #-867]!	; 0x363
    1764:	6e75732d 	cdpvs	3, 7, cr7, cr5, cr13, {1}
    1768:	36776938 			; <UNDEFINED> instruction: 0x36776938
    176c:	682e3170 	stmdavs	lr!, {r4, r5, r6, r8, ip, sp}
    1770:	00000100 	andeq	r0, r0, r0, lsl #2
    1774:	5f6d656d 	svcpl	0x006d656d
    1778:	2e6b6c63 	cdpcs	12, 6, cr6, cr11, cr3, {3}
    177c:	00010068 	andeq	r0, r1, r8, rrx
    1780:	70786100 	rsbsvc	r6, r8, r0, lsl #2
    1784:	7065645f 	rsbvc	r6, r5, pc, asr r4
    1788:	2e646e65 	cdpcs	14, 6, cr6, cr4, cr5, {3}
    178c:	00020068 	andeq	r0, r2, r8, rrx
    1790:	05000000 	streq	r0, [r0, #-0]
    1794:	002a8002 	eoreq	r8, sl, r2
    1798:	011503f0 			; <UNDEFINED> instruction: 0x011503f0
    179c:	48682f13 	stmdami	r8!, {r0, r1, r4, r8, r9, sl, fp, sp}^
    17a0:	32302c30 	eorscc	r2, r0, #12288	; 0x3000
    17a4:	144a1103 	strbne	r1, [sl], #-259	; 0x103
    17a8:	4a24034b 	bmi	9024dc <__standby_start+0x9024dc>
    17ac:	4d2f2d13 	stcmi	13, cr2, [pc, #-76]!	; 1768 <__standby_start+0x1768>
    17b0:	7803522b 	stmdavc	r3, {r0, r1, r3, r5, r9, ip, lr}
    17b4:	4b2f312e 	blmi	bcdc74 <__standby_start+0xbcdc74>
    17b8:	2e12034d 	cdpcs	3, 1, cr0, cr2, cr13, {2}
    17bc:	76035214 			; <UNDEFINED> instruction: 0x76035214
    17c0:	0d03302e 	stceq	0, cr3, [r3, #-184]	; 0xffffff48
    17c4:	2e73032e 	cdpcs	3, 7, cr0, cr3, cr14, {1}
    17c8:	4d4b2f36 	stclmi	15, cr2, [fp, #-216]	; 0xffffff28
    17cc:	2f2e0f03 	svccs	0x002e0f03
    17d0:	03346a4e 	teqeq	r4, #319488	; 0x4e000
    17d4:	2f312e76 	svccs	0x00312e76
    17d8:	3083324b 	addcc	r3, r3, fp, asr #4
    17dc:	324b2d2f 	subcc	r2, fp, #3008	; 0xbc0
    17e0:	034a6c03 	movteq	r6, #44035	; 0xac03
    17e4:	0e032e15 	mcreq	14, 0, r2, cr3, cr5, {0}
    17e8:	302d134a 	eorcc	r1, sp, sl, asr #6
    17ec:	296b312d 	stmdbcs	fp!, {r0, r2, r3, r5, r8, ip, sp}^
    17f0:	2f2d2f2f 	svccs	0x002d2f2f
    17f4:	10034d2f 	andne	r4, r3, pc, lsr #26
    17f8:	4b811366 	blmi	fe046598 <__bss_end+0xe0427ec>
    17fc:	032e1003 	teqeq	lr, #3
    1800:	312b2e74 	teqcc	fp, r4, ror lr
    1804:	4f4b6a4c 	svcmi	0x004b6a4c
    1808:	134a0f03 	movtne	r0, #44803	; 0xaf03
    180c:	032f2e81 	teqeq	pc, #2064	; 0x810
    1810:	73032e0e 	movwvc	r2, #15886	; 0x3e0e
    1814:	30332f2e 	eorscc	r2, r3, lr, lsr #30
    1818:	2f2e7803 	svccs	0x002e7803
    181c:	03333033 	teqeq	r3, #51	; 0x33
    1820:	31014a0e 	tstcc	r1, lr, lsl #20
    1824:	2603a02c 	strcs	sl, [r3], -ip, lsr #32
    1828:	2e5d032e 	cdpcs	3, 5, cr0, cr13, cr14, {1}
    182c:	4b4a0c03 	blmi	1284840 <__standby_start+0x1284840>
    1830:	4b4b4b4b 	blmi	12d4564 <__standby_start+0x12d4564>
    1834:	4b4b4b4b 	blmi	12d4568 <__standby_start+0x12d4568>
    1838:	2d504b4b 	vldrcs	d20, [r0, #-300]	; 0xfffffed4
    183c:	83302f2f 	teqhi	r0, #188	; 0xbc
    1840:	2e0f0330 	mcrcs	3, 0, r0, cr15, cr0, {1}
    1844:	4b2f2d13 	blmi	bccc98 <__standby_start+0xbccc98>
    1848:	4a1e032d 	bmi	782504 <__standby_start+0x782504>
    184c:	2f2e6303 	svccs	0x002e6303
    1850:	4b4b4b4d 	blmi	12d458c <__standby_start+0x12d458c>
    1854:	4b4b4b4b 	blmi	12d4588 <__standby_start+0x12d4588>
    1858:	4b4b4b4b 	blmi	12d458c <__standby_start+0x12d458c>
    185c:	034a0e03 	movteq	r0, #44547	; 0xae03
    1860:	031a2e0f 	tsteq	sl, #240	; 0xf0
    1864:	4e362e78 	mrcmi	14, 1, r2, cr6, cr8, {3}
    1868:	0f03322a 	svceq	0x0003322a
    186c:	6676032e 	ldrbtvs	r0, [r6], -lr, lsr #6
    1870:	2f2c2d32 	svccs	0x002c2d32
    1874:	322a4b2f 	eorcc	r4, sl, #48128	; 0xbc00
    1878:	2e7a0334 	mrccs	3, 3, r0, cr10, cr4, {1}
    187c:	01000402 	tsteq	r0, r2, lsl #8
    1880:	00013901 	andeq	r3, r1, r1, lsl #18
    1884:	90000200 	andls	r0, r0, r0, lsl #4
    1888:	02000000 	andeq	r0, r0, #0
    188c:	0d0efb01 	vstreq	d15, [lr, #-4]
    1890:	01010100 	mrseq	r0, (UNDEF: 17)
    1894:	00000001 	andeq	r0, r0, r1
    1898:	01000001 	tsteq	r0, r1
    189c:	68637261 	stmdavs	r3!, {r0, r5, r6, r9, ip, sp, lr}^
    18a0:	6d72612f 	ldfvse	f6, [r2, #-188]!	; 0xffffff44
    18a4:	63616d2f 	cmnvs	r1, #3008	; 0xbc0
    18a8:	75732d68 	ldrbvc	r2, [r3, #-3432]!	; 0xd68
    18ac:	2f69786e 	svccs	0x0069786e
    18b0:	732f6d70 	teqvc	pc, #7168	; 0x1c00
    18b4:	646e6174 	strbtvs	r6, [lr], #-372	; 0x174
    18b8:	2e2f7962 	cdpcs	9, 2, cr7, cr15, cr2, {3}
    18bc:	6972612f 	ldmdbvs	r2!, {r0, r1, r2, r3, r5, r8, sp, lr}^
    18c0:	69006373 	stmdbvs	r0, {r0, r1, r4, r5, r6, r8, r9, sp, lr}
    18c4:	756c636e 	strbvc	r6, [ip, #-878]!	; 0x36e
    18c8:	6c2f6564 	cfstr32vs	mvfx6, [pc], #-400	; 1740 <__standby_start+0x1740>
    18cc:	78756e69 	ldmdavc	r5!, {r0, r3, r5, r6, r9, sl, fp, sp, lr}^
    18d0:	776f702f 	strbvc	r7, [pc, -pc, lsr #32]!
    18d4:	00007265 	andeq	r7, r0, r5, ror #4
    18d8:	6e617473 	mcrvs	4, 3, r7, cr1, cr3, {3}
    18dc:	5f796264 	svcpl	0x00796264
    18e0:	73697261 	cmnvc	r9, #268435462	; 0x10000006
    18e4:	00632e63 	rsbeq	r2, r3, r3, ror #28
    18e8:	61000001 	tstvs	r0, r1
    18ec:	6d705f77 	ldclvs	15, cr5, [r0, #-476]!	; 0xfffffe24
    18f0:	0200682e 	andeq	r6, r0, #3014656	; 0x2e0000
    18f4:	72610000 	rsbvc	r0, r1, #0
    18f8:	5f637369 	svcpl	0x00637369
    18fc:	7373656d 	cmnvc	r3, #457179136	; 0x1b400000
    1900:	73656761 	cmnvc	r5, #25427968	; 0x1840000
    1904:	0100682e 	tsteq	r0, lr, lsr #16
    1908:	78610000 	stmdavc	r1!, {}^	; <UNPREDICTABLE>
    190c:	65645f70 	strbvs	r5, [r4, #-3952]!	; 0xf70
    1910:	646e6570 	strbtvs	r6, [lr], #-1392	; 0x570
    1914:	0200682e 	andeq	r6, r0, #3014656	; 0x2e0000
    1918:	00000000 	andeq	r0, r0, r0
    191c:	2e240205 	cdpcs	2, 2, cr0, cr4, cr5, {0}
    1920:	1903f000 	stmdbne	r3, {ip, sp, lr, pc}
    1924:	302c1401 	eorcc	r1, ip, r1, lsl #8
    1928:	31313169 	teqcc	r1, r9, ror #2
    192c:	31304d31 	teqcc	r0, r1, lsr sp
    1930:	296b3031 	stmdbcs	fp!, {r0, r4, r5, ip, sp}^
    1934:	0b033130 	bleq	cddfc <__standby_start+0xcddfc>
    1938:	4b332e2e 	blmi	ccd1f8 <__standby_start+0xccd1f8>
    193c:	4f2d4f50 	svcmi	0x002d4f50
    1940:	32312f2a 	eorscc	r2, r1, #168	; 0xa8
    1944:	4a75034c 	bmi	1d4267c <__standby_start+0x1d4267c>
    1948:	2d302933 	ldccs	9, cr2, [r0, #-204]!	; 0xffffff34
    194c:	0334312f 	teqeq	r4, #-1073741813	; 0xc000000b
    1950:	14034a6d 	strne	r4, [r3], #-2669	; 0xa6d
    1954:	2e09032e 	cdpcs	3, 0, cr0, cr9, cr14, {1}
    1958:	332c6832 	teqcc	ip, #3276800	; 0x320000
    195c:	322c302f 	eorcc	r3, ip, #47	; 0x2f
    1960:	02004b68 	andeq	r4, r0, #106496	; 0x1a000
    1964:	00670104 	rsbeq	r0, r7, r4, lsl #2
    1968:	2d010402 	cfstrscs	mvf0, [r1, #-8]
    196c:	2d2f6d4d 	stccs	13, cr6, [pc, #-308]!	; 1840 <__standby_start+0x1840>
    1970:	33512a2f 	cmpcc	r1, #192512	; 0x2f000
    1974:	324a0903 	subcc	r0, sl, #49152	; 0xc000
    1978:	2b2f6850 	blcs	bdbac0 <__standby_start+0xbdbac0>
    197c:	694e2f34 	stmdbvs	lr, {r2, r4, r5, r8, r9, sl, fp, sp}^
    1980:	2c2f2f2d 	stccs	15, cr2, [pc], #-180	; 18d4 <__standby_start+0x18d4>
    1984:	04020030 	streq	r0, [r2], #-48	; 0x30
    1988:	02004b01 	andeq	r4, r0, #1024	; 0x400
    198c:	4d2d0104 	stfmis	f0, [sp, #-16]!
    1990:	2f2d2f6e 	svccs	0x002d2f6e
    1994:	03325229 	teqeq	r2, #-1879048190	; 0x90000002
    1998:	22032e67 	andcs	r2, r3, #1648	; 0x670
    199c:	4b332e66 	blmi	ccd33c <__standby_start+0xccd33c>
    19a0:	0b032c30 	bleq	cca68 <__standby_start+0xcca68>
    19a4:	2f2d2f2e 	svccs	0x002d2f2e
    19a8:	312b3167 	teqcc	fp, r7, ror #2
    19ac:	4a68034e 	bmi	1a026ec <__standby_start+0x1a026ec>
    19b0:	342e1803 	strtcc	r1, [lr], #-2051	; 0x803
    19b4:	2f2d2f45 	svccs	0x002d2f45
    19b8:	00040232 	andeq	r0, r4, r2, lsr r2
    19bc:	01b20101 			; <UNDEFINED> instruction: 0x01b20101
    19c0:	00020000 	andeq	r0, r2, r0
    19c4:	000000d6 	ldrdeq	r0, [r0], -r6
    19c8:	0efb0102 	cdpeq	1, 15, cr0, cr11, cr2, {0}
    19cc:	0101000d 	tsteq	r1, sp
    19d0:	00000101 	andeq	r0, r0, r1, lsl #2
    19d4:	00000100 	andeq	r0, r0, r0, lsl #2
    19d8:	63726101 	cmnvs	r2, #1073741824	; 0x40000000
    19dc:	72612f68 	rsbvc	r2, r1, #416	; 0x1a0
    19e0:	616d2f6d 	cmnvs	sp, sp, ror #30
    19e4:	732d6863 	teqvc	sp, #6488064	; 0x630000
    19e8:	69786e75 	ldmdbvs	r8!, {r0, r2, r4, r5, r6, r9, sl, fp, sp, lr}^
    19ec:	2f6d702f 	svccs	0x006d702f
    19f0:	6e617473 	mcrvs	4, 3, r7, cr1, cr3, {3}
    19f4:	2f796264 	svccs	0x00796264
    19f8:	72612f2e 	rsbvc	r2, r1, #184	; 0xb8
    19fc:	00637369 	rsbeq	r7, r3, r9, ror #6
    1a00:	68637261 	stmdavs	r3!, {r0, r5, r6, r9, ip, sp, lr}^
    1a04:	6d72612f 	ldfvse	f6, [r2, #-188]!	; 0xffffff44
    1a08:	63616d2f 	cmnvs	r1, #3008	; 0xbc0
    1a0c:	75732d68 	ldrbvc	r2, [r3, #-3432]!	; 0xd68
    1a10:	2f69786e 	svccs	0x0069786e
    1a14:	732f6d70 	teqvc	pc, #7168	; 0x1c00
    1a18:	646e6174 	strbtvs	r6, [lr], #-372	; 0x174
    1a1c:	2e2f7962 	cdpcs	9, 2, cr7, cr15, cr2, {3}
    1a20:	6972612f 	ldmdbvs	r2!, {r0, r1, r2, r3, r5, r8, sp, lr}^
    1a24:	2e2f6373 	mcrcs	3, 1, r6, cr15, cr3, {3}
    1a28:	2f2e2e2f 	svccs	0x002e2e2f
    1a2c:	69002e2e 	stmdbvs	r0, {r1, r2, r3, r5, r9, sl, fp, sp}
    1a30:	756c636e 	strbvc	r6, [ip, #-878]!	; 0x36e
    1a34:	6c2f6564 	cfstr32vs	mvfx6, [pc], #-400	; 18ac <__standby_start+0x18ac>
    1a38:	78756e69 	ldmdavc	r5!, {r0, r3, r5, r6, r9, sl, fp, sp, lr}^
    1a3c:	6972612f 	ldmdbvs	r2!, {r0, r1, r2, r3, r5, r8, sp, lr}^
    1a40:	00006373 	andeq	r6, r0, r3, ror r3
    1a44:	73697261 	cmnvc	r9, #268435462	; 0x10000006
    1a48:	77685f63 	strbvc	r5, [r8, -r3, ror #30]!
    1a4c:	6267736d 	rsbvs	r7, r7, #-1275068415	; 0xb4000001
    1a50:	632e786f 	teqvs	lr, #7274496	; 0x6f0000
    1a54:	00000100 	andeq	r0, r0, r0, lsl #2
    1a58:	745f6d70 	ldrbvc	r6, [pc], #-3440	; 1a60 <__standby_start+0x1a60>
    1a5c:	73657079 	cmnvc	r5, #121	; 0x79
    1a60:	0200682e 	andeq	r6, r0, #3014656	; 0x2e0000
    1a64:	72610000 	rsbvc	r0, r1, #0
    1a68:	5f637369 	svcpl	0x00637369
    1a6c:	7373656d 	cmnvc	r3, #457179136	; 0x1b400000
    1a70:	73656761 	cmnvc	r5, #25427968	; 0x1840000
    1a74:	0100682e 	tsteq	r0, lr, lsr #16
    1a78:	77680000 	strbvc	r0, [r8, -r0]!
    1a7c:	6267736d 	rsbvs	r7, r7, #-1275068415	; 0xb4000001
    1a80:	682e786f 	stmdavs	lr!, {r0, r1, r2, r3, r5, r6, fp, ip, sp, lr}
    1a84:	00000300 	andeq	r0, r0, r0, lsl #6
    1a88:	6e617473 	mcrvs	4, 3, r7, cr1, cr3, {3}
    1a8c:	5f796264 	svcpl	0x00796264
    1a90:	73697261 	cmnvc	r9, #268435462	; 0x10000006
    1a94:	2e695f63 	cdpcs	15, 6, cr5, cr9, cr3, {3}
    1a98:	00010068 	andeq	r0, r1, r8, rrx
    1a9c:	05000000 	streq	r0, [r0, #-0]
    1aa0:	00308c02 	eorseq	r8, r0, r2, lsl #24
    1aa4:	012d03f0 	strdeq	r0, [sp, -r0]!	; <UNPREDICTABLE>
    1aa8:	4a0e0314 	bmi	382700 <__standby_start+0x382700>
    1aac:	4a100314 	bmi	402704 <__standby_start+0x402704>
    1ab0:	2d322b15 	fldmdbxcs	r2!, {d2-d11}	;@ Deprecated
    1ab4:	00483031 	subeq	r3, r8, r1, lsr r0
    1ab8:	4c010402 	cfstrsmi	mvf0, [r1], {2}
    1abc:	682933a2 	stmdavs	r9!, {r1, r5, r7, r8, r9, ip, sp}
    1ac0:	01040200 	mrseq	r0, R12_usr
    1ac4:	034ca34d 	movteq	sl, #49997	; 0xc34d
    1ac8:	02006617 	andeq	r6, r0, #24117248	; 0x1700000
    1acc:	70030104 	andvc	r0, r3, r4, lsl #2
    1ad0:	4d84a34a 	stcmi	3, cr10, [r4, #296]	; 0x128
    1ad4:	2b158930 	blcs	563f9c <__standby_start+0x563f9c>
    1ad8:	04020031 	streq	r0, [r2], #-49	; 0x31
    1adc:	31da4c01 	bicscc	r4, sl, r1, lsl #24
    1ae0:	1203682b 	andne	r6, r3, #2818048	; 0x2b0000
    1ae4:	6672034a 	ldrbtvs	r0, [r2], -sl, asr #6
    1ae8:	034a0d03 	movteq	r0, #44291	; 0xad03
    1aec:	02002e73 	andeq	r2, r0, #1840	; 0x730
    1af0:	db2f0104 	blle	bc1f08 <__standby_start+0xbc1f08>
    1af4:	4b682b31 	blmi	1a0c7c0 <__standby_start+0x1a0c7c0>
    1af8:	154a1403 	strbne	r1, [sl, #-1027]	; 0x403
    1afc:	2d2f312b 	stfcss	f3, [pc, #-172]!	; 1a58 <__standby_start+0x1a58>
    1b00:	7a034f4b 	bvc	d5834 <__standby_start+0xd5834>
    1b04:	67674b2e 	strbvs	r4, [r7, -lr, lsr #22]!
    1b08:	4a0f034d 	bmi	3c2844 <__standby_start+0x3c2844>
    1b0c:	30312b15 	eorscc	r2, r1, r5, lsl fp
    1b10:	302b312c 	eorcc	r3, fp, ip, lsr #2
    1b14:	660f032f 	strvs	r0, [pc], -pc, lsr #6
    1b18:	0e03bd13 	mcreq	13, 0, fp, cr3, cr3, {0}
    1b1c:	322a164a 	eorcc	r1, sl, #77594624	; 0x4a00000
    1b20:	2f034b84 	svccs	0x00034b84
    1b24:	2e510366 	cdpcs	3, 5, cr0, cr1, cr6, {3}
    1b28:	4b2e2f03 	blmi	b8d73c <__standby_start+0xb8d73c>
    1b2c:	4a54032d 	bmi	15027e8 <__standby_start+0x15027e8>
    1b30:	6003314c 	andvs	r3, r3, ip, asr #2
    1b34:	00c3034a 	sbceq	r0, r3, sl, asr #6
    1b38:	4a690382 	bmi	1a42948 <__standby_start+0x1a42948>
    1b3c:	034a1603 	movteq	r1, #42499	; 0xa603
    1b40:	4b302e6a 	blmi	c0d4f0 <__standby_start+0xc0d4f0>
    1b44:	03661803 	cmneq	r6, #196608	; 0x30000
    1b48:	18032e68 	stmdane	r3, {r3, r5, r6, r9, sl, fp, sp}
    1b4c:	032d4b2e 	teqeq	sp, #47104	; 0xb800
    1b50:	312b4a6b 	teqcc	fp, fp, ror #20
    1b54:	49033130 	stmdbmi	r3, {r4, r5, r8, ip, sp}
    1b58:	823f034a 	eorshi	r0, pc, #671088641	; 0x28000001
    1b5c:	032e6603 	teqeq	lr, #3145728	; 0x300000
    1b60:	00136621 	andseq	r6, r3, r1, lsr #12
    1b64:	9f010402 	svcls	0x00010402
    1b68:	01040200 	mrseq	r0, R12_usr
    1b6c:	022f892b 	eoreq	r8, pc, #704512	; 0xac000
    1b70:	01010004 	tsteq	r1, r4
    1b74:	0000007d 	andeq	r0, r0, sp, ror r0
    1b78:	00500002 	subseq	r0, r0, r2
    1b7c:	01020000 	mrseq	r0, (UNDEF: 2)
    1b80:	000d0efb 	strdeq	r0, [sp], -fp
    1b84:	01010101 	tsteq	r1, r1, lsl #2
    1b88:	01000000 	mrseq	r0, (UNDEF: 0)
    1b8c:	61010000 	mrsvs	r0, (UNDEF: 1)
    1b90:	2f686372 	svccs	0x00686372
    1b94:	2f6d7261 	svccs	0x006d7261
    1b98:	6863616d 	stmdavs	r3!, {r0, r2, r3, r5, r6, r8, sp, lr}^
    1b9c:	6e75732d 	cdpvs	3, 7, cr7, cr5, cr13, {1}
    1ba0:	702f6978 	eorvc	r6, pc, r8, ror r9	; <UNPREDICTABLE>
    1ba4:	74732f6d 	ldrbtvc	r2, [r3], #-3949	; 0xf6d
    1ba8:	62646e61 	rsbvs	r6, r4, #1552	; 0x610
    1bac:	2f2e2f79 	svccs	0x002e2f79
    1bb0:	73697261 	cmnvc	r9, #268435462	; 0x10000006
    1bb4:	61000063 	tstvs	r0, r3, rrx
    1bb8:	63736972 	cmnvs	r3, #1867776	; 0x1c8000
    1bbc:	7377685f 	cmnvc	r7, #6225920	; 0x5f0000
    1bc0:	6c6e6970 	stclvs	9, cr6, [lr], #-448	; 0xfffffe40
    1bc4:	2e6b636f 	cdpcs	3, 6, cr6, cr11, cr15, {3}
    1bc8:	00010063 	andeq	r0, r1, r3, rrx
    1bcc:	05000000 	streq	r0, [r0, #-0]
    1bd0:	0033c402 	eorseq	ip, r3, r2, lsl #8
    1bd4:	012303f0 	strdeq	r0, [r3, -r0]!	; <UNPREDICTABLE>
    1bd8:	4a0e0314 	bmi	382830 <__standby_start+0x382830>
    1bdc:	4a0e0314 	bmi	382834 <__standby_start+0x382834>
    1be0:	04020001 	streq	r0, [r2], #-1
    1be4:	09038401 	stmdbeq	r3, {r0, sl, pc}
    1be8:	4a0e0366 	bmi	382988 <__standby_start+0x382988>
    1bec:	4d2b8514 	cfstr32mi	mvfx8, [fp, #-80]!	; 0xffffffb0
    1bf0:	01000202 	tsteq	r0, r2, lsl #4
    1bf4:	0000f001 	andeq	pc, r0, r1
    1bf8:	a2000200 	andge	r0, r0, #0
    1bfc:	02000000 	andeq	r0, r0, #0
    1c00:	0d0efb01 	vstreq	d15, [lr, #-4]
    1c04:	01010100 	mrseq	r0, (UNDEF: 17)
    1c08:	00000001 	andeq	r0, r0, r1
    1c0c:	01000001 	tsteq	r0, r1
    1c10:	68637261 	stmdavs	r3!, {r0, r5, r6, r9, ip, sp, lr}^
    1c14:	6d72612f 	ldfvse	f6, [r2, #-188]!	; 0xffffff44
    1c18:	63616d2f 	cmnvs	r1, #3008	; 0xbc0
    1c1c:	75732d68 	ldrbvc	r2, [r3, #-3432]!	; 0xd68
    1c20:	2f69786e 	svccs	0x0069786e
    1c24:	732f6d70 	teqvc	pc, #7168	; 0x1c00
    1c28:	646e6174 	strbtvs	r6, [lr], #-372	; 0x174
    1c2c:	2e2f7962 	cdpcs	9, 2, cr7, cr15, cr2, {3}
    1c30:	6972612f 	ldmdbvs	r2!, {r0, r1, r2, r3, r5, r8, sp, lr}^
    1c34:	69006373 	stmdbvs	r0, {r0, r1, r4, r5, r6, r8, r9, sp, lr}
    1c38:	756c636e 	strbvc	r6, [ip, #-878]!	; 0x36e
    1c3c:	6c2f6564 	cfstr32vs	mvfx6, [pc], #-400	; 1ab4 <__standby_start+0x1ab4>
    1c40:	78756e69 	ldmdavc	r5!, {r0, r3, r5, r6, r9, sl, fp, sp, lr}^
    1c44:	776f702f 	strbvc	r7, [pc, -pc, lsr #32]!
    1c48:	00007265 	andeq	r7, r0, r5, ror #4
    1c4c:	73697261 	cmnvc	r9, #268435462	; 0x10000006
    1c50:	656d5f63 	strbvs	r5, [sp, #-3939]!	; 0xf63
    1c54:	67617373 			; <UNDEFINED> instruction: 0x67617373
    1c58:	616d5f65 	cmnvs	sp, r5, ror #30
    1c5c:	6567616e 	strbvs	r6, [r7, #-366]!	; 0x16e
    1c60:	00632e72 	rsbeq	r2, r3, r2, ror lr
    1c64:	61000001 	tstvs	r0, r1
    1c68:	63736972 	cmnvs	r3, #1867776	; 0x1c8000
    1c6c:	73656d5f 	cmnvc	r5, #6080	; 0x17c0
    1c70:	65676173 	strbvs	r6, [r7, #-371]!	; 0x173
    1c74:	00682e73 	rsbeq	r2, r8, r3, ror lr
    1c78:	61000001 	tstvs	r0, r1
    1c7c:	645f7078 	ldrbvs	r7, [pc], #-120	; 1c84 <__standby_start+0x1c84>
    1c80:	6e657065 	cdpvs	0, 6, cr7, cr5, cr5, {3}
    1c84:	00682e64 	rsbeq	r2, r8, r4, ror #28
    1c88:	73000002 	movwvc	r0, #2
    1c8c:	646e6174 	strbtvs	r6, [lr], #-372	; 0x174
    1c90:	615f7962 	cmpvs	pc, r2, ror #18
    1c94:	63736972 	cmnvs	r3, #1867776	; 0x1c8000
    1c98:	682e695f 	stmdavs	lr!, {r0, r1, r2, r3, r4, r6, r8, fp, sp, lr}
    1c9c:	00000100 	andeq	r0, r0, r0, lsl #2
    1ca0:	02050000 	andeq	r0, r5, #0
    1ca4:	f0003418 			; <UNDEFINED> instruction: 0xf0003418
    1ca8:	14012803 	strne	r2, [r1], #-2051	; 0x803
    1cac:	4d2f2aa2 	vstmdbmi	pc!, {s4-s165}
    1cb0:	142e0e03 	strtne	r0, [lr], #-3587	; 0xe03
    1cb4:	334a0f03 	movtcc	r0, #44803	; 0xaf03
    1cb8:	4b4f3329 	blmi	13ce964 <__standby_start+0x13ce964>
    1cbc:	7703fa67 	strvc	pc, [r3, -r7, ror #20]
    1cc0:	4a0d032e 	bmi	342980 <__standby_start+0x342980>
    1cc4:	31827403 	orrcc	r7, r2, r3, lsl #8
    1cc8:	032e0903 	teqeq	lr, #49152	; 0xc000
    1ccc:	12032e77 	andne	r2, r3, #1904	; 0x770
    1cd0:	2e77032e 	cdpcs	3, 7, cr0, cr7, cr14, {1}
    1cd4:	2f2b3136 	svccs	0x002b3136
    1cd8:	4a100330 	bmi	4029a0 <__standby_start+0x4029a0>
    1cdc:	4b312b31 	blmi	c4c9a8 <__standby_start+0xc4c9a8>
    1ce0:	2d302d4c 	ldccs	13, cr2, [r0, #-304]!	; 0xfffffed0
    1ce4:	01000202 	tsteq	r0, r2, lsl #4
    1ce8:	00011f01 	andeq	r1, r1, r1, lsl #30
    1cec:	7d000200 	sfmvc	f0, 4, [r0, #-0]
    1cf0:	02000000 	andeq	r0, r0, #0
    1cf4:	0d0efb01 	vstreq	d15, [lr, #-4]
    1cf8:	01010100 	mrseq	r0, (UNDEF: 17)
    1cfc:	00000001 	andeq	r0, r0, r1
    1d00:	01000001 	tsteq	r0, r1
    1d04:	68637261 	stmdavs	r3!, {r0, r5, r6, r9, ip, sp, lr}^
    1d08:	6d72612f 	ldfvse	f6, [r2, #-188]!	; 0xffffff44
    1d0c:	63616d2f 	cmnvs	r1, #3008	; 0xbc0
    1d10:	75732d68 	ldrbvc	r2, [r3, #-3432]!	; 0xd68
    1d14:	2f69786e 	svccs	0x0069786e
    1d18:	732f6d70 	teqvc	pc, #7168	; 0x1c00
    1d1c:	646e6174 	strbtvs	r6, [lr], #-372	; 0x174
    1d20:	2e2f7962 	cdpcs	9, 2, cr7, cr15, cr2, {3}
    1d24:	002e2e2f 	eoreq	r2, lr, pc, lsr #28
    1d28:	6c636e69 	stclvs	14, cr6, [r3], #-420	; 0xfffffe5c
    1d2c:	2f656475 	svccs	0x00656475
    1d30:	756e696c 	strbvc	r6, [lr, #-2412]!	; 0x96c
    1d34:	6f702f78 	svcvs	0x00702f78
    1d38:	00726577 	rsbseq	r6, r2, r7, ror r5
    1d3c:	6d656d00 	stclvs	13, cr6, [r5, #-0]
    1d40:	7377685f 	cmnvc	r7, #6225920	; 0x5f0000
    1d44:	6c6e6970 	stclvs	9, cr6, [lr], #-448	; 0xfffffe40
    1d48:	2e6b636f 	cdpcs	3, 6, cr6, cr11, cr15, {3}
    1d4c:	00010063 	andeq	r0, r1, r3, rrx
    1d50:	5f6d7000 	svcpl	0x006d7000
    1d54:	65707974 	ldrbvs	r7, [r0, #-2420]!	; 0x974
    1d58:	00682e73 	rsbeq	r2, r8, r3, ror lr
    1d5c:	61000001 	tstvs	r0, r1
    1d60:	645f7078 	ldrbvs	r7, [pc], #-120	; 1d68 <__standby_start+0x1d68>
    1d64:	6e657065 	cdpvs	0, 6, cr7, cr5, cr5, {3}
    1d68:	00682e64 	rsbeq	r2, r8, r4, ror #28
    1d6c:	00000002 	andeq	r0, r0, r2
    1d70:	08020500 	stmdaeq	r2, {r8, sl}
    1d74:	03f00035 	mvnseq	r0, #53	; 0x35
    1d78:	150100c7 	strne	r0, [r1, #-199]	; 0xc7
    1d7c:	4e33302c 	cdpmi	0, 3, cr3, cr3, cr12, {1}
    1d80:	03694b2a 	cmneq	r9, #43008	; 0xa800
    1d84:	b5032e0e 	strlt	r2, [r3, #-3598]	; 0xe0e
    1d88:	d3032e7f 	movwle	r2, #15999	; 0x3e7f
    1d8c:	31474a00 	cmpcc	r7, r0, lsl #20
    1d90:	9b693147 	blls	1a4e2b4 <__standby_start+0x1a4e2b4>
    1d94:	03660c03 	cmneq	r6, #768	; 0x300
    1d98:	034a7fbf 	movteq	r7, #44991	; 0xafbf
    1d9c:	4f4b2e3b 	svcmi	0x004b2e3b
    1da0:	660e032f 	strvs	r0, [lr], -pc, lsr #6
    1da4:	7fae0314 	svcvc	0x00ae0314
    1da8:	00d2032e 	sbcseq	r0, r2, lr, lsr #6
    1dac:	7fae032e 	svcvc	0x00ae032e
    1db0:	00d20366 	sbcseq	r0, r2, r6, ror #6
    1db4:	7fae032e 	svcvc	0x00ae032e
    1db8:	00d2032e 	sbcseq	r0, r2, lr, lsr #6
    1dbc:	7fae032e 	svcvc	0x00ae032e
    1dc0:	00d8032e 	sbcseq	r0, r8, lr, lsr #6
    1dc4:	4a0e032e 	bmi	382a84 <__standby_start+0x382a84>
    1dc8:	017efc03 	cmneq	lr, r3, lsl #24
    1dcc:	4a018c03 	bmi	64de0 <__standby_start+0x64de0>
    1dd0:	3163312b 	cmncc	r3, fp, lsr #2
    1dd4:	0c039b69 	stceq	11, cr9, [r3], {105}	; 0x69
    1dd8:	7f860366 	svcvc	0x00860366
    1ddc:	00f5034a 	rscseq	r0, r5, sl, asr #6
    1de0:	032f4f2e 	teqeq	pc, #184	; 0xb8
    1de4:	03144a0e 	tsteq	r4, #57344	; 0xe000
    1de8:	032e7ef5 	teqeq	lr, #3920	; 0xf50
    1dec:	032e018b 	teqeq	lr, #-1073741790	; 0xc0000022
    1df0:	03667ef5 	cmneq	r6, #3920	; 0xf50
    1df4:	032e018b 	teqeq	lr, #-1073741790	; 0xc0000022
    1df8:	032e7ef5 	teqeq	lr, #3920	; 0xf50
    1dfc:	032e018b 	teqeq	lr, #-1073741790	; 0xc0000022
    1e00:	032e7ef5 	teqeq	lr, #3920	; 0xf50
    1e04:	022e0191 	eoreq	r0, lr, #1073741860	; 0x40000024
    1e08:	01010004 	tsteq	r1, r4

Disassembly of section .debug_str:

00000000 <.debug_str>:
       0:	41435f49 	cmpmi	r3, r9, asr #30
       4:	5f454843 	svcpl	0x00454843
       8:	5353494d 	cmppl	r3, #1261568	; 0x134000
       c:	544e4900 	strbpl	r4, [lr], #-2304	; 0x900
      10:	554f535f 	strbpl	r5, [pc, #-863]	; fffffcb9 <__bss_end+0xfffbf0d>
      14:	5f454352 	svcpl	0x00454352
      18:	52414c41 	subpl	r4, r1, #16640	; 0x4100
      1c:	6564004d 	strbvs	r0, [r4, #-77]!	; 0x4d
      20:	5f677562 	svcpl	0x00677562
      24:	6b73616d 	blvs	1cd85e0 <__standby_start+0x1cd85e0>
      28:	726f6e00 	rsbvc	r6, pc, #0
      2c:	5f6c616d 	svcpl	0x006c616d
      30:	6e617473 	mcrvs	4, 3, r7, cr1, cr3, {3}
      34:	5f796264 	svcpl	0x00796264
      38:	61726170 	cmnvs	r2, r0, ror r1
      3c:	544e4900 	strbpl	r4, [lr], #-2304	; 0x900
      40:	554f535f 	strbpl	r5, [pc, #-863]	; fffffce9 <__bss_end+0xfffbf3d>
      44:	5f454352 	svcpl	0x00454352
      48:	4f425355 	svcmi	0x00425355
      4c:	30494348 	subcc	r4, r9, r8, asr #6
      50:	544e4900 	strbpl	r4, [lr], #-2304	; 0x900
      54:	554f535f 	strbpl	r5, [pc, #-863]	; fffffcfd <__bss_end+0xfffbf51>
      58:	5f454352 	svcpl	0x00454352
      5c:	4f425355 	svcmi	0x00425355
      60:	31494348 	cmpcc	r9, r8, asr #6
      64:	544e4900 	strbpl	r4, [lr], #-2304	; 0x900
      68:	554f535f 	strbpl	r5, [pc, #-863]	; fffffd11 <__bss_end+0xfffbf65>
      6c:	5f454352 	svcpl	0x00454352
      70:	4f425355 	svcmi	0x00425355
      74:	32494348 	subcc	r4, r9, #536870913	; 0x20000001
      78:	63616600 	cmnvs	r1, #0
      7c:	32726f74 	rsbscc	r6, r2, #464	; 0x1d0
      80:	63616600 	cmnvs	r1, #0
      84:	33726f74 	cmncc	r2, #464	; 0x1d0
      88:	63616600 	cmnvs	r1, #0
      8c:	34726f74 	ldrbtcc	r6, [r2], #-3956	; 0xf74
      90:	72777000 	rsbsvc	r7, r7, #0
      94:	5f6d645f 	svcpl	0x006d645f
      98:	74617473 	strbtvc	r7, [r1], #-1139	; 0x473
      9c:	00745f65 	rsbseq	r5, r4, r5, ror #30
      a0:	535f4d50 	cmppl	pc, #5120	; 0x1400
      a4:	444e4154 	strbmi	r4, [lr], #-340	; 0x154
      a8:	455f5942 	ldrbmi	r5, [pc, #-2370]	; fffff76e <__bss_end+0xfffb9c2>
      ac:	4c42414e 	stfmie	f4, [r2], {78}	; 0x4e
      b0:	544a5f45 	strbpl	r5, [sl], #-3909	; 0xf45
      b4:	6f004741 	svcvs	0x00004741
      b8:	655f6373 	ldrbvs	r6, [pc, #-883]	; fffffd4d <__bss_end+0xfffbfa1>
      bc:	4e49006e 	cdpmi	0, 4, cr0, cr9, cr14, {3}
      c0:	4f535f54 	svcmi	0x00535f54
      c4:	45435255 	strbmi	r5, [r3, #-597]	; 0x255
      c8:	4253555f 	subsmi	r5, r3, #398458880	; 0x17c00000
      cc:	0047544f 	subeq	r5, r7, pc, asr #8
      d0:	735f6f69 	cmpvc	pc, #420	; 0x1a4
      d4:	65746174 	ldrbvs	r6, [r4, #-372]!	; 0x174
      d8:	6e6f635f 	mcrvs	3, 3, r6, cr15, cr15, {2}
      dc:	00676966 	rsbeq	r6, r7, r6, ror #18
      e0:	73625f5f 	cmnvc	r2, #380	; 0x17c
      e4:	6e655f73 	mcrvs	15, 3, r5, cr5, cr3, {3}
      e8:	5f640064 	svcpl	0x00640064
      ec:	68636163 	stmdavs	r3!, {r0, r1, r5, r6, r8, sp, lr}^
      f0:	696d5f65 	stmdbvs	sp!, {r0, r2, r5, r6, r8, r9, sl, fp, ip, lr}^
      f4:	655f7373 	ldrbvs	r7, [pc, #-883]	; fffffd89 <__bss_end+0xfffbfdd>
      f8:	7300646e 	movwvc	r6, #1134	; 0x46e
      fc:	6d5f7379 	ldclvs	3, cr7, [pc, #-484]	; ffffff20 <__bss_end+0xfffc174>
     100:	006b7361 	rsbeq	r7, fp, r1, ror #6
     104:	5f544e49 	svcpl	0x00544e49
     108:	52554f53 	subspl	r4, r5, #332	; 0x14c
     10c:	475f4543 	ldrbmi	r4, [pc, -r3, asr #10]
     110:	414f4950 	cmpmi	pc, r0, asr r9	; <UNPREDICTABLE>
     114:	544e4900 	strbpl	r4, [lr], #-2304	; 0x900
     118:	554f535f 	strbpl	r5, [pc, #-863]	; fffffdc1 <__bss_end+0xfffc015>
     11c:	5f454352 	svcpl	0x00454352
     120:	4f495047 	svcmi	0x00495047
     124:	4e490042 	cdpmi	0, 4, cr0, cr9, cr2, {2}
     128:	4f535f54 	svcmi	0x00535f54
     12c:	45435255 	strbmi	r5, [r3, #-597]	; 0x255
     130:	4950475f 	ldmdbmi	r0, {r0, r1, r2, r3, r4, r6, r8, r9, sl, lr}^
     134:	4900434f 	stmdbmi	r0, {r0, r1, r2, r3, r6, r8, r9, lr}
     138:	535f544e 	cmppl	pc, #1308622848	; 0x4e000000
     13c:	4352554f 	cmpmi	r2, #331350016	; 0x13c00000
     140:	50475f45 	subpl	r5, r7, r5, asr #30
     144:	00444f49 	subeq	r4, r4, r9, asr #30
     148:	5f544e49 	svcpl	0x00544e49
     14c:	52554f53 	subspl	r4, r5, #332	; 0x14c
     150:	475f4543 	ldrbmi	r4, [pc, -r3, asr #10]
     154:	454f4950 	strbmi	r4, [pc, #-2384]	; fffff80c <__bss_end+0xfffba60>
     158:	544e4900 	strbpl	r4, [lr], #-2304	; 0x900
     15c:	554f535f 	strbpl	r5, [pc, #-863]	; fffffe05 <__bss_end+0xfffc059>
     160:	5f454352 	svcpl	0x00454352
     164:	4f495047 	svcmi	0x00495047
     168:	4e490046 	cdpmi	0, 4, cr0, cr9, cr6, {2}
     16c:	4f535f54 	svcmi	0x00535f54
     170:	45435255 	strbmi	r5, [r3, #-597]	; 0x255
     174:	4950475f 	ldmdbmi	r0, {r0, r1, r2, r3, r4, r6, r8, r9, sl, lr}^
     178:	4900474f 	stmdbmi	r0, {r0, r1, r2, r3, r6, r8, r9, sl, lr}
     17c:	535f544e 	cmppl	pc, #1308622848	; 0x4e000000
     180:	4352554f 	cmpmi	r2, #331350016	; 0x13c00000
     184:	50475f45 	subpl	r5, r7, r5, asr #30
     188:	00484f49 	subeq	r4, r8, r9, asr #30
     18c:	5f544e49 	svcpl	0x00544e49
     190:	52554f53 	subspl	r4, r5, #332	; 0x14c
     194:	475f4543 	ldrbmi	r4, [pc, -r3, asr #10]
     198:	494f4950 	stmdbmi	pc, {r4, r6, r8, fp, lr}^	; <UNPREDICTABLE>
     19c:	544e4900 	strbpl	r4, [lr], #-2304	; 0x900
     1a0:	554f535f 	strbpl	r5, [pc, #-863]	; fffffe49 <__bss_end+0xfffc09d>
     1a4:	5f454352 	svcpl	0x00454352
     1a8:	4f495047 	svcmi	0x00495047
     1ac:	4d50004a 	ldclmi	0, cr0, [r0, #-296]	; 0xfffffed8
     1b0:	4154535f 	cmpmi	r4, pc, asr r3
     1b4:	5942444e 	stmdbpl	r2, {r1, r2, r3, r6, sl, lr}^
     1b8:	4952505f 	ldmdbmi	r2, {r0, r1, r2, r3, r4, r6, ip, lr}^
     1bc:	505f544e 	subspl	r5, pc, lr, asr #8
     1c0:	0054524f 	subseq	r5, r4, pc, asr #4
     1c4:	5f544e49 	svcpl	0x00544e49
     1c8:	52554f53 	subspl	r4, r5, #332	; 0x14c
     1cc:	545f4543 	ldrbpl	r4, [pc], #-1347	; 1d4 <__standby_start+0x1d4>
     1d0:	52454d49 	subpl	r4, r5, #4672	; 0x1240
     1d4:	4e490030 	mcrmi	0, 2, r0, cr9, cr0, {1}
     1d8:	4f535f54 	svcmi	0x00535f54
     1dc:	45435255 	strbmi	r5, [r3, #-597]	; 0x255
     1e0:	4d49545f 	cfstrdmi	mvd5, [r9, #-380]	; 0xfffffe84
     1e4:	00315245 	eorseq	r5, r1, r5, asr #4
     1e8:	535f4d50 	cmppl	pc, #5120	; 0x1400
     1ec:	444e4154 	strbmi	r4, [lr], #-340	; 0x154
     1f0:	505f5942 	subspl	r5, pc, r2, asr #18
     1f4:	544e4952 	strbpl	r4, [lr], #-2386	; 0x952
     1f8:	5345525f 	movtpl	r5, #21087	; 0x525f
     1fc:	5f454d55 	svcpl	0x00454d55
     200:	535f4f49 	cmppl	pc, #292	; 0x124
     204:	55544154 	ldrbpl	r4, [r4, #-340]	; 0x154
     208:	61700053 	cmnvs	r0, r3, asr r0
     20c:	00726464 	rsbseq	r6, r2, r4, ror #8
     210:	5f6c6c70 	svcpl	0x006c6c70
     214:	6e616863 	cdpvs	8, 6, cr6, cr1, cr3, {3}
     218:	73006567 	movwvc	r6, #1383	; 0x567
     21c:	695f636f 	ldmdbvs	pc, {r0, r1, r2, r3, r5, r6, r8, r9, sp, lr}^	; <UNPREDICTABLE>
     220:	4e490064 	cdpmi	0, 4, cr0, cr9, cr4, {3}
     224:	4f535f54 	svcmi	0x00535f54
     228:	45435255 	strbmi	r5, [r3, #-597]	; 0x255
     22c:	5458455f 	ldrbpl	r4, [r8], #-1375	; 0x55f
     230:	00494d4e 	subeq	r4, r9, lr, asr #26
     234:	5f637263 	svcpl	0x00637263
     238:	6c006e65 	stcvs	14, cr6, [r0], {101}	; 0x65
     23c:	20676e6f 	rsbcs	r6, r7, pc, ror #28
     240:	676e6f6c 	strbvs	r6, [lr, -ip, ror #30]!
     244:	736e7520 	cmnvc	lr, #134217728	; 0x8000000
     248:	656e6769 	strbvs	r6, [lr, #-1897]!	; 0x769
     24c:	6e692064 	cdpvs	0, 6, cr2, cr9, cr4, {3}
     250:	5f440074 	svcpl	0x00440074
     254:	48434143 	stmdami	r3, {r0, r1, r6, r8, lr}^
     258:	494d5f45 	stmdbmi	sp, {r0, r2, r6, r8, r9, sl, fp, ip, lr}^
     25c:	63005353 	movwvs	r5, #851	; 0x353
     260:	746e756f 	strbtvc	r7, [lr], #-1391	; 0x56f
     264:	745f7265 	ldrbvc	r7, [pc], #-613	; 26c <__standby_start+0x26c>
     268:	5f657079 	svcpl	0x00657079
     26c:	77610065 	strbvc	r0, [r1, -r5, rrx]!
     270:	5f6d705f 	svcpl	0x006d705f
     274:	6f666e69 	svcvs	0x00666e69
     278:	545f4400 	ldrbpl	r4, [pc], #-1024	; 280 <__standby_start+0x280>
     27c:	4d5f424c 	lfmmi	f4, 2, [pc, #-304]	; 154 <__standby_start+0x154>
     280:	00535349 	subseq	r5, r3, r9, asr #6
     284:	756c6176 	strbvc	r6, [ip, #-374]!	; 0x176
     288:	75620065 	strbvc	r0, [r2, #-101]!	; 0x65
     28c:	61665f73 	smcvs	26099	; 0x65f3
     290:	726f7463 	rsbvc	r7, pc, #1660944384	; 0x63000000
     294:	78657000 	stmdavc	r5!, {ip, sp, lr}^
     298:	646e6574 	strbtvs	r6, [lr], #-1396	; 0x574
     29c:	735f6465 	cmpvc	pc, #1694498816	; 0x65000000
     2a0:	646e6174 	strbtvs	r6, [lr], #-372	; 0x174
     2a4:	50007962 	andpl	r7, r0, r2, ror #18
     2a8:	54535f4d 	ldrbpl	r5, [r3], #-3917	; 0xf4d
     2ac:	42444e41 	submi	r4, r4, #1040	; 0x410
     2b0:	52505f59 	subspl	r5, r0, #356	; 0x164
     2b4:	5f544e49 	svcpl	0x00544e49
     2b8:	535f4f49 	cmppl	pc, #292	; 0x124
     2bc:	55544154 	ldrbpl	r4, [r4, #-340]	; 0x154
     2c0:	4e490053 	mcrmi	0, 2, r0, cr9, cr3, {2}
     2c4:	4f535f54 	svcmi	0x00535f54
     2c8:	45435255 	strbmi	r5, [r3, #-597]	; 0x255
     2cc:	3052495f 	subscc	r4, r2, pc, asr r9
     2d0:	544e4900 	strbpl	r4, [lr], #-2304	; 0x900
     2d4:	554f535f 	strbpl	r5, [pc, #-863]	; ffffff7d <__bss_end+0xfffc1d1>
     2d8:	5f454352 	svcpl	0x00454352
     2dc:	00315249 	eorseq	r5, r1, r9, asr #4
     2e0:	74696e69 	strbtvc	r6, [r9], #-3689	; 0xe69
     2e4:	6c6c705f 	stclvs	0, cr7, [ip], #-380	; 0xfffffe84
     2e8:	7369645f 	cmnvc	r9, #1593835520	; 0x5f000000
     2ec:	756d6d00 	strbvc	r6, [sp, #-3328]!	; 0xd00
     2f0:	6361625f 	cmnvs	r1, #-268435451	; 0xf0000005
     2f4:	0070756b 	rsbseq	r7, r0, fp, ror #10
     2f8:	5f737562 	svcpl	0x00737562
     2fc:	61726170 	cmnvs	r2, r0, ror r1
     300:	7000745f 	andvc	r7, r0, pc, asr r4
     304:	705f6c6c 	subsvc	r6, pc, ip, ror #24
     308:	00617261 	rsbeq	r7, r1, r1, ror #4
     30c:	68636163 	stmdavs	r3!, {r0, r1, r5, r6, r8, sp, lr}^
     310:	6f635f65 	svcvs	0x00635f65
     314:	5f746e75 	svcpl	0x00746e75
     318:	00746567 	rsbseq	r6, r4, r7, ror #10
     31c:	73625f5f 	cmnvc	r2, #380	; 0x17c
     320:	74735f73 	ldrbtvc	r5, [r3], #-3955	; 0xf73
     324:	00747261 	rsbseq	r7, r4, r1, ror #4
     328:	5f444456 	svcpl	0x00444456
     32c:	5f555047 	svcpl	0x00555047
     330:	00544942 	subseq	r4, r4, r2, asr #18
     334:	5f444456 	svcpl	0x00444456
     338:	42555043 	subsmi	r5, r5, #67	; 0x43
     33c:	5449425f 	strbpl	r4, [r9], #-607	; 0x25f
     340:	5f4d5000 	svcpl	0x004d5000
     344:	4e415453 	mcrmi	4, 2, r5, cr1, cr3, {2}
     348:	5f594244 	svcpl	0x00594244
     34c:	4e495250 	mcrmi	2, 2, r5, cr9, cr0, {2}
     350:	54475f54 	strbpl	r5, [r7], #-3924	; 0xf54
     354:	5f535542 	svcpl	0x00535542
     358:	00474552 	subeq	r4, r7, r2, asr r5
     35c:	535f4d50 	cmppl	pc, #5120	; 0x1400
     360:	444e4154 	strbmi	r4, [lr], #-340	; 0x154
     364:	505f5942 	subspl	r5, pc, r2, asr #18
     368:	544e4952 	strbpl	r4, [lr], #-2386	; 0x952
     36c:	4154535f 	cmpmi	r4, pc, asr r3
     370:	5942444e 	stmdbpl	r2, {r1, r2, r3, r6, sl, lr}^
     374:	61747300 	cmnvs	r4, r0, lsl #6
     378:	7962646e 	stmdbvc	r2!, {r1, r2, r3, r5, r6, sl, sp, lr}^
     37c:	6b6c635f 	blvs	1b19100 <__standby_start+0x1b19100>
     380:	6c6c705f 	stclvs	0, cr7, [ip], #-380	; 0xfffffe84
     384:	616e6531 	cmnvs	lr, r1, lsr r5
     388:	00656c62 	rsbeq	r6, r5, r2, ror #24
     38c:	5f657270 	svcpl	0x00657270
     390:	00766964 	rsbseq	r6, r6, r4, ror #18
     394:	78757063 	ldmdavc	r5!, {r0, r1, r5, r6, ip, sp, lr}^
     398:	6970675f 	ldmdbvs	r0!, {r0, r1, r2, r3, r4, r6, r8, r9, sl, sp, lr}^
     39c:	625f676f 	subsvs	r6, pc, #29097984	; 0x1bc0000
     3a0:	616d7469 	cmnvs	sp, r9, ror #8
     3a4:	5f690070 	svcpl	0x00690070
     3a8:	68636163 	stmdavs	r3!, {r0, r1, r5, r6, r8, sp, lr}^
     3ac:	696d5f65 	stmdbvs	sp!, {r0, r2, r5, r6, r8, r9, sl, fp, ip, lr}^
     3b0:	655f7373 	ldrbvs	r7, [pc, #-883]	; 45 <__standby_start+0x45>
     3b4:	7300646e 	movwvc	r6, #1134	; 0x46e
     3b8:	645f636f 	ldrbvs	r6, [pc], #-879	; 3c0 <__standby_start+0x3c0>
     3bc:	5f6d6172 	svcpl	0x006d6172
     3c0:	74617473 	strbtvc	r7, [r1], #-1139	; 0x473
     3c4:	61620065 	cmnvs	r2, r5, rrx
     3c8:	70756b63 	rsbsvc	r6, r5, r3, ror #22
     3cc:	7563635f 	strbvc	r6, [r3, #-863]!	; 0x35f
     3d0:	76696400 	strbtvc	r6, [r9], -r0, lsl #8
     3d4:	7461725f 	strbtvc	r7, [r1], #-607	; 0x25f
     3d8:	73006f69 	movwvc	r6, #3945	; 0xf69
     3dc:	695f636f 	ldmdbvs	pc, {r0, r1, r2, r3, r5, r6, r8, r9, sp, lr}^	; <UNPREDICTABLE>
     3e0:	61705f6f 	cmnvs	r0, pc, ror #30
     3e4:	56006172 			; <UNDEFINED> instruction: 0x56006172
     3e8:	435f4444 	cmpmi	pc, #1140850688	; 0x44000000
     3ec:	5f535550 	svcpl	0x00535550
     3f0:	00544942 	subseq	r4, r4, r2, asr #18
     3f4:	20554e47 	subscs	r4, r5, r7, asr #28
     3f8:	2e342043 	cdpcs	0, 3, cr2, cr4, cr3, {2}
     3fc:	20332e36 	eorscs	r2, r3, r6, lsr lr
     400:	32313032 	eorscc	r3, r1, #50	; 0x32
     404:	31303230 	teqcc	r0, r0, lsr r2
     408:	72702820 	rsbsvc	r2, r0, #2097152	; 0x200000
     40c:	6c657265 	sfmvs	f7, 2, [r5], #-404	; 0xfffffe6c
     410:	65736165 	ldrbvs	r6, [r3, #-357]!	; 0x165
     414:	4d500029 	ldclmi	0, cr0, [r0, #-164]	; 0xffffff5c
     418:	4154535f 	cmpmi	r4, pc, asr r3
     41c:	5942444e 	stmdbpl	r2, {r1, r2, r3, r6, sl, lr}^
     420:	4952505f 	ldmdbmi	r2, {r0, r1, r2, r3, r4, r6, ip, lr}^
     424:	525f544e 	subspl	r5, pc, #1308622848	; 0x4e000000
     428:	4d555345 	ldclmi	3, cr5, [r5, #-276]	; 0xfffffeec
     42c:	44560045 	ldrbmi	r0, [r6], #-69	; 0x45
     430:	59535f44 	ldmdbpl	r3, {r2, r6, r8, r9, sl, fp, ip, lr}^
     434:	49425f53 	stmdbmi	r2, {r0, r1, r4, r6, r8, r9, sl, fp, ip, lr}^
     438:	5f5f0054 	svcpl	0x005f0054
     43c:	00323375 	eorseq	r3, r2, r5, ror r3
     440:	74636166 	strbtvc	r6, [r3], #-358	; 0x166
     444:	0031726f 	eorseq	r7, r1, pc, ror #4
     448:	705f7761 	subsvc	r7, pc, r1, ror #14
     44c:	615f756d 	cmpvs	pc, sp, ror #10
     450:	61006772 	tstvs	r0, r2, ror r7
     454:	63736972 	cmnvs	r3, #1867776	; 0x1c8000
     458:	6174735f 	cmnvs	r4, pc, asr r3
     45c:	7962646e 	stmdbvc	r2!, {r1, r2, r3, r5, r6, sl, sp, lr}^
     460:	43435600 	movtmi	r5, #13824	; 0x3600
     464:	4344415f 	movtmi	r4, #16735	; 0x415f
     468:	5449425f 	strbpl	r4, [r9], #-607	; 0x25f
     46c:	756d7000 	strbvc	r7, [sp, #-0]!
     470:	0064695f 	rsbeq	r6, r4, pc, asr r9
     474:	676e6f6c 	strbvs	r6, [lr, -ip, ror #30]!
     478:	6e6f6c20 	cdpvs	12, 6, cr6, cr15, cr0, {1}
     47c:	6e692067 	cdpvs	0, 6, cr2, cr9, cr7, {3}
     480:	682f0074 	stmdavs	pc!, {r2, r4, r5, r6}	; <UNPREDICTABLE>
     484:	2f656d6f 	svccs	0x00656d6f
     488:	2f6d6f74 	svccs	0x006d6f74
     48c:	5f736274 	svcpl	0x00736274
     490:	6c626174 	stfvse	f6, [r2], #-464	; 0xfffffe30
     494:	6c2f7465 	cfstrsvs	mvf7, [pc], #-404	; 308 <__standby_start+0x308>
     498:	65686369 	strbvs	r6, [r8, #-873]!	; 0x369
     49c:	696c2f65 	stmdbvs	ip!, {r0, r2, r5, r6, r8, r9, sl, fp, sp}^
     4a0:	2d78756e 	cfldr64cs	mvdx7, [r8, #-440]!	; 0xfffffe48
     4a4:	00342e33 	eorseq	r2, r4, r3, lsr lr
     4a8:	6e617473 	mcrvs	4, 3, r7, cr1, cr3, {3}
     4ac:	5f796264 	svcpl	0x00796264
     4b0:	6e69616d 	powvsez	f6, f1, #5.0
     4b4:	636f7300 	cmnvs	pc, #0
     4b8:	5f6f695f 	svcpl	0x006f695f
     4bc:	61726170 	cmnvs	r2, r0, ror r1
     4c0:	6700745f 	smlsdvs	r0, pc, r4, r7	; <UNPREDICTABLE>
     4c4:	5f6f6970 	svcpl	0x006f6970
     4c8:	62616e65 	rsbvs	r6, r1, #1616	; 0x650
     4cc:	625f656c 	subsvs	r6, pc, #452984832	; 0x1b000000
     4d0:	616d7469 	cmnvs	sp, r9, ror #8
     4d4:	4d500070 	ldclmi	0, cr0, [r0, #-448]	; 0xfffffe40
     4d8:	4154535f 	cmpmi	r4, pc, asr r3
     4dc:	5942444e 	stmdbpl	r2, {r1, r2, r3, r6, sl, lr}^
     4e0:	4952505f 	ldmdbmi	r2, {r0, r1, r2, r3, r4, r6, ip, lr}^
     4e4:	435f544e 	cmpmi	pc, #1308622848	; 0x4e000000
     4e8:	535f5543 	cmppl	pc, #281018368	; 0x10c00000
     4ec:	55544154 	ldrbpl	r4, [r4, #-340]	; 0x154
     4f0:	4e490053 	mcrmi	0, 2, r0, cr9, cr3, {2}
     4f4:	4f535f54 	svcmi	0x00535f54
     4f8:	45435255 	strbmi	r5, [r3, #-597]	; 0x255
     4fc:	4253555f 	subsmi	r5, r3, #398458880	; 0x17c00000
     500:	49434845 	stmdbmi	r3, {r0, r2, r6, fp, lr}^
     504:	4e490030 	mcrmi	0, 2, r0, cr9, cr0, {1}
     508:	4f535f54 	svcmi	0x00535f54
     50c:	45435255 	strbmi	r5, [r3, #-597]	; 0x255
     510:	4253555f 	subsmi	r5, r3, #398458880	; 0x17c00000
     514:	49434845 	stmdbmi	r3, {r0, r2, r6, fp, lr}^
     518:	4e490031 	mcrmi	0, 2, r0, cr9, cr1, {1}
     51c:	4f535f54 	svcmi	0x00535f54
     520:	45435255 	strbmi	r5, [r3, #-597]	; 0x255
     524:	4253555f 	subsmi	r5, r3, #398458880	; 0x17c00000
     528:	49434845 	stmdbmi	r3, {r0, r2, r6, fp, lr}^
     52c:	75620032 	strbvc	r0, [r2, #-50]!	; 0x32
     530:	61705f73 	cmnvs	r0, r3, ror pc
     534:	63006172 	movwvs	r6, #370	; 0x172
     538:	5f787570 	svcpl	0x00787570
     53c:	5f6b6c63 	svcpl	0x006b6c63
     540:	61726170 	cmnvs	r2, r0, ror r1
     544:	4900745f 	stmdbmi	r0, {r0, r1, r2, r3, r4, r6, sl, ip, sp, lr}
     548:	424c545f 	submi	r5, ip, #1593835520	; 0x5f000000
     54c:	53494d5f 	movtpl	r4, #40287	; 0x9d5f
     550:	61760053 	cmnvs	r6, r3, asr r0
     554:	5f65756c 	svcpl	0x0065756c
     558:	6b73616d 	blvs	1cd8b14 <__standby_start+0x1cd8b14>
     55c:	75706300 	ldrbvc	r6, [r0, #-768]!	; 0x300
     560:	6c635f78 	stclvs	15, cr5, [r3], #-480	; 0xfffffe20
     564:	74735f6b 	ldrbtvc	r5, [r3], #-3947	; 0xf6b
     568:	00657461 	rsbeq	r7, r5, r1, ror #8
     56c:	6d617264 	sfmvs	f7, 2, [r1, #-400]!	; 0xfffffe70
     570:	7261705f 	rsbvc	r7, r1, #95	; 0x5f
     574:	00745f61 	rsbseq	r5, r4, r1, ror #30
     578:	78757063 	ldmdavc	r5!, {r0, r1, r5, r6, ip, sp, lr}^
     57c:	6b6c635f 	blvs	1b19300 <__standby_start+0x1b19300>
     580:	7261705f 	rsbvc	r7, r1, #95	; 0x5f
     584:	78650061 	stmdavc	r5!, {r0, r5, r6}^
     588:	646e6574 	strbtvs	r6, [lr], #-1396	; 0x574
     58c:	735f6465 	cmpvc	pc, #1694498816	; 0x65000000
     590:	646e6174 	strbtvs	r6, [lr], #-372	; 0x174
     594:	705f7962 	subsvc	r7, pc, r2, ror #18
     598:	5f617261 	svcpl	0x00617261
     59c:	6f666e69 	svcvs	0x00666e69
     5a0:	544e4900 	strbpl	r4, [lr], #-2304	; 0x900
     5a4:	554f535f 	strbpl	r5, [pc, #-863]	; 24d <__standby_start+0x24d>
     5a8:	5f454352 	svcpl	0x00454352
     5ac:	5f47534d 	svcpl	0x0047534d
     5b0:	00584f42 	subseq	r4, r8, r2, asr #30
     5b4:	5f637263 	svcpl	0x00637263
     5b8:	006e656c 	rsbeq	r6, lr, ip, ror #10
     5bc:	5f636f73 	svcpl	0x00636f73
     5c0:	5f727770 	svcpl	0x00727770
     5c4:	735f6d64 	cmpvc	pc, #6400	; 0x1900
     5c8:	65746174 	ldrbvs	r6, [r4, #-372]!	; 0x174
     5cc:	6c657300 	stclvs	3, cr7, [r5], #-0
     5d0:	73657266 	cmnvc	r5, #1610612742	; 0x60000006
     5d4:	6c665f68 	stclvs	15, cr5, [r6], #-416	; 0xfffffe60
     5d8:	74006761 	strvc	r6, [r0], #-1889	; 0x761
     5dc:	705f6977 	subsvc	r6, pc, r7, ror r9	; <UNPREDICTABLE>
     5e0:	0074726f 	rsbseq	r7, r4, pc, ror #4
     5e4:	625f7073 	subsvs	r7, pc, #115	; 0x73
     5e8:	756b6361 	strbvc	r6, [fp, #-865]!	; 0x361
     5ec:	4e490070 	mcrmi	0, 2, r0, cr9, cr0, {3}
     5f0:	4f535f54 	svcmi	0x00535f54
     5f4:	45435255 	strbmi	r5, [r3, #-597]	; 0x255
     5f8:	554f545f 	strbpl	r5, [pc, #-1119]	; 1a1 <__standby_start+0x1a1>
     5fc:	4e504843 	cdpmi	8, 5, cr4, cr0, cr3, {2}
     600:	4356004c 	cmpmi	r6, #76	; 0x4c
     604:	4c505f43 	mrrcmi	15, 4, r5, r0, cr3
     608:	49425f4c 	stmdbmi	r2, {r2, r3, r6, r8, r9, sl, fp, ip, lr}^
     60c:	6c700054 	ldclvs	0, cr0, [r0], #-336	; 0xfffffeb0
     610:	61705f6c 	cmnvs	r0, ip, ror #30
     614:	745f6172 	ldrbvc	r6, [pc], #-370	; 61c <__standby_start+0x61c>
     618:	70786100 	rsbsvc	r6, r8, r0, lsl #2
     61c:	6576655f 	ldrbvs	r6, [r6, #-1375]!	; 0x55f
     620:	5600746e 	strpl	r7, [r0], -lr, ror #8
     624:	505f4343 	subspl	r4, pc, r3, asr #6
     628:	49425f4d 	stmdbmi	r2, {r0, r2, r3, r6, r8, r9, sl, fp, ip, lr}^
     62c:	6e690054 	mcrvs	0, 3, r0, cr9, cr4, {2}
     630:	72726574 	rsbsvc	r6, r2, #486539264	; 0x1d000000
     634:	5f747075 	svcpl	0x00747075
     638:	72756f73 	rsbsvc	r6, r5, #460	; 0x1cc
     63c:	655f6563 	ldrbvs	r6, [pc, #-1379]	; e1 <__standby_start+0xe1>
     640:	6f687300 	svcvs	0x00687300
     644:	69207472 	stmdbvs	r0!, {r1, r4, r5, r6, sl, ip, sp, lr}
     648:	5600746e 	strpl	r7, [r0], -lr, ror #8
     64c:	495f4343 	ldmdbmi	pc, {r0, r1, r6, r8, r9, lr}^	; <UNPREDICTABLE>
     650:	49425f4f 	stmdbmi	r2, {r0, r1, r2, r3, r6, r8, r9, sl, fp, ip, lr}^
     654:	72610054 	rsbvc	r0, r1, #84	; 0x54
     658:	612f6863 	teqvs	pc, r3, ror #16
     65c:	6d2f6d72 	stcvs	13, cr6, [pc, #-456]!	; 49c <__standby_start+0x49c>
     660:	2d686361 	stclcs	3, cr6, [r8, #-388]!	; 0xfffffe7c
     664:	786e7573 	stmdavc	lr!, {r0, r1, r4, r5, r6, r8, sl, ip, sp, lr}^
     668:	6d702f69 	ldclvs	15, cr2, [r0, #-420]!	; 0xfffffe5c
     66c:	6174732f 	cmnvs	r4, pc, lsr #6
     670:	7962646e 	stmdbvc	r2!, {r1, r2, r3, r5, r6, sl, sp, lr}^
     674:	6174732f 	cmnvs	r4, pc, lsr #6
     678:	7962646e 	stmdbvc	r2!, {r1, r2, r3, r5, r6, sl, sp, lr}^
     67c:	6400632e 	strvs	r6, [r0], #-814	; 0x32e
     680:	615f7665 	cmpvs	pc, r5, ror #12
     684:	00726464 	rsbseq	r6, r2, r4, ror #8
     688:	5f444456 	svcpl	0x00444456
     68c:	41555043 	cmpmi	r5, r3, asr #32
     690:	5449425f 	strbpl	r4, [r9], #-607	; 0x25f
     694:	44445600 	strbmi	r5, [r4], #-1536	; 0x600
     698:	5550565f 	ldrbpl	r5, [r0, #-1631]	; 0x65f
     69c:	5449425f 	strbpl	r4, [r9], #-607	; 0x25f
     6a0:	544e4900 	strbpl	r4, [lr], #-2304	; 0x900
     6a4:	554f535f 	strbpl	r5, [pc, #-863]	; 34d <__standby_start+0x34d>
     6a8:	5f454352 	svcpl	0x00454352
     6ac:	4441524c 	strbmi	r5, [r1], #-588	; 0x24c
     6b0:	5f690043 	svcpl	0x00690043
     6b4:	5f626c74 	svcpl	0x00626c74
     6b8:	7373696d 	cmnvc	r3, #1785856	; 0x1b4000
     6bc:	646e655f 	strbtvs	r6, [lr], #-1375	; 0x55f
     6c0:	5f776100 	svcpl	0x00776100
     6c4:	6e617473 	mcrvs	4, 3, r7, cr1, cr3, {3}
     6c8:	5f796264 	svcpl	0x00796264
     6cc:	61726170 	cmnvs	r2, r0, ror r1
     6d0:	635f6900 	cmpvs	pc, #0
     6d4:	65686361 	strbvs	r6, [r8, #-865]!	; 0x361
     6d8:	73696d5f 	cmnvc	r9, #6080	; 0x17c0
     6dc:	74735f73 	ldrbtvc	r5, [r3], #-3955	; 0xf73
     6e0:	00747261 	rsbseq	r7, r4, r1, ror #4
     6e4:	6c745f64 	ldclvs	15, cr5, [r4], #-400	; 0xfffffe70
     6e8:	696d5f62 	stmdbvs	sp!, {r1, r5, r6, r8, r9, sl, fp, ip, lr}^
     6ec:	735f7373 	cmpvc	pc, #-872415231	; 0xcc000001
     6f0:	74726174 	ldrbtvc	r6, [r2], #-372	; 0x174
     6f4:	63616300 	cmnvs	r1, #0
     6f8:	635f6568 	cmpvs	pc, #436207616	; 0x1a000000
     6fc:	746e756f 	strbtvc	r7, [lr], #-1391	; 0x56f
     700:	74756f5f 	ldrbtvc	r6, [r5], #-3935	; 0xf5f
     704:	00747570 	rsbseq	r7, r4, r0, ror r5
     708:	746c6f76 	strbtvc	r6, [ip], #-3958	; 0xf76
     70c:	635f6400 	cmpvs	pc, #0
     710:	65686361 	strbvs	r6, [r8, #-865]!	; 0x361
     714:	73696d5f 	cmnvc	r9, #6080	; 0x17c0
     718:	74735f73 	ldrbtvc	r5, [r3], #-3955	; 0xf73
     71c:	00747261 	rsbseq	r7, r4, r1, ror #4
     720:	6d617264 	sfmvs	f7, 2, [r1, #-400]!	; 0xfffffe70
     724:	7261705f 	rsbvc	r7, r1, #95	; 0x5f
     728:	4d500061 	ldclmi	0, cr0, [r0, #-388]	; 0xfffffe7c
     72c:	4154535f 	cmpmi	r4, pc, asr r3
     730:	5942444e 	stmdbpl	r2, {r1, r2, r3, r6, sl, lr}^
     734:	4952505f 	ldmdbmi	r2, {r0, r1, r2, r3, r4, r6, ip, lr}^
     738:	435f544e 	cmpmi	pc, #1308622848	; 0x4e000000
     73c:	30344943 	eorscc	r4, r4, r3, asr #18
     740:	45525f30 	ldrbmi	r5, [r2, #-3888]	; 0xf30
     744:	43560047 	cmpmi	r6, #71	; 0x47
     748:	52445f43 	subpl	r5, r4, #268	; 0x10c
     74c:	425f4d41 	subsmi	r4, pc, #4160	; 0x1040
     750:	64005449 	strvs	r5, [r0], #-1097	; 0x449
     754:	626c745f 	rsbvs	r7, ip, #1593835520	; 0x5f000000
     758:	73696d5f 	cmnvc	r9, #6080	; 0x17c0
     75c:	6e655f73 	mcrvs	15, 3, r5, cr5, cr3, {3}
     760:	4d500064 	ldclmi	0, cr0, [r0, #-400]	; 0xfffffe70
     764:	4154535f 	cmpmi	r4, pc, asr r3
     768:	5942444e 	stmdbpl	r2, {r1, r2, r3, r6, sl, lr}^
     76c:	5345545f 	movtpl	r5, #21599	; 0x545f
     770:	6f6e0054 	svcvs	0x006e0054
     774:	6c616d72 	stclvs	13, cr6, [r1], #-456	; 0xfffffe38
     778:	6174735f 	cmnvs	r4, pc, asr r3
     77c:	7962646e 	stmdbvc	r2!, {r1, r2, r3, r5, r6, sl, sp, lr}^
     780:	7261705f 	rsbvc	r7, r1, #95	; 0x5f
     784:	6e695f61 	cdpvs	15, 6, cr5, cr9, cr1, {3}
     788:	75006f66 	strvc	r6, [r0, #-3942]	; 0xf66
     78c:	6769736e 	strbvs	r7, [r9, -lr, ror #6]!
     790:	2064656e 	rsbcs	r6, r4, lr, ror #10
     794:	72616863 	rsbvc	r6, r1, #6488064	; 0x630000
     798:	706d7400 	rsbvc	r7, sp, r0, lsl #8
     79c:	00727450 	rsbseq	r7, r2, r0, asr r4
     7a0:	5f434356 	svcpl	0x00434356
     7a4:	494f444c 	stmdbmi	pc, {r2, r3, r6, sl, lr}^	; <UNPREDICTABLE>
     7a8:	49425f4e 	stmdbmi	r2, {r1, r2, r3, r6, r8, r9, sl, fp, ip, lr}^
     7ac:	78650054 	stmdavc	r5!, {r2, r4, r6}^
     7b0:	646e6574 	strbtvs	r6, [lr], #-1396	; 0x574
     7b4:	735f6465 	cmpvc	pc, #1694498816	; 0x65000000
     7b8:	646e6174 	strbtvs	r6, [lr], #-372	; 0x174
     7bc:	745f7962 	ldrbvc	r7, [pc], #-2402	; 7c4 <__standby_start+0x7c4>
     7c0:	636f7300 	cmnvs	pc, #0
     7c4:	5f6f695f 	svcpl	0x006f695f
     7c8:	74617473 	strbtvc	r7, [r1], #-1139	; 0x473
     7cc:	43560065 	cmpmi	r6, #101	; 0x65
     7d0:	414d5f43 	cmpmi	sp, r3, asr #30
     7d4:	4e495f58 	mcrmi	15, 2, r5, cr9, cr8, {2}
     7d8:	00584544 	subseq	r4, r8, r4, asr #10
     7dc:	5f637263 	svcpl	0x00637263
     7e0:	72617473 	rsbvc	r7, r1, #1929379840	; 0x73000000
     7e4:	78650074 	stmdavc	r5!, {r2, r4, r5, r6}^
     7e8:	705f7469 	subsvc	r7, pc, r9, ror #8
     7ec:	655f6c6c 	ldrbvs	r6, [pc, #-3180]	; fffffb88 <__bss_end+0xfffbddc>
     7f0:	4d50006e 	ldclmi	0, cr0, [r0, #-440]	; 0xfffffe48
     7f4:	4154535f 	cmpmi	r4, pc, asr r3
     7f8:	5942444e 	stmdbpl	r2, {r1, r2, r3, r6, sl, lr}^
     7fc:	4952505f 	ldmdbmi	r2, {r0, r1, r2, r3, r4, r6, ip, lr}^
     800:	435f544e 	cmpmi	pc, #1308622848	; 0x4e000000
     804:	45484341 	strbmi	r4, [r8, #-833]	; 0x341
     808:	424c545f 	submi	r5, ip, #1593835520	; 0x5f000000
     80c:	53494d5f 	movtpl	r4, #40287	; 0x9d5f
     810:	65720053 	ldrbvs	r0, [r2, #-83]!	; 0x53
     814:	726f7473 	rsbvc	r7, pc, #1929379840	; 0x73000000
     818:	63635f65 	cmnvs	r3, #404	; 0x194
     81c:	5f690075 	svcpl	0x00690075
     820:	5f626c74 	svcpl	0x00626c74
     824:	7373696d 	cmnvc	r3, #1785856	; 0x1b4000
     828:	6174735f 	cmnvs	r4, pc, asr r3
     82c:	56007472 			; <UNDEFINED> instruction: 0x56007472
     830:	445f4444 	ldrbmi	r4, [pc], #-1092	; 838 <__standby_start+0x838>
     834:	504d4152 	subpl	r4, sp, r2, asr r1
     838:	425f4c4c 	subsmi	r4, pc, #19456	; 0x4c00
     83c:	56005449 	strpl	r5, [r0], -r9, asr #8
     840:	435f4343 	cmpmi	pc, #201326593	; 0xc000001
     844:	44445650 	strbmi	r5, [r4], #-1616	; 0x650
     848:	5449425f 	strbpl	r4, [r9], #-607	; 0x25f
     84c:	6f687300 	svcvs	0x00687300
     850:	75207472 	strvc	r7, [r0, #-1138]!	; 0x472
     854:	6769736e 	strbvs	r7, [r9, -lr, ror #6]!
     858:	2064656e 	rsbcs	r6, r4, lr, ror #10
     85c:	00746e69 	rsbseq	r6, r4, r9, ror #28
     860:	5f627474 	svcpl	0x00627474
     864:	625f7230 	subsvs	r7, pc, #3
     868:	756b6361 	strbvc	r6, [fp, #-865]!	; 0x361
     86c:	4d500070 	ldclmi	0, cr0, [r0, #-448]	; 0xfffffe40
     870:	4154535f 	cmpmi	r4, pc, asr r3
     874:	5942444e 	stmdbpl	r2, {r1, r2, r3, r6, sl, lr}^
     878:	4952505f 	ldmdbmi	r2, {r0, r1, r2, r3, r4, r6, ip, lr}^
     87c:	435f544e 	cmpmi	pc, #1308622848	; 0x4e000000
     880:	5f535550 	svcpl	0x00535550
     884:	535f4f49 	cmppl	pc, #292	; 0x124
     888:	55544154 	ldrbpl	r4, [r4, #-340]	; 0x154
     88c:	6f680053 	svcvs	0x00680053
     890:	665f646c 	ldrbvs	r6, [pc], -ip, ror #8
     894:	0067616c 	rsbeq	r6, r7, ip, ror #2
     898:	5f737562 	svcpl	0x00737562
     89c:	6e616863 	cdpvs	8, 6, cr6, cr1, cr3, {3}
     8a0:	63006567 	movwvs	r6, #1383	; 0x567
     8a4:	65686361 	strbvs	r6, [r8, #-865]!	; 0x361
     8a8:	756f635f 	strbvc	r6, [pc, #-863]!	; 551 <__standby_start+0x551>
     8ac:	695f746e 	ldmdbvs	pc, {r1, r2, r3, r5, r6, sl, ip, sp, lr}^	; <UNPREDICTABLE>
     8b0:	0074696e 	rsbseq	r6, r4, lr, ror #18
     8b4:	535f4d50 	cmppl	pc, #5120	; 0x1400
     8b8:	444e4154 	strbmi	r4, [lr], #-340	; 0x154
     8bc:	505f5942 	subspl	r5, pc, r2, asr #18
     8c0:	544e4952 	strbpl	r4, [lr], #-2386	; 0x952
     8c4:	5257505f 	subspl	r5, r7, #95	; 0x5f
     8c8:	4154535f 	cmpmi	r4, pc, asr r3
     8cc:	00535554 	subseq	r5, r3, r4, asr r5
     8d0:	5f434356 	svcpl	0x00434356
     8d4:	425f4c50 	subsmi	r4, pc, #20480	; 0x5000
     8d8:	69005449 	stmdbvs	r0, {r0, r3, r6, sl, ip, lr}
     8dc:	74735f6f 	ldrbtvc	r5, [r3], #-3951	; 0xf6f
     8e0:	5f657461 	svcpl	0x00657461
     8e4:	666e6f63 	strbtvs	r6, [lr], -r3, ror #30
     8e8:	745f6769 	ldrbvc	r6, [pc], #-1897	; 8f0 <__standby_start+0x8f0>
     8ec:	63726100 	cmnvs	r2, #0
     8f0:	72612f68 	rsbvc	r2, r1, #416	; 0x1a0
     8f4:	616d2f6d 	cmnvs	sp, sp, ror #30
     8f8:	732d6863 	teqvc	sp, #6488064	; 0x630000
     8fc:	69786e75 	ldmdbvs	r8!, {r0, r2, r4, r5, r6, r9, sl, fp, sp, lr}^
     900:	2f6d702f 	svccs	0x006d702f
     904:	6e617473 	mcrvs	4, 3, r7, cr1, cr3, {3}
     908:	2f796264 	svccs	0x00796264
     90c:	6d6d6f63 	stclvs	15, cr6, [sp, #-396]!	; 0xfffffe74
     910:	632e6e6f 	teqvs	lr, #1776	; 0x6f0
     914:	706d7400 	rsbvc	r7, sp, r0, lsl #8
     918:	7473645f 	ldrbtvc	r6, [r3], #-1119	; 0x45f
     91c:	61747300 	cmnvs	r4, r0, lsl #6
     920:	7962646e 	stmdbvc	r2!, {r1, r2, r3, r5, r6, sl, sp, lr}^
     924:	6d656d5f 	stclvs	13, cr6, [r5, #-380]!	; 0xfffffe84
     928:	00797063 	rsbseq	r7, r9, r3, rrx
     92c:	5f706d74 	svcpl	0x00706d74
     930:	00637273 	rsbeq	r7, r3, r3, ror r2
     934:	43435f5f 	movtmi	r5, #16223	; 0x3f5f
     938:	415f554d 	cmpmi	pc, sp, asr #10
     93c:	5f314248 	svcpl	0x00314248
     940:	49544152 	ldmdbmi	r4, {r1, r4, r6, r8, lr}^
     944:	45525f4f 	ldrbmi	r5, [r2, #-3919]	; 0xf4f
     948:	35303047 	ldrcc	r3, [r0, #-71]!	; 0x47
     94c:	65720034 	ldrbvs	r0, [r2, #-52]!	; 0x34
     950:	76726573 			; <UNDEFINED> instruction: 0x76726573
     954:	30326465 	eorscc	r6, r2, r5, ror #8
     958:	72003138 	andvc	r3, r0, #14
     95c:	72657365 	rsbvc	r7, r5, #-1811939327	; 0x94000001
     960:	32646576 	rsbcc	r6, r4, #494927872	; 0x1d800000
     964:	00323830 	eorseq	r3, r2, r0, lsr r8
     968:	65736572 	ldrbvs	r6, [r3, #-1394]!	; 0x572
     96c:	64657672 	strbtvs	r7, [r5], #-1650	; 0x672
     970:	00313331 	eorseq	r3, r1, r1, lsr r3
     974:	65736572 	ldrbvs	r6, [r3, #-1394]!	; 0x572
     978:	64657672 	strbtvs	r7, [r5], #-1650	; 0x672
     97c:	00323331 	eorseq	r3, r2, r1, lsr r3
     980:	65736572 	ldrbvs	r6, [r3, #-1394]!	; 0x572
     984:	64657672 	strbtvs	r7, [r5], #-1650	; 0x672
     988:	00333331 	eorseq	r3, r3, r1, lsr r3
     98c:	6e617473 	mcrvs	4, 3, r7, cr1, cr3, {3}
     990:	5f796264 	svcpl	0x00796264
     994:	73757063 	cmnvc	r5, #99	; 0x63
     998:	6b6c635f 	blvs	1b1971c <__standby_start+0x1b1971c>
     99c:	6f646c5f 	svcvs	0x00646c5f
     9a0:	62616e65 	rsbvs	r6, r1, #1616	; 0x650
     9a4:	6400656c 	strvs	r6, [r0], #-1388	; 0x56c
     9a8:	6c617677 	stclvs	6, cr7, [r1], #-476	; 0xfffffe24
     9ac:	6c6c5000 	stclvs	0, cr5, [ip], #-0
     9b0:	65646956 	strbvs	r6, [r4, #-2390]!	; 0x956
     9b4:	6942306f 	stmdbvs	r2, {r0, r1, r2, r3, r5, r6, ip, sp}^
     9b8:	43007361 	movwmi	r7, #865	; 0x361
     9bc:	78547269 	ldmdavc	r4, {r0, r3, r5, r6, r9, ip, sp, lr}^
     9c0:	64634c00 	strbtvs	r4, [r3], #-3072	; 0xc00
     9c4:	30684330 	rsbcc	r4, r8, r0, lsr r3
     9c8:	64634c00 	strbtvs	r4, [r3], #-3072	; 0xc00
     9cc:	31684330 	cmncc	r8, r0, lsr r3
     9d0:	73657200 	cmnvc	r5, #0
     9d4:	65767265 	ldrbvs	r7, [r6, #-613]!	; 0x265
     9d8:	32313964 	eorscc	r3, r1, #1638400	; 0x190000
     9dc:	6c6c5000 	stclvs	0, cr5, [ip], #-0
     9e0:	6c744336 	ldclvs	3, cr4, [r4], #-216	; 0xffffff28
     9e4:	73657200 	cmnvc	r5, #0
     9e8:	65767265 	ldrbvs	r7, [r6, #-613]!	; 0x265
     9ec:	32343164 	eorscc	r3, r4, #25
     9f0:	73657200 	cmnvc	r5, #0
     9f4:	65767265 	ldrbvs	r7, [r6, #-613]!	; 0x265
     9f8:	33343164 	teqcc	r4, #25
     9fc:	73324900 	teqvc	r2, #0
     a00:	32490030 	subcc	r0, r9, #48	; 0x30
     a04:	49003173 	stmdbmi	r0, {r0, r1, r4, r5, r6, r8, ip, sp}
     a08:	00327332 	eorseq	r7, r2, r2, lsr r3
     a0c:	316c6c50 	cmncc	ip, r0, asr ip
     a10:	6c744330 	ldclvs	3, cr4, [r4], #-192	; 0xffffff40
     a14:	6c6c5000 	stclvs	0, cr5, [ip], #-0
     a18:	6c744334 	ldclvs	3, cr4, [r4], #-208	; 0xffffff30
     a1c:	61747300 	cmnvs	r4, r0, lsl #6
     a20:	7962646e 	stmdbvc	r2!, {r1, r2, r3, r5, r6, sl, sp, lr}^
     a24:	6b6c635f 	blvs	1b197a8 <__standby_start+0x1b197a8>
     a28:	726f635f 	rsbvc	r6, pc, #2080374785	; 0x7c000001
     a2c:	6f683265 	svcvs	0x00683265
     a30:	5f006373 	svcpl	0x00006373
     a34:	6d63635f 	stclvs	3, cr6, [r3, #-380]!	; 0xfffffe84
     a38:	79735f75 	ldmdbvc	r3!, {r0, r2, r4, r5, r6, r8, r9, sl, fp, ip, lr}^
     a3c:	6b6c6373 	blvs	1b19810 <__standby_start+0x1b19810>
     a40:	7461725f 	strbtvc	r7, [r1], #-607	; 0x25f
     a44:	725f6f69 	subsvc	r6, pc, #420	; 0x1a4
     a48:	30306765 	eorscc	r6, r0, r5, ror #14
     a4c:	745f3035 	ldrbvc	r3, [pc], #-53	; a54 <__standby_start+0xa54>
     a50:	6c6c5000 	stclvs	0, cr5, [ip], #-0
     a54:	69647541 	stmdbvs	r4!, {r0, r6, r8, sl, ip, sp, lr}^
     a58:	6169426f 	cmnvs	r9, pc, ror #4
     a5c:	6d430073 	stclvs	0, cr0, [r3, #-460]	; 0xfffffe34
     a60:	67655275 			; <UNDEFINED> instruction: 0x67655275
     a64:	6c6c505f 	stclvs	0, cr5, [ip], #-380	; 0xfffffe84
     a68:	6c744331 	ldclvs	3, cr4, [r4], #-196	; 0xffffff3c
     a6c:	706d745f 	rsbvc	r7, sp, pc, asr r4
     a70:	73657200 	cmnvc	r5, #0
     a74:	65767265 	ldrbvs	r7, [r6, #-613]!	; 0x265
     a78:	33353164 	teqcc	r5, #25
     a7c:	73657200 	cmnvc	r5, #0
     a80:	65767265 	ldrbvs	r7, [r6, #-613]!	; 0x265
     a84:	34353164 	ldrtcc	r3, [r5], #-356	; 0x164
     a88:	73657200 	cmnvc	r5, #0
     a8c:	65767265 	ldrbvs	r7, [r6, #-613]!	; 0x265
     a90:	31333164 	teqcc	r3, r4, ror #2
     a94:	6c500031 	mrrcvs	0, 3, r0, r0, cr1	; <UNPREDICTABLE>
     a98:	6973486c 	ldmdbvs	r3!, {r2, r3, r5, r6, fp, lr}^
     a9c:	61694263 	cmnvs	r9, r3, ror #4
     aa0:	64540073 	ldrbvs	r0, [r4], #-115	; 0x73
     aa4:	6b6c436d 	blvs	1b11860 <__standby_start+0x1b11860>
     aa8:	6c6c5000 	stclvs	0, cr5, [ip], #-0
     aac:	6e755431 	mrcvs	4, 3, r5, cr5, cr1, {1}
     ab0:	75424d00 	strbvc	r4, [r2, #-3328]	; 0xd00
     ab4:	72003073 	andvc	r3, r0, #115	; 0x73
     ab8:	72657365 	rsbvc	r7, r5, #-1811939327	; 0x94000001
     abc:	32646576 	rsbcc	r6, r4, #494927872	; 0x1d800000
     ac0:	00333430 	eorseq	r3, r3, r0, lsr r4
     ac4:	74636146 	strbtvc	r6, [r3], #-326	; 0x146
     ac8:	004d726f 	subeq	r7, sp, pc, ror #4
     acc:	74636146 	strbtvc	r6, [r3], #-326	; 0x146
     ad0:	004e726f 	subeq	r7, lr, pc, ror #4
     ad4:	32627041 	rsbcc	r7, r2, #65	; 0x41
     ad8:	00766944 	rsbseq	r6, r6, r4, asr #18
     adc:	74636146 	strbtvc	r6, [r3], #-326	; 0x146
     ae0:	0050726f 	subseq	r7, r0, pc, ror #4
     ae4:	65736572 	ldrbvs	r6, [r3, #-1394]!	; 0x572
     ae8:	64657672 	strbtvs	r7, [r5], #-1650	; 0x672
     aec:	00323032 	eorseq	r3, r2, r2, lsr r0
     af0:	65736572 	ldrbvs	r6, [r3, #-1394]!	; 0x572
     af4:	64657672 	strbtvs	r7, [r5], #-1650	; 0x672
     af8:	00333032 	eorseq	r3, r3, r2, lsr r0
     afc:	65736572 	ldrbvs	r6, [r3, #-1394]!	; 0x572
     b00:	64657672 	strbtvs	r7, [r5], #-1650	; 0x672
     b04:	00343032 	eorseq	r3, r4, r2, lsr r0
     b08:	65736572 	ldrbvs	r6, [r3, #-1394]!	; 0x572
     b0c:	64657672 	strbtvs	r7, [r5], #-1650	; 0x672
     b10:	00353032 	eorseq	r3, r5, r2, lsr r0
     b14:	65736572 	ldrbvs	r6, [r3, #-1394]!	; 0x572
     b18:	64657672 	strbtvs	r7, [r5], #-1650	; 0x672
     b1c:	00383032 	eorseq	r3, r8, r2, lsr r0
     b20:	476c6c50 			; <UNDEFINED> instruction: 0x476c6c50
     b24:	69427570 	stmdbvs	r2, {r4, r5, r6, r8, sl, ip, sp, lr}^
     b28:	43007361 	movwmi	r7, #865	; 0x361
     b2c:	6b6c4331 	blvs	1b117f8 <__standby_start+0x1b117f8>
     b30:	00637253 	rsbeq	r7, r3, r3, asr r2
     b34:	4d757047 	ldclmi	0, cr7, [r5, #-284]!	; 0xfffffee4
     b38:	73006d65 	movwvc	r6, #3429	; 0xd65
     b3c:	646e6174 	strbtvs	r6, [lr], #-372	; 0x174
     b40:	635f7962 	cmpvs	pc, #1605632	; 0x188000
     b44:	655f6b6c 	ldrbvs	r6, [pc, #-2924]	; ffffffe0 <__bss_end+0xfffc234>
     b48:	00746978 	rsbseq	r6, r4, r8, ror r9
     b4c:	4d766944 	ldclmi	9, cr6, [r6, #-272]!	; 0xfffffef0
     b50:	76694400 	strbtvc	r4, [r9], -r0, lsl #8
     b54:	7041004e 	subvc	r0, r1, lr, asr #32
     b58:	65523262 	ldrbvs	r3, [r2, #-610]	; 0x262
     b5c:	00746573 	rsbseq	r6, r4, r3, ror r5
     b60:	65736572 	ldrbvs	r6, [r3, #-1394]!	; 0x572
     b64:	64657672 	strbtvs	r7, [r5], #-1650	; 0x672
     b68:	00313731 	eorseq	r3, r1, r1, lsr r7
     b6c:	65736572 	ldrbvs	r6, [r3, #-1394]!	; 0x572
     b70:	64657672 	strbtvs	r7, [r5], #-1650	; 0x672
     b74:	00323731 	eorseq	r3, r2, r1, lsr r7
     b78:	65736572 	ldrbvs	r6, [r3, #-1394]!	; 0x572
     b7c:	64657672 	strbtvs	r7, [r5], #-1650	; 0x672
     b80:	00333731 	eorseq	r3, r3, r1, lsr r7
     b84:	4c6c6c50 	stclmi	12, cr6, [ip], #-320	; 0xfffffec0
     b88:	006b636f 	rsbeq	r6, fp, pc, ror #6
     b8c:	43757047 	cmnmi	r5, #71	; 0x47
     b90:	0065726f 	rsbeq	r7, r5, pc, ror #4
     b94:	43757043 	cmnmi	r5, #67	; 0x43
     b98:	72536b6c 	subsvc	r6, r3, #110592	; 0x1b000
     b9c:	6c500063 	mrrcvs	0, 6, r0, r0, cr3	; <UNPREDICTABLE>
     ba0:	7264446c 	rsbvc	r4, r4, #1811939328	; 0x6c000000
     ba4:	73616942 	cmnvc	r1, #1081344	; 0x108000
     ba8:	73655200 	cmnvc	r5, #0
     bac:	65767265 	ldrbvs	r7, [r6, #-613]!	; 0x265
     bb0:	32303264 	eorscc	r3, r0, #1073741830	; 0x40000006
     bb4:	65720031 	ldrbvs	r0, [r2, #-49]!	; 0x31
     bb8:	76726573 			; <UNDEFINED> instruction: 0x76726573
     bbc:	38316465 	ldmdacc	r1!, {r0, r2, r5, r6, sl, sp, lr}
     bc0:	65720031 	ldrbvs	r0, [r2, #-49]!	; 0x31
     bc4:	76726573 			; <UNDEFINED> instruction: 0x76726573
     bc8:	38316465 	ldmdacc	r1!, {r0, r2, r5, r6, sl, sp, lr}
     bcc:	68410032 	stmdavs	r1, {r1, r4, r5}^
     bd0:	74614762 	strbtvc	r4, [r1], #-1890	; 0x762
     bd4:	41003065 	tstmi	r0, r5, rrx
     bd8:	61476268 	cmpvs	r7, r8, ror #4
     bdc:	00316574 	eorseq	r6, r1, r4, ror r5
     be0:	6b636f4c 	blvs	18dc918 <__standby_start+0x18dc918>
     be4:	656d6974 	strbvs	r6, [sp, #-2420]!	; 0x974
     be8:	6c6c5000 	stclvs	0, cr5, [ip], #-0
     bec:	6c744331 	ldclvs	3, cr4, [r4], #-196	; 0xffffff3c
     bf0:	73657200 	cmnvc	r5, #0
     bf4:	65767265 	ldrbvs	r7, [r6, #-613]!	; 0x265
     bf8:	32323164 	eorscc	r3, r2, #25
     bfc:	61747300 	cmnvs	r4, r0, lsl #6
     c00:	7962646e 	stmdbvc	r2!, {r1, r2, r3, r5, r6, sl, sp, lr}^
     c04:	6b6c635f 	blvs	1b19988 <__standby_start+0x1b19988>
     c08:	696e695f 	stmdbvs	lr!, {r0, r1, r2, r3, r4, r6, r8, fp, sp, lr}^
     c0c:	6c500074 	mrrcvs	0, 7, r0, r0, cr4	; <UNPREDICTABLE>
     c10:	4331436c 	teqmi	r1, #-1342177279	; 0xb0000001
     c14:	72006c74 	andvc	r6, r0, #29696	; 0x7400
     c18:	72657365 	rsbvc	r7, r5, #-1811939327	; 0x94000001
     c1c:	31646576 	smccc	18006	; 0x4656
     c20:	50003139 	andpl	r3, r0, r9, lsr r1
     c24:	43386c6c 	teqmi	r8, #27648	; 0x6c00
     c28:	5f006c74 	svcpl	0x00006c74
     c2c:	4d43435f 	stclmi	3, cr4, [r3, #-380]	; 0xfffffe84
     c30:	4c505f55 	mrrcmi	15, 5, r5, r0, cr5
     c34:	434f4c4c 	movtmi	r4, #64588	; 0xfc4c
     c38:	45525f4b 	ldrbmi	r5, [r2, #-3915]	; 0xf4b
     c3c:	30323047 	eorscc	r3, r2, r7, asr #32
     c40:	65720030 	ldrbvs	r0, [r2, #-48]!	; 0x30
     c44:	76726573 			; <UNDEFINED> instruction: 0x76726573
     c48:	32316465 	eorscc	r6, r1, #1694498816	; 0x65000000
     c4c:	73657200 	cmnvc	r5, #0
     c50:	65767265 	ldrbvs	r7, [r6, #-613]!	; 0x265
     c54:	00343164 	eorseq	r3, r4, r4, ror #2
     c58:	65736572 	ldrbvs	r6, [r3, #-1394]!	; 0x572
     c5c:	64657672 	strbtvs	r7, [r5], #-1650	; 0x672
     c60:	72003531 	andvc	r3, r0, #205520896	; 0xc400000
     c64:	72657365 	rsbvc	r7, r5, #-1811939327	; 0x94000001
     c68:	31646576 	smccc	18006	; 0x4656
     c6c:	65720036 	ldrbvs	r0, [r2, #-54]!	; 0x36
     c70:	76726573 			; <UNDEFINED> instruction: 0x76726573
     c74:	37316465 	ldrcc	r6, [r1, -r5, ror #8]!
     c78:	73657200 	cmnvc	r5, #0
     c7c:	65767265 	ldrbvs	r7, [r6, #-613]!	; 0x265
     c80:	00383164 	eorseq	r3, r8, r4, ror #2
     c84:	31626841 	cmncc	r2, r1, asr #16
     c88:	44657250 	strbtmi	r7, [r5], #-592	; 0x250
     c8c:	61007669 	tstvs	r0, r9, ror #12
     c90:	2f686372 	svccs	0x00686372
     c94:	2f6d7261 	svccs	0x006d7261
     c98:	6863616d 	stmdavs	r3!, {r0, r2, r3, r5, r6, r8, sp, lr}^
     c9c:	6e75732d 	cdpvs	3, 7, cr7, cr5, cr13, {1}
     ca0:	702f6978 	eorvc	r6, pc, r8, ror r9	; <UNPREDICTABLE>
     ca4:	74732f6d 	ldrbtvc	r2, [r3], #-3949	; 0xf6d
     ca8:	62646e61 	rsbvs	r6, r4, #1552	; 0x610
     cac:	74732f79 	ldrbtvc	r2, [r3], #-3961	; 0xf79
     cb0:	62646e61 	rsbvs	r6, r4, #1552	; 0x610
     cb4:	6c635f79 	stclvs	15, cr5, [r3], #-484	; 0xfffffe1c
     cb8:	2e6b636f 	cdpcs	3, 6, cr6, cr11, cr15, {3}
     cbc:	58410063 	stmdapl	r1, {r0, r1, r5, r6}^
     cc0:	6c433149 	stfvse	f3, [r3], {73}	; 0x49
     cc4:	7669446b 	strbtvc	r4, [r9], -fp, ror #8
     cc8:	6c6c5000 	stclvs	0, cr5, [ip], #-0
     ccc:	61694278 	smcvs	37928	; 0x9428
     cd0:	65720073 	ldrbvs	r0, [r2, #-115]!	; 0x73
     cd4:	76726573 			; <UNDEFINED> instruction: 0x76726573
     cd8:	31326465 	teqcc	r2, r5, ror #8
     cdc:	73657200 	cmnvc	r5, #0
     ce0:	65767265 	ldrbvs	r7, [r6, #-613]!	; 0x265
     ce4:	00323264 	eorseq	r3, r2, r4, ror #4
     ce8:	566c6c50 			; <UNDEFINED> instruction: 0x566c6c50
     cec:	61694265 	cmnvs	r9, r5, ror #4
     cf0:	65720073 	ldrbvs	r0, [r2, #-115]!	; 0x73
     cf4:	76726573 			; <UNDEFINED> instruction: 0x76726573
     cf8:	31316465 	teqcc	r1, r5, ror #8
     cfc:	6d644800 	stclvs	8, cr4, [r4, #-0]
     d00:	6b6c4369 	blvs	1b11aac <__standby_start+0x1b11aac>
     d04:	61747300 	cmnvs	r4, r0, lsl #6
     d08:	7962646e 	stmdbvc	r2!, {r1, r2, r3, r5, r6, sl, sp, lr}^
     d0c:	6b6c635f 	blvs	1b19a90 <__standby_start+0x1b19a90>
     d10:	6f646c5f 	svcvs	0x00646c5f
     d14:	62616e65 	rsbvs	r6, r1, #1616	; 0x650
     d18:	4100656c 	tstmi	r0, ip, ror #10
     d1c:	44316268 	ldrtmi	r6, [r1], #-616	; 0x268
     d20:	72007669 	andvc	r7, r0, #110100480	; 0x6900000
     d24:	72657365 	rsbvc	r7, r5, #-1811939327	; 0x94000001
     d28:	31646576 	smccc	18006	; 0x4656
     d2c:	6c500039 	mrrcvs	0, 3, r0, r0, cr9	; <UNPREDICTABLE>
     d30:	6469566c 	strbtvs	r5, [r9], #-1644	; 0x66c
     d34:	52306f65 	eorspl	r6, r0, #404	; 0x194
     d38:	50306765 	eorspl	r6, r0, r5, ror #14
     d3c:	65747461 	ldrbvs	r7, [r4, #-1121]!	; 0x461
     d40:	50006e72 	andpl	r6, r0, r2, ror lr
     d44:	43336c6c 	teqmi	r3, #27648	; 0x6c00
     d48:	53006c74 	movwpl	r6, #3188	; 0xc74
     d4c:	6c437379 	mcrrvs	3, 7, r7, r3, cr9
     d50:	7669446b 	strbtvc	r4, [r9], -fp, ror #8
     d54:	635f5f00 	cmpvs	pc, #0
     d58:	5f756d63 	svcpl	0x00756d63
     d5c:	32627061 	rsbcc	r7, r2, #97	; 0x61
     d60:	7461725f 	strbtvc	r7, [r1], #-607	; 0x25f
     d64:	725f6f69 	subsvc	r6, pc, #420	; 0x1a4
     d68:	30306765 	eorscc	r6, r0, r5, ror #14
     d6c:	745f3835 	ldrbvc	r3, [pc], #-2101	; d74 <__standby_start+0xd74>
     d70:	75704700 	ldrbvc	r4, [r0, #-1792]!	; 0x700
     d74:	00647948 	rsbeq	r7, r4, r8, asr #18
     d78:	52626841 	rsbpl	r6, r2, #4259840	; 0x410000
     d7c:	74657365 	strbtvc	r7, [r5], #-869	; 0x365
     d80:	68410030 	stmdavs	r1, {r4, r5}^
     d84:	73655262 	cmnvc	r5, #536870918	; 0x20000006
     d88:	00317465 	eorseq	r7, r1, r5, ror #8
     d8c:	52626841 	rsbpl	r6, r2, #4259840	; 0x410000
     d90:	74657365 	strbtvc	r7, [r5], #-869	; 0x365
     d94:	65720032 	ldrbvs	r0, [r2, #-50]!	; 0x32
     d98:	76726573 			; <UNDEFINED> instruction: 0x76726573
     d9c:	30326465 	eorscc	r6, r2, r5, ror #8
     da0:	00363136 	eorseq	r3, r6, r6, lsr r1
     da4:	69647053 	stmdbvs	r4!, {r0, r1, r4, r6, ip, sp, lr}^
     da8:	6b6c4366 	blvs	1b11b48 <__standby_start+0x1b11b48>
     dac:	62704100 	rsbsvs	r4, r0, #0
     db0:	74614732 	strbtvc	r4, [r1], #-1842	; 0x732
     db4:	6c500065 	mrrcvs	0, 6, r0, r0, cr5	; <UNPREDICTABLE>
     db8:	6475416c 	ldrbtvs	r4, [r5], #-364	; 0x16c
     dbc:	65526f69 	ldrbvs	r6, [r2, #-3945]	; 0xf69
     dc0:	61503167 	cmpvs	r0, r7, ror #2
     dc4:	72657474 	rsbvc	r7, r5, #1946157056	; 0x74000000
     dc8:	6c50006e 	mrrcvs	0, 6, r0, r0, cr14	; <UNPREDICTABLE>
     dcc:	6f4c316c 	svcvs	0x004c316c
     dd0:	72006b63 	andvc	r6, r0, #101376	; 0x18c00
     dd4:	72657365 	rsbvc	r7, r5, #-1811939327	; 0x94000001
     dd8:	32646576 	rsbcc	r6, r4, #494927872	; 0x1d800000
     ddc:	00313730 	eorseq	r3, r1, r0, lsr r7
     de0:	65736572 	ldrbvs	r6, [r3, #-1394]!	; 0x572
     de4:	64657672 	strbtvs	r7, [r5], #-1650	; 0x672
     de8:	31323431 	teqcc	r2, r1, lsr r4
     dec:	61724400 	cmnvs	r2, r0, lsl #8
     df0:	7461476d 	strbtvc	r4, [r1], #-1901	; 0x76d
     df4:	68410065 	stmdavs	r1, {r0, r2, r5, r6}^
     df8:	6c433162 	stfvse	f3, [r3], {98}	; 0x62
     dfc:	6372536b 	cmnvs	r2, #-1409286143	; 0xac000001
     e00:	6c6c5000 	stclvs	0, cr5, [ip], #-0
     e04:	75543143 	ldrbvc	r3, [r4, #-323]	; 0x143
     e08:	6c50006e 	mrrcvs	0, 6, r0, r0, cr14	; <UNPREDICTABLE>
     e0c:	4265446c 	rsbmi	r4, r5, #1811939328	; 0x6c000000
     e10:	00736169 	rsbseq	r6, r3, r9, ror #2
     e14:	31627041 	cmncc	r2, r1, asr #32
     e18:	00766944 	rsbseq	r6, r6, r4, asr #18
     e1c:	33735f5f 	cmncc	r3, #380	; 0x17c
     e20:	624d0032 	subvs	r0, sp, #50	; 0x32
     e24:	65527375 	ldrbvs	r7, [r2, #-885]	; 0x375
     e28:	52746573 	rsbspl	r6, r4, #482344960	; 0x1cc00000
     e2c:	50006765 	andpl	r6, r0, r5, ror #14
     e30:	75416c6c 	strbvc	r6, [r1, #-3180]	; 0xc6c
     e34:	526f6964 	rsbpl	r6, pc, #1638400	; 0x190000
     e38:	50306765 	eorspl	r6, r0, r5, ror #14
     e3c:	65747461 	ldrbvs	r7, [r4, #-1121]!	; 0x461
     e40:	50006e72 	andpl	r6, r0, r2, ror lr
     e44:	69566c6c 	ldmdbvs	r6, {r2, r3, r5, r6, sl, fp, sp, lr}^
     e48:	316f6564 	cmncc	pc, r4, ror #10
     e4c:	73616942 	cmnvc	r1, #1081344	; 0x108000
     e50:	73657200 	cmnvc	r5, #0
     e54:	65767265 	ldrbvs	r7, [r6, #-613]!	; 0x265
     e58:	00313564 	eorseq	r3, r1, r4, ror #10
     e5c:	65736572 	ldrbvs	r6, [r3, #-1394]!	; 0x572
     e60:	64657672 	strbtvs	r7, [r5], #-1650	; 0x672
     e64:	32333032 	eorscc	r3, r3, #50	; 0x32
     e68:	6c6c5000 	stclvs	0, cr5, [ip], #-0
     e6c:	6c744335 	ldclvs	3, cr4, [r4], #-212	; 0xffffff2c
     e70:	4c4c5000 	marmi	acc0, r5, ip
     e74:	5f006e45 	svcpl	0x00006e45
     e78:	6d63635f 	stclvs	3, cr6, [r3, #-380]!	; 0xfffffe84
     e7c:	6c705f75 	ldclvs	15, cr5, [r0], #-468	; 0xfffffe2c
     e80:	725f316c 	subsvc	r3, pc, #27
     e84:	30306765 	eorscc	r6, r0, r5, ror #14
     e88:	745f3030 	ldrbvc	r3, [pc], #-48	; e90 <__standby_start+0xe90>
     e8c:	62684100 	rsbvs	r4, r8, #0
     e90:	67664332 			; <UNDEFINED> instruction: 0x67664332
     e94:	70694d00 	rsbvc	r4, r9, r0, lsl #26
     e98:	69734369 	ldmdbvs	r3!, {r0, r3, r5, r6, r8, r9, lr}^
     e9c:	62704100 	rsbsvs	r4, r0, #0
     ea0:	73655231 	cmnvc	r5, #268435459	; 0x10000003
     ea4:	72007465 	andvc	r7, r0, #1694498816	; 0x65000000
     ea8:	72657365 	rsbvc	r7, r5, #-1811939327	; 0x94000001
     eac:	30646576 	rsbcc	r6, r4, r6, ror r5
     eb0:	73657200 	cmnvc	r5, #0
     eb4:	65767265 	ldrbvs	r7, [r6, #-613]!	; 0x265
     eb8:	72003164 	andvc	r3, r0, #25
     ebc:	72657365 	rsbvc	r7, r5, #-1811939327	; 0x94000001
     ec0:	32646576 	rsbcc	r6, r4, #494927872	; 0x1d800000
     ec4:	73657200 	cmnvc	r5, #0
     ec8:	65767265 	ldrbvs	r7, [r6, #-613]!	; 0x265
     ecc:	72003364 	andvc	r3, r0, #-1879048191	; 0x90000001
     ed0:	72657365 	rsbvc	r7, r5, #-1811939327	; 0x94000001
     ed4:	34646576 	strbtcc	r6, [r4], #-1398	; 0x576
     ed8:	73657200 	cmnvc	r5, #0
     edc:	65767265 	ldrbvs	r7, [r6, #-613]!	; 0x265
     ee0:	72003564 	andvc	r3, r0, #419430400	; 0x19000000
     ee4:	72657365 	rsbvc	r7, r5, #-1811939327	; 0x94000001
     ee8:	36646576 			; <UNDEFINED> instruction: 0x36646576
     eec:	73657200 	cmnvc	r5, #0
     ef0:	65767265 	ldrbvs	r7, [r6, #-613]!	; 0x265
     ef4:	72003764 	andvc	r3, r0, #26214400	; 0x1900000
     ef8:	72657365 	rsbvc	r7, r5, #-1811939327	; 0x94000001
     efc:	39646576 	stmdbcc	r4!, {r1, r2, r4, r5, r6, r8, sl, sp, lr}^
     f00:	70694d00 	rsbvc	r4, r9, r0, lsl #26
     f04:	69734469 	ldmdbvs	r3!, {r0, r3, r5, r6, sl, lr}^
     f08:	30676552 	rsbcc	r6, r7, r2, asr r5
     f0c:	70694d00 	rsbvc	r4, r9, r0, lsl #26
     f10:	69734469 	ldmdbvs	r3!, {r0, r3, r5, r6, sl, lr}^
     f14:	31676552 	cmncc	r7, r2, asr r5
     f18:	69734300 	ldmdbvs	r3!, {r8, r9, lr}^
     f1c:	5f720030 	svcpl	0x00720030
     f20:	6d637270 	sfmvs	f7, 2, [r3, #-448]!	; 0xfffffe40
     f24:	69705300 	ldmdbvs	r0!, {r8, r9, ip, lr}^
     f28:	70530030 	subsvc	r0, r3, r0, lsr r0
     f2c:	72003169 	andvc	r3, r0, #1073741850	; 0x4000001a
     f30:	72657365 	rsbvc	r7, r5, #-1811939327	; 0x94000001
     f34:	37646576 			; <UNDEFINED> instruction: 0x37646576
     f38:	6d430031 	stclvs	0, cr0, [r3, #-196]	; 0xffffff3c
     f3c:	67655275 			; <UNDEFINED> instruction: 0x67655275
     f40:	635f5f00 	cmpvs	pc, #0
     f44:	5f756d63 	svcpl	0x00756d63
     f48:	6c6c6c70 	stclvs	12, cr6, [ip], #-448	; 0xfffffe40
     f4c:	5f6b636f 	svcpl	0x006b636f
     f50:	30676572 	rsbcc	r6, r7, r2, ror r5
     f54:	5f303032 	svcpl	0x00303032
     f58:	6c500074 	mrrcvs	0, 7, r0, r0, cr4	; <UNPREDICTABLE>
     f5c:	7265506c 	rsbvc	r5, r5, #108	; 0x6c
     f60:	42687069 	rsbmi	r7, r8, #105	; 0x69
     f64:	00736169 	rsbseq	r6, r3, r9, ror #2
     f68:	696d6448 	stmdbvs	sp!, {r3, r6, sl, sp, lr}^
     f6c:	776f6c53 			; <UNDEFINED> instruction: 0x776f6c53
     f70:	006b6c43 	rsbeq	r6, fp, r3, asr #24
     f74:	446c6c50 	strbtmi	r6, [ip], #-3152	; 0xc50
     f78:	61507264 	cmpvs	r0, r4, ror #4
     f7c:	72657474 	rsbvc	r7, r5, #1946157056	; 0x74000000
     f80:	6d43006e 	stclvs	0, cr0, [r3, #-440]	; 0xfffffe48
     f84:	67655275 			; <UNDEFINED> instruction: 0x67655275
     f88:	7379535f 	cmnvc	r9, #2080374785	; 0x7c000001
     f8c:	446b6c43 	strbtmi	r6, [fp], #-3139	; 0xc43
     f90:	745f7669 	ldrbvc	r7, [pc], #-1641	; f98 <__standby_start+0xf98>
     f94:	5f00706d 	svcpl	0x0000706d
     f98:	6d63635f 	stclvs	3, cr6, [r3, #-380]!	; 0xfffffe84
     f9c:	65725f75 	ldrbvs	r5, [r2, #-3957]!	; 0xf75
     fa0:	696c5f67 	stmdbvs	ip!, {r0, r1, r2, r5, r6, r8, r9, sl, fp, ip, lr}^
     fa4:	745f7473 	ldrbvc	r7, [pc], #-1139	; fac <__standby_start+0xfac>
     fa8:	6c6c5000 	stclvs	0, cr5, [ip], #-0
     fac:	43316556 	teqmi	r1, #360710144	; 0x15800000
     fb0:	50006c74 	andpl	r6, r0, r4, ror ip
     fb4:	64446c6c 	strbvs	r6, [r4], #-3180	; 0xc6c
     fb8:	67655272 			; <UNDEFINED> instruction: 0x67655272
     fbc:	74615031 	strbtvc	r5, [r1], #-49	; 0x31
     fc0:	6e726574 	mrcvs	5, 3, r6, cr2, cr4, {3}
     fc4:	61724400 	cmnvs	r2, r0, lsl #8
     fc8:	6766436d 	strbvs	r4, [r6, -sp, ror #6]!
     fcc:	635f5f00 	cmpvs	pc, #0
     fd0:	5f756d63 	svcpl	0x00756d63
     fd4:	31626861 	cmncc	r2, r1, ror #16
     fd8:	7461725f 	strbtvc	r7, [r1], #-607	; 0x25f
     fdc:	725f6f69 	subsvc	r6, pc, #420	; 0x1a4
     fe0:	30306765 	eorscc	r6, r0, r5, ror #14
     fe4:	745f3435 	ldrbvc	r3, [pc], #-1077	; fec <__standby_start+0xfec>
     fe8:	73657200 	cmnvc	r5, #0
     fec:	65767265 	ldrbvs	r7, [r6, #-613]!	; 0x265
     ff0:	31313164 	teqcc	r1, r4, ror #2
     ff4:	6c6c5000 	stclvs	0, cr5, [ip], #-0
     ff8:	62617453 	rsbvs	r7, r1, #1392508928	; 0x53000000
     ffc:	7453656c 	ldrbvc	r6, [r3], #-1388	; 0x56c
    1000:	73757461 	cmnvc	r5, #1627389952	; 0x61000000
    1004:	6c6c5000 	stclvs	0, cr5, [ip], #-0
    1008:	65646956 	strbvs	r6, [r4, #-2390]!	; 0x956
    100c:	6552306f 	ldrbvs	r3, [r2, #-111]	; 0x6f
    1010:	61503167 	cmpvs	r0, r7, ror #2
    1014:	72657474 	rsbvc	r7, r5, #1946157056	; 0x74000000
    1018:	6f4c006e 	svcvs	0x004c006e
    101c:	69546b63 	ldmdbvs	r4, {r0, r1, r5, r6, r8, r9, fp, sp, lr}^
    1020:	5000656d 	andpl	r6, r0, sp, ror #10
    1024:	64446c6c 	strbvs	r6, [r4], #-3180	; 0xc6c
    1028:	67664372 			; <UNDEFINED> instruction: 0x67664372
    102c:	73657200 	cmnvc	r5, #0
    1030:	65767265 	ldrbvs	r7, [r6, #-613]!	; 0x265
    1034:	31303264 	teqcc	r0, r4, ror #4
    1038:	73657200 	cmnvc	r5, #0
    103c:	65767265 	ldrbvs	r7, [r6, #-613]!	; 0x265
    1040:	58410064 	stmdapl	r1, {r2, r5, r6}^
    1044:	6b6c4349 	blvs	1b11d70 <__standby_start+0x1b11d70>
    1048:	00766944 	rsbseq	r6, r6, r4, asr #18
    104c:	31627041 	cmncc	r2, r1, asr #32
    1050:	65746147 	ldrbvs	r6, [r4, #-327]!	; 0x147
    1054:	73657200 	cmnvc	r5, #0
    1058:	65767265 	ldrbvs	r7, [r6, #-613]!	; 0x265
    105c:	00313964 	eorseq	r3, r1, r4, ror #18
    1060:	65736572 	ldrbvs	r6, [r3, #-1394]!	; 0x572
    1064:	64657672 	strbtvs	r7, [r5], #-1650	; 0x672
    1068:	72003239 	andvc	r3, r0, #-1879048189	; 0x90000003
    106c:	72657365 	rsbvc	r7, r5, #-1811939327	; 0x94000001
    1070:	39646576 	stmdbcc	r4!, {r1, r2, r4, r5, r6, r8, sl, sp, lr}^
    1074:	65720033 	ldrbvs	r0, [r2, #-51]!	; 0x33
    1078:	76726573 			; <UNDEFINED> instruction: 0x76726573
    107c:	37316465 	ldrcc	r6, [r1, -r5, ror #8]!
    1080:	72003134 	andvc	r3, r0, #13
    1084:	72657365 	rsbvc	r7, r5, #-1811939327	; 0x94000001
    1088:	31646576 	smccc	18006	; 0x4656
    108c:	50003132 	andpl	r3, r0, r2, lsr r1
    1090:	43326c6c 	teqmi	r2, #27648	; 0x6c00
    1094:	5f006c74 	svcpl	0x00006c74
    1098:	4d43435f 	stclmi	3, cr4, [r3, #-380]	; 0xfffffe84
    109c:	45525f55 	ldrbmi	r5, [r2, #-3925]	; 0xf55
    10a0:	494c5f47 	stmdbmi	ip, {r0, r1, r2, r6, r8, r9, sl, fp, ip, lr}^
    10a4:	50005453 	andpl	r5, r0, r3, asr r4
    10a8:	31436c6c 	cmpcc	r3, ip, ror #24
    10ac:	78757043 	ldmdavc	r5!, {r0, r1, r6, ip, sp, lr}^
    10b0:	73616942 	cmnvc	r1, #1081344	; 0x108000
    10b4:	6e614e00 	cdpvs	14, 6, cr4, cr1, cr0, {0}
    10b8:	43003064 	movwmi	r3, #100	; 0x64
    10bc:	30346963 	eorscc	r6, r4, r3, ror #18
    10c0:	6b6c4330 	blvs	1b11d88 <__standby_start+0x1b11d88>
    10c4:	6c6c5000 	stclvs	0, cr5, [ip], #-0
    10c8:	6c744339 	ldclvs	3, cr4, [r4], #-228	; 0xffffff1c
    10cc:	61747300 	cmnvs	r4, r0, lsl #6
    10d0:	7962646e 	stmdbvc	r2!, {r1, r2, r3, r5, r6, sl, sp, lr}^
    10d4:	5f72695f 	svcpl	0x0072695f
    10d8:	74697865 	strbtvc	r7, [r9], #-2149	; 0x865
    10dc:	61747300 	cmnvs	r4, r0, lsl #6
    10e0:	7962646e 	stmdbvc	r2!, {r1, r2, r3, r5, r6, sl, sp, lr}^
    10e4:	5f72695f 	svcpl	0x0072695f
    10e8:	69726576 	ldmdbvs	r2!, {r1, r2, r4, r5, r6, r8, sl, sp, lr}^
    10ec:	61007966 	tstvs	r0, r6, ror #18
    10f0:	2f686372 	svccs	0x00686372
    10f4:	2f6d7261 	svccs	0x006d7261
    10f8:	6863616d 	stmdavs	r3!, {r0, r2, r3, r5, r6, r8, sp, lr}^
    10fc:	6e75732d 	cdpvs	3, 7, cr7, cr5, cr13, {1}
    1100:	702f6978 	eorvc	r6, pc, r8, ror r9	; <UNPREDICTABLE>
    1104:	74732f6d 	ldrbtvc	r2, [r3], #-3949	; 0xf6d
    1108:	62646e61 	rsbvs	r6, r4, #1552	; 0x610
    110c:	74732f79 	ldrbtvc	r2, [r3], #-3961	; 0xf79
    1110:	62646e61 	rsbvs	r6, r4, #1552	; 0x610
    1114:	72695f79 	rsbvc	r5, r9, #484	; 0x1e4
    1118:	7300632e 	movwvc	r6, #814	; 0x32e
    111c:	646e6174 	strbtvs	r6, [lr], #-372	; 0x174
    1120:	695f7962 	ldmdbvs	pc, {r1, r5, r6, r8, fp, ip, sp, lr}^	; <UNPREDICTABLE>
    1124:	6e695f72 	mcrvs	15, 3, r5, cr9, cr2, {3}
    1128:	73007469 	movwvc	r7, #1129	; 0x469
    112c:	646e6174 	strbtvs	r6, [lr], #-372	; 0x174
    1130:	695f7962 	ldmdbvs	pc, {r1, r5, r6, r8, fp, ip, sp, lr}^	; <UNPREDICTABLE>
    1134:	65645f72 	strbvs	r5, [r4, #-3954]!	; 0xf72
    1138:	74636574 	strbtvc	r6, [r3], #-1396	; 0x574
    113c:	79654b00 	stmdbvc	r5!, {r8, r9, fp, lr}^
    1140:	73746e49 	cmnvc	r4, #1168	; 0x490
    1144:	63726100 	cmnvs	r2, #0
    1148:	72612f68 	rsbvc	r2, r1, #416	; 0x1a0
    114c:	616d2f6d 	cmnvs	sp, sp, ror #30
    1150:	732d6863 	teqvc	sp, #6488064	; 0x630000
    1154:	69786e75 	ldmdbvs	r8!, {r0, r2, r4, r5, r6, r9, sl, fp, sp, lr}^
    1158:	2f6d702f 	svccs	0x006d702f
    115c:	6e617473 	mcrvs	4, 3, r7, cr1, cr3, {3}
    1160:	2f796264 	svccs	0x00796264
    1164:	6e617473 	mcrvs	4, 3, r7, cr1, cr3, {3}
    1168:	5f796264 	svcpl	0x00796264
    116c:	2e79656b 	cdpcs	5, 7, cr6, cr9, cr11, {3}
    1170:	74730063 	ldrbtvc	r0, [r3], #-99	; 0x63
    1174:	62646e61 	rsbvs	r6, r4, #1552	; 0x610
    1178:	656b5f79 	strbvs	r5, [fp, #-3961]!	; 0xf79
    117c:	78655f79 	stmdavc	r5!, {r0, r3, r4, r5, r6, r8, r9, sl, fp, ip, lr}^
    1180:	73007469 	movwvc	r7, #1129	; 0x469
    1184:	646e6174 	strbtvs	r6, [lr], #-372	; 0x174
    1188:	715f7962 	cmpvc	pc, r2, ror #18
    118c:	79726575 	ldmdbvc	r2!, {r0, r2, r4, r5, r6, r8, sl, sp, lr}^
    1190:	79656b5f 	stmdbvc	r5!, {r0, r1, r2, r3, r4, r6, r8, r9, fp, sp, lr}^
    1194:	61724c00 	cmnvs	r2, r0, lsl #24
    1198:	445f6364 	ldrbmi	r6, [pc], #-868	; 11a0 <__standby_start+0x11a0>
    119c:	30617461 	rsbcc	r7, r1, r1, ror #8
    11a0:	61724c00 	cmnvs	r2, r0, lsl #24
    11a4:	445f6364 	ldrbmi	r6, [pc], #-868	; 11ac <__standby_start+0x11ac>
    11a8:	31617461 	cmncc	r1, r1, ror #8
    11ac:	79654b00 	stmdbvc	r5!, {r8, r9, fp, lr}^
    11b0:	00676552 	rsbeq	r6, r7, r2, asr r5
    11b4:	6461724c 	strbtvs	r7, [r1], #-588	; 0x24c
    11b8:	74435f63 	strbvc	r5, [r3], #-3939	; 0xf63
    11bc:	4b006c72 	blmi	1c38c <__standby_start+0x1c38c>
    11c0:	61447965 	cmpvs	r4, r5, ror #18
    11c4:	00316174 	eorseq	r6, r1, r4, ror r1
    11c8:	4379654b 	cmnmi	r9, #314572800	; 0x12c00000
    11cc:	006c7274 	rsbeq	r7, ip, r4, ror r2
    11d0:	54535f5f 	ldrbpl	r5, [r3], #-3935	; 0xf5f
    11d4:	42444e41 	submi	r4, r4, #1040	; 0x410
    11d8:	454b5f59 	strbmi	r5, [fp, #-3929]	; 0xf59
    11dc:	45525f59 	ldrbmi	r5, [r2, #-3929]	; 0xf59
    11e0:	5f5f0047 	svcpl	0x005f0047
    11e4:	6e617473 	mcrvs	4, 3, r7, cr1, cr3, {3}
    11e8:	5f796264 	svcpl	0x00796264
    11ec:	5f79656b 	svcpl	0x0079656b
    11f0:	5f676572 	svcpl	0x00676572
    11f4:	724c0074 	subvc	r0, ip, #116	; 0x74
    11f8:	5f636461 	svcpl	0x00636461
    11fc:	63746e49 	cmnvs	r4, #1168	; 0x490
    1200:	61724c00 	cmnvs	r2, r0, lsl #24
    1204:	495f6364 	ldmdbmi	pc, {r2, r5, r6, r8, r9, sp, lr}^	; <UNPREDICTABLE>
    1208:	0073746e 	rsbseq	r7, r3, lr, ror #8
    120c:	4479654b 	ldrbtmi	r6, [r9], #-1355	; 0x54b
    1210:	30617461 	rsbcc	r7, r1, r1, ror #8
    1214:	79654b00 	stmdbvc	r5!, {r8, r9, fp, lr}^
    1218:	63746e49 	cmnvs	r4, #1168	; 0x490
    121c:	61747300 	cmnvs	r4, r0, lsl #6
    1220:	7962646e 	stmdbvc	r2!, {r1, r2, r3, r5, r6, sl, sp, lr}^
    1224:	79656b5f 	stmdbvc	r5!, {r0, r1, r2, r3, r4, r6, r8, r9, fp, sp, lr}^
    1228:	696e695f 	stmdbvs	lr!, {r0, r1, r2, r3, r4, r6, r8, fp, sp, lr}^
    122c:	68630074 	stmdavs	r3!, {r2, r4, r5, r6}^
    1230:	5f6b6365 	svcpl	0x006b6365
    1234:	676e6172 			; <UNDEFINED> instruction: 0x676e6172
    1238:	4f500065 	svcmi	0x00500065
    123c:	5f524557 	svcpl	0x00524557
    1240:	5f4c4f56 	svcpl	0x004c4f56
    1244:	43444344 	movtmi	r4, #17220	; 0x4344
    1248:	4f500031 	svcmi	0x00500031
    124c:	5f524557 	svcpl	0x00524557
    1250:	5f4c4f56 	svcpl	0x004c4f56
    1254:	43444344 	movtmi	r4, #17220	; 0x4344
    1258:	4f500032 	svcmi	0x00500032
    125c:	5f524557 	svcpl	0x00524557
    1260:	5f4c4f56 	svcpl	0x004c4f56
    1264:	43444344 	movtmi	r4, #17220	; 0x4344
    1268:	78610033 	stmdavc	r1!, {r0, r1, r4, r5}^
    126c:	5f303270 	svcpl	0x00303270
    1270:	6f666e69 	svcvs	0x00666e69
    1274:	61747300 	cmnvs	r4, r0, lsl #6
    1278:	7962646e 	stmdbvc	r2!, {r1, r2, r3, r5, r6, sl, sp, lr}^
    127c:	7465735f 	strbtvc	r7, [r5], #-863	; 0x35f
    1280:	6c6f765f 	stclvs	6, cr7, [pc], #-380	; 110c <__standby_start+0x110c>
    1284:	65676174 	strbvs	r6, [r7, #-372]!	; 0x174
    1288:	78616d00 	stmdavc	r1!, {r8, sl, fp, sp, lr}^
    128c:	0056755f 	subseq	r7, r6, pc, asr r5
    1290:	70657473 	rsbvc	r7, r5, r3, ror r4
    1294:	0056755f 	subseq	r7, r6, pc, asr r5
    1298:	68637261 	stmdavs	r3!, {r0, r5, r6, r9, ip, sp, lr}^
    129c:	6d72612f 	ldfvse	f6, [r2, #-188]!	; 0xffffff44
    12a0:	63616d2f 	cmnvs	r1, #3008	; 0xbc0
    12a4:	75732d68 	ldrbvc	r2, [r3, #-3432]!	; 0xd68
    12a8:	2f69786e 	svccs	0x0069786e
    12ac:	732f6d70 	teqvc	pc, #7168	; 0x1c00
    12b0:	646e6174 	strbtvs	r6, [lr], #-372	; 0x174
    12b4:	732f7962 	teqvc	pc, #1605632	; 0x188000
    12b8:	646e6174 	strbtvs	r6, [lr], #-372	; 0x174
    12bc:	705f7962 	subsvc	r7, pc, r2, ror #18
    12c0:	7265776f 	rsbvc	r7, r5, #29097984	; 0x1bc0000
    12c4:	7300632e 	movwvc	r6, #814	; 0x32e
    12c8:	646e6174 	strbtvs	r6, [lr], #-372	; 0x174
    12cc:	675f7962 	ldrbvs	r7, [pc, -r2, ror #18]
    12d0:	765f7465 	ldrbvc	r7, [pc], -r5, ror #8
    12d4:	61746c6f 	cmnvs	r4, pc, ror #24
    12d8:	76006567 	strvc	r6, [r0], -r7, ror #10
    12dc:	725f6c6f 	subsvc	r6, pc, #28416	; 0x6f00
    12e0:	6d006765 	stcvs	7, cr6, [r0, #-404]	; 0xfffffe6c
    12e4:	755f6e69 	ldrbvc	r6, [pc, #-3689]	; 483 <__standby_start+0x483>
    12e8:	4f500056 	svcmi	0x00500056
    12ec:	5f524557 	svcpl	0x00524557
    12f0:	5f4c4f56 	svcpl	0x004c4f56
    12f4:	314f444c 	cmpcc	pc, ip, asr #8
    12f8:	574f5000 	strbpl	r5, [pc, -r0]
    12fc:	565f5245 	ldrbpl	r5, [pc], -r5, asr #4
    1300:	4c5f4c4f 	mrrcmi	12, 4, r4, pc, cr15	; <UNPREDICTABLE>
    1304:	00324f44 	eorseq	r4, r2, r4, asr #30
    1308:	45574f50 	ldrbmi	r4, [r7, #-3920]	; 0xf50
    130c:	4f565f52 	svcmi	0x00565f52
    1310:	444c5f4c 	strbmi	r5, [ip], #-3916	; 0xf4c
    1314:	5000334f 	andpl	r3, r0, pc, asr #6
    1318:	5245574f 	subpl	r5, r5, #20709376	; 0x13c0000
    131c:	4c4f565f 	mcrrmi	6, 5, r5, pc, cr15
    1320:	4f444c5f 	svcmi	0x00444c5f
    1324:	79740034 	ldmdbvc	r4!, {r2, r4, r5}^
    1328:	72006570 	andvc	r6, r0, #469762048	; 0x1c000000
    132c:	765f6765 	ldrbvc	r6, [pc], -r5, ror #14
    1330:	54006c61 	strpl	r6, [r0], #-3169	; 0xc61
    1334:	4f5f4957 	svcmi	0x005f4957
    1338:	44525f50 	ldrbmi	r5, [r2], #-3920	; 0xf50
    133c:	776f7000 	strbvc	r7, [pc, -r0]!
    1340:	765f7265 	ldrbvc	r7, [pc], -r5, ror #4
    1344:	745f6c6f 	ldrbvc	r6, [pc], #-3183	; 134c <__standby_start+0x134c>
    1348:	5f657079 	svcpl	0x00657079
    134c:	6f760065 	svcvs	0x00760065
    1350:	626e5f6c 	rsbvs	r5, lr, #432	; 0x1b0
    1354:	00737469 	rsbseq	r7, r3, r9, ror #8
    1358:	32707861 	rsbscc	r7, r0, #6356992	; 0x610000
    135c:	646c5f30 	strbtvs	r5, [ip], #-3888	; 0xf30
    1360:	645f346f 	ldrbvs	r3, [pc], #-1135	; 1368 <__standby_start+0x1368>
    1364:	00617461 	rsbeq	r7, r1, r1, ror #8
    1368:	38755f5f 	ldmdacc	r5!, {r0, r1, r2, r3, r4, r6, r8, r9, sl, fp, ip, lr}^
    136c:	6c6f7600 	stclvs	6, cr7, [pc], #-0	; 1374 <__standby_start+0x1374>
    1370:	6968735f 	stmdbvs	r8!, {r0, r1, r2, r3, r4, r6, r8, r9, ip, sp, lr}^
    1374:	61007466 	tstvs	r0, r6, ror #8
    1378:	695f7078 	ldmdbvs	pc, {r3, r4, r5, r6, ip, sp, lr}^	; <UNPREDICTABLE>
    137c:	006f666e 	rsbeq	r6, pc, lr, ror #12
    1380:	646e6966 	strbtvs	r6, [lr], #-2406	; 0x966
    1384:	666e695f 			; <UNDEFINED> instruction: 0x666e695f
    1388:	7774006f 	ldrbvc	r0, [r4, -pc, rrx]!
    138c:	706f5f69 	rsbvc	r5, pc, r9, ror #30
    1390:	7079745f 	rsbsvc	r7, r9, pc, asr r4
    1394:	00655f65 	rsbeq	r5, r5, r5, ror #30
    1398:	5f495754 	svcpl	0x00495754
    139c:	575f504f 	ldrbpl	r5, [pc, -pc, asr #32]
    13a0:	74730052 	ldrbtvc	r0, [r3], #-82	; 0x52
    13a4:	6f5f706f 	svcvs	0x005f706f
    13a8:	62007475 	andvs	r7, r0, #1962934272	; 0x75000000
    13ac:	72646461 	rsbvc	r6, r4, #1627389952	; 0x61000000
    13b0:	69775400 	ldmdbvs	r7!, {sl, ip, lr}^
    13b4:	526b6c43 	rsbpl	r6, fp, #17152	; 0x4300
    13b8:	61426765 	cmpvs	r2, r5, ror #14
    13bc:	6572006b 	ldrbvs	r0, [r2, #-107]!	; 0x6b
    13c0:	61735f67 	cmnvs	r3, r7, ror #30
    13c4:	00726464 	rsbseq	r6, r2, r4, ror #8
    13c8:	5f697774 	svcpl	0x00697774
    13cc:	65747962 	ldrbvs	r7, [r4, #-2402]!	; 0x962
    13d0:	0077725f 	rsbseq	r7, r7, pc, asr r2
    13d4:	68637261 	stmdavs	r3!, {r0, r5, r6, r9, ip, sp, lr}^
    13d8:	6d72612f 	ldfvse	f6, [r2, #-188]!	; 0xffffff44
    13dc:	63616d2f 	cmnvs	r1, #3008	; 0xbc0
    13e0:	75732d68 	ldrbvc	r2, [r3, #-3432]!	; 0xd68
    13e4:	2f69786e 	svccs	0x0069786e
    13e8:	732f6d70 	teqvc	pc, #7168	; 0x1c00
    13ec:	646e6174 	strbtvs	r6, [lr], #-372	; 0x174
    13f0:	732f7962 	teqvc	pc, #1605632	; 0x188000
    13f4:	646e6174 	strbtvs	r6, [lr], #-372	; 0x174
    13f8:	745f7962 	ldrbvc	r7, [pc], #-2402	; 1400 <__standby_start+0x1400>
    13fc:	632e6977 	teqvs	lr, #1949696	; 0x1dc000
    1400:	67657200 	strbvs	r7, [r5, -r0, lsl #4]!
    1404:	6173785f 	cmnvs	r3, pc, asr r8
    1408:	00726464 	rsbseq	r6, r2, r4, ror #8
    140c:	5f676572 	svcpl	0x00676572
    1410:	74617473 	strbtvc	r7, [r1], #-1139	; 0x473
    1414:	72007375 	andvc	r7, r0, #-738197503	; 0xd4000001
    1418:	725f6765 	subsvc	r6, pc, #26476544	; 0x1940000
    141c:	74657365 	strbtvc	r7, [r5], #-869	; 0x365
    1420:	74735f00 	ldrbtvc	r5, [r3], #-3840	; 0xf00
    1424:	62646e61 	rsbvs	r6, r4, #1552	; 0x610
    1428:	77745f79 			; <UNDEFINED> instruction: 0x77745f79
    142c:	74735f69 	ldrbtvc	r5, [r3], #-3945	; 0xf69
    1430:	7300706f 	movwvc	r7, #111	; 0x6f
    1434:	646e6174 	strbtvs	r6, [lr], #-372	; 0x174
    1438:	745f7962 	ldrbvc	r7, [pc], #-2402	; 1440 <__standby_start+0x1440>
    143c:	655f6977 	ldrbvs	r6, [pc, #-2423]	; acd <__standby_start+0xacd>
    1440:	00746978 	rsbseq	r6, r4, r8, ror r9
    1444:	756f7267 	strbvc	r7, [pc, #-615]!	; 11e5 <__standby_start+0x11e5>
    1448:	74730070 	ldrbtvc	r0, [r3], #-112	; 0x70
    144c:	5f657461 	svcpl	0x00657461
    1450:	00706d74 	rsbseq	r6, r0, r4, ror sp
    1454:	6e617473 	mcrvs	4, 3, r7, cr1, cr3, {3}
    1458:	5f796264 	svcpl	0x00796264
    145c:	5f697774 	svcpl	0x00697774
    1460:	74696e69 	strbtvc	r6, [r9], #-3689	; 0xe69
    1464:	69777400 	ldmdbvs	r7!, {sl, ip, sp, lr}^
    1468:	6765725f 			; <UNDEFINED> instruction: 0x6765725f
    146c:	67657200 	strbvs	r7, [r5, -r0, lsl #4]!
    1470:	7461645f 	strbtvc	r6, [r1], #-1119	; 0x45f
    1474:	65720061 	ldrbvs	r0, [r2, #-97]!	; 0x61
    1478:	74635f67 	strbtvc	r5, [r3], #-3943	; 0xf67
    147c:	6572006c 	ldrbvs	r0, [r2, #-108]!	; 0x6c
    1480:	636c5f67 	cmnvs	ip, #412	; 0x19c
    1484:	74006c74 	strvc	r6, [r0], #-3188	; 0xc74
    1488:	745f6761 	ldrbvc	r6, [pc], #-1889	; 1490 <__standby_start+0x1490>
    148c:	5f636977 	svcpl	0x00636977
    1490:	00676572 	rsbeq	r6, r7, r2, ror r5
    1494:	5f706f6e 	svcpl	0x00706f6e
    1498:	64616572 	strbtvs	r6, [r1], #-1394	; 0x572
    149c:	67657200 	strbvs	r7, [r5, -r0, lsl #4]!
    14a0:	7266655f 	rsbvc	r6, r6, #398458880	; 0x17c00000
    14a4:	745f5f00 	ldrbvc	r5, [pc], #-3840	; 14ac <__standby_start+0x14ac>
    14a8:	5f636977 	svcpl	0x00636977
    14ac:	5f676572 	svcpl	0x00676572
    14b0:	77540074 			; <UNDEFINED> instruction: 0x77540074
    14b4:	6c744369 	ldclvs	3, cr4, [r4], #-420	; 0xfffffe5c
    14b8:	42676552 	rsbmi	r6, r7, #343932928	; 0x14800000
    14bc:	72006b61 	andvc	r6, r0, #99328	; 0x18400
    14c0:	635f6765 	cmpvs	pc, #26476544	; 0x1940000
    14c4:	00726b6c 	rsbseq	r6, r2, ip, ror #22
    14c8:	5f495754 	svcpl	0x00495754
    14cc:	5f474552 	svcpl	0x00474552
    14d0:	45534142 	ldrbmi	r4, [r3, #-322]	; 0x142
    14d4:	63726100 	cmnvs	r2, #0
    14d8:	72612f68 	rsbvc	r2, r1, #416	; 0x1a0
    14dc:	616d2f6d 	cmnvs	sp, sp, ror #30
    14e0:	732d6863 	teqvc	sp, #6488064	; 0x630000
    14e4:	69786e75 	ldmdbvs	r8!, {r0, r2, r4, r5, r6, r9, sl, fp, sp, lr}^
    14e8:	2f6d702f 	svccs	0x006d702f
    14ec:	6e617473 	mcrvs	4, 3, r7, cr1, cr3, {3}
    14f0:	2f796264 	svccs	0x00796264
    14f4:	6e617473 	mcrvs	4, 3, r7, cr1, cr3, {3}
    14f8:	5f796264 	svcpl	0x00796264
    14fc:	2e627375 	mcrcs	3, 3, r7, cr2, cr5, {3}
    1500:	74730063 	ldrbtvc	r0, [r3], #-99	; 0x63
    1504:	62646e61 	rsbvs	r6, r4, #1552	; 0x610
    1508:	73755f79 	cmnvc	r5, #484	; 0x1e4
    150c:	78655f62 	stmdavc	r5!, {r1, r5, r6, r8, r9, sl, fp, ip, lr}^
    1510:	73007469 	movwvc	r7, #1129	; 0x469
    1514:	646e6174 	strbtvs	r6, [lr], #-372	; 0x174
    1518:	695f7962 	ldmdbvs	pc, {r1, r5, r6, r8, fp, ip, sp, lr}^	; <UNPREDICTABLE>
    151c:	73755f73 	cmnvc	r5, #460	; 0x1cc
    1520:	74735f62 	ldrbtvc	r5, [r3], #-3938	; 0xf62
    1524:	73757461 	cmnvc	r5, #1627389952	; 0x61000000
    1528:	6168635f 	cmnvs	r8, pc, asr r3
    152c:	0065676e 	rsbeq	r6, r5, lr, ror #14
    1530:	6e617473 	mcrvs	4, 3, r7, cr1, cr3, {3}
    1534:	5f796264 	svcpl	0x00796264
    1538:	72657571 	rsbvc	r7, r5, #473956352	; 0x1c400000
    153c:	73755f79 	cmnvc	r5, #484	; 0x1e4
    1540:	76655f62 	strbtvc	r5, [r5], -r2, ror #30
    1544:	00746e65 	rsbseq	r6, r4, r5, ror #28
    1548:	6e617473 	mcrvs	4, 3, r7, cr1, cr3, {3}
    154c:	5f796264 	svcpl	0x00796264
    1550:	5f627375 	svcpl	0x00627375
    1554:	74696e69 	strbtvc	r6, [r9], #-3689	; 0xe69
    1558:	67657200 	strbvs	r7, [r5, -r0, lsl #4]!
    155c:	6c65735f 	stclvs	3, cr7, [r5], #-380	; 0xfffffe84
    1560:	5f6f6900 	svcpl	0x006f6900
    1564:	74696e69 	strbtvc	r6, [r9], #-3689	; 0xe69
    1568:	6769685f 			; <UNDEFINED> instruction: 0x6769685f
    156c:	6f6c0068 	svcvs	0x006c0068
    1570:	665f706f 	ldrbvs	r7, [pc], -pc, rrx
    1574:	0067616c 	rsbeq	r6, r7, ip, ror #2
    1578:	74617473 	strbtvc	r7, [r1], #-1139	; 0x473
    157c:	725f7375 	subsvc	r7, pc, #-738197503	; 0xd4000001
    1580:	73006765 	movwvc	r6, #1893	; 0x765
    1584:	75746174 	ldrbvc	r6, [r4, #-372]!	; 0x174
    1588:	65725f73 	ldrbvs	r5, [r2, #-3955]!	; 0xf73
    158c:	6d745f67 	ldclvs	15, cr5, [r4, #-412]!	; 0xfffffe64
    1590:	61730070 	cmnvs	r3, r0, ror r0
    1594:	6d5f6576 	cfldr64vs	mvdx6, [pc, #-472]	; 13c4 <__standby_start+0x13c4>
    1598:	735f6d65 	cmpvc	pc, #6464	; 0x1940
    159c:	75746174 	ldrbvc	r6, [r4, #-372]!	; 0x174
    15a0:	6f6e5f73 	svcvs	0x006e5f73
    15a4:	00756d6d 	rsbseq	r6, r5, sp, ror #26
    15a8:	685f6f69 	ldmdavs	pc, {r0, r3, r5, r6, r8, r9, sl, fp, sp, lr}^	; <UNPREDICTABLE>
    15ac:	00686769 	rsbeq	r6, r8, r9, ror #14
    15b0:	61746164 	cmnvs	r4, r4, ror #2
    15b4:	0064725f 	rsbeq	r7, r4, pc, asr r2
    15b8:	5f6d656d 	svcpl	0x006d656d
    15bc:	74617473 	strbtvc	r7, [r1], #-1139	; 0x473
    15c0:	695f7375 	ldmdbvs	pc, {r0, r2, r4, r5, r6, r8, r9, ip, sp, lr}^	; <UNPREDICTABLE>
    15c4:	5f74696e 	svcpl	0x0074696e
    15c8:	6d6d6f6e 	stclvs	15, cr6, [sp, #-440]!	; 0xfffffe48
    15cc:	61730075 	cmnvs	r3, r5, ror r0
    15d0:	6d5f6576 	cfldr64vs	mvdx6, [pc, #-472]	; 1400 <__standby_start+0x1400>
    15d4:	665f6d65 	ldrbvs	r6, [pc], -r5, ror #26
    15d8:	0067616c 	rsbeq	r6, r7, ip, ror #2
    15dc:	5f6d656d 	svcpl	0x006d656d
    15e0:	74617473 	strbtvc	r7, [r1], #-1139	; 0x473
    15e4:	635f7375 	cmpvs	pc, #-738197503	; 0xd4000001
    15e8:	7261656c 	rsbvc	r6, r1, #452984832	; 0x1b000000
    15ec:	69727000 	ldmdbvs	r2!, {ip, sp, lr}^
    15f0:	665f746e 	ldrbvs	r7, [pc], -lr, ror #8
    15f4:	0067616c 	rsbeq	r6, r7, ip, ror #2
    15f8:	695f6f69 	ldmdbvs	pc, {r0, r3, r5, r6, r8, r9, sl, fp, sp, lr}^	; <UNPREDICTABLE>
    15fc:	0074696e 	rsbseq	r6, r4, lr, ror #18
    1600:	5f6d656d 	svcpl	0x006d656d
    1604:	74617473 	strbtvc	r7, [r1], #-1139	; 0x473
    1608:	695f7375 	ldmdbvs	pc, {r0, r2, r4, r5, r6, r8, r9, ip, sp, lr}^	; <UNPREDICTABLE>
    160c:	0074696e 	rsbseq	r6, r4, lr, ror #18
    1610:	5f746567 	svcpl	0x00746567
    1614:	5f6d656d 	svcpl	0x006d656d
    1618:	74617473 	strbtvc	r7, [r1], #-1139	; 0x473
    161c:	69007375 	stmdbvs	r0, {r0, r2, r4, r5, r6, r8, r9, ip, sp, lr}
    1620:	6e695f6f 	cdpvs	15, 6, cr5, cr9, cr15, {3}
    1624:	6c5f7469 	cfldrdvs	mvd7, [pc], {105}	; 0x69
    1628:	6400776f 	strvs	r7, [r0], #-1903	; 0x76f
    162c:	5f617461 	svcpl	0x00617461
    1630:	73007277 	movwvc	r7, #631	; 0x277
    1634:	5f776f68 	svcpl	0x00776f68
    1638:	5f6d656d 	svcpl	0x006d656d
    163c:	74617473 	strbtvc	r7, [r1], #-1139	; 0x473
    1640:	73007375 	movwvc	r7, #885	; 0x375
    1644:	75746174 	ldrbvc	r6, [r4, #-372]!	; 0x174
    1648:	65725f73 	ldrbvs	r5, [r2, #-3955]!	; 0xf73
    164c:	61705f67 	cmnvs	r0, r7, ror #30
    1650:	706d745f 	rsbvc	r7, sp, pc, asr r4
    1654:	63726100 	cmnvs	r2, #0
    1658:	72612f68 	rsbvc	r2, r1, #416	; 0x1a0
    165c:	616d2f6d 	cmnvs	sp, sp, ror #30
    1660:	732d6863 	teqvc	sp, #6488064	; 0x630000
    1664:	69786e75 	ldmdbvs	r8!, {r0, r2, r4, r5, r6, r9, sl, fp, sp, lr}^
    1668:	2f6d702f 	svccs	0x006d702f
    166c:	6e617473 	mcrvs	4, 3, r7, cr1, cr3, {3}
    1670:	2f796264 	svccs	0x00796264
    1674:	2e2e2f2e 	cdpcs	15, 2, cr2, cr14, cr14, {1}
    1678:	5f6d702f 	svcpl	0x006d702f
    167c:	75626564 	strbvc	r6, [r2, #-1380]!	; 0x564
    1680:	00632e67 	rsbeq	r2, r3, r7, ror #28
    1684:	61656c63 	cmnvs	r5, r3, ror #24
    1688:	656d5f72 	strbvs	r5, [sp, #-3954]!	; 0xf72
    168c:	6c665f6d 	stclvs	15, cr5, [r6], #-436	; 0xfffffe4c
    1690:	6d006761 	stcvs	7, cr6, [r0, #-388]	; 0xfffffe7c
    1694:	735f6d65 	cmpvc	pc, #6464	; 0x1940
    1698:	75746174 	ldrbvc	r6, [r4, #-372]!	; 0x174
    169c:	78655f73 	stmdavc	r5!, {r0, r1, r4, r5, r6, r8, r9, sl, fp, ip, lr}^
    16a0:	73007469 	movwvc	r7, #1129	; 0x469
    16a4:	75746174 	ldrbvc	r6, [r4, #-372]!	; 0x174
    16a8:	65725f73 	ldrbvs	r5, [r2, #-3955]!	; 0xf73
    16ac:	61705f67 	cmnvs	r0, r7, ror #30
    16b0:	725f5f00 	subsvc	r5, pc, #0
    16b4:	6f69705f 	svcvs	0x0069705f
    16b8:	6461705f 	strbtvs	r7, [r1], #-95	; 0x5f
    16bc:	6c6f685f 	stclvs	8, cr6, [pc], #-380	; 1548 <__standby_start+0x1548>
    16c0:	75620064 	strbvc	r0, [r2, #-100]!	; 0x64
    16c4:	775f7973 			; <UNDEFINED> instruction: 0x775f7973
    16c8:	69746961 	ldmdbvs	r4!, {r0, r5, r6, r8, fp, sp, lr}^
    16cc:	7300676e 	movwvc	r6, #1902	; 0x76e
    16d0:	5f657661 	svcpl	0x00657661
    16d4:	5f6d656d 	svcpl	0x006d656d
    16d8:	74617473 	strbtvc	r7, [r1], #-1139	; 0x473
    16dc:	5f007375 	svcpl	0x00007375
    16e0:	705f725f 	subsvc	r7, pc, pc, asr r2	; <UNPREDICTABLE>
    16e4:	5f6d6372 	svcpl	0x006d6372
    16e8:	5f6f6970 	svcpl	0x006f6970
    16ec:	5f646170 	svcpl	0x00646170
    16f0:	646c6f68 	strbtvs	r6, [ip], #-3944	; 0xf68
    16f4:	5f727700 	svcpl	0x00727700
    16f8:	736c7570 	cmnvc	ip, #469762048	; 0x1c000000
    16fc:	6f630065 	svcvs	0x00630065
    1700:	65746e75 	ldrbvs	r6, [r4, #-3701]!	; 0xe75
    1704:	6e655f72 	mcrvs	15, 3, r5, cr5, cr2, {3}
    1708:	656c6261 	strbvs	r6, [ip, #-609]!	; 0x261
    170c:	6c656400 	cfstrdvs	mvd6, [r5], #-0
    1710:	6d5f7961 	ldclvs	9, cr7, [pc, #-388]	; 1594 <__standby_start+0x1594>
    1714:	61740073 	cmnvs	r4, r3, ror r0
    1718:	74656772 	strbtvc	r6, [r5], #-1906	; 0x772
    171c:	61686300 	cmnvs	r8, r0, lsl #6
    1720:	5f65676e 	svcpl	0x0065676e
    1724:	746e7572 	strbtvc	r7, [lr], #-1394	; 0x572
    1728:	5f656d69 	svcpl	0x00656d69
    172c:	00766e65 	rsbseq	r6, r6, r5, ror #28
    1730:	68637261 	stmdavs	r3!, {r0, r5, r6, r9, ip, sp, lr}^
    1734:	6d72612f 	ldfvse	f6, [r2, #-188]!	; 0xffffff44
    1738:	63616d2f 	cmnvs	r1, #3008	; 0xbc0
    173c:	75732d68 	ldrbvc	r2, [r3, #-3432]!	; 0xd68
    1740:	2f69786e 	svccs	0x0069786e
    1744:	732f6d70 	teqvc	pc, #7168	; 0x1c00
    1748:	646e6174 	strbtvs	r6, [lr], #-372	; 0x174
    174c:	2e2f7962 	cdpcs	9, 2, cr7, cr15, cr2, {3}
    1750:	2f2e2e2f 	svccs	0x002e2e2f
    1754:	5f6d656d 	svcpl	0x006d656d
    1758:	696d6974 	stmdbvs	sp!, {r2, r4, r5, r6, r8, fp, sp, lr}^
    175c:	632e676e 	teqvs	lr, #28835840	; 0x1b80000
    1760:	73657200 	cmnvc	r5, #0
    1764:	65726f74 	ldrbvs	r6, [r2, #-3956]!	; 0xf74
    1768:	7265705f 	rsbvc	r7, r5, #95	; 0x5f
    176c:	756f6366 	strbvc	r6, [pc, #-870]!	; 140e <__standby_start+0x140e>
    1770:	7265746e 	rsbvc	r7, r5, #1845493760	; 0x6e000000
    1774:	6c656400 	cfstrdvs	mvd6, [r5], #-0
    1778:	755f7961 	ldrbvc	r7, [pc, #-2401]	; e1f <__standby_start+0xe1f>
    177c:	766f0073 			; <UNDEFINED> instruction: 0x766f0073
    1780:	65687265 	strbvs	r7, [r8, #-613]!	; 0x265
    1784:	67006461 	strvs	r6, [r0, -r1, ror #8]
    1788:	655f7465 	ldrbvs	r7, [pc, #-1125]	; 132b <__standby_start+0x132b>
    178c:	746e6576 	strbtvc	r6, [lr], #-1398	; 0x576
    1790:	756f635f 	strbvc	r6, [pc, #-863]!	; 1439 <__standby_start+0x1439>
    1794:	7265746e 	rsbvc	r7, r5, #1845493760	; 0x6e000000
    1798:	616e6500 	cmnvs	lr, r0, lsl #10
    179c:	5f656c62 	svcpl	0x00656c62
    17a0:	69766964 	ldmdbvs	r6!, {r2, r5, r6, r8, fp, sp, lr}^
    17a4:	00726564 	rsbseq	r6, r2, r4, ror #10
    17a8:	65736572 	ldrbvs	r6, [r3, #-1394]!	; 0x572
    17ac:	6f635f74 	svcvs	0x00635f74
    17b0:	65746e75 	ldrbvs	r6, [r4, #-3701]!	; 0xe75
    17b4:	6e630072 	mcrvs	0, 3, r0, cr3, cr2, {3}
    17b8:	00726574 	rsbseq	r6, r2, r4, ror r5
    17bc:	6b636162 	blvs	18d9d4c <__standby_start+0x18d9d4c>
    17c0:	705f7075 	subsvc	r7, pc, r5, ror r0	; <UNPREDICTABLE>
    17c4:	5f667265 	svcpl	0x00667265
    17c8:	6e756f63 	cdpvs	15, 7, cr6, cr5, cr3, {3}
    17cc:	5f726574 	svcpl	0x00726574
    17d0:	62616e65 	rsbvs	r6, r1, #1616	; 0x650
    17d4:	725f656c 	subsvc	r6, pc, #452984832	; 0x1b000000
    17d8:	75006765 	strvc	r6, [r0, #-1893]	; 0x765
    17dc:	6e635f73 	mcrvs	15, 3, r5, cr3, cr3, {3}
    17e0:	6f640074 	svcvs	0x00640074
    17e4:	7365725f 	cmnvc	r5, #-268435451	; 0xf0000005
    17e8:	62007465 	andvs	r7, r0, #1694498816	; 0x65000000
    17ec:	756b6361 	strbvc	r6, [fp, #-865]!	; 0x361
    17f0:	65705f70 	ldrbvs	r5, [r0, #-3952]!	; 0xf70
    17f4:	6f636672 	svcvs	0x00636672
    17f8:	65746e75 	ldrbvs	r6, [r4, #-3701]!	; 0xe75
    17fc:	76650072 			; <UNDEFINED> instruction: 0x76650072
    1800:	5f746e65 	svcpl	0x00746e65
    1804:	00746e63 	rsbseq	r6, r4, r3, ror #28
    1808:	6b636162 	blvs	18d9d98 <__standby_start+0x18d9d98>
    180c:	705f7075 	subsvc	r7, pc, r5, ror r0	; <UNPREDICTABLE>
    1810:	5f667265 	svcpl	0x00667265
    1814:	6e756f63 	cdpvs	15, 7, cr6, cr5, cr3, {3}
    1818:	5f726574 	svcpl	0x00726574
    181c:	6c727463 	cfldrdvs	mvd7, [r2], #-396	; 0xfffffe74
    1820:	6765725f 			; <UNDEFINED> instruction: 0x6765725f
    1824:	74656700 	strbtvc	r6, [r5], #-1792	; 0x700
    1828:	6379635f 	cmnvs	r9, #2080374785	; 0x7c000001
    182c:	6f63656c 	svcvs	0x0063656c
    1830:	00746e75 	rsbseq	r6, r4, r5, ror lr
    1834:	74696e69 	strbtvc	r6, [r9], #-3689	; 0xe69
    1838:	7265705f 	rsbvc	r7, r5, #95	; 0x5f
    183c:	756f6366 	strbvc	r6, [pc, #-870]!	; 14de <__standby_start+0x14de>
    1840:	7265746e 	rsbvc	r7, r5, #1845493760	; 0x6e000000
    1844:	65730073 	ldrbvs	r0, [r3, #-115]!	; 0x73
    1848:	76655f74 	uqsub16vc	r5, r5, r4
    184c:	5f746e65 	svcpl	0x00746e65
    1850:	6e756f63 	cdpvs	15, 7, cr6, cr5, cr3, {3}
    1854:	00726574 	rsbseq	r6, r2, r4, ror r5
    1858:	74696e69 	strbtvc	r6, [r9], #-3689	; 0xe69
    185c:	6576655f 	ldrbvs	r6, [r6, #-1375]!	; 0x55f
    1860:	635f746e 	cmpvs	pc, #1845493760	; 0x6e000000
    1864:	746e756f 	strbtvc	r7, [lr], #-1391	; 0x56f
    1868:	6d007265 	sfmvs	f7, 4, [r0, #-404]	; 0xfffffe6c
    186c:	68637461 	stmdavs	r3!, {r0, r5, r6, sl, ip, sp, lr}^
    1870:	6576655f 	ldrbvs	r6, [r6, #-1375]!	; 0x55f
    1874:	635f746e 	cmpvs	pc, #1845493760	; 0x6e000000
    1878:	746e756f 	strbtvc	r7, [lr], #-1391	; 0x56f
    187c:	6e007265 	cdpvs	2, 0, cr7, cr0, cr5, {3}
    1880:	00727272 	rsbseq	r7, r2, r2, ror r2
    1884:	65766173 	ldrbvs	r6, [r6, #-371]!	; 0x173
    1888:	6d6d5f64 	stclvs	15, cr5, [sp, #-400]!	; 0xfffffe70
    188c:	74735f75 	ldrbtvc	r5, [r3], #-3957	; 0xf75
    1890:	00657461 	rsbeq	r7, r5, r1, ror #8
    1894:	72636164 	rsbvc	r6, r3, #25
    1898:	62747400 	rsbsvs	r7, r4, #0
    189c:	74007263 	strvc	r7, [r0], #-611	; 0x263
    18a0:	315f6274 	cmpcc	pc, r4, ror r2	; <UNPREDICTABLE>
    18a4:	65720072 	ldrbvs	r0, [r2, #-114]!	; 0x72
    18a8:	726f7473 	rsbvc	r7, pc, #1929379840	; 0x73000000
    18ac:	6d6d5f65 	stclvs	15, cr5, [sp, #-404]!	; 0xfffffe6c
    18b0:	74735f75 	ldrbtvc	r5, [r3], #-3957	; 0xf75
    18b4:	00657461 	rsbeq	r7, r5, r1, ror #8
    18b8:	65766173 	ldrbvs	r6, [r6, #-371]!	; 0x173
    18bc:	756d6d5f 	strbvc	r6, [sp, #-3423]!	; 0xd5f
    18c0:	6174735f 	cmnvs	r4, pc, asr r3
    18c4:	61006574 	tstvs	r0, r4, ror r5
    18c8:	2f686372 	svccs	0x00686372
    18cc:	2f6d7261 	svccs	0x006d7261
    18d0:	6863616d 	stmdavs	r3!, {r0, r2, r3, r5, r6, r8, sp, lr}^
    18d4:	6e75732d 	cdpvs	3, 7, cr7, cr5, cr13, {1}
    18d8:	702f6978 	eorvc	r6, pc, r8, ror r9	; <UNPREDICTABLE>
    18dc:	74732f6d 	ldrbtvc	r2, [r3], #-3949	; 0xf6d
    18e0:	62646e61 	rsbvs	r6, r4, #1552	; 0x610
    18e4:	2f2e2f79 	svccs	0x002e2f79
    18e8:	6d2f2e2e 	stcvs	14, cr2, [pc, #-184]!	; 1838 <__standby_start+0x1838>
    18ec:	6d5f6d65 	ldclvs	13, cr6, [pc, #-404]	; 1760 <__standby_start+0x1760>
    18f0:	705f756d 	subsvc	r7, pc, sp, ror #10
    18f4:	00632e63 	rsbeq	r2, r3, r3, ror #28
    18f8:	72727270 	rsbsvc	r7, r2, #7
    18fc:	63616300 	cmnvs	r1, #0
    1900:	73630072 	cmnvc	r3, #114	; 0x72
    1904:	74007273 	strvc	r7, [r0], #-627	; 0x273
    1908:	305f6274 	subscc	r6, pc, r4, ror r2	; <UNPREDICTABLE>
    190c:	65730072 	ldrbvs	r0, [r3, #-114]!	; 0x72
    1910:	65735f74 	ldrbvs	r5, [r3, #-3956]!	; 0xf74
    1914:	6c616972 	stclvs	9, cr6, [r1], #-456	; 0xfffffe38
    1918:	6b6c635f 	blvs	1b1a69c <__standby_start+0x1b1a69c>
    191c:	72617500 	rsbvc	r7, r1, #0
    1920:	70675f74 	rsbvc	r5, r7, r4, ror pc
    1924:	635f6f69 	cmpvs	pc, #420	; 0x1a4
    1928:	69666e6f 	stmdbvs	r6!, {r0, r1, r2, r3, r5, r6, r9, sl, fp, sp, lr}^
    192c:	61765f67 	cmnvs	r6, r7, ror #30
    1930:	6573006c 	ldrbvs	r0, [r3, #-108]!	; 0x6c
    1934:	65735f74 	ldrbvs	r5, [r3, #-3956]!	; 0xf74
    1938:	6c616972 	stclvs	9, cr6, [r1], #-456	; 0xfffffe38
    193c:	6970675f 	ldmdbvs	r0!, {r0, r1, r2, r3, r4, r6, r8, r9, sl, sp, lr}^
    1940:	6573006f 	ldrbvs	r0, [r3, #-111]!	; 0x6f
    1944:	6c616972 	stclvs	9, cr6, [r1], #-456	; 0xfffffe38
    1948:	7465675f 	strbtvc	r6, [r5], #-1887	; 0x75f
    194c:	65730073 	ldrbvs	r0, [r3, #-115]!	; 0x73
    1950:	6c616972 	stclvs	9, cr6, [r1], #-456	; 0xfffffe38
    1954:	696e695f 	stmdbvs	lr!, {r0, r1, r2, r3, r4, r6, r8, fp, sp, lr}^
    1958:	61620074 	smcvs	8196	; 0x2004
    195c:	70756b63 	rsbsvc	r6, r5, r3, ror #22
    1960:	6970675f 	ldmdbvs	r0!, {r0, r1, r2, r3, r4, r6, r8, r9, sl, sp, lr}^
    1964:	61755f6f 	cmnvs	r5, pc, ror #30
    1968:	73007472 	movwvc	r7, #1138	; 0x472
    196c:	61697265 	cmnvs	r9, r5, ror #4
    1970:	65675f6c 	strbvs	r5, [r7, #-3948]!	; 0xf6c
    1974:	68635f74 	stmdavs	r3!, {r2, r4, r5, r6, r8, r9, sl, fp, ip, lr}^
    1978:	73007261 	movwvc	r7, #609	; 0x261
    197c:	61697265 	cmnvs	r9, r5, ror #4
    1980:	6e695f6c 	cdpvs	15, 6, cr5, cr9, cr12, {3}
    1984:	6e5f7469 	cdpvs	4, 5, cr7, cr15, cr9, {3}
    1988:	756d6d6f 	strbvc	r6, [sp, #-3439]!	; 0xd6f
    198c:	63727300 	cmnvs	r2, #0
    1990:	6572665f 	ldrbvs	r6, [r2, #-1631]!	; 0x65f
    1994:	65730071 	ldrbvs	r0, [r3, #-113]!	; 0x71
    1998:	6c616972 	stclvs	9, cr6, [r1], #-456	; 0xfffffe38
    199c:	7475705f 	ldrbtvc	r7, [r5], #-95	; 0x5f
    19a0:	65730073 	ldrbvs	r0, [r3, #-115]!	; 0x73
    19a4:	6c616972 	stclvs	9, cr6, [r1], #-456	; 0xfffffe38
    19a8:	7475705f 	ldrbtvc	r7, [r5], #-95	; 0x5f
    19ac:	6f6e5f73 	svcvs	0x006e5f73
    19b0:	00756d6d 	rsbseq	r6, r5, sp, ror #26
    19b4:	69726573 	ldmdbvs	r2!, {r0, r1, r4, r5, r6, r8, sl, sp, lr}^
    19b8:	705f6c61 	subsvc	r6, pc, r1, ror #24
    19bc:	635f7475 	cmpvs	pc, #1962934272	; 0x75000000
    19c0:	5f726168 	svcpl	0x00726168
    19c4:	6d6d6f6e 	stclvs	15, cr6, [sp, #-440]!	; 0xfffffe48
    19c8:	61750075 	cmnvs	r5, r5, ror r0
    19cc:	675f7472 			; <UNDEFINED> instruction: 0x675f7472
    19d0:	5f6f6970 	svcpl	0x006f6970
    19d4:	6b73616d 	blvs	1cd9f90 <__standby_start+0x1cd9f90>
    19d8:	72657300 	rsbvc	r7, r5, #0
    19dc:	5f6c6169 	svcpl	0x006c6169
    19e0:	5f747570 	svcpl	0x00747570
    19e4:	72616863 	rsbvc	r6, r1, #6488064	; 0x630000
    19e8:	63327000 	teqvs	r2, #0
    19ec:	62006b6c 	andvs	r6, r0, #110592	; 0x1b000
    19f0:	756b6361 	strbvc	r6, [fp, #-865]!	; 0x361
    19f4:	6f705f70 	svcvs	0x00705f70
    19f8:	695f7472 	ldmdbvs	pc, {r1, r4, r5, r6, sl, ip, sp, lr}^	; <UNPREDICTABLE>
    19fc:	65730064 	ldrbvs	r0, [r3, #-100]!	; 0x64
    1a00:	6c616972 	stclvs	9, cr6, [r1], #-456	; 0xfffffe38
    1a04:	696e695f 	stmdbvs	lr!, {r0, r1, r2, r3, r4, r6, r8, fp, sp, lr}^
    1a08:	5f646574 	svcpl	0x00646574
    1a0c:	67616c66 	strbvs	r6, [r1, -r6, ror #24]!
    1a10:	75636300 	strbvc	r6, [r3, #-768]!	; 0x300
    1a14:	6765725f 			; <UNDEFINED> instruction: 0x6765725f
    1a18:	72657300 	rsbvc	r7, r5, #0
    1a1c:	5f6c6169 	svcpl	0x006c6169
    1a20:	74696e69 	strbtvc	r6, [r9], #-3689	; 0xe69
    1a24:	6e616d5f 	mcrvs	13, 3, r6, cr1, cr15, {2}
    1a28:	72656761 	rsbvc	r6, r5, #25427968	; 0x1840000
    1a2c:	756d6d00 	strbvc	r6, [sp, #-3328]!	; 0xd00
    1a30:	616c665f 	cmnvs	ip, pc, asr r6
    1a34:	65730067 	ldrbvs	r0, [r3, #-103]!	; 0x67
    1a38:	6c616972 	stclvs	9, cr6, [r1], #-456	; 0xfffffe38
    1a3c:	6978655f 	ldmdbvs	r8!, {r0, r1, r2, r3, r4, r6, r8, sl, sp, lr}^
    1a40:	616d5f74 	smcvs	54772	; 0xd5f4
    1a44:	6567616e 	strbvs	r6, [r7, #-366]!	; 0x16e
    1a48:	65730072 	ldrbvs	r0, [r3, #-114]!	; 0x72
    1a4c:	6c616972 	stclvs	9, cr6, [r1], #-456	; 0xfffffe38
    1a50:	7465675f 	strbtvc	r6, [r5], #-1887	; 0x75f
    1a54:	6f6e5f73 	svcvs	0x006e5f73
    1a58:	00756d6d 	rsbseq	r6, r5, sp, ror #26
    1a5c:	6b636162 	blvs	18d9fec <__standby_start+0x18d9fec>
    1a60:	635f7075 	cmpvs	pc, #117	; 0x75
    1a64:	755f7563 	ldrbvc	r7, [pc, #-1379]	; 1509 <__standby_start+0x1509>
    1a68:	5f747261 	svcpl	0x00747261
    1a6c:	65736572 	ldrbvs	r6, [r3, #-1394]!	; 0x572
    1a70:	72610074 	rsbvc	r0, r1, #116	; 0x74
    1a74:	612f6863 	teqvs	pc, r3, ror #16
    1a78:	6d2f6d72 	stcvs	13, cr6, [pc, #-456]!	; 18b8 <__standby_start+0x18b8>
    1a7c:	2d686361 	stclcs	3, cr6, [r8, #-388]!	; 0xfffffe7c
    1a80:	786e7573 	stmdavc	lr!, {r0, r1, r4, r5, r6, r8, sl, ip, sp, lr}^
    1a84:	6d702f69 	ldclvs	15, cr2, [r0, #-420]!	; 0xfffffe5c
    1a88:	6174732f 	cmnvs	r4, pc, lsr #6
    1a8c:	7962646e 	stmdbvc	r2!, {r1, r2, r3, r5, r6, sl, sp, lr}^
    1a90:	2e2f2e2f 	cdpcs	14, 2, cr2, cr15, cr15, {1}
    1a94:	656d2f2e 	strbvs	r2, [sp, #-3886]!	; 0xf2e
    1a98:	65735f6d 	ldrbvs	r5, [r3, #-3949]!	; 0xf6d
    1a9c:	6c616972 	stclvs	9, cr6, [r1], #-456	; 0xfffffe38
    1aa0:	6100632e 	tstvs	r0, lr, lsr #6
    1aa4:	5f326270 	svcpl	0x00326270
    1aa8:	00676572 	rsbeq	r6, r7, r2, ror r5
    1aac:	69726573 	ldmdbvs	r2!, {r0, r1, r4, r5, r6, r8, sl, sp, lr}^
    1ab0:	675f6c61 	ldrbvs	r6, [pc, -r1, ror #24]
    1ab4:	635f7465 	cmpvs	pc, #1694498816	; 0x65000000
    1ab8:	5f726168 	svcpl	0x00726168
    1abc:	6d6d6f6e 	stclvs	15, cr6, [sp, #-440]!	; 0xfffffe48
    1ac0:	65730075 	ldrbvs	r0, [r3, #-117]!	; 0x75
    1ac4:	6c616972 	stclvs	9, cr6, [r1], #-456	; 0xfffffe38
    1ac8:	6978655f 	ldmdbvs	r8!, {r0, r1, r2, r3, r4, r6, r8, sl, sp, lr}^
    1acc:	61620074 	smcvs	8196	; 0x2004
    1ad0:	70756b63 	rsbsvc	r6, r5, r3, ror #22
    1ad4:	7563635f 	strbvc	r6, [r3, #-863]!	; 0x35f
    1ad8:	7261755f 	rsbvc	r7, r1, #398458880	; 0x17c00000
    1adc:	74750074 	ldrbtvc	r0, [r5], #-116	; 0x74
    1ae0:	7300616f 	movwvc	r6, #367	; 0x16f
    1ae4:	5f657a69 	svcpl	0x00657a69
    1ae8:	73700074 	cmnvc	r0, #116	; 0x74
    1aec:	66006372 			; <UNDEFINED> instruction: 0x66006372
    1af0:	616d726f 	cmnvs	sp, pc, ror #4
    1af4:	69660074 	stmdbvs	r6!, {r2, r4, r5, r6}^
    1af8:	635f6c6c 	cmpvs	pc, #27648	; 0x6c00
    1afc:	5f5f0068 	svcpl	0x005f0068
    1b00:	6c5f6176 	ldfvse	f6, [pc], {118}	; 0x76
    1b04:	00747369 	rsbseq	r7, r4, r9, ror #6
    1b08:	75626564 	strbvc	r6, [r2, #-1380]!	; 0x564
    1b0c:	72656767 	rsbvc	r6, r5, #27000832	; 0x19c0000
    1b10:	6675625f 			; <UNDEFINED> instruction: 0x6675625f
    1b14:	00726566 	rsbseq	r6, r2, r6, ror #10
    1b18:	6167656e 	cmnvs	r7, lr, ror #10
    1b1c:	65766974 	ldrbvs	r6, [r6, #-2420]!	; 0x974
    1b20:	69727000 	ldmdbvs	r2!, {ip, sp, lr}^
    1b24:	006b746e 	rsbeq	r7, fp, lr, ror #8
    1b28:	616f7469 	cmnvs	pc, r9, ror #8
    1b2c:	61747300 	cmnvs	r4, r0, lsl #6
    1b30:	61006b63 	tstvs	r0, r3, ror #22
    1b34:	00736772 	rsbseq	r6, r3, r2, ror r7
    1b38:	69646172 	stmdbvs	r4!, {r1, r4, r5, r6, r8, sp, lr}^
    1b3c:	5f5f0078 	svcpl	0x005f0078
    1b40:	73007061 	movwvc	r7, #97	; 0x61
    1b44:	656c7274 	strbvs	r7, [ip, #-628]!	; 0x274
    1b48:	6964006e 	stmdbvs	r4!, {r1, r2, r3, r5, r6}^
    1b4c:	5f746967 	svcpl	0x00746967
    1b50:	69727473 	ldmdbvs	r2!, {r0, r1, r4, r5, r6, sl, ip, sp, lr}^
    1b54:	7300676e 	movwvc	r6, #1902	; 0x76e
    1b58:	70637274 	rsbvc	r7, r3, r4, ror r2
    1b5c:	64700079 	ldrbtvs	r0, [r0], #-121	; 0x79
    1b60:	00747365 	rsbseq	r7, r4, r5, ror #6
    1b64:	6e697270 	mcrvs	2, 3, r7, cr9, cr0, {3}
    1b68:	6c615f74 	stclvs	15, cr5, [r1], #-464	; 0xfffffe30
    1b6c:	006e6769 	rsbeq	r6, lr, r9, ror #14
    1b70:	6e697270 	mcrvs	2, 3, r7, cr9, cr0, {3}
    1b74:	6e5f6b74 	vmovvs.s8	r6, d15[3]
    1b78:	756d6d6f 	strbvc	r6, [sp, #-3439]!	; 0xd6f
    1b7c:	675f5f00 	ldrbvs	r5, [pc, -r0, lsl #30]
    1b80:	5f63756e 	svcpl	0x0063756e
    1b84:	6c5f6176 	ldfvse	f6, [pc], {118}	; 0x76
    1b88:	00747369 	rsbseq	r7, r4, r9, ror #6
    1b8c:	68637261 	stmdavs	r3!, {r0, r5, r6, r9, ip, sp, lr}^
    1b90:	6d72612f 	ldfvse	f6, [r2, #-188]!	; 0xffffff44
    1b94:	63616d2f 	cmnvs	r1, #3008	; 0xbc0
    1b98:	75732d68 	ldrbvc	r2, [r3, #-3432]!	; 0xd68
    1b9c:	2f69786e 	svccs	0x0069786e
    1ba0:	732f6d70 	teqvc	pc, #7168	; 0x1c00
    1ba4:	646e6174 	strbtvs	r6, [lr], #-372	; 0x174
    1ba8:	2e2f7962 	cdpcs	9, 2, cr7, cr15, cr2, {3}
    1bac:	2f2e2e2f 	svccs	0x002e2e2f
    1bb0:	5f6d656d 	svcpl	0x006d656d
    1bb4:	6e697270 	mcrvs	2, 3, r7, cr9, cr0, {3}
    1bb8:	632e6b74 	teqvs	lr, #118784	; 0x1d000
    1bbc:	72747300 	rsbsvc	r7, r4, #0
    1bc0:	7461636e 	strbtvc	r6, [r1], #-878	; 0x36e
    1bc4:	706d7400 	rsbvc	r7, sp, r0, lsl #8
    1bc8:	746f7551 	strbtvc	r7, [pc], #-1361	; 1bd0 <__standby_start+0x1bd0>
    1bcc:	76696400 	strbtvc	r6, [r9], -r0, lsl #8
    1bd0:	6f697369 	svcvs	0x00697369
    1bd4:	5f5f0072 	svcpl	0x005f0072
    1bd8:	5f6d656d 	svcpl	0x006d656d
    1bdc:	30766964 	rsbscc	r6, r6, r4, ror #18
    1be0:	76696400 	strbtvc	r6, [r9], -r0, lsl #8
    1be4:	6e656469 	cdpvs	4, 6, cr6, cr5, cr9, {3}
    1be8:	61720064 	cmnvs	r2, r4, rrx
    1bec:	696c5f77 	stmdbvs	ip!, {r0, r1, r2, r4, r5, r6, r8, r9, sl, fp, ip, lr}^
    1bf0:	64755f62 	ldrbtvs	r5, [r5], #-3938	; 0xf62
    1bf4:	74007669 	strvc	r7, [r0], #-1641	; 0x669
    1bf8:	6944706d 	stmdbvs	r4, {r0, r2, r3, r5, r6, ip, sp, lr}^
    1bfc:	72610076 	rsbvc	r0, r1, #118	; 0x76
    1c00:	612f6863 	teqvs	pc, r3, ror #16
    1c04:	6d2f6d72 	stcvs	13, cr6, [pc, #-456]!	; 1a44 <__standby_start+0x1a44>
    1c08:	2d686361 	stclcs	3, cr6, [r8, #-388]!	; 0xfffffe7c
    1c0c:	786e7573 	stmdavc	lr!, {r0, r1, r4, r5, r6, r8, sl, ip, sp, lr}^
    1c10:	6d702f69 	ldclvs	15, cr2, [r0, #-420]!	; 0xfffffe5c
    1c14:	6174732f 	cmnvs	r4, pc, lsr #6
    1c18:	7962646e 	stmdbvc	r2!, {r1, r2, r3, r5, r6, sl, sp, lr}^
    1c1c:	2e2f2e2f 	cdpcs	14, 2, cr2, cr15, cr15, {1}
    1c20:	656d2f2e 	strbvs	r2, [sp, #-3886]!	; 0xf2e
    1c24:	69645f6d 	stmdbvs	r4!, {r0, r2, r3, r5, r6, r8, r9, sl, fp, ip, lr}^
    1c28:	62696c76 	rsbvs	r6, r9, #30208	; 0x7600
    1c2c:	00632e63 	rsbeq	r2, r3, r3, ror #28
    1c30:	68637261 	stmdavs	r3!, {r0, r5, r6, r9, ip, sp, lr}^
    1c34:	6d72612f 	ldfvse	f6, [r2, #-188]!	; 0xffffff44
    1c38:	63616d2f 	cmnvs	r1, #3008	; 0xbc0
    1c3c:	75732d68 	ldrbvc	r2, [r3, #-3432]!	; 0xd68
    1c40:	2f69786e 	svccs	0x0069786e
    1c44:	732f6d70 	teqvc	pc, #7168	; 0x1c00
    1c48:	646e6174 	strbtvs	r6, [lr], #-372	; 0x174
    1c4c:	2e2f7962 	cdpcs	9, 2, cr7, cr15, cr2, {3}
    1c50:	2f2e2e2f 	svccs	0x002e2e2f
    1c54:	5f6d656d 	svcpl	0x006d656d
    1c58:	2e746e69 	cdpcs	14, 7, cr6, cr4, cr9, {3}
    1c5c:	65720063 	ldrbvs	r0, [r2, #-99]!	; 0x63
    1c60:	746c7573 	strbtvc	r7, [ip], #-1395	; 0x573
    1c64:	6d656d00 	stclvs	13, cr6, [r5, #-0]
    1c68:	746e695f 	strbtvc	r6, [lr], #-2399	; 0x95f
    1c6c:	6978655f 	ldmdbvs	r8!, {r0, r1, r2, r3, r4, r6, r8, sl, sp, lr}^
    1c70:	656d0074 	strbvs	r0, [sp, #-116]!	; 0x74
    1c74:	6e695f6d 	cdpvs	15, 6, cr5, cr9, cr13, {3}
    1c78:	6e695f74 	mcrvs	15, 3, r5, cr9, cr4, {3}
    1c7c:	6d007469 	cfstrsvs	mvf7, [r0, #-420]	; 0xfffffe5c
    1c80:	655f6d65 	ldrbvs	r6, [pc, #-3429]	; f23 <__standby_start+0xf23>
    1c84:	6c62616e 	stfvse	f6, [r2], #-440	; 0xfffffe48
    1c88:	6e695f65 	cdpvs	15, 6, cr5, cr9, cr5, {3}
    1c8c:	69470074 	stmdbvs	r7, {r2, r4, r5, r6}^
    1c90:	69444363 	stmdbvs	r4, {r0, r1, r5, r6, r8, r9, lr}^
    1c94:	65006373 	strvs	r6, [r0, #-883]	; 0x373
    1c98:	6c62616e 	stfvse	f6, [r2], #-440	; 0xfffffe48
    1c9c:	69625f65 	stmdbvs	r2!, {r0, r2, r5, r6, r8, r9, sl, fp, ip, lr}^
    1ca0:	6d740074 	ldclvs	0, cr0, [r4, #-464]!	; 0xfffffe30
    1ca4:	63725370 	cmnvs	r2, #-1073741823	; 0xc0000001
    1ca8:	63694700 	cmnvs	r9, #0
    1cac:	73694444 	cmnvc	r9, #1140850688	; 0x44000000
    1cb0:	656d0063 	strbvs	r0, [sp, #-99]!	; 0x63
    1cb4:	75715f6d 	ldrbvc	r5, [r1, #-3949]!	; 0xf6d
    1cb8:	5f797265 	svcpl	0x00797265
    1cbc:	00746e69 	rsbseq	r6, r4, r9, ror #28
    1cc0:	47706d74 			; <UNDEFINED> instruction: 0x47706d74
    1cc4:	6d007072 	stcvs	0, cr7, [r0, #-456]	; 0xfffffe38
    1cc8:	675f6d65 	ldrbvs	r6, [pc, -r5, ror #26]
    1ccc:	5f6f6970 	svcpl	0x006f6970
    1cd0:	74736572 	ldrbtvc	r6, [r3], #-1394	; 0x572
    1cd4:	0065726f 	rsbeq	r7, r5, pc, ror #4
    1cd8:	68637261 	stmdavs	r3!, {r0, r5, r6, r9, ip, sp, lr}^
    1cdc:	6d72612f 	ldfvse	f6, [r2, #-188]!	; 0xffffff44
    1ce0:	63616d2f 	cmnvs	r1, #3008	; 0xbc0
    1ce4:	75732d68 	ldrbvc	r2, [r3, #-3432]!	; 0xd68
    1ce8:	2f69786e 	svccs	0x0069786e
    1cec:	732f6d70 	teqvc	pc, #7168	; 0x1c00
    1cf0:	646e6174 	strbtvs	r6, [lr], #-372	; 0x174
    1cf4:	2e2f7962 	cdpcs	9, 2, cr7, cr15, cr2, {3}
    1cf8:	2f2e2e2f 	svccs	0x002e2e2f
    1cfc:	5f6d656d 	svcpl	0x006d656d
    1d00:	6f697067 	svcvs	0x00697067
    1d04:	7000632e 	andvc	r6, r0, lr, lsr #6
    1d08:	6f697067 	svcvs	0x00697067
    1d0c:	6174735f 	cmnvs	r4, pc, asr r3
    1d10:	63006574 	movwvs	r6, #1396	; 0x574
    1d14:	69666e6f 	stmdbvs	r6!, {r0, r1, r2, r3, r5, r6, r9, sl, fp, sp, lr}^
    1d18:	70675f67 	rsbvc	r5, r7, r7, ror #30
    1d1c:	635f6f69 	cmpvs	pc, #420	; 0x1a4
    1d20:	67006b6c 	strvs	r6, [r0, -ip, ror #22]
    1d24:	5f6f6970 	svcpl	0x006f6970
    1d28:	5f6b6c63 	svcpl	0x006b6c63
    1d2c:	74696e69 	strbtvc	r6, [r9], #-3689	; 0xe69
    1d30:	67006465 	strvs	r6, [r0, -r5, ror #8]
    1d34:	5f6f6970 	svcpl	0x006f6970
    1d38:	5f676572 	svcpl	0x00676572
    1d3c:	6b636162 	blvs	18da2cc <__standby_start+0x18da2cc>
    1d40:	6d656d00 	stclvs	13, cr6, [r5, #-0]
    1d44:	6970675f 	ldmdbvs	r0!, {r0, r1, r2, r3, r4, r6, r8, r9, sl, sp, lr}^
    1d48:	61735f6f 	cmnvs	r3, pc, ror #30
    1d4c:	67006576 	smlsdxvs	r0, r6, r5, r6
    1d50:	5f6f6970 	svcpl	0x006f6970
    1d54:	30627061 	rsbcc	r7, r2, r1, rrx
    1d58:	7461675f 	strbtvc	r6, [r1], #-1887	; 0x75f
    1d5c:	5f676e69 	svcpl	0x00676e69
    1d60:	00676572 	rsbeq	r6, r7, r2, ror r5
    1d64:	676f4457 			; <UNDEFINED> instruction: 0x676f4457
    1d68:	72495f31 	subvc	r5, r9, #196	; 0xc4
    1d6c:	74535f71 	ldrbvc	r5, [r3], #-3953	; 0xf71
    1d70:	76410061 	strbvc	r0, [r1], -r1, rrx
    1d74:	6e433173 	mcrvs	1, 2, r3, cr3, cr3, {3}
    1d78:	6e490074 	mcrvs	0, 2, r0, cr9, cr4, {3}
    1d7c:	6c744374 	ldclvs	3, cr4, [r4], #-464	; 0xfffffe30
    1d80:	726d5400 	rsbvc	r5, sp, #0
    1d84:	746e4930 	strbtvc	r4, [lr], #-2352	; 0x930
    1d88:	006c6156 	rsbeq	r6, ip, r6, asr r1
    1d8c:	676f4457 			; <UNDEFINED> instruction: 0x676f4457
    1d90:	74435f31 	strbvc	r5, [r3], #-3889	; 0xf31
    1d94:	525f6c72 	subspl	r6, pc, #29184	; 0x7200
    1d98:	6d006765 	stcvs	7, cr6, [r0, #-404]	; 0xfffffe6c
    1d9c:	745f6d65 	ldrbvc	r6, [pc], #-3429	; 1da4 <__standby_start+0x1da4>
    1da0:	735f726d 	cmpvc	pc, #-805306362	; 0xd0000006
    1da4:	54007465 	strpl	r7, [r0], #-1125	; 0x465
    1da8:	4331726d 	teqmi	r1, #-805306362	; 0xd0000006
    1dac:	54006c74 	strpl	r6, [r0], #-3188	; 0xc74
    1db0:	4330726d 	teqmi	r0, #-805306362	; 0xd0000006
    1db4:	6156746e 	cmpvs	r6, lr, ror #8
    1db8:	6d54006c 	ldclvs	0, cr0, [r4, #-432]	; 0xfffffe50
    1dbc:	74433572 	strbvc	r3, [r3], #-1394	; 0x572
    1dc0:	6d54006c 	ldclvs	0, cr0, [r4, #-432]	; 0xfffffe50
    1dc4:	6e493272 	mcrvs	2, 2, r3, cr9, cr2, {3}
    1dc8:	6c615674 	stclvs	6, cr5, [r1], #-464	; 0xfffffe30
    1dcc:	6d5f5f00 	ldclvs	15, cr5, [pc, #-0]	; 1dd4 <__standby_start+0x1dd4>
    1dd0:	745f6d65 	ldrbvc	r6, [pc], #-3429	; 1dd8 <__standby_start+0x1dd8>
    1dd4:	725f726d 	subsvc	r7, pc, #-805306362	; 0xd0000006
    1dd8:	745f6765 	ldrbvc	r6, [pc], #-1893	; 1de0 <__standby_start+0x1de0>
    1ddc:	726d5400 	rsbvc	r5, sp, #0
    1de0:	746e4332 	strbtvc	r4, [lr], #-818	; 0x332
    1de4:	006c6156 	rsbeq	r6, ip, r6, asr r1
    1de8:	63746157 	cmnvs	r4, #-1073741803	; 0xc0000015
    1dec:	676f4468 	strbvs	r4, [pc, -r8, ror #8]!
    1df0:	72495f31 	subvc	r5, r9, #196	; 0xc4
    1df4:	6e455f71 	mcrvs	15, 2, r5, cr5, cr1, {3}
    1df8:	6b61425f 	blvs	185277c <__standby_start+0x185277c>
    1dfc:	6d656d00 	stclvs	13, cr6, [r5, #-0]
    1e00:	726d745f 	rsbvc	r7, sp, #1593835520	; 0x5f000000
    1e04:	6978655f 	ldmdbvs	r8!, {r0, r1, r2, r3, r4, r6, r8, sl, sp, lr}^
    1e08:	6d540074 	ldclvs	0, cr0, [r4, #-464]	; 0xfffffe30
    1e0c:	6e493472 	mcrvs	4, 2, r3, cr9, cr2, {3}
    1e10:	6c615674 	stclvs	6, cr5, [r1], #-464	; 0xfffffe30
    1e14:	726d5400 	rsbvc	r5, sp, #0
    1e18:	746e4334 	strbtvc	r4, [lr], #-820	; 0x334
    1e1c:	006c6156 	rsbeq	r6, ip, r6, asr r1
    1e20:	63746157 	cmnvs	r4, #-1073741803	; 0xc0000015
    1e24:	676f4468 	strbvs	r4, [pc, -r8, ror #8]!
    1e28:	6f435f31 	svcvs	0x00435f31
    1e2c:	6769666e 	strbvs	r6, [r9, -lr, ror #12]!
    1e30:	6765525f 			; <UNDEFINED> instruction: 0x6765525f
    1e34:	6b61425f 	blvs	18527b8 <__standby_start+0x18527b8>
    1e38:	73657200 	cmnvc	r5, #0
    1e3c:	65767265 	ldrbvs	r7, [r6, #-613]!	; 0x265
    1e40:	54003864 	strpl	r3, [r0], #-2148	; 0x864
    1e44:	4332726d 	teqmi	r2, #-805306362	; 0xd0000006
    1e48:	57006c74 	smlsdxpl	r0, r4, ip, r6
    1e4c:	31676f44 	cmncc	r7, r4, asr #30
    1e50:	646f4d5f 	strbtvs	r4, [pc], #-3423	; 1e58 <__standby_start+0x1e58>
    1e54:	65525f65 	ldrbvs	r5, [r2, #-3941]	; 0xf65
    1e58:	61570067 	cmpvs	r7, r7, rrx
    1e5c:	44686374 	strbtmi	r6, [r8], #-884	; 0x374
    1e60:	5f31676f 	svcpl	0x0031676f
    1e64:	5f646f4d 	svcpl	0x00646f4d
    1e68:	5f676552 	svcpl	0x00676552
    1e6c:	006b6142 	rsbeq	r6, fp, r2, asr #2
    1e70:	5f6d656d 	svcpl	0x006d656d
    1e74:	5f726d74 	svcpl	0x00726d74
    1e78:	62616e65 	rsbvs	r6, r1, #1616	; 0x650
    1e7c:	775f656c 	ldrbvc	r6, [pc, -ip, ror #10]
    1e80:	68637461 	stmdavs	r3!, {r0, r5, r6, sl, ip, sp, lr}^
    1e84:	00676f64 	rsbeq	r6, r7, r4, ror #30
    1e88:	5f6d656d 	svcpl	0x006d656d
    1e8c:	5f726d74 	svcpl	0x00726d74
    1e90:	74696e69 	strbtvc	r6, [r9], #-3689	; 0xe69
    1e94:	6f445700 	svcvs	0x00445700
    1e98:	495f3167 	ldmdbmi	pc, {r0, r1, r2, r5, r6, r8, ip, sp}^	; <UNPREDICTABLE>
    1e9c:	455f7172 	ldrbmi	r7, [pc, #-370]	; 1d32 <__standby_start+0x1d32>
    1ea0:	6573006e 	ldrbvs	r0, [r3, #-110]!	; 0x6e
    1ea4:	646e6f63 	strbtvs	r6, [lr], #-3939	; 0xf63
    1ea8:	6d656d00 	stclvs	13, cr6, [r5, #-0]
    1eac:	726d745f 	rsbvc	r7, sp, #1593835520	; 0x5f000000
    1eb0:	7365725f 	cmnvc	r5, #-268435451	; 0xf0000005
    1eb4:	65726f74 	ldrbvs	r6, [r2, #-3956]!	; 0xf74
    1eb8:	4d5f5f00 	ldclmi	15, cr5, [pc, #-0]	; 1ec0 <__standby_start+0x1ec0>
    1ebc:	545f4d45 	ldrbpl	r4, [pc], #-3397	; 1ec4 <__standby_start+0x1ec4>
    1ec0:	525f524d 	subspl	r5, pc, #-805306364	; 0xd0000004
    1ec4:	6d004745 	stcvs	7, cr4, [r0, #-276]	; 0xfffffeec
    1ec8:	745f6d65 	ldrbvc	r6, [pc], #-3429	; 1ed0 <__standby_start+0x1ed0>
    1ecc:	645f726d 	ldrbvs	r7, [pc], #-621	; 1ed4 <__standby_start+0x1ed4>
    1ed0:	62617369 	rsbvs	r7, r1, #-1543503871	; 0xa4000001
    1ed4:	775f656c 	ldrbvc	r6, [pc, -ip, ror #10]
    1ed8:	68637461 	stmdavs	r3!, {r0, r5, r6, sl, ip, sp, lr}^
    1edc:	00676f64 	rsbeq	r6, r7, r4, ror #30
    1ee0:	35726d54 	ldrbcc	r6, [r2, #-3412]!	; 0xd54
    1ee4:	56746e49 	ldrbtpl	r6, [r4], -r9, asr #28
    1ee8:	54006c61 	strpl	r6, [r0], #-3169	; 0xc61
    1eec:	4931726d 	ldmdbmi	r1!, {r0, r2, r3, r5, r6, r9, ip, sp, lr}
    1ef0:	6156746e 	cmpvs	r6, lr, ror #8
    1ef4:	7470006c 	ldrbtvc	r0, [r0], #-108	; 0x6c
    1ef8:	735f726d 	cmpvc	pc, #-805306362	; 0xd0000006
    1efc:	65746174 	ldrbvs	r6, [r4, #-372]!	; 0x174
    1f00:	73764100 	cmnvc	r6, #0
    1f04:	00766944 	rsbseq	r6, r6, r4, asr #18
    1f08:	33726d54 	cmncc	r2, #5376	; 0x1500
    1f0c:	006c7443 	rsbeq	r7, ip, r3, asr #8
    1f10:	43737641 	cmnmi	r3, #68157440	; 0x4100000
    1f14:	49006c74 	stmdbmi	r0, {r2, r4, r5, r6, sl, fp, sp, lr}
    1f18:	7453746e 	ldrbvc	r7, [r3], #-1134	; 0x46e
    1f1c:	6d540061 	ldclvs	0, cr0, [r4, #-388]	; 0xfffffe7c
    1f20:	6e433172 	mcrvs	1, 2, r3, cr3, cr2, {3}
    1f24:	6c615674 	stclvs	6, cr5, [r1], #-464	; 0xfffffe30
    1f28:	726d5400 	rsbvc	r5, sp, #0
    1f2c:	746e4933 	strbtvc	r4, [lr], #-2355	; 0x933
    1f30:	006c6156 	rsbeq	r6, ip, r6, asr r1
    1f34:	676f4457 			; <UNDEFINED> instruction: 0x676f4457
    1f38:	66435f31 			; <UNDEFINED> instruction: 0x66435f31
    1f3c:	65525f67 	ldrbvs	r5, [r2, #-3943]	; 0xf67
    1f40:	76410067 	strbvc	r0, [r1], -r7, rrx
    1f44:	6e433073 	mcrvs	0, 2, r3, cr3, cr3, {3}
    1f48:	72610074 	rsbvc	r0, r1, #116	; 0x74
    1f4c:	612f6863 	teqvs	pc, r3, ror #16
    1f50:	6d2f6d72 	stcvs	13, cr6, [pc, #-456]!	; 1d90 <__standby_start+0x1d90>
    1f54:	2d686361 	stclcs	3, cr6, [r8, #-388]!	; 0xfffffe7c
    1f58:	786e7573 	stmdavc	lr!, {r0, r1, r4, r5, r6, r8, sl, ip, sp, lr}^
    1f5c:	6d702f69 	ldclvs	15, cr2, [r0, #-420]!	; 0xfffffe5c
    1f60:	6174732f 	cmnvs	r4, pc, lsr #6
    1f64:	7962646e 	stmdbvc	r2!, {r1, r2, r3, r5, r6, sl, sp, lr}^
    1f68:	2e2f2e2f 	cdpcs	14, 2, cr2, cr15, cr15, {1}
    1f6c:	656d2f2e 	strbvs	r2, [sp, #-3886]!	; 0xf2e
    1f70:	6d745f6d 	ldclvs	15, cr5, [r4, #-436]!	; 0xfffffe4c
    1f74:	00632e72 	rsbeq	r2, r3, r2, ror lr
    1f78:	35726d54 	ldrbcc	r6, [r2, #-3412]!	; 0xd54
    1f7c:	56746e43 	ldrbtpl	r6, [r4], -r3, asr #28
    1f80:	54006c61 	strpl	r6, [r0], #-3169	; 0xc61
    1f84:	6552726d 	ldrbvs	r7, [r2, #-621]	; 0x26d
    1f88:	6d540067 	ldclvs	0, cr0, [r4, #-412]	; 0xfffffe64
    1f8c:	74433072 	strbvc	r3, [r3], #-114	; 0x72
    1f90:	6d54006c 	ldclvs	0, cr0, [r4, #-432]	; 0xfffffe50
    1f94:	74433472 	strbvc	r3, [r3], #-1138	; 0x472
    1f98:	656d006c 	strbvs	r0, [sp, #-108]!	; 0x6c
    1f9c:	6d745f6d 	ldclvs	15, cr5, [r4, #-436]!	; 0xfffffe4c
    1fa0:	61735f72 	cmnvs	r3, r2, ror pc
    1fa4:	43006576 	movwmi	r6, #1398	; 0x576
    1fa8:	7473756c 	ldrbtvc	r7, [r3], #-1388	; 0x56c
    1fac:	43307265 	teqmi	r0, #1342177286	; 0x50000006
    1fb0:	526c7274 	rsbpl	r7, ip, #1073741831	; 0x40000007
    1fb4:	00316765 	eorseq	r6, r1, r5, ror #14
    1fb8:	5f6d656d 	svcpl	0x006d656d
    1fbc:	74736d74 	ldrbtvc	r6, [r3], #-3444	; 0xd74
    1fc0:	735f706d 	cmpvc	pc, #109	; 0x6d
    1fc4:	00657661 	rsbeq	r7, r5, r1, ror #12
    1fc8:	5f6d656d 	svcpl	0x006d656d
    1fcc:	74736d74 	ldrbtvc	r6, [r3], #-3444	; 0xd74
    1fd0:	725f706d 	subsvc	r7, pc, #109	; 0x6d
    1fd4:	6f747365 	svcvs	0x00747365
    1fd8:	61006572 	tstvs	r0, r2, ror r5
    1fdc:	2f686372 	svccs	0x00686372
    1fe0:	2f6d7261 	svccs	0x006d7261
    1fe4:	6863616d 	stmdavs	r3!, {r0, r2, r3, r5, r6, r8, sp, lr}^
    1fe8:	6e75732d 	cdpvs	3, 7, cr7, cr5, cr13, {1}
    1fec:	702f6978 	eorvc	r6, pc, r8, ror r9	; <UNPREDICTABLE>
    1ff0:	74732f6d 	ldrbtvc	r2, [r3], #-3949	; 0xf6d
    1ff4:	62646e61 	rsbvs	r6, r4, #1552	; 0x610
    1ff8:	2f2e2f79 	svccs	0x002e2f79
    1ffc:	6d2f2e2e 	stcvs	14, cr2, [pc, #-184]!	; 1f4c <__standby_start+0x1f4c>
    2000:	745f6d65 	ldrbvc	r6, [pc], #-3429	; 2008 <__standby_start+0x2008>
    2004:	6d74736d 	ldclvs	3, cr7, [r4, #-436]!	; 0xfffffe4c
    2008:	00632e70 	rsbeq	r2, r3, r0, ror lr
    200c:	74736d54 	ldrbtvc	r6, [r3], #-3412	; 0xd54
    2010:	6552706d 	ldrbvs	r7, [r2, #-109]	; 0x6d
    2014:	5f5f0067 	svcpl	0x005f0067
    2018:	5f6d656d 	svcpl	0x006d656d
    201c:	74736d74 	ldrbtvc	r6, [r3], #-3444	; 0xd74
    2020:	725f706d 	subsvc	r7, pc, #109	; 0x6d
    2024:	745f6765 	ldrbvc	r6, [pc], #-1893	; 202c <__standby_start+0x202c>
    2028:	6d747000 	ldclvs	0, cr7, [r4, #-0]
    202c:	706d7473 	rsbvc	r7, sp, r3, ror r4
    2030:	6174735f 	cmnvs	r4, pc, asr r3
    2034:	5f006574 	svcpl	0x00006574
    2038:	4d454d5f 	stclmi	13, cr4, [r5, #-380]	; 0xfffffe84
    203c:	534d545f 	movtpl	r5, #54367	; 0xd45f
    2040:	5f504d54 	svcpl	0x00504d54
    2044:	00474552 	subeq	r4, r7, r2, asr r5
    2048:	68637261 	stmdavs	r3!, {r0, r5, r6, r9, ip, sp, lr}^
    204c:	6d72612f 	ldfvse	f6, [r2, #-188]!	; 0xffffff44
    2050:	63616d2f 	cmnvs	r1, #3008	; 0xbc0
    2054:	75732d68 	ldrbvc	r2, [r3, #-3432]!	; 0xd68
    2058:	2f69786e 	svccs	0x0069786e
    205c:	732f6d70 	teqvc	pc, #7168	; 0x1c00
    2060:	646e6174 	strbtvs	r6, [lr], #-372	; 0x174
    2064:	2e2f7962 	cdpcs	9, 2, cr7, cr15, cr2, {3}
    2068:	2f2e2e2f 	svccs	0x002e2e2f
    206c:	5f6d656d 	svcpl	0x006d656d
    2070:	2e6b6c63 	cdpcs	12, 6, cr6, cr11, cr3, {3}
    2074:	656d0063 	strbvs	r0, [sp, #-99]!	; 0x63
    2078:	6c635f6d 	stclvs	15, cr5, [r3], #-436	; 0xfffffe4c
    207c:	65675f6b 	strbvs	r5, [r7, #-3947]!	; 0xf6b
    2080:	696d5f74 	stmdbvs	sp!, {r2, r4, r5, r6, r8, r9, sl, fp, ip, lr}^
    2084:	61006373 	tstvs	r0, r3, ror r3
    2088:	645f6978 	ldrbvs	r6, [pc], #-2424	; 2090 <__standby_start+0x2090>
    208c:	6d007669 	stcvs	6, cr7, [r0, #-420]	; 0xfffffe5c
    2090:	635f6d65 	cmpvs	pc, #6464	; 0x1940
    2094:	695f6b6c 	ldmdbvs	pc, {r2, r3, r5, r6, r8, r9, fp, sp, lr}^	; <UNPREDICTABLE>
    2098:	0074696e 	rsbseq	r6, r4, lr, ror #18
    209c:	5f6d656d 	svcpl	0x006d656d
    20a0:	5f6b6c63 	svcpl	0x006b6c63
    20a4:	5f746573 	svcpl	0x00746573
    20a8:	6373696d 	cmnvs	r3, #1785856	; 0x1b4000
    20ac:	6c6c5000 	stclvs	0, cr5, [ip], #-0
    20b0:	5f31435f 	svcpl	0x0031435f
    20b4:	73616942 	cmnvc	r1, #1081344	; 0x108000
    20b8:	6d656d00 	stclvs	13, cr6, [r5, #-0]
    20bc:	6b6c635f 	blvs	1b1ae40 <__standby_start+0x1b1ae40>
    20c0:	7465735f 	strbtvc	r7, [r5], #-863	; 0x35f
    20c4:	6c6c705f 	stclvs	0, cr7, [ip], #-380	; 0xfffffe84
    20c8:	6361665f 	cmnvs	r1, #99614720	; 0x5f00000
    20cc:	00726f74 	rsbseq	r6, r2, r4, ror pc
    20d0:	5f6d656d 	svcpl	0x006d656d
    20d4:	5f6b6c63 	svcpl	0x006b6c63
    20d8:	5f746567 	svcpl	0x00746567
    20dc:	5f757063 	svcpl	0x00757063
    20e0:	71657266 	cmnvc	r5, r6, ror #4
    20e4:	63614600 	cmnvs	r1, #0
    20e8:	4b726f74 	blmi	1c9dec0 <__standby_start+0x1c9dec0>
    20ec:	6d656d00 	stclvs	13, cr6, [r5, #-0]
    20f0:	6b6c635f 	blvs	1b1ae74 <__standby_start+0x1b1ae74>
    20f4:	7465675f 	strbtvc	r6, [r5], #-1887	; 0x75f
    20f8:	00766964 	rsbseq	r6, r6, r4, ror #18
    20fc:	5f6b6c63 	svcpl	0x006b6c63
    2100:	00766964 	rsbseq	r6, r6, r4, ror #18
    2104:	5f626861 	svcpl	0x00626861
    2108:	5f627061 	svcpl	0x00627061
    210c:	00766964 	rsbseq	r6, r6, r4, ror #18
    2110:	316c6c70 	smccc	50880	; 0xc6c0
    2114:	6e75745f 	mrcvs	4, 3, r7, cr5, cr15, {2}
    2118:	75636300 	strbvc	r6, [r3, #-768]!	; 0x300
    211c:	6765725f 			; <UNDEFINED> instruction: 0x6765725f
    2120:	6361625f 	cmnvs	r1, #-268435451	; 0xf0000005
    2124:	656d006b 	strbvs	r0, [sp, #-107]!	; 0x6b
    2128:	6c635f6d 	stclvs	15, cr5, [r3], #-436	; 0xfffffe4c
    212c:	65675f6b 	strbvs	r5, [r7, #-3947]!	; 0xf6b
    2130:	6c705f74 	ldclvs	15, cr5, [r0], #-464	; 0xfffffe30
    2134:	61665f6c 	cmnvs	r6, ip, ror #30
    2138:	726f7463 	rsbvc	r7, pc, #1660944384	; 0x63000000
    213c:	6d656d00 	stclvs	13, cr6, [r5, #-0]
    2140:	6b6c635f 	blvs	1b1aec4 <__standby_start+0x1b1aec4>
    2144:	7661735f 			; <UNDEFINED> instruction: 0x7661735f
    2148:	6c630065 	stclvs	0, cr0, [r3], #-404	; 0xfffffe6c
    214c:	696d5f6b 	stmdbvs	sp!, {r0, r1, r3, r5, r6, r8, r9, sl, fp, ip, lr}^
    2150:	6d006373 	stcvs	3, cr6, [r0, #-460]	; 0xfffffe34
    2154:	635f6d65 	cmpvs	pc, #6464	; 0x1940
    2158:	735f6b6c 	cmpvc	pc, #110592	; 0x1b000
    215c:	69647465 	stmdbvs	r4!, {r0, r2, r5, r6, sl, ip, sp, lr}^
    2160:	6c700076 	ldclvs	0, cr0, [r0], #-472	; 0xfffffe28
    2164:	61665f6c 	cmnvs	r6, ip, ror #30
    2168:	726f7463 	rsbvc	r7, pc, #1660944384	; 0x63000000
    216c:	6d00745f 	cfstrsvs	mvf7, [r0, #-380]	; 0xfffffe84
    2170:	675f6d65 	ldrbvs	r6, [pc, -r5, ror #26]
    2174:	625f7465 	subsvs	r7, pc, #1694498816	; 0x65000000
    2178:	63700061 	cmnvs	r0, #97	; 0x61
    217c:	735f6b6c 	cmpvc	pc, #110592	; 0x1b000
    2180:	65746174 	ldrbvs	r6, [r4, #-372]!	; 0x174
    2184:	6b6c6300 	blvs	1b1ad8c <__standby_start+0x1b1ad8c>
    2188:	7669645f 			; <UNDEFINED> instruction: 0x7669645f
    218c:	6d00745f 	cfstrsvs	mvf7, [r0, #-380]	; 0xfffffe84
    2190:	635f6d65 	cmpvs	pc, #6464	; 0x1940
    2194:	725f6b6c 	subsvc	r6, pc, #110592	; 0x1b000
    2198:	6f747365 	svcvs	0x00747365
    219c:	63006572 	movwvs	r6, #1394	; 0x572
    21a0:	6d5f6b6c 	vldrvs	d22, [pc, #-432]	; 1ff8 <__standby_start+0x1ff8>
    21a4:	5f637369 	svcpl	0x00637369
    21a8:	6c700074 	ldclvs	0, cr0, [r0], #-464	; 0xfffffe30
    21ac:	625f366c 	subsvs	r3, pc, #113246208	; 0x6c00000
    21b0:	00736169 	rsbseq	r6, r3, r9, ror #2
    21b4:	316c6c70 	smccc	50880	; 0xc6c0
    21b8:	6169625f 	cmnvs	r9, pc, asr r2
    21bc:	72700073 	rsbsvc	r0, r0, #115	; 0x73
    21c0:	74617669 	strbtvc	r7, [r1], #-1641	; 0x669
    21c4:	72610065 	rsbvc	r0, r1, #101	; 0x65
    21c8:	5f637369 	svcpl	0x00637369
    21cc:	745f6263 	ldrbvc	r6, [pc], #-611	; 21d4 <__standby_start+0x21d4>
    21d0:	6b617700 	blvs	185fdd8 <__standby_start+0x185fdd8>
    21d4:	5f707565 	svcpl	0x00707565
    21d8:	6e657665 	cdpvs	6, 6, cr7, cr5, cr5, {3}
    21dc:	72610074 	rsbvc	r0, r1, #116	; 0x74
    21e0:	5f637369 	svcpl	0x00637369
    21e4:	5f67736d 	svcpl	0x0067736d
    21e8:	73006263 	movwvc	r6, #611	; 0x263
    21ec:	646e6174 	strbtvs	r6, [lr], #-372	; 0x174
    21f0:	615f7962 	cmpvs	pc, r2, ror #18
    21f4:	63736972 	cmnvs	r3, #1867776	; 0x1c8000
    21f8:	696e695f 	stmdbvs	lr!, {r0, r1, r2, r3, r4, r6, r8, fp, sp, lr}^
    21fc:	65720074 	ldrbvs	r0, [r2, #-116]!	; 0x74
    2200:	726f7473 	rsbvc	r7, pc, #1929379840	; 0x73000000
    2204:	6f635f65 	svcvs	0x00635f65
    2208:	656c706d 	strbvs	r7, [ip, #-109]!	; 0x6d
    220c:	00646574 	rsbeq	r6, r4, r4, ror r5
    2210:	65646f6d 	strbvs	r6, [r4, #-3949]!	; 0xf6d
    2214:	6e616800 	cdpvs	8, 6, cr6, cr1, cr0, {0}
    2218:	72656c64 	rsbvc	r6, r5, #25600	; 0x6400
    221c:	61747300 	cmnvs	r4, r0, lsl #6
    2220:	7962646e 	stmdbvc	r2!, {r1, r2, r3, r5, r6, sl, sp, lr}^
    2224:	6972615f 	ldmdbvs	r2!, {r0, r1, r2, r3, r4, r6, r8, sp, lr}^
    2228:	6e5f6373 	mrcvs	3, 2, r6, cr15, cr3, {3}
    222c:	6669746f 	strbtvs	r7, [r9], -pc, ror #8
    2230:	65725f79 	ldrbvs	r5, [r2, #-3961]!	; 0xf79
    2234:	726f7473 	rsbvc	r7, pc, #1929379840	; 0x73000000
    2238:	74730065 	ldrbtvc	r0, [r3], #-101	; 0x65
    223c:	62646e61 	rsbvs	r6, r4, #1552	; 0x610
    2240:	72615f79 	rsbvc	r5, r1, #484	; 0x1e4
    2244:	5f637369 	svcpl	0x00637369
    2248:	74697865 	strbtvc	r7, [r9], #-2149	; 0x865
    224c:	656d7000 	strbvs	r7, [sp, #-0]!
    2250:	67617373 			; <UNDEFINED> instruction: 0x67617373
    2254:	72610065 	rsbvc	r0, r1, #101	; 0x65
    2258:	5f637369 	svcpl	0x00637369
    225c:	7373656d 	cmnvc	r3, #457179136	; 0x1b400000
    2260:	00656761 	rsbeq	r6, r5, r1, ror #14
    2264:	73697261 	cmnvc	r9, #268435462	; 0x10000006
    2268:	72735f63 	rsbsvc	r5, r3, #396	; 0x18c
    226c:	615f6d61 	cmpvs	pc, r1, ror #26
    2270:	62765f32 	rsbsvs	r5, r6, #200	; 0xc8
    2274:	00657361 	rsbeq	r7, r5, r1, ror #6
    2278:	6e617473 	mcrvs	4, 3, r7, cr1, cr3, {3}
    227c:	5f796264 	svcpl	0x00796264
    2280:	73697261 	cmnvc	r9, #268435462	; 0x10000006
    2284:	68635f63 	stmdavs	r3!, {r0, r1, r5, r6, r8, r9, sl, fp, ip, lr}^
    2288:	5f6b6365 	svcpl	0x006b6365
    228c:	74736572 	ldrbtvc	r6, [r3], #-1394	; 0x572
    2290:	5f65726f 	svcpl	0x0065726f
    2294:	74617473 	strbtvc	r7, [r1], #-1139	; 0x473
    2298:	70007375 	andvc	r7, r0, r5, ror r3
    229c:	73617261 	cmnvc	r1, #268435462	; 0x10000006
    22a0:	63726100 	cmnvs	r2, #0
    22a4:	72612f68 	rsbvc	r2, r1, #416	; 0x1a0
    22a8:	616d2f6d 	cmnvs	sp, sp, ror #30
    22ac:	732d6863 	teqvc	sp, #6488064	; 0x630000
    22b0:	69786e75 	ldmdbvs	r8!, {r0, r2, r4, r5, r6, r9, sl, fp, sp, lr}^
    22b4:	2f6d702f 	svccs	0x006d702f
    22b8:	6e617473 	mcrvs	4, 3, r7, cr1, cr3, {3}
    22bc:	2f796264 	svccs	0x00796264
    22c0:	72612f2e 	rsbvc	r2, r1, #184	; 0xb8
    22c4:	2f637369 	svccs	0x00637369
    22c8:	6e617473 	mcrvs	4, 3, r7, cr1, cr3, {3}
    22cc:	5f796264 	svcpl	0x00796264
    22d0:	73697261 	cmnvc	r9, #268435462	; 0x10000006
    22d4:	00632e63 	rsbeq	r2, r3, r3, ror #28
    22d8:	6e617473 	mcrvs	4, 3, r7, cr1, cr3, {3}
    22dc:	5f796264 	svcpl	0x00796264
    22e0:	73697261 	cmnvc	r9, #268435462	; 0x10000006
    22e4:	75715f63 	ldrbvc	r5, [r1, #-3939]!	; 0xf63
    22e8:	5f797265 	svcpl	0x00797265
    22ec:	656b6177 	strbvs	r6, [fp, #-375]!	; 0x177
    22f0:	735f7075 	cmpvc	pc, #117	; 0x75
    22f4:	73006372 	movwvc	r6, #882	; 0x372
    22f8:	646e6174 	strbtvs	r6, [lr], #-372	; 0x174
    22fc:	615f7962 	cmpvs	pc, r2, ror #18
    2300:	63736972 	cmnvs	r3, #1867776	; 0x1c8000
    2304:	6174735f 	cmnvs	r4, pc, asr r3
    2308:	7962646e 	stmdbvc	r2!, {r1, r2, r3, r5, r6, sl, sp, lr}^
    230c:	726f6e5f 	rsbvc	r6, pc, #1520	; 0x5f0
    2310:	006c616d 	rsbeq	r6, ip, sp, ror #2
    2314:	7478656e 	ldrbtvc	r6, [r8], #-1390	; 0x56e
    2318:	69726100 	ldmdbvs	r2!, {r8, sp, lr}^
    231c:	685f6373 	ldmdavs	pc, {r0, r1, r4, r5, r6, r8, r9, sp, lr}^	; <UNPREDICTABLE>
    2320:	67736d77 			; <UNDEFINED> instruction: 0x67736d77
    2324:	5f786f62 	svcpl	0x00786f62
    2328:	646e6573 	strbtvs	r6, [lr], #-1395	; 0x573
    232c:	73656d5f 	cmnvc	r5, #6080	; 0x17c0
    2330:	65676173 	strbvs	r6, [r7, #-371]!	; 0x173
    2334:	69726100 	ldmdbvs	r2!, {r8, sp, lr}^
    2338:	685f6373 	ldmdavs	pc, {r0, r1, r4, r5, r6, r8, r9, sp, lr}^	; <UNPREDICTABLE>
    233c:	67736d77 			; <UNDEFINED> instruction: 0x67736d77
    2340:	5f786f62 	svcpl	0x00786f62
    2344:	72657571 	rsbvc	r7, r5, #473956352	; 0x1c400000
    2348:	65725f79 	ldrbvs	r5, [r2, #-3961]!	; 0xf79
    234c:	76696563 	strbtvc	r6, [r9], -r3, ror #10
    2350:	705f7265 	subsvc	r7, pc, r5, ror #4
    2354:	69646e65 	stmdbvs	r4!, {r0, r2, r5, r6, r9, sl, fp, sp, lr}^
    2358:	6100676e 	tstvs	r0, lr, ror #14
    235c:	63736972 	cmnvs	r3, #1867776	; 0x1c8000
    2360:	6d77685f 	ldclvs	8, cr6, [r7, #-380]!	; 0xfffffe84
    2364:	6f626773 	svcvs	0x00626773
    2368:	78655f78 	stmdavc	r5!, {r3, r4, r5, r6, r8, r9, sl, fp, ip, lr}^
    236c:	41007469 	tstmi	r0, r9, ror #8
    2370:	57485f57 	smlsldpl	r5, r8, r7, pc	; <UNPREDICTABLE>
    2374:	5f47534d 	svcpl	0x0047534d
    2378:	55455551 	strbpl	r5, [r5, #-1361]	; 0x551
    237c:	53555f45 	cmppl	r5, #276	; 0x114
    2380:	415f5245 	cmpmi	pc, r5, asr #4
    2384:	43534952 	cmpmi	r3, #1343488	; 0x148000
    2388:	5f776100 	svcpl	0x00776100
    238c:	736d7768 	cmnvc	sp, #27262976	; 0x1a00000
    2390:	75715f67 	ldrbvc	r5, [r1, #-3943]!	; 0xf67
    2394:	5f657565 	svcpl	0x00657565
    2398:	72657375 	rsbvc	r7, r5, #-738197503	; 0xd4000001
    239c:	69726100 	ldmdbvs	r2!, {r8, sp, lr}^
    23a0:	685f6373 	ldmdavs	pc, {r0, r1, r4, r5, r6, r8, r9, sp, lr}^	; <UNPREDICTABLE>
    23a4:	67736d77 			; <UNDEFINED> instruction: 0x67736d77
    23a8:	5f786f62 	svcpl	0x00786f62
    23ac:	64656566 	strbtvs	r6, [r5], #-1382	; 0x566
    23b0:	6b636162 	blvs	18da940 <__standby_start+0x18da940>
    23b4:	73656d5f 	cmnvc	r5, #6080	; 0x17c0
    23b8:	65676173 	strbvs	r6, [r7, #-371]!	; 0x173
    23bc:	69726100 	ldmdbvs	r2!, {r8, sp, lr}^
    23c0:	6d5f6373 	ldclvs	3, cr6, [pc, #-460]	; 21fc <__standby_start+0x21fc>
    23c4:	61737365 	cmnvs	r3, r5, ror #6
    23c8:	765f6567 	ldrbvc	r6, [pc], -r7, ror #10
    23cc:	64696c61 	strbtvs	r6, [r9], #-3169	; 0xc61
    23d0:	65757100 	ldrbvs	r7, [r5, #-256]!	; 0x100
    23d4:	61006575 	tstvs	r0, r5, ror r5
    23d8:	63736972 	cmnvs	r3, #1867776	; 0x1c8000
    23dc:	6d77685f 	ldclvs	8, cr6, [r7, #-380]!	; 0xfffffe84
    23e0:	6f626773 	svcvs	0x00626773
    23e4:	6e695f78 	mcrvs	15, 3, r5, cr9, cr8, {3}
    23e8:	61007469 	tstvs	r0, r9, ror #8
    23ec:	2f686372 	svccs	0x00686372
    23f0:	2f6d7261 	svccs	0x006d7261
    23f4:	6863616d 	stmdavs	r3!, {r0, r2, r3, r5, r6, r8, sp, lr}^
    23f8:	6e75732d 	cdpvs	3, 7, cr7, cr5, cr13, {1}
    23fc:	702f6978 	eorvc	r6, pc, r8, ror r9	; <UNPREDICTABLE>
    2400:	74732f6d 	ldrbtvc	r2, [r3], #-3949	; 0xf6d
    2404:	62646e61 	rsbvs	r6, r4, #1552	; 0x610
    2408:	2f2e2f79 	svccs	0x002e2f79
    240c:	73697261 	cmnvc	r9, #268435462	; 0x10000006
    2410:	72612f63 	rsbvc	r2, r1, #396	; 0x18c
    2414:	5f637369 	svcpl	0x00637369
    2418:	736d7768 	cmnvc	sp, #27262976	; 0x1a00000
    241c:	786f6267 	stmdavc	pc!, {r0, r1, r2, r5, r6, r9, sp, lr}^	; <UNPREDICTABLE>
    2420:	6100632e 	tstvs	r0, lr, lsr #6
    2424:	63736972 	cmnvs	r3, #1867776	; 0x1c8000
    2428:	6d77685f 	ldclvs	8, cr6, [r7, #-380]!	; 0xfffffe84
    242c:	6f626773 	svcvs	0x00626773
    2430:	75715f78 	ldrbvc	r5, [r1, #-3960]!	; 0xf78
    2434:	5f797265 	svcpl	0x00797265
    2438:	7373656d 	cmnvc	r3, #457179136	; 0x1b400000
    243c:	00656761 	rsbeq	r6, r5, r1, ror #14
    2440:	73697261 	cmnvc	r9, #268435462	; 0x10000006
    2444:	77685f63 	strbvc	r5, [r8, -r3, ror #30]!
    2448:	6267736d 	rsbvs	r7, r7, #-1275068415	; 0xb4000001
    244c:	635f786f 	cmpvs	pc, #7274496	; 0x6f0000
    2450:	7261656c 	rsbvc	r6, r1, #452984832	; 0x1b000000
    2454:	6365725f 	cmnvs	r5, #-268435451	; 0xf0000005
    2458:	65766965 	ldrbvs	r6, [r6, #-2405]!	; 0x965
    245c:	65705f72 	ldrbvs	r5, [r0, #-3954]!	; 0xf72
    2460:	6e69646e 	cdpvs	4, 6, cr6, cr9, cr14, {3}
    2464:	72610067 	rsbvc	r0, r1, #103	; 0x67
    2468:	5f637369 	svcpl	0x00637369
    246c:	736d7768 	cmnvc	sp, #27262976	; 0x1a00000
    2470:	786f6267 	stmdavc	pc!, {r0, r1, r2, r5, r6, r9, sp, lr}^	; <UNPREDICTABLE>
    2474:	616e655f 	cmnvs	lr, pc, asr r5
    2478:	5f656c62 	svcpl	0x00656c62
    247c:	65636572 	strbvs	r6, [r3, #-1394]!	; 0x572
    2480:	72657669 	rsbvc	r7, r5, #110100480	; 0x6900000
    2484:	746e695f 	strbtvc	r6, [lr], #-2399	; 0x95f
    2488:	5f574100 	svcpl	0x00574100
    248c:	534d5748 	movtpl	r5, #55112	; 0xd748
    2490:	55515f47 	ldrbpl	r5, [r1, #-3911]	; 0xf47
    2494:	5f455545 	svcpl	0x00455545
    2498:	52455355 	subpl	r5, r5, #1409286145	; 0x54000001
    249c:	3343415f 	movtcc	r4, #12639	; 0x315f
    24a0:	61003732 	tstvs	r0, r2, lsr r7
    24a4:	2f686372 	svccs	0x00686372
    24a8:	2f6d7261 	svccs	0x006d7261
    24ac:	6863616d 	stmdavs	r3!, {r0, r2, r3, r5, r6, r8, sp, lr}^
    24b0:	6e75732d 	cdpvs	3, 7, cr7, cr5, cr13, {1}
    24b4:	702f6978 	eorvc	r6, pc, r8, ror r9	; <UNPREDICTABLE>
    24b8:	74732f6d 	ldrbtvc	r2, [r3], #-3949	; 0xf6d
    24bc:	62646e61 	rsbvs	r6, r4, #1552	; 0x610
    24c0:	2f2e2f79 	svccs	0x002e2f79
    24c4:	73697261 	cmnvc	r9, #268435462	; 0x10000006
    24c8:	72612f63 	rsbvc	r2, r1, #396	; 0x18c
    24cc:	5f637369 	svcpl	0x00637369
    24d0:	70737768 	rsbsvc	r7, r3, r8, ror #14
    24d4:	6f6c6e69 	svcvs	0x006c6e69
    24d8:	632e6b63 	teqvs	lr, #101376	; 0x18c00
    24dc:	69776800 	ldmdbvs	r7!, {fp, sp, lr}^
    24e0:	72610064 	rsbvc	r0, r1, #100	; 0x64
    24e4:	5f637369 	svcpl	0x00637369
    24e8:	70737768 	rsbsvc	r7, r3, r8, ror #14
    24ec:	6f6c6e69 	svcvs	0x006c6e69
    24f0:	655f6b63 	ldrbvs	r6, [pc, #-2915]	; 1995 <__standby_start+0x1995>
    24f4:	00746978 	rsbseq	r6, r4, r8, ror r9
    24f8:	73697261 	cmnvc	r9, #268435462	; 0x10000006
    24fc:	77685f63 	strbvc	r5, [r8, -r3, ror #30]!
    2500:	6e697073 	mcrvs	0, 3, r7, cr9, cr3, {3}
    2504:	6c6e755f 	cfstr64vs	mvdx7, [lr], #-380	; 0xfffffe84
    2508:	006b636f 	rsbeq	r6, fp, pc, ror #6
    250c:	73697261 	cmnvc	r9, #268435462	; 0x10000006
    2510:	77685f63 	strbvc	r5, [r8, -r3, ror #30]!
    2514:	6e697073 	mcrvs	0, 3, r7, cr9, cr3, {3}
    2518:	6b636f6c 	blvs	18de2d0 <__standby_start+0x18de2d0>
    251c:	696e695f 	stmdbvs	lr!, {r0, r1, r2, r3, r4, r6, r8, fp, sp, lr}^
    2520:	72610074 	rsbvc	r0, r1, #116	; 0x74
    2524:	5f637369 	svcpl	0x00637369
    2528:	70737768 	rsbsvc	r7, r3, r8, ror #14
    252c:	6c5f6e69 	mrrcvs	14, 6, r6, pc, cr9	; <UNPREDICTABLE>
    2530:	5f6b636f 	svcpl	0x006b636f
    2534:	656d6974 	strbvs	r6, [sp, #-2420]!	; 0x974
    2538:	0074756f 	rsbseq	r7, r4, pc, ror #10
    253c:	73697261 	cmnvc	r9, #268435462	; 0x10000006
    2540:	656d5f63 	strbvs	r5, [sp, #-3939]!	; 0xf63
    2544:	67617373 			; <UNDEFINED> instruction: 0x67617373
    2548:	616d5f65 	cmnvs	sp, r5, ror #30
    254c:	6567616e 	strbvs	r6, [r7, #-366]!	; 0x16e
    2550:	78655f72 	stmdavc	r5!, {r1, r4, r5, r6, r8, r9, sl, fp, ip, lr}^
    2554:	61007469 	tstvs	r0, r9, ror #8
    2558:	63736972 	cmnvs	r3, #1867776	; 0x1c8000
    255c:	73656d5f 	cmnvc	r5, #6080	; 0x17c0
    2560:	65676173 	strbvs	r6, [r7, #-371]!	; 0x173
    2564:	6c6c615f 	stfvse	f6, [ip], #-380	; 0xfffffe84
    2568:	7461636f 	strbtvc	r6, [r1], #-879	; 0x36f
    256c:	656d0065 	strbvs	r0, [sp, #-101]!	; 0x65
    2570:	67617373 			; <UNDEFINED> instruction: 0x67617373
    2574:	6e655f65 	cdpvs	15, 6, cr5, cr5, cr5, {3}
    2578:	72610064 	rsbvc	r0, r1, #100	; 0x64
    257c:	5f637369 	svcpl	0x00637369
    2580:	7373656d 	cmnvc	r3, #457179136	; 0x1b400000
    2584:	5f656761 	svcpl	0x00656761
    2588:	65657266 	strbvs	r7, [r5, #-614]!	; 0x266
    258c:	73656d00 	cmnvc	r5, #0
    2590:	65676173 	strbvs	r6, [r7, #-371]!	; 0x173
    2594:	6174735f 	cmnvs	r4, pc, asr r3
    2598:	61007472 	tstvs	r0, r2, ror r4
    259c:	63736972 	cmnvs	r3, #1867776	; 0x1c8000
    25a0:	73656d5f 	cmnvc	r5, #6080	; 0x17c0
    25a4:	65676173 	strbvs	r6, [r7, #-371]!	; 0x173
    25a8:	6e616d5f 	mcrvs	13, 3, r6, cr1, cr15, {2}
    25ac:	72656761 	rsbvc	r6, r5, #25427968	; 0x1840000
    25b0:	696e695f 	stmdbvs	lr!, {r0, r1, r2, r3, r4, r6, r8, fp, sp, lr}^
    25b4:	72610074 	rsbvc	r0, r1, #116	; 0x74
    25b8:	612f6863 	teqvs	pc, r3, ror #16
    25bc:	6d2f6d72 	stcvs	13, cr6, [pc, #-456]!	; 23fc <__standby_start+0x23fc>
    25c0:	2d686361 	stclcs	3, cr6, [r8, #-388]!	; 0xfffffe7c
    25c4:	786e7573 	stmdavc	lr!, {r0, r1, r4, r5, r6, r8, sl, ip, sp, lr}^
    25c8:	6d702f69 	ldclvs	15, cr2, [r0, #-420]!	; 0xfffffe5c
    25cc:	6174732f 	cmnvs	r4, pc, lsr #6
    25d0:	7962646e 	stmdbvc	r2!, {r1, r2, r3, r5, r6, sl, sp, lr}^
    25d4:	612f2e2f 	teqvs	pc, pc, lsr #28
    25d8:	63736972 	cmnvs	r3, #1867776	; 0x1c8000
    25dc:	6972612f 	ldmdbvs	r2!, {r0, r1, r2, r3, r5, r8, sp, lr}^
    25e0:	6d5f6373 	ldclvs	3, cr6, [pc, #-460]	; 241c <__standby_start+0x241c>
    25e4:	61737365 	cmnvs	r3, r5, ror #6
    25e8:	6d5f6567 	cfldr64vs	mvdx6, [pc, #-412]	; 2454 <__standby_start+0x2454>
    25ec:	67616e61 	strbvs	r6, [r1, -r1, ror #28]!
    25f0:	632e7265 	teqvs	lr, #1342177286	; 0x50000006
    25f4:	67736d00 	ldrbvs	r6, [r3, -r0, lsl #26]!
    25f8:	7474615f 	ldrbtvc	r6, [r4], #-351	; 0x15f
    25fc:	61700072 	cmnvs	r0, r2, ror r0
    2600:	636f6c6c 	cmnvs	pc, #27648	; 0x6c00
    2604:	73706300 	cmnvc	r0, #0
    2608:	61625f72 	smcvs	9714	; 0x25f2
    260c:	70756b63 	rsbsvc	r6, r5, r3, ror #22
    2610:	73776800 	cmnvc	r7, #0
    2614:	5f6e6970 	svcpl	0x006e6970
    2618:	6b636f6c 	blvs	18de3d0 <__standby_start+0x18de3d0>
    261c:	6d69745f 	cfstrdvs	mvd7, [r9, #-380]!	; 0xfffffe84
    2620:	74756f65 	ldrbtvc	r6, [r5], #-3941	; 0xf65
    2624:	6d6f6e5f 	stclvs	14, cr6, [pc, #-380]!	; 24b0 <__standby_start+0x24b0>
    2628:	6d00756d 	cfstr32vs	mvfx7, [r0, #-436]	; 0xfffffe4c
    262c:	6c5f6d65 	mrrcvs	13, 6, r6, pc, cr5	; <UNPREDICTABLE>
    2630:	6c61636f 	stclvs	3, cr6, [r1], #-444	; 0xfffffe44
    2634:	7172695f 	cmnvc	r2, pc, asr r9
    2638:	7365725f 	cmnvc	r5, #-268435451	; 0xf0000005
    263c:	65726f74 	ldrbvs	r6, [r2, #-3956]!	; 0xf74
    2640:	70786500 	rsbsvc	r6, r8, r0, lsl #10
    2644:	00657269 	rsbeq	r7, r5, r9, ror #4
    2648:	67616c66 	strbvs	r6, [r1, -r6, ror #24]!
    264c:	72610073 	rsbvc	r0, r1, #115	; 0x73
    2650:	612f6863 	teqvs	pc, r3, ror #16
    2654:	6d2f6d72 	stcvs	13, cr6, [pc, #-456]!	; 2494 <__standby_start+0x2494>
    2658:	2d686361 	stclcs	3, cr6, [r8, #-388]!	; 0xfffffe7c
    265c:	786e7573 	stmdavc	lr!, {r0, r1, r4, r5, r6, r8, sl, ip, sp, lr}^
    2660:	6d702f69 	ldclvs	15, cr2, [r0, #-420]!	; 0xfffffe5c
    2664:	6174732f 	cmnvs	r4, pc, lsr #6
    2668:	7962646e 	stmdbvc	r2!, {r1, r2, r3, r5, r6, sl, sp, lr}^
    266c:	2e2f2e2f 	cdpcs	14, 2, cr2, cr15, cr15, {1}
    2670:	656d2f2e 	strbvs	r2, [sp, #-3886]!	; 0xf2e
    2674:	77685f6d 	strbvc	r5, [r8, -sp, ror #30]!
    2678:	6e697073 	mcrvs	0, 3, r7, cr9, cr3, {3}
    267c:	6b636f6c 	blvs	18de434 <__standby_start+0x18de434>
    2680:	6d00632e 	stcvs	3, cr6, [r0, #-184]	; 0xffffff48
    2684:	6c5f6d65 	mrrcvs	13, 6, r6, pc, cr5	; <UNPREDICTABLE>
    2688:	6c61636f 	stclvs	3, cr6, [r1], #-444	; 0xfffffe44
    268c:	7172695f 	cmnvc	r2, pc, asr r9
    2690:	7661735f 			; <UNDEFINED> instruction: 0x7661735f
    2694:	77680065 	strbvc	r0, [r8, -r5, rrx]!
    2698:	6e697073 	mcrvs	0, 3, r7, cr9, cr3, {3}
    269c:	6c6e755f 	cfstr64vs	mvdx7, [lr], #-380	; 0xfffffe84
    26a0:	5f6b636f 	svcpl	0x006b636f
    26a4:	6d6d6f6e 	stclvs	15, cr6, [sp, #-440]!	; 0xfffffe48
    26a8:	Address 0x000026a8 is out of bounds.


Disassembly of section .comment:

00000000 <.comment>:
   0:	3a434347 	bcc	10d0d24 <__standby_start+0x10d0d24>
   4:	72632820 	rsbvc	r2, r3, #2097152	; 0x200000
   8:	7473736f 	ldrbtvc	r7, [r3], #-879	; 0x36f
   c:	2d6c6f6f 	stclcs	15, cr6, [ip, #-444]!	; 0xfffffe44
  10:	6c20474e 	stcvs	7, cr4, [r0], #-312	; 0xfffffec8
  14:	72616e69 	rsbvc	r6, r1, #1680	; 0x690
  18:	2e312d6f 	cdpcs	13, 3, cr2, cr1, cr15, {3}
  1c:	312e3331 	teqcc	lr, r1, lsr r3
  20:	3130322d 	teqcc	r0, sp, lsr #4
  24:	32302e32 	eorscc	r2, r0, #800	; 0x320
  28:	3130322d 	teqcc	r0, sp, lsr #4
  2c:	32323032 	eorscc	r3, r2, #50	; 0x32
  30:	202d2032 	eorcs	r2, sp, r2, lsr r0
  34:	616e694c 	cmnvs	lr, ip, asr #18
  38:	47206f72 			; <UNDEFINED> instruction: 0x47206f72
  3c:	32204343 	eorcc	r4, r0, #201326593	; 0xc000001
  40:	2e323130 	mrccs	1, 1, r3, cr2, cr0, {1}
  44:	20293230 	eorcs	r3, r9, r0, lsr r2
  48:	2e362e34 	mrccs	14, 1, r2, cr6, cr4, {1}
  4c:	30322033 	eorscc	r2, r2, r3, lsr r0
  50:	32303231 	eorscc	r3, r0, #268435459	; 0x10000003
  54:	28203130 	stmdacs	r0!, {r4, r5, r8, ip, sp}
  58:	72657270 	rsbvc	r7, r5, #7
  5c:	61656c65 	cmnvs	r5, r5, ror #24
  60:	00296573 	eoreq	r6, r9, r3, ror r5

Disassembly of section .ARM.attributes:

00000000 <.ARM.attributes>:
   0:	00003041 	andeq	r3, r0, r1, asr #32
   4:	61656100 	cmnvs	r5, r0, lsl #2
   8:	01006962 	tsteq	r0, r2, ror #18
   c:	00000026 	andeq	r0, r0, r6, lsr #32
  10:	412d3705 	teqmi	sp, r5, lsl #14
  14:	070a0600 	streq	r0, [sl, -r0, lsl #12]
  18:	09010841 	stmdbeq	r1, {r0, r6, fp}
  1c:	12040a02 	andne	r0, r4, #8192	; 0x2000
  20:	15011404 	strne	r1, [r1, #-1028]	; 0x404
  24:	18031701 	stmdane	r3, {r0, r8, r9, sl, ip}
  28:	1b021a01 	blne	86834 <__standby_start+0x86834>
  2c:	2c021e03 	stccs	14, cr1, [r2], {3}
  30:	Address 0x00000030 is out of bounds.


Disassembly of section .debug_frame:

00000000 <.debug_frame>:
   0:	0000000c 	andeq	r0, r0, ip
   4:	ffffffff 			; <UNDEFINED> instruction: 0xffffffff
   8:	7c020001 	stcvc	0, cr0, [r2], {1}
   c:	000d0c0e 	andeq	r0, sp, lr, lsl #24
  10:	0000001c 	andeq	r0, r0, ip, lsl r0
  14:	00000000 	andeq	r0, r0, r0
  18:	f0000000 			; <UNDEFINED> instruction: 0xf0000000
  1c:	000003c8 	andeq	r0, r0, r8, asr #7
  20:	8e180e42 	cdphi	14, 1, cr0, cr8, cr2, {2}
  24:	87028801 	strhi	r8, [r2, -r1, lsl #16]
  28:	85048603 	strhi	r8, [r4, #-1539]	; 0x603
  2c:	00068405 	andeq	r8, r6, r5, lsl #8
  30:	0000000c 	andeq	r0, r0, ip
  34:	ffffffff 			; <UNDEFINED> instruction: 0xffffffff
  38:	7c020001 	stcvc	0, cr0, [r2], {1}
  3c:	000d0c0e 	andeq	r0, sp, lr, lsl #24
  40:	0000000c 	andeq	r0, r0, ip
  44:	00000030 	andeq	r0, r0, r0, lsr r0
  48:	f00003c8 			; <UNDEFINED> instruction: 0xf00003c8
  4c:	00000030 	andeq	r0, r0, r0, lsr r0
  50:	0000000c 	andeq	r0, r0, ip
  54:	ffffffff 			; <UNDEFINED> instruction: 0xffffffff
  58:	7c020001 	stcvc	0, cr0, [r2], {1}
  5c:	000d0c0e 	andeq	r0, sp, lr, lsl #24
  60:	0000000c 	andeq	r0, r0, ip
  64:	00000050 	andeq	r0, r0, r0, asr r0
  68:	f00003f8 			; <UNDEFINED> instruction: 0xf00003f8
  6c:	00000028 	andeq	r0, r0, r8, lsr #32
  70:	0000000c 	andeq	r0, r0, ip
  74:	00000050 	andeq	r0, r0, r0, asr r0
  78:	f0000420 			; <UNDEFINED> instruction: 0xf0000420
  7c:	00000008 	andeq	r0, r0, r8
  80:	0000000c 	andeq	r0, r0, ip
  84:	00000050 	andeq	r0, r0, r0, asr r0
  88:	f0000428 			; <UNDEFINED> instruction: 0xf0000428
  8c:	00000020 	andeq	r0, r0, r0, lsr #32
  90:	0000000c 	andeq	r0, r0, ip
  94:	00000050 	andeq	r0, r0, r0, asr r0
  98:	f0000448 			; <UNDEFINED> instruction: 0xf0000448
  9c:	00000038 	andeq	r0, r0, r8, lsr r0
  a0:	0000000c 	andeq	r0, r0, ip
  a4:	00000050 	andeq	r0, r0, r0, asr r0
  a8:	f0000480 			; <UNDEFINED> instruction: 0xf0000480
  ac:	00000020 	andeq	r0, r0, r0, lsr #32
  b0:	0000000c 	andeq	r0, r0, ip
  b4:	ffffffff 			; <UNDEFINED> instruction: 0xffffffff
  b8:	7c020001 	stcvc	0, cr0, [r2], {1}
  bc:	000d0c0e 	andeq	r0, sp, lr, lsl #24
  c0:	0000000c 	andeq	r0, r0, ip
  c4:	000000b0 	strheq	r0, [r0], -r0	; <UNPREDICTABLE>
  c8:	f00004a0 			; <UNDEFINED> instruction: 0xf00004a0
  cc:	00000008 	andeq	r0, r0, r8
  d0:	0000000c 	andeq	r0, r0, ip
  d4:	000000b0 	strheq	r0, [r0], -r0	; <UNPREDICTABLE>
  d8:	f00004a8 			; <UNDEFINED> instruction: 0xf00004a8
  dc:	00000008 	andeq	r0, r0, r8
  e0:	0000000c 	andeq	r0, r0, ip
  e4:	000000b0 	strheq	r0, [r0], -r0	; <UNPREDICTABLE>
  e8:	f00004b0 			; <UNDEFINED> instruction: 0xf00004b0
  ec:	00000008 	andeq	r0, r0, r8
  f0:	0000000c 	andeq	r0, r0, ip
  f4:	000000b0 	strheq	r0, [r0], -r0	; <UNPREDICTABLE>
  f8:	f00004b8 			; <UNDEFINED> instruction: 0xf00004b8
  fc:	00000008 	andeq	r0, r0, r8
 100:	0000000c 	andeq	r0, r0, ip
 104:	ffffffff 			; <UNDEFINED> instruction: 0xffffffff
 108:	7c020001 	stcvc	0, cr0, [r2], {1}
 10c:	000d0c0e 	andeq	r0, sp, lr, lsl #24
 110:	00000018 	andeq	r0, r0, r8, lsl r0
 114:	00000100 	andeq	r0, r0, r0, lsl #2
 118:	f00004c0 			; <UNDEFINED> instruction: 0xf00004c0
 11c:	00000058 	andeq	r0, r0, r8, asr r0
 120:	8e100e42 	cdphi	14, 1, cr0, cr0, cr2, {2}
 124:	84028501 	strhi	r8, [r2], #-1281	; 0x501
 128:	00048303 	andeq	r8, r4, r3, lsl #6
 12c:	0000000c 	andeq	r0, r0, ip
 130:	00000100 	andeq	r0, r0, r0, lsl #2
 134:	f0000518 			; <UNDEFINED> instruction: 0xf0000518
 138:	00000020 	andeq	r0, r0, r0, lsr #32
 13c:	0000000c 	andeq	r0, r0, ip
 140:	00000100 	andeq	r0, r0, r0, lsl #2
 144:	f0000538 			; <UNDEFINED> instruction: 0xf0000538
 148:	00000028 	andeq	r0, r0, r8, lsr #32
 14c:	0000000c 	andeq	r0, r0, ip
 150:	ffffffff 			; <UNDEFINED> instruction: 0xffffffff
 154:	7c020001 	stcvc	0, cr0, [r2], {1}
 158:	000d0c0e 	andeq	r0, sp, lr, lsl #24
 15c:	0000001c 	andeq	r0, r0, ip, lsl r0
 160:	0000014c 	andeq	r0, r0, ip, asr #2
 164:	f0000560 			; <UNDEFINED> instruction: 0xf0000560
 168:	000001a0 	andeq	r0, r0, r0, lsr #3
 16c:	8e140e44 	cdphi	14, 1, cr0, cr4, cr4, {2}
 170:	86028701 	strhi	r8, [r2], -r1, lsl #14
 174:	84048503 	strhi	r8, [r4], #-1283	; 0x503
 178:	200e4205 	andcs	r4, lr, r5, lsl #4
 17c:	00000018 	andeq	r0, r0, r8, lsl r0
 180:	0000014c 	andeq	r0, r0, ip, asr #2
 184:	f0000700 			; <UNDEFINED> instruction: 0xf0000700
 188:	000000b8 	strheq	r0, [r0], -r8
 18c:	8e0c0e44 	cdphi	14, 0, cr0, cr12, cr4, {2}
 190:	84028501 	strhi	r8, [r2], #-1281	; 0x501
 194:	180e4403 	stmdane	lr, {r0, r1, sl, lr}
 198:	0000000c 	andeq	r0, r0, ip
 19c:	ffffffff 			; <UNDEFINED> instruction: 0xffffffff
 1a0:	7c020001 	stcvc	0, cr0, [r2], {1}
 1a4:	000d0c0e 	andeq	r0, sp, lr, lsl #24
 1a8:	0000000c 	andeq	r0, r0, ip
 1ac:	00000198 	muleq	r0, r8, r1
 1b0:	f00007b8 			; <UNDEFINED> instruction: 0xf00007b8
 1b4:	0000004c 	andeq	r0, r0, ip, asr #32
 1b8:	00000014 	andeq	r0, r0, r4, lsl r0
 1bc:	00000198 	muleq	r0, r8, r1
 1c0:	f0000804 			; <UNDEFINED> instruction: 0xf0000804
 1c4:	00000048 	andeq	r0, r0, r8, asr #32
 1c8:	8e080e42 	cdphi	14, 0, cr0, cr8, cr2, {2}
 1cc:	00028401 	andeq	r8, r2, r1, lsl #8
 1d0:	00000014 	andeq	r0, r0, r4, lsl r0
 1d4:	00000198 	muleq	r0, r8, r1
 1d8:	f000084c 			; <UNDEFINED> instruction: 0xf000084c
 1dc:	000002b4 			; <UNDEFINED> instruction: 0x000002b4
 1e0:	85080e44 	strhi	r0, [r8, #-3652]	; 0xe44
 1e4:	00028401 	andeq	r8, r2, r1, lsl #8
 1e8:	0000000c 	andeq	r0, r0, ip
 1ec:	ffffffff 			; <UNDEFINED> instruction: 0xffffffff
 1f0:	7c020001 	stcvc	0, cr0, [r2], {1}
 1f4:	000d0c0e 	andeq	r0, sp, lr, lsl #24
 1f8:	0000000c 	andeq	r0, r0, ip
 1fc:	000001e8 	andeq	r0, r0, r8, ror #3
 200:	f0000b00 			; <UNDEFINED> instruction: 0xf0000b00
 204:	00000008 	andeq	r0, r0, r8
 208:	0000000c 	andeq	r0, r0, ip
 20c:	000001e8 	andeq	r0, r0, r8, ror #3
 210:	f0000b08 			; <UNDEFINED> instruction: 0xf0000b08
 214:	00000008 	andeq	r0, r0, r8
 218:	0000000c 	andeq	r0, r0, ip
 21c:	000001e8 	andeq	r0, r0, r8, ror #3
 220:	f0000b10 			; <UNDEFINED> instruction: 0xf0000b10
 224:	00000008 	andeq	r0, r0, r8
 228:	0000000c 	andeq	r0, r0, ip
 22c:	000001e8 	andeq	r0, r0, r8, ror #3
 230:	f0000b18 			; <UNDEFINED> instruction: 0xf0000b18
 234:	00000008 	andeq	r0, r0, r8
 238:	0000000c 	andeq	r0, r0, ip
 23c:	ffffffff 			; <UNDEFINED> instruction: 0xffffffff
 240:	7c020001 	stcvc	0, cr0, [r2], {1}
 244:	000d0c0e 	andeq	r0, sp, lr, lsl #24
 248:	00000010 	andeq	r0, r0, r0, lsl r0
 24c:	00000238 	andeq	r0, r0, r8, lsr r2
 250:	f0000b20 			; <UNDEFINED> instruction: 0xf0000b20
 254:	00000020 	andeq	r0, r0, r0, lsr #32
 258:	00080e42 	andeq	r0, r8, r2, asr #28
 25c:	0000000c 	andeq	r0, r0, ip
 260:	00000238 	andeq	r0, r0, r8, lsr r2
 264:	f0000b40 			; <UNDEFINED> instruction: 0xf0000b40
 268:	00000004 	andeq	r0, r0, r4
 26c:	0000000c 	andeq	r0, r0, ip
 270:	00000238 	andeq	r0, r0, r8, lsr r2
 274:	f0000b44 			; <UNDEFINED> instruction: 0xf0000b44
 278:	00000004 	andeq	r0, r0, r4
 27c:	0000000c 	andeq	r0, r0, ip
 280:	00000238 	andeq	r0, r0, r8, lsr r2
 284:	f0000b48 			; <UNDEFINED> instruction: 0xf0000b48
 288:	00000024 	andeq	r0, r0, r4, lsr #32
 28c:	0000000c 	andeq	r0, r0, ip
 290:	00000238 	andeq	r0, r0, r8, lsr r2
 294:	f0000b6c 			; <UNDEFINED> instruction: 0xf0000b6c
 298:	00000024 	andeq	r0, r0, r4, lsr #32
 29c:	00000014 	andeq	r0, r0, r4, lsl r0
 2a0:	00000238 	andeq	r0, r0, r8, lsr r2
 2a4:	f0000b90 			; <UNDEFINED> instruction: 0xf0000b90
 2a8:	00000094 	muleq	r0, r4, r0
 2ac:	8e080e42 	cdphi	14, 0, cr0, cr8, cr2, {2}
 2b0:	00028401 	andeq	r8, r2, r1, lsl #8
 2b4:	0000000c 	andeq	r0, r0, ip
 2b8:	00000238 	andeq	r0, r0, r8, lsr r2
 2bc:	f0000c24 			; <UNDEFINED> instruction: 0xf0000c24
 2c0:	00000004 	andeq	r0, r0, r4
 2c4:	00000018 	andeq	r0, r0, r8, lsl r0
 2c8:	00000238 	andeq	r0, r0, r8, lsr r2
 2cc:	f0000c28 			; <UNDEFINED> instruction: 0xf0000c28
 2d0:	00000094 	muleq	r0, r4, r0
 2d4:	8e080e42 	cdphi	14, 0, cr0, cr8, cr2, {2}
 2d8:	42028401 	andmi	r8, r2, #16777216	; 0x1000000
 2dc:	0000100e 	andeq	r1, r0, lr
 2e0:	00000014 	andeq	r0, r0, r4, lsl r0
 2e4:	00000238 	andeq	r0, r0, r8, lsr r2
 2e8:	f0000cbc 			; <UNDEFINED> instruction: 0xf0000cbc
 2ec:	00000054 	andeq	r0, r0, r4, asr r0
 2f0:	8e080e42 	cdphi	14, 0, cr0, cr8, cr2, {2}
 2f4:	00028401 	andeq	r8, r2, r1, lsl #8
 2f8:	00000018 	andeq	r0, r0, r8, lsl r0
 2fc:	00000238 	andeq	r0, r0, r8, lsr r2
 300:	f0000d10 			; <UNDEFINED> instruction: 0xf0000d10
 304:	00000078 	andeq	r0, r0, r8, ror r0
 308:	8e100e42 	cdphi	14, 1, cr0, cr0, cr2, {2}
 30c:	85028601 	strhi	r8, [r2, #-1537]	; 0x601
 310:	00048403 	andeq	r8, r4, r3, lsl #8
 314:	00000018 	andeq	r0, r0, r8, lsl r0
 318:	00000238 	andeq	r0, r0, r8, lsr r2
 31c:	f0000d88 			; <UNDEFINED> instruction: 0xf0000d88
 320:	00000094 	muleq	r0, r4, r0
 324:	8e0c0e42 	cdphi	14, 0, cr0, cr12, cr2, {2}
 328:	84028501 	strhi	r8, [r2], #-1281	; 0x501
 32c:	180e4203 	stmdane	lr, {r0, r1, r9, lr}
 330:	0000000c 	andeq	r0, r0, ip
 334:	00000238 	andeq	r0, r0, r8, lsr r2
 338:	f0000e1c 			; <UNDEFINED> instruction: 0xf0000e1c
 33c:	00000018 	andeq	r0, r0, r8, lsl r0
 340:	0000000c 	andeq	r0, r0, ip
 344:	00000238 	andeq	r0, r0, r8, lsr r2
 348:	f0000e34 			; <UNDEFINED> instruction: 0xf0000e34
 34c:	00000018 	andeq	r0, r0, r8, lsl r0
 350:	0000000c 	andeq	r0, r0, ip
 354:	00000238 	andeq	r0, r0, r8, lsr r2
 358:	f0000e4c 			; <UNDEFINED> instruction: 0xf0000e4c
 35c:	00000018 	andeq	r0, r0, r8, lsl r0
 360:	00000018 	andeq	r0, r0, r8, lsl r0
 364:	00000238 	andeq	r0, r0, r8, lsr r2
 368:	f0000e64 			; <UNDEFINED> instruction: 0xf0000e64
 36c:	00000034 	andeq	r0, r0, r4, lsr r0
 370:	8e100e42 	cdphi	14, 1, cr0, cr0, cr2, {2}
 374:	85028601 	strhi	r8, [r2, #-1537]	; 0x601
 378:	00048403 	andeq	r8, r4, r3, lsl #8
 37c:	0000000c 	andeq	r0, r0, ip
 380:	ffffffff 			; <UNDEFINED> instruction: 0xffffffff
 384:	7c020001 	stcvc	0, cr0, [r2], {1}
 388:	000d0c0e 	andeq	r0, sp, lr, lsl #24
 38c:	0000000c 	andeq	r0, r0, ip
 390:	0000037c 	andeq	r0, r0, ip, ror r3
 394:	f0000e98 			; <UNDEFINED> instruction: 0xf0000e98
 398:	00000034 	andeq	r0, r0, r4, lsr r0
 39c:	0000000c 	andeq	r0, r0, ip
 3a0:	0000037c 	andeq	r0, r0, ip, ror r3
 3a4:	f0000ecc 			; <UNDEFINED> instruction: 0xf0000ecc
 3a8:	0000001c 	andeq	r0, r0, ip, lsl r0
 3ac:	0000000c 	andeq	r0, r0, ip
 3b0:	0000037c 	andeq	r0, r0, ip, ror r3
 3b4:	f0000ee8 			; <UNDEFINED> instruction: 0xf0000ee8
 3b8:	00000024 	andeq	r0, r0, r4, lsr #32
 3bc:	0000000c 	andeq	r0, r0, ip
 3c0:	0000037c 	andeq	r0, r0, ip, ror r3
 3c4:	f0000f0c 			; <UNDEFINED> instruction: 0xf0000f0c
 3c8:	00000008 	andeq	r0, r0, r8
 3cc:	0000000c 	andeq	r0, r0, ip
 3d0:	0000037c 	andeq	r0, r0, ip, ror r3
 3d4:	f0000f14 			; <UNDEFINED> instruction: 0xf0000f14
 3d8:	00000010 	andeq	r0, r0, r0, lsl r0
 3dc:	00000014 	andeq	r0, r0, r4, lsl r0
 3e0:	0000037c 	andeq	r0, r0, ip, ror r3
 3e4:	f0000f24 			; <UNDEFINED> instruction: 0xf0000f24
 3e8:	00000034 	andeq	r0, r0, r4, lsr r0
 3ec:	8e080e42 	cdphi	14, 0, cr0, cr8, cr2, {2}
 3f0:	00028401 	andeq	r8, r2, r1, lsl #8
 3f4:	00000018 	andeq	r0, r0, r8, lsl r0
 3f8:	0000037c 	andeq	r0, r0, ip, ror r3
 3fc:	f0000f58 			; <UNDEFINED> instruction: 0xf0000f58
 400:	00000088 	andeq	r0, r0, r8, lsl #1
 404:	8e100e42 	cdphi	14, 1, cr0, cr0, cr2, {2}
 408:	84028501 	strhi	r8, [r2], #-1281	; 0x501
 40c:	00048303 	andeq	r8, r4, r3, lsl #6
 410:	00000014 	andeq	r0, r0, r4, lsl r0
 414:	0000037c 	andeq	r0, r0, ip, ror r3
 418:	f0000fe0 			; <UNDEFINED> instruction: 0xf0000fe0
 41c:	00000034 	andeq	r0, r0, r4, lsr r0
 420:	8e080e44 	cdphi	14, 0, cr0, cr8, cr4, {2}
 424:	00028401 	andeq	r8, r2, r1, lsl #8
 428:	0000000c 	andeq	r0, r0, ip
 42c:	0000037c 	andeq	r0, r0, ip, ror r3
 430:	f0001014 			; <UNDEFINED> instruction: 0xf0001014
 434:	0000002c 	andeq	r0, r0, ip, lsr #32
 438:	0000000c 	andeq	r0, r0, ip
 43c:	0000037c 	andeq	r0, r0, ip, ror r3
 440:	f0001040 			; <UNDEFINED> instruction: 0xf0001040
 444:	0000002c 	andeq	r0, r0, ip, lsr #32
 448:	0000000c 	andeq	r0, r0, ip
 44c:	0000037c 	andeq	r0, r0, ip, ror r3
 450:	f000106c 			; <UNDEFINED> instruction: 0xf000106c
 454:	0000002c 	andeq	r0, r0, ip, lsr #32
 458:	0000000c 	andeq	r0, r0, ip
 45c:	ffffffff 			; <UNDEFINED> instruction: 0xffffffff
 460:	7c020001 	stcvc	0, cr0, [r2], {1}
 464:	000d0c0e 	andeq	r0, sp, lr, lsl #24
 468:	0000000c 	andeq	r0, r0, ip
 46c:	00000458 	andeq	r0, r0, r8, asr r4
 470:	f00010a0 			; <UNDEFINED> instruction: 0xf00010a0
 474:	0000003c 	andeq	r0, r0, ip, lsr r0
 478:	0000000c 	andeq	r0, r0, ip
 47c:	00000458 	andeq	r0, r0, r8, asr r4
 480:	f00010dc 			; <UNDEFINED> instruction: 0xf00010dc
 484:	00000064 	andeq	r0, r0, r4, rrx
 488:	0000000c 	andeq	r0, r0, ip
 48c:	ffffffff 			; <UNDEFINED> instruction: 0xffffffff
 490:	7c020001 	stcvc	0, cr0, [r2], {1}
 494:	000d0c0e 	andeq	r0, sp, lr, lsl #24
 498:	00000018 	andeq	r0, r0, r8, lsl r0
 49c:	00000488 	andeq	r0, r0, r8, lsl #9
 4a0:	f00016a0 			; <UNDEFINED> instruction: 0xf00016a0
 4a4:	000000a8 	andeq	r0, r0, r8, lsr #1
 4a8:	8e100e42 	cdphi	14, 1, cr0, cr0, cr2, {2}
 4ac:	84028501 	strhi	r8, [r2], #-1281	; 0x501
 4b0:	00048303 	andeq	r8, r4, r3, lsl #6
 4b4:	00000018 	andeq	r0, r0, r8, lsl r0
 4b8:	00000488 	andeq	r0, r0, r8, lsl #9
 4bc:	f0001748 			; <UNDEFINED> instruction: 0xf0001748
 4c0:	000000ac 	andeq	r0, r0, ip, lsr #1
 4c4:	8e100e42 	cdphi	14, 1, cr0, cr0, cr2, {2}
 4c8:	84028501 	strhi	r8, [r2], #-1281	; 0x501
 4cc:	00048303 	andeq	r8, r4, r3, lsl #6
 4d0:	0000000c 	andeq	r0, r0, ip
 4d4:	00000488 	andeq	r0, r0, r8, lsl #9
 4d8:	f00017f4 			; <UNDEFINED> instruction: 0xf00017f4
 4dc:	00000040 	andeq	r0, r0, r0, asr #32
 4e0:	00000018 	andeq	r0, r0, r8, lsl r0
 4e4:	00000488 	andeq	r0, r0, r8, lsl #9
 4e8:	f0001834 			; <UNDEFINED> instruction: 0xf0001834
 4ec:	00000084 	andeq	r0, r0, r4, lsl #1
 4f0:	8e100e42 	cdphi	14, 1, cr0, cr0, cr2, {2}
 4f4:	84028501 	strhi	r8, [r2], #-1281	; 0x501
 4f8:	00048303 	andeq	r8, r4, r3, lsl #6
 4fc:	00000014 	andeq	r0, r0, r4, lsl r0
 500:	00000488 	andeq	r0, r0, r8, lsl #9
 504:	f00018b8 			; <UNDEFINED> instruction: 0xf00018b8
 508:	000000b0 	strheq	r0, [r0], -r0	; <UNPREDICTABLE>
 50c:	84040e44 	strhi	r0, [r4], #-3652	; 0xe44
 510:	00000001 	andeq	r0, r0, r1
 514:	00000014 	andeq	r0, r0, r4, lsl r0
 518:	00000488 	andeq	r0, r0, r8, lsl #9
 51c:	f0001968 			; <UNDEFINED> instruction: 0xf0001968
 520:	0000008c 	andeq	r0, r0, ip, lsl #1
 524:	84040e44 	strhi	r0, [r4], #-3652	; 0xe44
 528:	00000001 	andeq	r0, r0, r1
 52c:	0000000c 	andeq	r0, r0, ip
 530:	00000488 	andeq	r0, r0, r8, lsl #9
 534:	f00019f4 			; <UNDEFINED> instruction: 0xf00019f4
 538:	00000014 	andeq	r0, r0, r4, lsl r0
 53c:	0000000c 	andeq	r0, r0, ip
 540:	00000488 	andeq	r0, r0, r8, lsl #9
 544:	f0001a08 			; <UNDEFINED> instruction: 0xf0001a08
 548:	00000014 	andeq	r0, r0, r4, lsl r0
 54c:	00000018 	andeq	r0, r0, r8, lsl r0
 550:	00000488 	andeq	r0, r0, r8, lsl #9
 554:	f0001a1c 			; <UNDEFINED> instruction: 0xf0001a1c
 558:	0000008c 	andeq	r0, r0, ip, lsl #1
 55c:	8e100e42 	cdphi	14, 1, cr0, cr0, cr2, {2}
 560:	84028501 	strhi	r8, [r2], #-1281	; 0x501
 564:	00048303 	andeq	r8, r4, r3, lsl #6
 568:	00000014 	andeq	r0, r0, r4, lsl r0
 56c:	00000488 	andeq	r0, r0, r8, lsl #9
 570:	f0001aa8 			; <UNDEFINED> instruction: 0xf0001aa8
 574:	000000b0 	strheq	r0, [r0], -r0	; <UNPREDICTABLE>
 578:	84040e44 	strhi	r0, [r4], #-3652	; 0xe44
 57c:	00000001 	andeq	r0, r0, r1
 580:	00000014 	andeq	r0, r0, r4, lsl r0
 584:	00000488 	andeq	r0, r0, r8, lsl #9
 588:	f0001b58 			; <UNDEFINED> instruction: 0xf0001b58
 58c:	0000008c 	andeq	r0, r0, ip, lsl #1
 590:	84040e44 	strhi	r0, [r4], #-3652	; 0xe44
 594:	00000001 	andeq	r0, r0, r1
 598:	0000000c 	andeq	r0, r0, ip
 59c:	ffffffff 			; <UNDEFINED> instruction: 0xffffffff
 5a0:	7c020001 	stcvc	0, cr0, [r2], {1}
 5a4:	000d0c0e 	andeq	r0, sp, lr, lsl #24
 5a8:	00000020 	andeq	r0, r0, r0, lsr #32
 5ac:	00000598 	muleq	r0, r8, r5
 5b0:	f0001be4 			; <UNDEFINED> instruction: 0xf0001be4
 5b4:	000000bc 	strheq	r0, [r0], -ip
 5b8:	8e1c0e42 	cdphi	14, 1, cr0, cr12, cr2, {2}
 5bc:	88028a01 	stmdahi	r2, {r0, r9, fp, pc}
 5c0:	86048703 	strhi	r8, [r4], -r3, lsl #14
 5c4:	84068505 	strhi	r8, [r6], #-1285	; 0x505
 5c8:	480e4c07 	stmdami	lr, {r0, r1, r2, sl, fp, lr}
 5cc:	0000001c 	andeq	r0, r0, ip, lsl r0
 5d0:	00000598 	muleq	r0, r8, r5
 5d4:	f0001ca0 			; <UNDEFINED> instruction: 0xf0001ca0
 5d8:	000000a8 	andeq	r0, r0, r8, lsr #1
 5dc:	87100e42 	ldrhi	r0, [r0, -r2, asr #28]
 5e0:	85028601 	strhi	r8, [r2, #-1537]	; 0x601
 5e4:	4c048403 	cfstrsmi	mvf8, [r4], {3}
 5e8:	0000280e 	andeq	r2, r0, lr, lsl #16
 5ec:	0000001c 	andeq	r0, r0, ip, lsl r0
 5f0:	00000598 	muleq	r0, r8, r5
 5f4:	f0001d48 			; <UNDEFINED> instruction: 0xf0001d48
 5f8:	000000e8 	andeq	r0, r0, r8, ror #1
 5fc:	88140e42 	ldmdahi	r4, {r1, r6, r9, sl, fp}
 600:	86028701 	strhi	r8, [r2], -r1, lsl #14
 604:	84048503 	strhi	r8, [r4], #-1283	; 0x503
 608:	400e4a05 	andmi	r4, lr, r5, lsl #20
 60c:	00000030 	andeq	r0, r0, r0, lsr r0
 610:	00000598 	muleq	r0, r8, r5
 614:	f0001e30 			; <UNDEFINED> instruction: 0xf0001e30
 618:	000002d0 	ldrdeq	r0, [r0], -r0	; <UNPREDICTABLE>
 61c:	83100e42 	tsthi	r0, #1056	; 0x420
 620:	81028201 	tsthi	r2, r1, lsl #4
 624:	42048003 	andmi	r8, r4, #3
 628:	058e300e 	streq	r3, [lr, #14]
 62c:	0789068a 	streq	r0, [r9, sl, lsl #13]
 630:	09870888 	stmibeq	r7, {r3, r7, fp}
 634:	0b850a86 	bleq	fe143054 <__bss_end+0xe13f2a8>
 638:	0e420c84 	cdpeq	12, 4, cr0, cr2, cr4, {4}
 63c:	00000048 	andeq	r0, r0, r8, asr #32
 640:	00000030 	andeq	r0, r0, r0, lsr r0
 644:	00000598 	muleq	r0, r8, r5
 648:	f0002100 			; <UNDEFINED> instruction: 0xf0002100
 64c:	000002d0 	ldrdeq	r0, [r0], -r0	; <UNPREDICTABLE>
 650:	83100e42 	tsthi	r0, #1056	; 0x420
 654:	81028201 	tsthi	r2, r1, lsl #4
 658:	42048003 	andmi	r8, r4, #3
 65c:	058e300e 	streq	r3, [lr, #14]
 660:	0789068a 	streq	r0, [r9, sl, lsl #13]
 664:	09870888 	stmibeq	r7, {r3, r7, fp}
 668:	0b850a86 	bleq	fe143088 <__bss_end+0xe13f2dc>
 66c:	0e420c84 	cdpeq	12, 4, cr0, cr2, cr4, {4}
 670:	00000048 	andeq	r0, r0, r8, asr #32
 674:	0000000c 	andeq	r0, r0, ip
 678:	ffffffff 			; <UNDEFINED> instruction: 0xffffffff
 67c:	7c020001 	stcvc	0, cr0, [r2], {1}
 680:	000d0c0e 	andeq	r0, sp, lr, lsl #24
 684:	0000000c 	andeq	r0, r0, ip
 688:	00000674 	andeq	r0, r0, r4, ror r6
 68c:	f00025ac 			; <UNDEFINED> instruction: 0xf00025ac
 690:	0000000c 	andeq	r0, r0, ip
 694:	0000000c 	andeq	r0, r0, ip
 698:	00000674 	andeq	r0, r0, r4, ror r6
 69c:	f00025b8 			; <UNDEFINED> instruction: 0xf00025b8
 6a0:	0000004c 	andeq	r0, r0, ip, asr #32
 6a4:	0000000c 	andeq	r0, r0, ip
 6a8:	ffffffff 			; <UNDEFINED> instruction: 0xffffffff
 6ac:	7c020001 	stcvc	0, cr0, [r2], {1}
 6b0:	000d0c0e 	andeq	r0, sp, lr, lsl #24
 6b4:	00000014 	andeq	r0, r0, r4, lsl r0
 6b8:	000006a4 	andeq	r0, r0, r4, lsr #13
 6bc:	f0002604 			; <UNDEFINED> instruction: 0xf0002604
 6c0:	00000090 	muleq	r0, r0, r0
 6c4:	8e080e48 	cdphi	14, 0, cr0, cr8, cr8, {2}
 6c8:	00028401 	andeq	r8, r2, r1, lsl #8
 6cc:	00000010 	andeq	r0, r0, r0, lsl r0
 6d0:	000006a4 	andeq	r0, r0, r4, lsr #13
 6d4:	f0002694 			; <UNDEFINED> instruction: 0xf0002694
 6d8:	00000054 	andeq	r0, r0, r4, asr r0
 6dc:	00080e44 	andeq	r0, r8, r4, asr #28
 6e0:	0000000c 	andeq	r0, r0, ip
 6e4:	000006a4 	andeq	r0, r0, r4, lsr #13
 6e8:	f00026e8 			; <UNDEFINED> instruction: 0xf00026e8
 6ec:	0000005c 	andeq	r0, r0, ip, asr r0
 6f0:	0000000c 	andeq	r0, r0, ip
 6f4:	000006a4 	andeq	r0, r0, r4, lsr #13
 6f8:	f0002744 			; <UNDEFINED> instruction: 0xf0002744
 6fc:	0000005c 	andeq	r0, r0, ip, asr r0
 700:	0000000c 	andeq	r0, r0, ip
 704:	ffffffff 			; <UNDEFINED> instruction: 0xffffffff
 708:	7c020001 	stcvc	0, cr0, [r2], {1}
 70c:	000d0c0e 	andeq	r0, sp, lr, lsl #24
 710:	0000000c 	andeq	r0, r0, ip
 714:	00000700 	andeq	r0, r0, r0, lsl #14
 718:	f00027a0 			; <UNDEFINED> instruction: 0xf00027a0
 71c:	0000002c 	andeq	r0, r0, ip, lsr #32
 720:	0000000c 	andeq	r0, r0, ip
 724:	00000700 	andeq	r0, r0, r0, lsl #14
 728:	f00027cc 			; <UNDEFINED> instruction: 0xf00027cc
 72c:	0000002c 	andeq	r0, r0, ip, lsr #32
 730:	0000000c 	andeq	r0, r0, ip
 734:	00000700 	andeq	r0, r0, r0, lsl #14
 738:	f00027f8 			; <UNDEFINED> instruction: 0xf00027f8
 73c:	00000048 	andeq	r0, r0, r8, asr #32
 740:	0000000c 	andeq	r0, r0, ip
 744:	ffffffff 			; <UNDEFINED> instruction: 0xffffffff
 748:	7c020001 	stcvc	0, cr0, [r2], {1}
 74c:	000d0c0e 	andeq	r0, sp, lr, lsl #24
 750:	0000000c 	andeq	r0, r0, ip
 754:	00000740 	andeq	r0, r0, r0, asr #14
 758:	f0002840 			; <UNDEFINED> instruction: 0xf0002840
 75c:	00000060 	andeq	r0, r0, r0, rrx
 760:	0000000c 	andeq	r0, r0, ip
 764:	00000740 	andeq	r0, r0, r0, asr #14
 768:	f00028a0 			; <UNDEFINED> instruction: 0xf00028a0
 76c:	00000050 	andeq	r0, r0, r0, asr r0
 770:	0000000c 	andeq	r0, r0, ip
 774:	00000740 	andeq	r0, r0, r0, asr #14
 778:	f00028f0 			; <UNDEFINED> instruction: 0xf00028f0
 77c:	00000038 	andeq	r0, r0, r8, lsr r0
 780:	0000000c 	andeq	r0, r0, ip
 784:	00000740 	andeq	r0, r0, r0, asr #14
 788:	f0002928 			; <UNDEFINED> instruction: 0xf0002928
 78c:	00000028 	andeq	r0, r0, r8, lsr #32
 790:	0000000c 	andeq	r0, r0, ip
 794:	00000740 	andeq	r0, r0, r0, asr #14
 798:	f0002950 			; <UNDEFINED> instruction: 0xf0002950
 79c:	00000048 	andeq	r0, r0, r8, asr #32
 7a0:	0000000c 	andeq	r0, r0, ip
 7a4:	00000740 	andeq	r0, r0, r0, asr #14
 7a8:	f0002998 			; <UNDEFINED> instruction: 0xf0002998
 7ac:	00000040 	andeq	r0, r0, r0, asr #32
 7b0:	0000000c 	andeq	r0, r0, ip
 7b4:	00000740 	andeq	r0, r0, r0, asr #14
 7b8:	f00029d8 			; <UNDEFINED> instruction: 0xf00029d8
 7bc:	00000050 	andeq	r0, r0, r0, asr r0
 7c0:	0000000c 	andeq	r0, r0, ip
 7c4:	ffffffff 			; <UNDEFINED> instruction: 0xffffffff
 7c8:	7c020001 	stcvc	0, cr0, [r2], {1}
 7cc:	000d0c0e 	andeq	r0, sp, lr, lsl #24
 7d0:	0000000c 	andeq	r0, r0, ip
 7d4:	000007c0 	andeq	r0, r0, r0, asr #15
 7d8:	f0002a28 			; <UNDEFINED> instruction: 0xf0002a28
 7dc:	00000030 	andeq	r0, r0, r0, lsr r0
 7e0:	0000000c 	andeq	r0, r0, ip
 7e4:	000007c0 	andeq	r0, r0, r0, asr #15
 7e8:	f0002a58 			; <UNDEFINED> instruction: 0xf0002a58
 7ec:	00000028 	andeq	r0, r0, r8, lsr #32
 7f0:	0000000c 	andeq	r0, r0, ip
 7f4:	ffffffff 			; <UNDEFINED> instruction: 0xffffffff
 7f8:	7c020001 	stcvc	0, cr0, [r2], {1}
 7fc:	000d0c0e 	andeq	r0, sp, lr, lsl #24
 800:	0000000c 	andeq	r0, r0, ip
 804:	000007f0 	strdeq	r0, [r0], -r0	; <UNPREDICTABLE>
 808:	f0002a80 			; <UNDEFINED> instruction: 0xf0002a80
 80c:	00000030 	andeq	r0, r0, r0, lsr r0
 810:	0000000c 	andeq	r0, r0, ip
 814:	000007f0 	strdeq	r0, [r0], -r0	; <UNPREDICTABLE>
 818:	f0002ab0 			; <UNDEFINED> instruction: 0xf0002ab0
 81c:	00000010 	andeq	r0, r0, r0, lsl r0
 820:	0000000c 	andeq	r0, r0, ip
 824:	000007f0 	strdeq	r0, [r0], -r0	; <UNPREDICTABLE>
 828:	f0002ac0 			; <UNDEFINED> instruction: 0xf0002ac0
 82c:	0000003c 	andeq	r0, r0, ip, lsr r0
 830:	0000000c 	andeq	r0, r0, ip
 834:	000007f0 	strdeq	r0, [r0], -r0	; <UNPREDICTABLE>
 838:	f0002afc 			; <UNDEFINED> instruction: 0xf0002afc
 83c:	00000034 	andeq	r0, r0, r4, lsr r0
 840:	00000018 	andeq	r0, r0, r8, lsl r0
 844:	000007f0 	strdeq	r0, [r0], -r0	; <UNPREDICTABLE>
 848:	f0002b30 			; <UNDEFINED> instruction: 0xf0002b30
 84c:	00000070 	andeq	r0, r0, r0, ror r0
 850:	8e100e42 	cdphi	14, 1, cr0, cr0, cr2, {2}
 854:	84028501 	strhi	r8, [r2], #-1281	; 0x501
 858:	00048303 	andeq	r8, r4, r3, lsl #6
 85c:	00000014 	andeq	r0, r0, r4, lsl r0
 860:	000007f0 	strdeq	r0, [r0], -r0	; <UNPREDICTABLE>
 864:	f0002ba0 			; <UNDEFINED> instruction: 0xf0002ba0
 868:	00000048 	andeq	r0, r0, r8, asr #32
 86c:	84040e44 	strhi	r0, [r4], #-3652	; 0xe44
 870:	00000001 	andeq	r0, r0, r1
 874:	00000014 	andeq	r0, r0, r4, lsl r0
 878:	000007f0 	strdeq	r0, [r0], -r0	; <UNPREDICTABLE>
 87c:	f0002be8 			; <UNDEFINED> instruction: 0xf0002be8
 880:	00000054 	andeq	r0, r0, r4, asr r0
 884:	84040e4c 	strhi	r0, [r4], #-3660	; 0xe4c
 888:	00000001 	andeq	r0, r0, r1
 88c:	00000014 	andeq	r0, r0, r4, lsl r0
 890:	000007f0 	strdeq	r0, [r0], -r0	; <UNPREDICTABLE>
 894:	f0002c3c 			; <UNDEFINED> instruction: 0xf0002c3c
 898:	00000048 	andeq	r0, r0, r8, asr #32
 89c:	85080e4a 	strhi	r0, [r8, #-3658]	; 0xe4a
 8a0:	00028401 	andeq	r8, r2, r1, lsl #8
 8a4:	0000000c 	andeq	r0, r0, ip
 8a8:	000007f0 	strdeq	r0, [r0], -r0	; <UNPREDICTABLE>
 8ac:	f0002c84 			; <UNDEFINED> instruction: 0xf0002c84
 8b0:	000000b4 	strheq	r0, [r0], -r4
 8b4:	0000000c 	andeq	r0, r0, ip
 8b8:	000007f0 	strdeq	r0, [r0], -r0	; <UNPREDICTABLE>
 8bc:	f0002d38 			; <UNDEFINED> instruction: 0xf0002d38
 8c0:	00000090 	muleq	r0, r0, r0
 8c4:	00000014 	andeq	r0, r0, r4, lsl r0
 8c8:	000007f0 	strdeq	r0, [r0], -r0	; <UNPREDICTABLE>
 8cc:	f0002dc8 			; <UNDEFINED> instruction: 0xf0002dc8
 8d0:	0000005c 	andeq	r0, r0, ip, asr r0
 8d4:	84040e44 	strhi	r0, [r4], #-3652	; 0xe44
 8d8:	00000001 	andeq	r0, r0, r1
 8dc:	0000000c 	andeq	r0, r0, ip
 8e0:	ffffffff 			; <UNDEFINED> instruction: 0xffffffff
 8e4:	7c020001 	stcvc	0, cr0, [r2], {1}
 8e8:	000d0c0e 	andeq	r0, sp, lr, lsl #24
 8ec:	00000014 	andeq	r0, r0, r4, lsl r0
 8f0:	000008dc 	ldrdeq	r0, [r0], -ip
 8f4:	f0002e24 			; <UNDEFINED> instruction: 0xf0002e24
 8f8:	0000002c 	andeq	r0, r0, ip, lsr #32
 8fc:	8e080e44 	cdphi	14, 0, cr0, cr8, cr4, {2}
 900:	00028401 	andeq	r8, r2, r1, lsl #8
 904:	00000014 	andeq	r0, r0, r4, lsl r0
 908:	000008dc 	ldrdeq	r0, [r0], -ip
 90c:	f0002e50 			; <UNDEFINED> instruction: 0xf0002e50
 910:	0000002c 	andeq	r0, r0, ip, lsr #32
 914:	8e080e42 	cdphi	14, 0, cr0, cr8, cr2, {2}
 918:	00028301 	andeq	r8, r2, r1, lsl #6
 91c:	00000018 	andeq	r0, r0, r8, lsl r0
 920:	000008dc 	ldrdeq	r0, [r0], -ip
 924:	f0002e7c 			; <UNDEFINED> instruction: 0xf0002e7c
 928:	00000078 	andeq	r0, r0, r8, ror r0
 92c:	8e100e42 	cdphi	14, 1, cr0, cr0, cr2, {2}
 930:	84028501 	strhi	r8, [r2], #-1281	; 0x501
 934:	00048303 	andeq	r8, r4, r3, lsl #6
 938:	00000014 	andeq	r0, r0, r4, lsl r0
 93c:	000008dc 	ldrdeq	r0, [r0], -ip
 940:	f0002ef4 			; <UNDEFINED> instruction: 0xf0002ef4
 944:	00000084 	andeq	r0, r0, r4, lsl #1
 948:	8e080e42 	cdphi	14, 0, cr0, cr8, cr2, {2}
 94c:	00028401 	andeq	r8, r2, r1, lsl #8
 950:	00000018 	andeq	r0, r0, r8, lsl r0
 954:	000008dc 	ldrdeq	r0, [r0], -ip
 958:	f0002f78 			; <UNDEFINED> instruction: 0xf0002f78
 95c:	0000009c 	muleq	r0, ip, r0
 960:	8e100e42 	cdphi	14, 1, cr0, cr0, cr2, {2}
 964:	84028501 	strhi	r8, [r2], #-1281	; 0x501
 968:	00048303 	andeq	r8, r4, r3, lsl #6
 96c:	00000018 	andeq	r0, r0, r8, lsl r0
 970:	000008dc 	ldrdeq	r0, [r0], -ip
 974:	f0003014 			; <UNDEFINED> instruction: 0xf0003014
 978:	00000078 	andeq	r0, r0, r8, ror r0
 97c:	8e100e42 	cdphi	14, 1, cr0, cr0, cr2, {2}
 980:	84028501 	strhi	r8, [r2], #-1281	; 0x501
 984:	00048303 	andeq	r8, r4, r3, lsl #6
 988:	0000000c 	andeq	r0, r0, ip
 98c:	ffffffff 			; <UNDEFINED> instruction: 0xffffffff
 990:	7c020001 	stcvc	0, cr0, [r2], {1}
 994:	000d0c0e 	andeq	r0, sp, lr, lsl #24
 998:	0000000c 	andeq	r0, r0, ip
 99c:	00000988 	andeq	r0, r0, r8, lsl #19
 9a0:	f000308c 			; <UNDEFINED> instruction: 0xf000308c
 9a4:	00000008 	andeq	r0, r0, r8
 9a8:	0000000c 	andeq	r0, r0, ip
 9ac:	00000988 	andeq	r0, r0, r8, lsl #19
 9b0:	f0003094 			; <UNDEFINED> instruction: 0xf0003094
 9b4:	00000008 	andeq	r0, r0, r8
 9b8:	00000010 	andeq	r0, r0, r0, lsl r0
 9bc:	00000988 	andeq	r0, r0, r8, lsl #19
 9c0:	f000309c 			; <UNDEFINED> instruction: 0xf000309c
 9c4:	000000c4 	andeq	r0, r0, r4, asr #1
 9c8:	00080e44 	andeq	r0, r8, r4, asr #28
 9cc:	00000010 	andeq	r0, r0, r0, lsl r0
 9d0:	00000988 	andeq	r0, r0, r8, lsl #19
 9d4:	f0003160 			; <UNDEFINED> instruction: 0xf0003160
 9d8:	000000a4 	andeq	r0, r0, r4, lsr #1
 9dc:	00080e44 	andeq	r0, r8, r4, asr #28
 9e0:	00000010 	andeq	r0, r0, r0, lsl r0
 9e4:	00000988 	andeq	r0, r0, r8, lsl #19
 9e8:	f0003204 			; <UNDEFINED> instruction: 0xf0003204
 9ec:	00000054 	andeq	r0, r0, r4, asr r0
 9f0:	00080e44 	andeq	r0, r8, r4, asr #28
 9f4:	00000010 	andeq	r0, r0, r0, lsl r0
 9f8:	00000988 	andeq	r0, r0, r8, lsl #19
 9fc:	f0003258 			; <UNDEFINED> instruction: 0xf0003258
 a00:	0000002c 	andeq	r0, r0, ip, lsr #32
 a04:	00080e44 	andeq	r0, r8, r4, asr #28
 a08:	0000000c 	andeq	r0, r0, ip
 a0c:	00000988 	andeq	r0, r0, r8, lsl #19
 a10:	f0003284 			; <UNDEFINED> instruction: 0xf0003284
 a14:	00000020 	andeq	r0, r0, r0, lsr #32
 a18:	00000010 	andeq	r0, r0, r0, lsl r0
 a1c:	00000988 	andeq	r0, r0, r8, lsl #19
 a20:	f00032a4 			; <UNDEFINED> instruction: 0xf00032a4
 a24:	000000ec 	andeq	r0, r0, ip, ror #1
 a28:	00080e44 	andeq	r0, r8, r4, asr #28
 a2c:	0000000c 	andeq	r0, r0, ip
 a30:	00000988 	andeq	r0, r0, r8, lsl #19
 a34:	f0003390 			; <UNDEFINED> instruction: 0xf0003390
 a38:	00000034 	andeq	r0, r0, r4, lsr r0
 a3c:	0000000c 	andeq	r0, r0, ip
 a40:	ffffffff 			; <UNDEFINED> instruction: 0xffffffff
 a44:	7c020001 	stcvc	0, cr0, [r2], {1}
 a48:	000d0c0e 	andeq	r0, sp, lr, lsl #24
 a4c:	0000000c 	andeq	r0, r0, ip
 a50:	00000a3c 	andeq	r0, r0, ip, lsr sl
 a54:	f00033c4 			; <UNDEFINED> instruction: 0xf00033c4
 a58:	00000008 	andeq	r0, r0, r8
 a5c:	0000000c 	andeq	r0, r0, ip
 a60:	00000a3c 	andeq	r0, r0, ip, lsr sl
 a64:	f00033cc 			; <UNDEFINED> instruction: 0xf00033cc
 a68:	00000008 	andeq	r0, r0, r8
 a6c:	0000000c 	andeq	r0, r0, ip
 a70:	00000a3c 	andeq	r0, r0, ip, lsr sl
 a74:	f00033d4 			; <UNDEFINED> instruction: 0xf00033d4
 a78:	00000024 	andeq	r0, r0, r4, lsr #32
 a7c:	0000000c 	andeq	r0, r0, ip
 a80:	00000a3c 	andeq	r0, r0, ip, lsr sl
 a84:	f00033f8 			; <UNDEFINED> instruction: 0xf00033f8
 a88:	00000020 	andeq	r0, r0, r0, lsr #32
 a8c:	0000000c 	andeq	r0, r0, ip
 a90:	ffffffff 			; <UNDEFINED> instruction: 0xffffffff
 a94:	7c020001 	stcvc	0, cr0, [r2], {1}
 a98:	000d0c0e 	andeq	r0, sp, lr, lsl #24
 a9c:	0000000c 	andeq	r0, r0, ip
 aa0:	00000a8c 	andeq	r0, r0, ip, lsl #21
 aa4:	f0003418 			; <UNDEFINED> instruction: 0xf0003418
 aa8:	00000028 	andeq	r0, r0, r8, lsr #32
 aac:	0000000c 	andeq	r0, r0, ip
 ab0:	00000a8c 	andeq	r0, r0, ip, lsl #21
 ab4:	f0003440 			; <UNDEFINED> instruction: 0xf0003440
 ab8:	00000008 	andeq	r0, r0, r8
 abc:	00000018 	andeq	r0, r0, r8, lsl r0
 ac0:	00000a8c 	andeq	r0, r0, ip, lsl #21
 ac4:	f0003448 			; <UNDEFINED> instruction: 0xf0003448
 ac8:	00000094 	muleq	r0, r4, r0
 acc:	8e100e42 	cdphi	14, 1, cr0, cr0, cr2, {2}
 ad0:	84028501 	strhi	r8, [r2], #-1281	; 0x501
 ad4:	00048303 	andeq	r8, r4, r3, lsl #6
 ad8:	00000014 	andeq	r0, r0, r4, lsl r0
 adc:	00000a8c 	andeq	r0, r0, ip, lsl #21
 ae0:	f00034dc 			; <UNDEFINED> instruction: 0xf00034dc
 ae4:	0000002c 	andeq	r0, r0, ip, lsr #32
 ae8:	8e080e42 	cdphi	14, 0, cr0, cr8, cr2, {2}
 aec:	00028401 	andeq	r8, r2, r1, lsl #8
 af0:	0000000c 	andeq	r0, r0, ip
 af4:	ffffffff 			; <UNDEFINED> instruction: 0xffffffff
 af8:	7c020001 	stcvc	0, cr0, [r2], {1}
 afc:	000d0c0e 	andeq	r0, sp, lr, lsl #24
 b00:	0000000c 	andeq	r0, r0, ip
 b04:	00000af0 	strdeq	r0, [r0], -r0	; <UNPREDICTABLE>
 b08:	f0003508 			; <UNDEFINED> instruction: 0xf0003508
 b0c:	00000030 	andeq	r0, r0, r0, lsr r0
 b10:	00000014 	andeq	r0, r0, r4, lsl r0
 b14:	00000af0 	strdeq	r0, [r0], -r0	; <UNPREDICTABLE>
 b18:	f0003538 			; <UNDEFINED> instruction: 0xf0003538
 b1c:	0000007c 	andeq	r0, r0, ip, ror r0
 b20:	8e080e42 	cdphi	14, 0, cr0, cr8, cr2, {2}
 b24:	00028301 	andeq	r8, r2, r1, lsl #6
 b28:	0000000c 	andeq	r0, r0, ip
 b2c:	00000af0 	strdeq	r0, [r0], -r0	; <UNPREDICTABLE>
 b30:	f00035b4 			; <UNDEFINED> instruction: 0xf00035b4
 b34:	00000030 	andeq	r0, r0, r0, lsr r0
 b38:	0000000c 	andeq	r0, r0, ip
 b3c:	00000af0 	strdeq	r0, [r0], -r0	; <UNPREDICTABLE>
 b40:	f00035e4 			; <UNDEFINED> instruction: 0xf00035e4
 b44:	0000006c 	andeq	r0, r0, ip, rrx
 b48:	0000000c 	andeq	r0, r0, ip
 b4c:	00000af0 	strdeq	r0, [r0], -r0	; <UNPREDICTABLE>
 b50:	f0003650 			; <UNDEFINED> instruction: 0xf0003650
 b54:	00000030 	andeq	r0, r0, r0, lsr r0
